
Automotive.elf:     file format elf32-littlearm

Sections:
Idx Name          Size      VMA       LMA       File off  Algn
  0 .isr_vector   0000013c  08000000  08000000  00010000  2**0
                  CONTENTS, ALLOC, LOAD, READONLY, DATA
  1 .text         00005f78  08000140  08000140  00010140  2**4
                  CONTENTS, ALLOC, LOAD, READONLY, CODE
  2 .rodata       0000037c  080060b8  080060b8  000160b8  2**2
                  CONTENTS, ALLOC, LOAD, READONLY, DATA
  3 .ARM.extab    00000000  08006434  08006434  00020010  2**0
                  CONTENTS
  4 .ARM          00000000  08006434  08006434  00020010  2**0
                  CONTENTS
  5 .preinit_array 00000000  08006434  08006434  00020010  2**0
                  CONTENTS, ALLOC, LOAD, DATA
  6 .init_array   00000004  08006434  08006434  00016434  2**2
                  CONTENTS, ALLOC, LOAD, DATA
  7 .fini_array   00000004  08006438  08006438  00016438  2**2
                  CONTENTS, ALLOC, LOAD, DATA
  8 .data         00000010  20000000  0800643c  00020000  2**2
                  CONTENTS, ALLOC, LOAD, DATA
  9 .bss          0000385c  20000010  0800644c  00020010  2**2
                  ALLOC
 10 ._user_heap_stack 00000604  2000386c  0800644c  0002386c  2**0
                  ALLOC
 11 .ARM.attributes 00000029  00000000  00000000  00020010  2**0
                  CONTENTS, READONLY
 12 .comment      0000007b  00000000  00000000  00020039  2**0
                  CONTENTS, READONLY
 13 .debug_frame  00000074  00000000  00000000  000200b4  2**2
                  CONTENTS, READONLY, DEBUGGING

Disassembly of section .text:

08000140 <__do_global_dtors_aux>:
 8000140:	b510      	push	{r4, lr}
 8000142:	4c05      	ldr	r4, [pc, #20]	; (8000158 <__do_global_dtors_aux+0x18>)
 8000144:	7823      	ldrb	r3, [r4, #0]
 8000146:	b933      	cbnz	r3, 8000156 <__do_global_dtors_aux+0x16>
 8000148:	4b04      	ldr	r3, [pc, #16]	; (800015c <__do_global_dtors_aux+0x1c>)
 800014a:	b113      	cbz	r3, 8000152 <__do_global_dtors_aux+0x12>
 800014c:	4804      	ldr	r0, [pc, #16]	; (8000160 <__do_global_dtors_aux+0x20>)
 800014e:	f3af 8000 	nop.w
 8000152:	2301      	movs	r3, #1
 8000154:	7023      	strb	r3, [r4, #0]
 8000156:	bd10      	pop	{r4, pc}
 8000158:	20000010 	.word	0x20000010
 800015c:	00000000 	.word	0x00000000
 8000160:	080060a0 	.word	0x080060a0

08000164 <frame_dummy>:
 8000164:	b508      	push	{r3, lr}
 8000166:	4b03      	ldr	r3, [pc, #12]	; (8000174 <frame_dummy+0x10>)
 8000168:	b11b      	cbz	r3, 8000172 <frame_dummy+0xe>
 800016a:	4903      	ldr	r1, [pc, #12]	; (8000178 <frame_dummy+0x14>)
 800016c:	4803      	ldr	r0, [pc, #12]	; (800017c <frame_dummy+0x18>)
 800016e:	f3af 8000 	nop.w
 8000172:	bd08      	pop	{r3, pc}
 8000174:	00000000 	.word	0x00000000
 8000178:	20000014 	.word	0x20000014
 800017c:	080060a0 	.word	0x080060a0

08000180 <h_bridge_set_left_duty>:
 8000180:	ea20 70e0 	bic.w	r0, r0, r0, asr #31
 8000184:	2864      	cmp	r0, #100	; 0x64
 8000186:	bfa8      	it	ge
 8000188:	2064      	movge	r0, #100	; 0x64
 800018a:	4a04      	ldr	r2, [pc, #16]	; (800019c <h_bridge_set_left_duty+0x1c>)
 800018c:	68d3      	ldr	r3, [r2, #12]
 800018e:	6812      	ldr	r2, [r2, #0]
 8000190:	4343      	muls	r3, r0
 8000192:	2064      	movs	r0, #100	; 0x64
 8000194:	fbb3 f3f0 	udiv	r3, r3, r0
 8000198:	6353      	str	r3, [r2, #52]	; 0x34
 800019a:	4770      	bx	lr
 800019c:	20003724 	.word	0x20003724

080001a0 <h_bridge_set_right_duty>:
 80001a0:	ea20 70e0 	bic.w	r0, r0, r0, asr #31
 80001a4:	2864      	cmp	r0, #100	; 0x64
 80001a6:	bfa8      	it	ge
 80001a8:	2064      	movge	r0, #100	; 0x64
 80001aa:	4a04      	ldr	r2, [pc, #16]	; (80001bc <h_bridge_set_right_duty+0x1c>)
 80001ac:	68d3      	ldr	r3, [r2, #12]
 80001ae:	6812      	ldr	r2, [r2, #0]
 80001b0:	4343      	muls	r3, r0
 80001b2:	2064      	movs	r0, #100	; 0x64
 80001b4:	fbb3 f3f0 	udiv	r3, r3, r0
 80001b8:	63d3      	str	r3, [r2, #60]	; 0x3c
 80001ba:	4770      	bx	lr
 80001bc:	200036ac 	.word	0x200036ac

080001c0 <h_bridge_init>:
 80001c0:	b508      	push	{r3, lr}
 80001c2:	2108      	movs	r1, #8
 80001c4:	4807      	ldr	r0, [pc, #28]	; (80001e4 <h_bridge_init+0x24>)
 80001c6:	f003 f9c3 	bl	8003550 <HAL_TIM_PWM_Start>
 80001ca:	2100      	movs	r1, #0
 80001cc:	4806      	ldr	r0, [pc, #24]	; (80001e8 <h_bridge_init+0x28>)
 80001ce:	f003 f9bf 	bl	8003550 <HAL_TIM_PWM_Start>
 80001d2:	2000      	movs	r0, #0
 80001d4:	f7ff ffd4 	bl	8000180 <h_bridge_set_left_duty>
 80001d8:	2000      	movs	r0, #0
 80001da:	f7ff ffe1 	bl	80001a0 <h_bridge_set_right_duty>
 80001de:	2001      	movs	r0, #1
 80001e0:	bd08      	pop	{r3, pc}
 80001e2:	bf00      	nop
 80001e4:	200036ac 	.word	0x200036ac
 80001e8:	20003724 	.word	0x20003724

080001ec <h_bridge_cw_left>:
 80001ec:	b510      	push	{r4, lr}
 80001ee:	4c06      	ldr	r4, [pc, #24]	; (8000208 <h_bridge_cw_left+0x1c>)
 80001f0:	2201      	movs	r2, #1
 80001f2:	4620      	mov	r0, r4
 80001f4:	2102      	movs	r1, #2
 80001f6:	f001 febd 	bl	8001f74 <HAL_GPIO_WritePin>
 80001fa:	4620      	mov	r0, r4
 80001fc:	e8bd 4010 	ldmia.w	sp!, {r4, lr}
 8000200:	2200      	movs	r2, #0
 8000202:	2104      	movs	r1, #4
 8000204:	f001 beb6 	b.w	8001f74 <HAL_GPIO_WritePin>
 8000208:	40020800 	.word	0x40020800

0800020c <h_bridge_cw_right>:
 800020c:	b508      	push	{r3, lr}
 800020e:	2201      	movs	r2, #1
 8000210:	f44f 7180 	mov.w	r1, #256	; 0x100
 8000214:	4805      	ldr	r0, [pc, #20]	; (800022c <h_bridge_cw_right+0x20>)
 8000216:	f001 fead 	bl	8001f74 <HAL_GPIO_WritePin>
 800021a:	e8bd 4008 	ldmia.w	sp!, {r3, lr}
 800021e:	2200      	movs	r2, #0
 8000220:	f44f 7100 	mov.w	r1, #512	; 0x200
 8000224:	4802      	ldr	r0, [pc, #8]	; (8000230 <h_bridge_cw_right+0x24>)
 8000226:	f001 bea5 	b.w	8001f74 <HAL_GPIO_WritePin>
 800022a:	bf00      	nop
 800022c:	40020000 	.word	0x40020000
 8000230:	40020800 	.word	0x40020800

08000234 <h_bridge_ccw_left>:
 8000234:	b510      	push	{r4, lr}
 8000236:	4c06      	ldr	r4, [pc, #24]	; (8000250 <h_bridge_ccw_left+0x1c>)
 8000238:	2200      	movs	r2, #0
 800023a:	4620      	mov	r0, r4
 800023c:	2102      	movs	r1, #2
 800023e:	f001 fe99 	bl	8001f74 <HAL_GPIO_WritePin>
 8000242:	4620      	mov	r0, r4
 8000244:	e8bd 4010 	ldmia.w	sp!, {r4, lr}
 8000248:	2201      	movs	r2, #1
 800024a:	2104      	movs	r1, #4
 800024c:	f001 be92 	b.w	8001f74 <HAL_GPIO_WritePin>
 8000250:	40020800 	.word	0x40020800

08000254 <h_bridge_ccw_right>:
 8000254:	b508      	push	{r3, lr}
 8000256:	2200      	movs	r2, #0
 8000258:	f44f 7180 	mov.w	r1, #256	; 0x100
 800025c:	4805      	ldr	r0, [pc, #20]	; (8000274 <h_bridge_ccw_right+0x20>)
 800025e:	f001 fe89 	bl	8001f74 <HAL_GPIO_WritePin>
 8000262:	e8bd 4008 	ldmia.w	sp!, {r3, lr}
 8000266:	2201      	movs	r2, #1
 8000268:	f44f 7100 	mov.w	r1, #512	; 0x200
 800026c:	4802      	ldr	r0, [pc, #8]	; (8000278 <h_bridge_ccw_right+0x24>)
 800026e:	f001 be81 	b.w	8001f74 <HAL_GPIO_WritePin>
 8000272:	bf00      	nop
 8000274:	40020000 	.word	0x40020000
 8000278:	40020800 	.word	0x40020800

0800027c <h_bridge_coast>:
 800027c:	b510      	push	{r4, lr}
 800027e:	4c0c      	ldr	r4, [pc, #48]	; (80002b0 <h_bridge_coast+0x34>)
 8000280:	2200      	movs	r2, #0
 8000282:	f44f 7180 	mov.w	r1, #256	; 0x100
 8000286:	480b      	ldr	r0, [pc, #44]	; (80002b4 <h_bridge_coast+0x38>)
 8000288:	f001 fe74 	bl	8001f74 <HAL_GPIO_WritePin>
 800028c:	4620      	mov	r0, r4
 800028e:	2200      	movs	r2, #0
 8000290:	f44f 7100 	mov.w	r1, #512	; 0x200
 8000294:	f001 fe6e 	bl	8001f74 <HAL_GPIO_WritePin>
 8000298:	4620      	mov	r0, r4
 800029a:	2200      	movs	r2, #0
 800029c:	2102      	movs	r1, #2
 800029e:	f001 fe69 	bl	8001f74 <HAL_GPIO_WritePin>
 80002a2:	4620      	mov	r0, r4
 80002a4:	e8bd 4010 	ldmia.w	sp!, {r4, lr}
 80002a8:	2200      	movs	r2, #0
 80002aa:	2104      	movs	r1, #4
 80002ac:	f001 be62 	b.w	8001f74 <HAL_GPIO_WritePin>
 80002b0:	40020800 	.word	0x40020800
 80002b4:	40020000 	.word	0x40020000

080002b8 <QMC5883L_Read_Reg>:
 80002b8:	b57f      	push	{r0, r1, r2, r3, r4, r5, r6, lr}
 80002ba:	2301      	movs	r3, #1
 80002bc:	220a      	movs	r2, #10
 80002be:	e9cd 3201 	strd	r3, r2, [sp, #4]
 80002c2:	aa05      	add	r2, sp, #20
 80002c4:	9200      	str	r2, [sp, #0]
 80002c6:	213c      	movs	r1, #60	; 0x3c
 80002c8:	4602      	mov	r2, r0
 80002ca:	4804      	ldr	r0, [pc, #16]	; (80002dc <QMC5883L_Read_Reg+0x24>)
 80002cc:	f002 f9c0 	bl	8002650 <HAL_I2C_Mem_Read>
 80002d0:	f89d 0014 	ldrb.w	r0, [sp, #20]
 80002d4:	b007      	add	sp, #28
 80002d6:	f85d fb04 	ldr.w	pc, [sp], #4
 80002da:	bf00      	nop
 80002dc:	2000361c 	.word	0x2000361c

080002e0 <QMC5883L_Write_Reg>:
 80002e0:	b51f      	push	{r0, r1, r2, r3, r4, lr}
 80002e2:	230a      	movs	r3, #10
 80002e4:	f88d 000c 	strb.w	r0, [sp, #12]
 80002e8:	f88d 100d 	strb.w	r1, [sp, #13]
 80002ec:	9300      	str	r3, [sp, #0]
 80002ee:	aa03      	add	r2, sp, #12
 80002f0:	2302      	movs	r3, #2
 80002f2:	213c      	movs	r1, #60	; 0x3c
 80002f4:	4802      	ldr	r0, [pc, #8]	; (8000300 <QMC5883L_Write_Reg+0x20>)
 80002f6:	f002 f8dd 	bl	80024b4 <HAL_I2C_Master_Transmit>
 80002fa:	b005      	add	sp, #20
 80002fc:	f85d fb04 	ldr.w	pc, [sp], #4
 8000300:	2000361c 	.word	0x2000361c

08000304 <QMC5883L_Read_Data>:
 8000304:	b5f8      	push	{r3, r4, r5, r6, r7, lr}
 8000306:	4607      	mov	r7, r0
 8000308:	2004      	movs	r0, #4
 800030a:	460e      	mov	r6, r1
 800030c:	4615      	mov	r5, r2
 800030e:	f7ff ffd3 	bl	80002b8 <QMC5883L_Read_Reg>
 8000312:	4604      	mov	r4, r0
 8000314:	2003      	movs	r0, #3
 8000316:	f7ff ffcf 	bl	80002b8 <QMC5883L_Read_Reg>
 800031a:	ea44 2000 	orr.w	r0, r4, r0, lsl #8
 800031e:	8038      	strh	r0, [r7, #0]
 8000320:	2008      	movs	r0, #8
 8000322:	f7ff ffc9 	bl	80002b8 <QMC5883L_Read_Reg>
 8000326:	4604      	mov	r4, r0
 8000328:	2007      	movs	r0, #7
 800032a:	f7ff ffc5 	bl	80002b8 <QMC5883L_Read_Reg>
 800032e:	ea44 2000 	orr.w	r0, r4, r0, lsl #8
 8000332:	8030      	strh	r0, [r6, #0]
 8000334:	2006      	movs	r0, #6
 8000336:	f7ff ffbf 	bl	80002b8 <QMC5883L_Read_Reg>
 800033a:	4604      	mov	r4, r0
 800033c:	2005      	movs	r0, #5
 800033e:	f7ff ffbb 	bl	80002b8 <QMC5883L_Read_Reg>
 8000342:	ea44 2000 	orr.w	r0, r4, r0, lsl #8
 8000346:	8028      	strh	r0, [r5, #0]
 8000348:	bdf8      	pop	{r3, r4, r5, r6, r7, pc}

0800034a <QMC5883L_Initialize>:
 800034a:	b5f8      	push	{r3, r4, r5, r6, r7, lr}
 800034c:	4615      	mov	r5, r2
 800034e:	461f      	mov	r7, r3
 8000350:	460c      	mov	r4, r1
 8000352:	4606      	mov	r6, r0
 8000354:	2101      	movs	r1, #1
 8000356:	200b      	movs	r0, #11
 8000358:	f7ff ffc2 	bl	80002e0 <QMC5883L_Write_Reg>
 800035c:	ea45 0107 	orr.w	r1, r5, r7
 8000360:	4321      	orrs	r1, r4
 8000362:	4331      	orrs	r1, r6
 8000364:	2009      	movs	r0, #9
 8000366:	e8bd 40f8 	ldmia.w	sp!, {r3, r4, r5, r6, r7, lr}
 800036a:	f7ff bfb9 	b.w	80002e0 <QMC5883L_Write_Reg>

0800036e <QMC5883L_InterruptConfig>:
 800036e:	2801      	cmp	r0, #1
 8000370:	bf0c      	ite	eq
 8000372:	2100      	moveq	r1, #0
 8000374:	2101      	movne	r1, #1
 8000376:	200a      	movs	r0, #10
 8000378:	f7ff bfb2 	b.w	80002e0 <QMC5883L_Write_Reg>

0800037c <device_init>:
 800037c:	4770      	bx	lr
	...

08000380 <rt_init>:
 8000380:	b573      	push	{r0, r1, r4, r5, r6, lr}
 8000382:	2500      	movs	r5, #0
 8000384:	4c25      	ldr	r4, [pc, #148]	; (800041c <rt_init+0x9c>)
 8000386:	4e26      	ldr	r6, [pc, #152]	; (8000420 <rt_init+0xa0>)
 8000388:	7ca3      	ldrb	r3, [r4, #18]
 800038a:	19a9      	adds	r1, r5, r6
 800038c:	b15b      	cbz	r3, 80003a6 <rt_init+0x26>
 800038e:	8a22      	ldrh	r2, [r4, #16]
 8000390:	9101      	str	r1, [sp, #4]
 8000392:	68e3      	ldr	r3, [r4, #12]
 8000394:	9300      	str	r3, [sp, #0]
 8000396:	e9d4 1301 	ldrd	r1, r3, [r4, #4]
 800039a:	6820      	ldr	r0, [r4, #0]
 800039c:	f004 fdf1 	bl	8004f82 <xTaskCreate>
 80003a0:	2801      	cmp	r0, #1
 80003a2:	d001      	beq.n	80003a8 <rt_init+0x28>
 80003a4:	e7fe      	b.n	80003a4 <rt_init+0x24>
 80003a6:	51ab      	str	r3, [r5, r6]
 80003a8:	3504      	adds	r5, #4
 80003aa:	2d14      	cmp	r5, #20
 80003ac:	f104 0414 	add.w	r4, r4, #20
 80003b0:	d1ea      	bne.n	8000388 <rt_init+0x8>
 80003b2:	4c1c      	ldr	r4, [pc, #112]	; (8000424 <rt_init+0xa4>)
 80003b4:	2200      	movs	r2, #0
 80003b6:	e9d4 0100 	ldrd	r0, r1, [r4]
 80003ba:	f004 fa3a 	bl	8004832 <xQueueGenericCreate>
 80003be:	4d1a      	ldr	r5, [pc, #104]	; (8000428 <rt_init+0xa8>)
 80003c0:	6028      	str	r0, [r5, #0]
 80003c2:	b130      	cbz	r0, 80003d2 <rt_init+0x52>
 80003c4:	e9d4 0104 	ldrd	r0, r1, [r4, #16]
 80003c8:	2200      	movs	r2, #0
 80003ca:	f004 fa32 	bl	8004832 <xQueueGenericCreate>
 80003ce:	6068      	str	r0, [r5, #4]
 80003d0:	b900      	cbnz	r0, 80003d4 <rt_init+0x54>
 80003d2:	e7fe      	b.n	80003d2 <rt_init+0x52>
 80003d4:	4c15      	ldr	r4, [pc, #84]	; (800042c <rt_init+0xac>)
 80003d6:	4d16      	ldr	r5, [pc, #88]	; (8000430 <rt_init+0xb0>)
 80003d8:	68e3      	ldr	r3, [r4, #12]
 80003da:	e9d4 1201 	ldrd	r1, r2, [r4, #4]
 80003de:	9300      	str	r3, [sp, #0]
 80003e0:	6820      	ldr	r0, [r4, #0]
 80003e2:	2300      	movs	r3, #0
 80003e4:	f005 fa3c 	bl	8005860 <xTimerCreate>
 80003e8:	6028      	str	r0, [r5, #0]
 80003ea:	b148      	cbz	r0, 8000400 <rt_init+0x80>
 80003ec:	e9d4 1205 	ldrd	r1, r2, [r4, #20]
 80003f0:	69e3      	ldr	r3, [r4, #28]
 80003f2:	6920      	ldr	r0, [r4, #16]
 80003f4:	9300      	str	r3, [sp, #0]
 80003f6:	2300      	movs	r3, #0
 80003f8:	f005 fa32 	bl	8005860 <xTimerCreate>
 80003fc:	6068      	str	r0, [r5, #4]
 80003fe:	b900      	cbnz	r0, 8000402 <rt_init+0x82>
 8000400:	e7fe      	b.n	8000400 <rt_init+0x80>
 8000402:	2400      	movs	r4, #0
 8000404:	4d0b      	ldr	r5, [pc, #44]	; (8000434 <rt_init+0xb4>)
 8000406:	f003 ffd5 	bl	80043b4 <xEventGroupCreate>
 800040a:	f845 0024 	str.w	r0, [r5, r4, lsl #2]
 800040e:	b900      	cbnz	r0, 8000412 <rt_init+0x92>
 8000410:	e7fe      	b.n	8000410 <rt_init+0x90>
 8000412:	3401      	adds	r4, #1
 8000414:	2c04      	cmp	r4, #4
 8000416:	d1f6      	bne.n	8000406 <rt_init+0x86>
 8000418:	b002      	add	sp, #8
 800041a:	bd70      	pop	{r4, r5, r6, pc}
 800041c:	080060d8 	.word	0x080060d8
 8000420:	2000353c 	.word	0x2000353c
 8000424:	080060b8 	.word	0x080060b8
 8000428:	20003568 	.word	0x20003568
 800042c:	0800613c 	.word	0x0800613c
 8000430:	20003550 	.word	0x20003550
 8000434:	20003558 	.word	0x20003558

08000438 <rt_evbitwait_any>:
 8000438:	f04f 33ff 	mov.w	r3, #4294967295
 800043c:	b513      	push	{r0, r1, r4, lr}
 800043e:	4c06      	ldr	r4, [pc, #24]	; (8000458 <rt_evbitwait_any+0x20>)
 8000440:	9300      	str	r3, [sp, #0]
 8000442:	2201      	movs	r2, #1
 8000444:	2300      	movs	r3, #0
 8000446:	f06f 417f 	mvn.w	r1, #4278190080	; 0xff000000
 800044a:	f854 0020 	ldr.w	r0, [r4, r0, lsl #2]
 800044e:	f003 ffbf 	bl	80043d0 <xEventGroupWaitBits>
 8000452:	b002      	add	sp, #8
 8000454:	bd10      	pop	{r4, pc}
 8000456:	bf00      	nop
 8000458:	20003558 	.word	0x20003558

0800045c <rt_evbit_set>:
 800045c:	2301      	movs	r3, #1
 800045e:	fa03 f101 	lsl.w	r1, r3, r1
 8000462:	4b02      	ldr	r3, [pc, #8]	; (800046c <rt_evbit_set+0x10>)
 8000464:	f853 0020 	ldr.w	r0, [r3, r0, lsl #2]
 8000468:	f004 b83c 	b.w	80044e4 <xEventGroupSetBits>
 800046c:	20003558 	.word	0x20003558

08000470 <rt_evbit_set_from_ISR>:
 8000470:	2301      	movs	r3, #1
 8000472:	fa03 f101 	lsl.w	r1, r3, r1
 8000476:	4b03      	ldr	r3, [pc, #12]	; (8000484 <rt_evbit_set_from_ISR+0x14>)
 8000478:	2200      	movs	r2, #0
 800047a:	f853 0020 	ldr.w	r0, [r3, r0, lsl #2]
 800047e:	f004 b877 	b.w	8004570 <xEventGroupSetBitsFromISR>
 8000482:	bf00      	nop
 8000484:	20003558 	.word	0x20003558

08000488 <rt_enqueue_ISR>:
 8000488:	4b07      	ldr	r3, [pc, #28]	; (80004a8 <rt_enqueue_ISR+0x20>)
 800048a:	b507      	push	{r0, r1, r2, lr}
 800048c:	f853 0020 	ldr.w	r0, [r3, r0, lsl #2]
 8000490:	2300      	movs	r3, #0
 8000492:	aa02      	add	r2, sp, #8
 8000494:	f842 3d04 	str.w	r3, [r2, #-4]!
 8000498:	f004 faa4 	bl	80049e4 <xQueueGenericSendFromISR>
 800049c:	1e43      	subs	r3, r0, #1
 800049e:	4258      	negs	r0, r3
 80004a0:	4158      	adcs	r0, r3
 80004a2:	b003      	add	sp, #12
 80004a4:	f85d fb04 	ldr.w	pc, [sp], #4
 80004a8:	20003568 	.word	0x20003568

080004ac <rt_dequeue>:
 80004ac:	b508      	push	{r3, lr}
 80004ae:	4b06      	ldr	r3, [pc, #24]	; (80004c8 <rt_dequeue+0x1c>)
 80004b0:	eb03 1300 	add.w	r3, r3, r0, lsl #4
 80004b4:	68da      	ldr	r2, [r3, #12]
 80004b6:	4b05      	ldr	r3, [pc, #20]	; (80004cc <rt_dequeue+0x20>)
 80004b8:	f853 0020 	ldr.w	r0, [r3, r0, lsl #2]
 80004bc:	f004 faf4 	bl	8004aa8 <xQueueReceive>
 80004c0:	1e43      	subs	r3, r0, #1
 80004c2:	4258      	negs	r0, r3
 80004c4:	4158      	adcs	r0, r3
 80004c6:	bd08      	pop	{r3, pc}
 80004c8:	080060b8 	.word	0x080060b8
 80004cc:	20003568 	.word	0x20003568

080004d0 <rt_timer_start>:
 80004d0:	4b09      	ldr	r3, [pc, #36]	; (80004f8 <rt_timer_start+0x28>)
 80004d2:	b537      	push	{r0, r1, r2, r4, r5, lr}
 80004d4:	460d      	mov	r5, r1
 80004d6:	f853 4020 	ldr.w	r4, [r3, r0, lsl #2]
 80004da:	f004 fdcb 	bl	8005074 <xTaskGetTickCount>
 80004de:	9500      	str	r5, [sp, #0]
 80004e0:	4602      	mov	r2, r0
 80004e2:	2300      	movs	r3, #0
 80004e4:	2101      	movs	r1, #1
 80004e6:	4620      	mov	r0, r4
 80004e8:	f005 f9e2 	bl	80058b0 <xTimerGenericCommand>
 80004ec:	3000      	adds	r0, #0
 80004ee:	bf18      	it	ne
 80004f0:	2001      	movne	r0, #1
 80004f2:	b003      	add	sp, #12
 80004f4:	bd30      	pop	{r4, r5, pc}
 80004f6:	bf00      	nop
 80004f8:	20003550 	.word	0x20003550

080004fc <rt_timer_start_ISR>:
 80004fc:	4b09      	ldr	r3, [pc, #36]	; (8000524 <rt_timer_start_ISR+0x28>)
 80004fe:	b537      	push	{r0, r1, r2, r4, r5, lr}
 8000500:	460d      	mov	r5, r1
 8000502:	f853 4020 	ldr.w	r4, [r3, r0, lsl #2]
 8000506:	f004 fdbb 	bl	8005080 <xTaskGetTickCountFromISR>
 800050a:	2300      	movs	r3, #0
 800050c:	4602      	mov	r2, r0
 800050e:	9300      	str	r3, [sp, #0]
 8000510:	2106      	movs	r1, #6
 8000512:	462b      	mov	r3, r5
 8000514:	4620      	mov	r0, r4
 8000516:	f005 f9cb 	bl	80058b0 <xTimerGenericCommand>
 800051a:	3000      	adds	r0, #0
 800051c:	bf18      	it	ne
 800051e:	2001      	movne	r0, #1
 8000520:	b003      	add	sp, #12
 8000522:	bd30      	pop	{r4, r5, pc}
 8000524:	20003550 	.word	0x20003550

08000528 <timer_BLE>:
 8000528:	2203      	movs	r2, #3
 800052a:	4902      	ldr	r1, [pc, #8]	; (8000534 <timer_BLE+0xc>)
 800052c:	4802      	ldr	r0, [pc, #8]	; (8000538 <timer_BLE+0x10>)
 800052e:	f003 bde3 	b.w	80040f8 <HAL_UART_Receive_DMA>
 8000532:	bf00      	nop
 8000534:	20003573 	.word	0x20003573
 8000538:	200037a4 	.word	0x200037a4

0800053c <HAL_UART_RxCpltCallback>:
 800053c:	b507      	push	{r0, r1, r2, lr}
 800053e:	2000      	movs	r0, #0
 8000540:	4b08      	ldr	r3, [pc, #32]	; (8000564 <HAL_UART_RxCpltCallback+0x28>)
 8000542:	f8ad 0004 	strh.w	r0, [sp, #4]
 8000546:	781a      	ldrb	r2, [r3, #0]
 8000548:	a901      	add	r1, sp, #4
 800054a:	f88d 2005 	strb.w	r2, [sp, #5]
 800054e:	785a      	ldrb	r2, [r3, #1]
 8000550:	789b      	ldrb	r3, [r3, #2]
 8000552:	f88d 2006 	strb.w	r2, [sp, #6]
 8000556:	f88d 3007 	strb.w	r3, [sp, #7]
 800055a:	f7ff ff95 	bl	8000488 <rt_enqueue_ISR>
 800055e:	b003      	add	sp, #12
 8000560:	f85d fb04 	ldr.w	pc, [sp], #4
 8000564:	20003573 	.word	0x20003573

08000568 <HAL_UART_ErrorCallback>:
 8000568:	bf00      	nop
 800056a:	4770      	bx	lr

0800056c <task_ble>:
 800056c:	2300      	movs	r3, #0
 800056e:	b573      	push	{r0, r1, r4, r5, r6, lr}
 8000570:	4e2d      	ldr	r6, [pc, #180]	; (8000628 <task_ble+0xbc>)
 8000572:	9301      	str	r3, [sp, #4]
 8000574:	f8ad 3000 	strh.w	r3, [sp]
 8000578:	f88d 3002 	strb.w	r3, [sp, #2]
 800057c:	a901      	add	r1, sp, #4
 800057e:	2000      	movs	r0, #0
 8000580:	f7ff ff94 	bl	80004ac <rt_dequeue>
 8000584:	2800      	cmp	r0, #0
 8000586:	d0f9      	beq.n	800057c <task_ble+0x10>
 8000588:	f89d 0004 	ldrb.w	r0, [sp, #4]
 800058c:	b958      	cbnz	r0, 80005a6 <task_ble+0x3a>
 800058e:	f89d 3005 	ldrb.w	r3, [sp, #5]
 8000592:	2b02      	cmp	r3, #2
 8000594:	d01e      	beq.n	80005d4 <task_ble+0x68>
 8000596:	2b03      	cmp	r3, #3
 8000598:	d01f      	beq.n	80005da <task_ble+0x6e>
 800059a:	2b01      	cmp	r3, #1
 800059c:	d13f      	bne.n	800061e <task_ble+0xb2>
 800059e:	4601      	mov	r1, r0
 80005a0:	4618      	mov	r0, r3
 80005a2:	f7ff ff5b 	bl	800045c <rt_evbit_set>
 80005a6:	f89d 3004 	ldrb.w	r3, [sp, #4]
 80005aa:	2b01      	cmp	r3, #1
 80005ac:	d1e6      	bne.n	800057c <task_ble+0x10>
 80005ae:	f89d 3005 	ldrb.w	r3, [sp, #5]
 80005b2:	2203      	movs	r2, #3
 80005b4:	f88d 3000 	strb.w	r3, [sp]
 80005b8:	f89d 3006 	ldrb.w	r3, [sp, #6]
 80005bc:	4669      	mov	r1, sp
 80005be:	f88d 3001 	strb.w	r3, [sp, #1]
 80005c2:	f89d 3007 	ldrb.w	r3, [sp, #7]
 80005c6:	4630      	mov	r0, r6
 80005c8:	f88d 3002 	strb.w	r3, [sp, #2]
 80005cc:	230a      	movs	r3, #10
 80005ce:	f003 fd39 	bl	8004044 <HAL_UART_Transmit>
 80005d2:	e7d3      	b.n	800057c <task_ble+0x10>
 80005d4:	2101      	movs	r1, #1
 80005d6:	4608      	mov	r0, r1
 80005d8:	e7e3      	b.n	80005a2 <task_ble+0x36>
 80005da:	f89d 0006 	ldrb.w	r0, [sp, #6]
 80005de:	f89d 4007 	ldrb.w	r4, [sp, #7]
 80005e2:	f000 f8fb 	bl	80007dc <u2_to_decimal>
 80005e6:	4605      	mov	r5, r0
 80005e8:	4620      	mov	r0, r4
 80005ea:	f000 f8f7 	bl	80007dc <u2_to_decimal>
 80005ee:	2d00      	cmp	r5, #0
 80005f0:	4604      	mov	r4, r0
 80005f2:	da0c      	bge.n	800060e <task_ble+0xa2>
 80005f4:	f7ff fe1e 	bl	8000234 <h_bridge_ccw_left>
 80005f8:	4268      	negs	r0, r5
 80005fa:	f7ff fdc1 	bl	8000180 <h_bridge_set_left_duty>
 80005fe:	2c00      	cmp	r4, #0
 8000600:	da09      	bge.n	8000616 <task_ble+0xaa>
 8000602:	f7ff fe27 	bl	8000254 <h_bridge_ccw_right>
 8000606:	4260      	negs	r0, r4
 8000608:	f7ff fdca 	bl	80001a0 <h_bridge_set_right_duty>
 800060c:	e7cb      	b.n	80005a6 <task_ble+0x3a>
 800060e:	f7ff fded 	bl	80001ec <h_bridge_cw_left>
 8000612:	4628      	mov	r0, r5
 8000614:	e7f1      	b.n	80005fa <task_ble+0x8e>
 8000616:	f7ff fdf9 	bl	800020c <h_bridge_cw_right>
 800061a:	4620      	mov	r0, r4
 800061c:	e7f4      	b.n	8000608 <task_ble+0x9c>
 800061e:	a901      	add	r1, sp, #4
 8000620:	f7ff ff44 	bl	80004ac <rt_dequeue>
 8000624:	e7bf      	b.n	80005a6 <task_ble+0x3a>
 8000626:	bf00      	nop
 8000628:	200037a4 	.word	0x200037a4

0800062c <task_eyes>:
 800062c:	e7fe      	b.n	800062c <task_eyes>

0800062e <task_memory>:
 800062e:	b508      	push	{r3, lr}
 8000630:	f44f 7196 	mov.w	r1, #300	; 0x12c
 8000634:	2001      	movs	r0, #1
 8000636:	f7ff ff4b 	bl	80004d0 <rt_timer_start>
 800063a:	e7fe      	b.n	800063a <task_memory+0xc>

0800063c <HAL_GPIO_EXTI_Callback>:
 800063c:	0782      	lsls	r2, r0, #30
 800063e:	b573      	push	{r0, r1, r4, r5, r6, lr}
 8000640:	4606      	mov	r6, r0
 8000642:	d508      	bpl.n	8000656 <HAL_GPIO_EXTI_Callback+0x1a>
 8000644:	4c0f      	ldr	r4, [pc, #60]	; (8000684 <HAL_GPIO_EXTI_Callback+0x48>)
 8000646:	4d10      	ldr	r5, [pc, #64]	; (8000688 <HAL_GPIO_EXTI_Callback+0x4c>)
 8000648:	7823      	ldrb	r3, [r4, #0]
 800064a:	b97b      	cbnz	r3, 800066c <HAL_GPIO_EXTI_Callback+0x30>
 800064c:	f000 fe2c 	bl	80012a8 <HAL_GetTick>
 8000650:	2301      	movs	r3, #1
 8000652:	6028      	str	r0, [r5, #0]
 8000654:	7023      	strb	r3, [r4, #0]
 8000656:	07f3      	lsls	r3, r6, #31
 8000658:	d506      	bpl.n	8000668 <HAL_GPIO_EXTI_Callback+0x2c>
 800065a:	2301      	movs	r3, #1
 800065c:	a902      	add	r1, sp, #8
 800065e:	f841 3d04 	str.w	r3, [r1, #-4]!
 8000662:	2000      	movs	r0, #0
 8000664:	f7ff ff4a 	bl	80004fc <rt_timer_start_ISR>
 8000668:	b002      	add	sp, #8
 800066a:	bd70      	pop	{r4, r5, r6, pc}
 800066c:	f000 fe1c 	bl	80012a8 <HAL_GetTick>
 8000670:	2100      	movs	r1, #0
 8000672:	682b      	ldr	r3, [r5, #0]
 8000674:	7021      	strb	r1, [r4, #0]
 8000676:	1ac0      	subs	r0, r0, r3
 8000678:	6028      	str	r0, [r5, #0]
 800067a:	4608      	mov	r0, r1
 800067c:	f7ff fef8 	bl	8000470 <rt_evbit_set_from_ISR>
 8000680:	e7e9      	b.n	8000656 <HAL_GPIO_EXTI_Callback+0x1a>
 8000682:	bf00      	nop
 8000684:	20000034 	.word	0x20000034
 8000688:	20000030 	.word	0x20000030

0800068c <timer_trigger_temperature_measurement>:
 800068c:	2201      	movs	r2, #1
 800068e:	4902      	ldr	r1, [pc, #8]	; (8000698 <timer_trigger_temperature_measurement+0xc>)
 8000690:	4802      	ldr	r0, [pc, #8]	; (800069c <timer_trigger_temperature_measurement+0x10>)
 8000692:	f001 b8df 	b.w	8001854 <HAL_ADC_Start_DMA>
 8000696:	bf00      	nop
 8000698:	2000002c 	.word	0x2000002c
 800069c:	200035c4 	.word	0x200035c4

080006a0 <HAL_ADC_ConvCpltCallback>:
 80006a0:	b507      	push	{r0, r1, r2, lr}
 80006a2:	2301      	movs	r3, #1
 80006a4:	2000      	movs	r0, #0
 80006a6:	f8ad 0004 	strh.w	r0, [sp, #4]
 80006aa:	f88d 3004 	strb.w	r3, [sp, #4]
 80006ae:	4b06      	ldr	r3, [pc, #24]	; (80006c8 <HAL_ADC_ConvCpltCallback+0x28>)
 80006b0:	a901      	add	r1, sp, #4
 80006b2:	789a      	ldrb	r2, [r3, #2]
 80006b4:	f88d 2006 	strb.w	r2, [sp, #6]
 80006b8:	78db      	ldrb	r3, [r3, #3]
 80006ba:	f88d 3007 	strb.w	r3, [sp, #7]
 80006be:	f7ff fee3 	bl	8000488 <rt_enqueue_ISR>
 80006c2:	b003      	add	sp, #12
 80006c4:	f85d fb04 	ldr.w	pc, [sp], #4
 80006c8:	2000002c 	.word	0x2000002c

080006cc <task_sensors>:
 80006cc:	b57f      	push	{r0, r1, r2, r3, r4, r5, r6, lr}
 80006ce:	2200      	movs	r2, #0
 80006d0:	2380      	movs	r3, #128	; 0x80
 80006d2:	4610      	mov	r0, r2
 80006d4:	210c      	movs	r1, #12
 80006d6:	f7ff fe38 	bl	800034a <QMC5883L_Initialize>
 80006da:	2000      	movs	r0, #0
 80006dc:	f7ff fe47 	bl	800036e <QMC5883L_InterruptConfig>
 80006e0:	2100      	movs	r1, #0
 80006e2:	2002      	movs	r0, #2
 80006e4:	f7ff fdfc 	bl	80002e0 <QMC5883L_Write_Reg>
 80006e8:	2400      	movs	r4, #0
 80006ea:	4d2c      	ldr	r5, [pc, #176]	; (800079c <task_sensors+0xd0>)
 80006ec:	2009      	movs	r0, #9
 80006ee:	f8ad 4006 	strh.w	r4, [sp, #6]
 80006f2:	f8ad 4008 	strh.w	r4, [sp, #8]
 80006f6:	f8ad 400a 	strh.w	r4, [sp, #10]
 80006fa:	f7ff fddd 	bl	80002b8 <QMC5883L_Read_Reg>
 80006fe:	4606      	mov	r6, r0
 8000700:	2007      	movs	r0, #7
 8000702:	f7ff fdd9 	bl	80002b8 <QMC5883L_Read_Reg>
 8000706:	2008      	movs	r0, #8
 8000708:	f7ff fdd6 	bl	80002b8 <QMC5883L_Read_Reg>
 800070c:	07f3      	lsls	r3, r6, #31
 800070e:	d5ed      	bpl.n	80006ec <task_sensors+0x20>
 8000710:	f10d 020a 	add.w	r2, sp, #10
 8000714:	a902      	add	r1, sp, #8
 8000716:	f10d 0006 	add.w	r0, sp, #6
 800071a:	f7ff fdf3 	bl	8000304 <QMC5883L_Read_Data>
 800071e:	2301      	movs	r3, #1
 8000720:	f88d 300c 	strb.w	r3, [sp, #12]
 8000724:	2305      	movs	r3, #5
 8000726:	f9bd 0006 	ldrsh.w	r0, [sp, #6]
 800072a:	f88d 300d 	strb.w	r3, [sp, #13]
 800072e:	f8ad 400e 	strh.w	r4, [sp, #14]
 8000732:	f000 f859 	bl	80007e8 <int16_to_u2>
 8000736:	b283      	uxth	r3, r0
 8000738:	a903      	add	r1, sp, #12
 800073a:	802b      	strh	r3, [r5, #0]
 800073c:	f88d 000f 	strb.w	r0, [sp, #15]
 8000740:	f3c3 2307 	ubfx	r3, r3, #8, #8
 8000744:	2000      	movs	r0, #0
 8000746:	f88d 300e 	strb.w	r3, [sp, #14]
 800074a:	f7ff fe9d 	bl	8000488 <rt_enqueue_ISR>
 800074e:	2306      	movs	r3, #6
 8000750:	f9bd 0008 	ldrsh.w	r0, [sp, #8]
 8000754:	f88d 300d 	strb.w	r3, [sp, #13]
 8000758:	f000 f846 	bl	80007e8 <int16_to_u2>
 800075c:	b283      	uxth	r3, r0
 800075e:	a903      	add	r1, sp, #12
 8000760:	802b      	strh	r3, [r5, #0]
 8000762:	f88d 000f 	strb.w	r0, [sp, #15]
 8000766:	f3c3 2307 	ubfx	r3, r3, #8, #8
 800076a:	2000      	movs	r0, #0
 800076c:	f88d 300e 	strb.w	r3, [sp, #14]
 8000770:	f7ff fe8a 	bl	8000488 <rt_enqueue_ISR>
 8000774:	2307      	movs	r3, #7
 8000776:	f9bd 000a 	ldrsh.w	r0, [sp, #10]
 800077a:	f88d 300d 	strb.w	r3, [sp, #13]
 800077e:	f000 f833 	bl	80007e8 <int16_to_u2>
 8000782:	b283      	uxth	r3, r0
 8000784:	802b      	strh	r3, [r5, #0]
 8000786:	f88d 000f 	strb.w	r0, [sp, #15]
 800078a:	f3c3 2307 	ubfx	r3, r3, #8, #8
 800078e:	a903      	add	r1, sp, #12
 8000790:	2000      	movs	r0, #0
 8000792:	f88d 300e 	strb.w	r3, [sp, #14]
 8000796:	f7ff fe77 	bl	8000488 <rt_enqueue_ISR>
 800079a:	e7a7      	b.n	80006ec <task_sensors+0x20>
 800079c:	2000357c 	.word	0x2000357c

080007a0 <task_state_machine>:
 80007a0:	b538      	push	{r3, r4, r5, lr}
 80007a2:	4c0d      	ldr	r4, [pc, #52]	; (80007d8 <task_state_machine+0x38>)
 80007a4:	2001      	movs	r0, #1
 80007a6:	f7ff fe47 	bl	8000438 <rt_evbitwait_any>
 80007aa:	07c2      	lsls	r2, r0, #31
 80007ac:	4605      	mov	r5, r0
 80007ae:	d507      	bpl.n	80007c0 <task_state_machine+0x20>
 80007b0:	f7ff fd64 	bl	800027c <h_bridge_coast>
 80007b4:	2000      	movs	r0, #0
 80007b6:	f7ff fce3 	bl	8000180 <h_bridge_set_left_duty>
 80007ba:	2000      	movs	r0, #0
 80007bc:	f7ff fcf0 	bl	80001a0 <h_bridge_set_right_duty>
 80007c0:	07ab      	lsls	r3, r5, #30
 80007c2:	d5ef      	bpl.n	80007a4 <task_state_machine+0x4>
 80007c4:	6860      	ldr	r0, [r4, #4]
 80007c6:	f004 fdd9 	bl	800537c <vTaskSuspend>
 80007ca:	68a0      	ldr	r0, [r4, #8]
 80007cc:	f004 fdd6 	bl	800537c <vTaskSuspend>
 80007d0:	68e0      	ldr	r0, [r4, #12]
 80007d2:	f004 fdd3 	bl	800537c <vTaskSuspend>
 80007d6:	e7e5      	b.n	80007a4 <task_state_machine+0x4>
 80007d8:	2000353c 	.word	0x2000353c

080007dc <u2_to_decimal>:
 80007dc:	0603      	lsls	r3, r0, #24
 80007de:	bf42      	ittt	mi
 80007e0:	4240      	negmi	r0, r0
 80007e2:	b2c0      	uxtbmi	r0, r0
 80007e4:	4240      	negmi	r0, r0
 80007e6:	4770      	bx	lr

080007e8 <int16_to_u2>:
 80007e8:	b280      	uxth	r0, r0
 80007ea:	4770      	bx	lr

080007ec <MX_ADC_Init>:
 80007ec:	b51f      	push	{r0, r1, r2, r3, r4, lr}
 80007ee:	2300      	movs	r3, #0
 80007f0:	4815      	ldr	r0, [pc, #84]	; (8000848 <MX_ADC_Init+0x5c>)
 80007f2:	4a16      	ldr	r2, [pc, #88]	; (800084c <MX_ADC_Init+0x60>)
 80007f4:	2401      	movs	r4, #1
 80007f6:	e9c0 2300 	strd	r2, r3, [r0]
 80007fa:	2210      	movs	r2, #16
 80007fc:	e9cd 3301 	strd	r3, r3, [sp, #4]
 8000800:	9303      	str	r3, [sp, #12]
 8000802:	e9c0 3302 	strd	r3, r3, [r0, #8]
 8000806:	e9c0 3304 	strd	r3, r3, [r0, #16]
 800080a:	e9c0 3306 	strd	r3, r3, [r0, #24]
 800080e:	6203      	str	r3, [r0, #32]
 8000810:	f880 3024 	strb.w	r3, [r0, #36]	; 0x24
 8000814:	6284      	str	r4, [r0, #40]	; 0x28
 8000816:	f880 302c 	strb.w	r3, [r0, #44]	; 0x2c
 800081a:	e9c0 230d 	strd	r2, r3, [r0, #52]	; 0x34
 800081e:	f880 303c 	strb.w	r3, [r0, #60]	; 0x3c
 8000822:	f000 fd47 	bl	80012b4 <HAL_ADC_Init>
 8000826:	b108      	cbz	r0, 800082c <MX_ADC_Init+0x40>
 8000828:	f000 fa44 	bl	8000cb4 <Error_Handler>
 800082c:	2300      	movs	r3, #0
 800082e:	a901      	add	r1, sp, #4
 8000830:	4805      	ldr	r0, [pc, #20]	; (8000848 <MX_ADC_Init+0x5c>)
 8000832:	e9cd 4401 	strd	r4, r4, [sp, #4]
 8000836:	9303      	str	r3, [sp, #12]
 8000838:	f000 ff00 	bl	800163c <HAL_ADC_ConfigChannel>
 800083c:	b108      	cbz	r0, 8000842 <MX_ADC_Init+0x56>
 800083e:	f000 fa39 	bl	8000cb4 <Error_Handler>
 8000842:	b004      	add	sp, #16
 8000844:	bd10      	pop	{r4, pc}
 8000846:	bf00      	nop
 8000848:	200035c4 	.word	0x200035c4
 800084c:	40012400 	.word	0x40012400

08000850 <HAL_ADC_MspInit>:
 8000850:	2214      	movs	r2, #20
 8000852:	b570      	push	{r4, r5, r6, lr}
 8000854:	4606      	mov	r6, r0
 8000856:	b08a      	sub	sp, #40	; 0x28
 8000858:	eb0d 0002 	add.w	r0, sp, r2
 800085c:	2100      	movs	r1, #0
 800085e:	f005 fc16 	bl	800608e <memset>
 8000862:	6832      	ldr	r2, [r6, #0]
 8000864:	4b2c      	ldr	r3, [pc, #176]	; (8000918 <HAL_ADC_MspInit+0xc8>)
 8000866:	429a      	cmp	r2, r3
 8000868:	d153      	bne.n	8000912 <HAL_ADC_MspInit+0xc2>
 800086a:	f503 338a 	add.w	r3, r3, #70656	; 0x11400
 800086e:	6a1a      	ldr	r2, [r3, #32]
 8000870:	2403      	movs	r4, #3
 8000872:	f442 7200 	orr.w	r2, r2, #512	; 0x200
 8000876:	621a      	str	r2, [r3, #32]
 8000878:	6a1a      	ldr	r2, [r3, #32]
 800087a:	a905      	add	r1, sp, #20
 800087c:	f402 7200 	and.w	r2, r2, #512	; 0x200
 8000880:	9201      	str	r2, [sp, #4]
 8000882:	9a01      	ldr	r2, [sp, #4]
 8000884:	69da      	ldr	r2, [r3, #28]
 8000886:	4825      	ldr	r0, [pc, #148]	; (800091c <HAL_ADC_MspInit+0xcc>)
 8000888:	f042 0204 	orr.w	r2, r2, #4
 800088c:	61da      	str	r2, [r3, #28]
 800088e:	69da      	ldr	r2, [r3, #28]
 8000890:	2500      	movs	r5, #0
 8000892:	f002 0204 	and.w	r2, r2, #4
 8000896:	9202      	str	r2, [sp, #8]
 8000898:	9a02      	ldr	r2, [sp, #8]
 800089a:	69da      	ldr	r2, [r3, #28]
 800089c:	f042 0201 	orr.w	r2, r2, #1
 80008a0:	61da      	str	r2, [r3, #28]
 80008a2:	69da      	ldr	r2, [r3, #28]
 80008a4:	f002 0201 	and.w	r2, r2, #1
 80008a8:	9203      	str	r2, [sp, #12]
 80008aa:	9a03      	ldr	r2, [sp, #12]
 80008ac:	69da      	ldr	r2, [r3, #28]
 80008ae:	f042 0202 	orr.w	r2, r2, #2
 80008b2:	61da      	str	r2, [r3, #28]
 80008b4:	69db      	ldr	r3, [r3, #28]
 80008b6:	f003 0302 	and.w	r3, r3, #2
 80008ba:	9304      	str	r3, [sp, #16]
 80008bc:	9b04      	ldr	r3, [sp, #16]
 80008be:	2301      	movs	r3, #1
 80008c0:	e9cd 3405 	strd	r3, r4, [sp, #20]
 80008c4:	f001 f9fa 	bl	8001cbc <HAL_GPIO_Init>
 80008c8:	2386      	movs	r3, #134	; 0x86
 80008ca:	a905      	add	r1, sp, #20
 80008cc:	4814      	ldr	r0, [pc, #80]	; (8000920 <HAL_ADC_MspInit+0xd0>)
 80008ce:	e9cd 3405 	strd	r3, r4, [sp, #20]
 80008d2:	9507      	str	r5, [sp, #28]
 80008d4:	f001 f9f2 	bl	8001cbc <HAL_GPIO_Init>
 80008d8:	f44f 4300 	mov.w	r3, #32768	; 0x8000
 80008dc:	4811      	ldr	r0, [pc, #68]	; (8000924 <HAL_ADC_MspInit+0xd4>)
 80008de:	a905      	add	r1, sp, #20
 80008e0:	e9cd 3405 	strd	r3, r4, [sp, #20]
 80008e4:	9507      	str	r5, [sp, #28]
 80008e6:	4c10      	ldr	r4, [pc, #64]	; (8000928 <HAL_ADC_MspInit+0xd8>)
 80008e8:	f001 f9e8 	bl	8001cbc <HAL_GPIO_Init>
 80008ec:	4b0f      	ldr	r3, [pc, #60]	; (800092c <HAL_ADC_MspInit+0xdc>)
 80008ee:	4620      	mov	r0, r4
 80008f0:	e9c4 3500 	strd	r3, r5, [r4]
 80008f4:	2380      	movs	r3, #128	; 0x80
 80008f6:	e9c4 3503 	strd	r3, r5, [r4, #12]
 80008fa:	2320      	movs	r3, #32
 80008fc:	60a5      	str	r5, [r4, #8]
 80008fe:	6165      	str	r5, [r4, #20]
 8000900:	e9c4 3506 	strd	r3, r5, [r4, #24]
 8000904:	f001 f888 	bl	8001a18 <HAL_DMA_Init>
 8000908:	b108      	cbz	r0, 800090e <HAL_ADC_MspInit+0xbe>
 800090a:	f000 f9d3 	bl	8000cb4 <Error_Handler>
 800090e:	6474      	str	r4, [r6, #68]	; 0x44
 8000910:	6266      	str	r6, [r4, #36]	; 0x24
 8000912:	b00a      	add	sp, #40	; 0x28
 8000914:	bd70      	pop	{r4, r5, r6, pc}
 8000916:	bf00      	nop
 8000918:	40012400 	.word	0x40012400
 800091c:	40020800 	.word	0x40020800
 8000920:	40020000 	.word	0x40020000
 8000924:	40020400 	.word	0x40020400
 8000928:	20003580 	.word	0x20003580
 800092c:	40026008 	.word	0x40026008

08000930 <MX_DMA_Init>:
 8000930:	4b12      	ldr	r3, [pc, #72]	; (800097c <MX_DMA_Init+0x4c>)
 8000932:	b507      	push	{r0, r1, r2, lr}
 8000934:	69da      	ldr	r2, [r3, #28]
 8000936:	2105      	movs	r1, #5
 8000938:	f042 7280 	orr.w	r2, r2, #16777216	; 0x1000000
 800093c:	61da      	str	r2, [r3, #28]
 800093e:	69db      	ldr	r3, [r3, #28]
 8000940:	2200      	movs	r2, #0
 8000942:	f003 7380 	and.w	r3, r3, #16777216	; 0x1000000
 8000946:	9301      	str	r3, [sp, #4]
 8000948:	200b      	movs	r0, #11
 800094a:	9b01      	ldr	r3, [sp, #4]
 800094c:	f001 f80c 	bl	8001968 <HAL_NVIC_SetPriority>
 8000950:	200b      	movs	r0, #11
 8000952:	f001 f84d 	bl	80019f0 <HAL_NVIC_EnableIRQ>
 8000956:	2200      	movs	r2, #0
 8000958:	2105      	movs	r1, #5
 800095a:	200c      	movs	r0, #12
 800095c:	f001 f804 	bl	8001968 <HAL_NVIC_SetPriority>
 8000960:	200c      	movs	r0, #12
 8000962:	f001 f845 	bl	80019f0 <HAL_NVIC_EnableIRQ>
 8000966:	2200      	movs	r2, #0
 8000968:	2105      	movs	r1, #5
 800096a:	200d      	movs	r0, #13
 800096c:	f000 fffc 	bl	8001968 <HAL_NVIC_SetPriority>
 8000970:	200d      	movs	r0, #13
 8000972:	b003      	add	sp, #12
 8000974:	f85d eb04 	ldr.w	lr, [sp], #4
 8000978:	f001 b83a 	b.w	80019f0 <HAL_NVIC_EnableIRQ>
 800097c:	40023800 	.word	0x40023800

08000980 <StartDefaultTask>:
 8000980:	b508      	push	{r3, lr}
 8000982:	2001      	movs	r0, #1
 8000984:	f003 fce2 	bl	800434c <osDelay>
 8000988:	e7fb      	b.n	8000982 <StartDefaultTask+0x2>

0800098a <vApplicationIdleHook>:
 800098a:	4770      	bx	lr

0800098c <vApplicationTickHook>:
 800098c:	4770      	bx	lr

0800098e <vApplicationStackOverflowHook>:
 800098e:	4770      	bx	lr

08000990 <vApplicationMallocFailedHook>:
 8000990:	4770      	bx	lr

08000992 <vApplicationDaemonTaskStartupHook>:
 8000992:	4770      	bx	lr

08000994 <MX_FREERTOS_Init>:
 8000994:	b508      	push	{r3, lr}
 8000996:	4a05      	ldr	r2, [pc, #20]	; (80009ac <MX_FREERTOS_Init+0x18>)
 8000998:	2100      	movs	r1, #0
 800099a:	4805      	ldr	r0, [pc, #20]	; (80009b0 <MX_FREERTOS_Init+0x1c>)
 800099c:	f003 fc7a 	bl	8004294 <osThreadNew>
 80009a0:	4b04      	ldr	r3, [pc, #16]	; (80009b4 <MX_FREERTOS_Init+0x20>)
 80009a2:	6018      	str	r0, [r3, #0]
 80009a4:	e8bd 4008 	ldmia.w	sp!, {r3, lr}
 80009a8:	f7ff bcea 	b.w	8000380 <rt_init>
 80009ac:	080061d0 	.word	0x080061d0
 80009b0:	08000981 	.word	0x08000981
 80009b4:	20003618 	.word	0x20003618

080009b8 <MX_GPIO_Init>:
 80009b8:	2214      	movs	r2, #20
 80009ba:	e92d 41f0 	stmdb	sp!, {r4, r5, r6, r7, r8, lr}
 80009be:	b08a      	sub	sp, #40	; 0x28
 80009c0:	eb0d 0002 	add.w	r0, sp, r2
 80009c4:	2100      	movs	r1, #0
 80009c6:	f005 fb62 	bl	800608e <memset>
 80009ca:	4b59      	ldr	r3, [pc, #356]	; (8000b30 <MX_GPIO_Init+0x178>)
 80009cc:	4e59      	ldr	r6, [pc, #356]	; (8000b34 <MX_GPIO_Init+0x17c>)
 80009ce:	69da      	ldr	r2, [r3, #28]
 80009d0:	4f59      	ldr	r7, [pc, #356]	; (8000b38 <MX_GPIO_Init+0x180>)
 80009d2:	f042 0204 	orr.w	r2, r2, #4
 80009d6:	61da      	str	r2, [r3, #28]
 80009d8:	69da      	ldr	r2, [r3, #28]
 80009da:	4630      	mov	r0, r6
 80009dc:	f002 0204 	and.w	r2, r2, #4
 80009e0:	9200      	str	r2, [sp, #0]
 80009e2:	9a00      	ldr	r2, [sp, #0]
 80009e4:	69da      	ldr	r2, [r3, #28]
 80009e6:	f640 616e 	movw	r1, #3694	; 0xe6e
 80009ea:	f042 0220 	orr.w	r2, r2, #32
 80009ee:	61da      	str	r2, [r3, #28]
 80009f0:	69da      	ldr	r2, [r3, #28]
 80009f2:	2400      	movs	r4, #0
 80009f4:	f002 0220 	and.w	r2, r2, #32
 80009f8:	9201      	str	r2, [sp, #4]
 80009fa:	9a01      	ldr	r2, [sp, #4]
 80009fc:	69da      	ldr	r2, [r3, #28]
 80009fe:	2503      	movs	r5, #3
 8000a00:	f042 0201 	orr.w	r2, r2, #1
 8000a04:	61da      	str	r2, [r3, #28]
 8000a06:	69da      	ldr	r2, [r3, #28]
 8000a08:	f04f 0801 	mov.w	r8, #1
 8000a0c:	f002 0201 	and.w	r2, r2, #1
 8000a10:	9202      	str	r2, [sp, #8]
 8000a12:	9a02      	ldr	r2, [sp, #8]
 8000a14:	69da      	ldr	r2, [r3, #28]
 8000a16:	f042 0202 	orr.w	r2, r2, #2
 8000a1a:	61da      	str	r2, [r3, #28]
 8000a1c:	69da      	ldr	r2, [r3, #28]
 8000a1e:	f002 0202 	and.w	r2, r2, #2
 8000a22:	9203      	str	r2, [sp, #12]
 8000a24:	9a03      	ldr	r2, [sp, #12]
 8000a26:	69da      	ldr	r2, [r3, #28]
 8000a28:	f042 0208 	orr.w	r2, r2, #8
 8000a2c:	61da      	str	r2, [r3, #28]
 8000a2e:	69db      	ldr	r3, [r3, #28]
 8000a30:	2200      	movs	r2, #0
 8000a32:	f003 0308 	and.w	r3, r3, #8
 8000a36:	9304      	str	r3, [sp, #16]
 8000a38:	9b04      	ldr	r3, [sp, #16]
 8000a3a:	f001 fa9b 	bl	8001f74 <HAL_GPIO_WritePin>
 8000a3e:	4638      	mov	r0, r7
 8000a40:	2200      	movs	r2, #0
 8000a42:	f248 7108 	movw	r1, #34568	; 0x8708
 8000a46:	f001 fa95 	bl	8001f74 <HAL_GPIO_WritePin>
 8000a4a:	2201      	movs	r2, #1
 8000a4c:	4630      	mov	r0, r6
 8000a4e:	2110      	movs	r1, #16
 8000a50:	f001 fa90 	bl	8001f74 <HAL_GPIO_WritePin>
 8000a54:	f44f 4370 	mov.w	r3, #61440	; 0xf000
 8000a58:	a905      	add	r1, sp, #20
 8000a5a:	4630      	mov	r0, r6
 8000a5c:	e9cd 3505 	strd	r3, r5, [sp, #20]
 8000a60:	9407      	str	r4, [sp, #28]
 8000a62:	f001 f92b 	bl	8001cbc <HAL_GPIO_Init>
 8000a66:	f640 637e 	movw	r3, #3710	; 0xe7e
 8000a6a:	a905      	add	r1, sp, #20
 8000a6c:	4630      	mov	r0, r6
 8000a6e:	e9cd 3805 	strd	r3, r8, [sp, #20]
 8000a72:	e9cd 4407 	strd	r4, r4, [sp, #28]
 8000a76:	f001 f921 	bl	8001cbc <HAL_GPIO_Init>
 8000a7a:	f248 7308 	movw	r3, #34568	; 0x8708
 8000a7e:	a905      	add	r1, sp, #20
 8000a80:	4638      	mov	r0, r7
 8000a82:	e9cd 3805 	strd	r3, r8, [sp, #20]
 8000a86:	e9cd 4407 	strd	r4, r4, [sp, #28]
 8000a8a:	f001 f917 	bl	8001cbc <HAL_GPIO_Init>
 8000a8e:	f241 0370 	movw	r3, #4208	; 0x1070
 8000a92:	f8df 80b0 	ldr.w	r8, [pc, #176]	; 8000b44 <MX_GPIO_Init+0x18c>
 8000a96:	a905      	add	r1, sp, #20
 8000a98:	4638      	mov	r0, r7
 8000a9a:	e9cd 3505 	strd	r3, r5, [sp, #20]
 8000a9e:	9407      	str	r4, [sp, #28]
 8000aa0:	f001 f90c 	bl	8001cbc <HAL_GPIO_Init>
 8000aa4:	4b25      	ldr	r3, [pc, #148]	; (8000b3c <MX_GPIO_Init+0x184>)
 8000aa6:	a905      	add	r1, sp, #20
 8000aa8:	4640      	mov	r0, r8
 8000aaa:	e9cd 3406 	strd	r3, r4, [sp, #24]
 8000aae:	9505      	str	r5, [sp, #20]
 8000ab0:	f001 f904 	bl	8001cbc <HAL_GPIO_Init>
 8000ab4:	f242 333c 	movw	r3, #9020	; 0x233c
 8000ab8:	a905      	add	r1, sp, #20
 8000aba:	4640      	mov	r0, r8
 8000abc:	e9cd 3505 	strd	r3, r5, [sp, #20]
 8000ac0:	9407      	str	r4, [sp, #28]
 8000ac2:	f001 f8fb 	bl	8001cbc <HAL_GPIO_Init>
 8000ac6:	f44f 5380 	mov.w	r3, #4096	; 0x1000
 8000aca:	a905      	add	r1, sp, #20
 8000acc:	4640      	mov	r0, r8
 8000ace:	e9cd 3405 	strd	r3, r4, [sp, #20]
 8000ad2:	9407      	str	r4, [sp, #28]
 8000ad4:	f001 f8f2 	bl	8001cbc <HAL_GPIO_Init>
 8000ad8:	2380      	movs	r3, #128	; 0x80
 8000ada:	a905      	add	r1, sp, #20
 8000adc:	4630      	mov	r0, r6
 8000ade:	e9cd 3405 	strd	r3, r4, [sp, #20]
 8000ae2:	9407      	str	r4, [sp, #28]
 8000ae4:	f001 f8ea 	bl	8001cbc <HAL_GPIO_Init>
 8000ae8:	f44f 6300 	mov.w	r3, #2048	; 0x800
 8000aec:	a905      	add	r1, sp, #20
 8000aee:	4638      	mov	r0, r7
 8000af0:	e9cd 3405 	strd	r3, r4, [sp, #20]
 8000af4:	9407      	str	r4, [sp, #28]
 8000af6:	f001 f8e1 	bl	8001cbc <HAL_GPIO_Init>
 8000afa:	2304      	movs	r3, #4
 8000afc:	a905      	add	r1, sp, #20
 8000afe:	4810      	ldr	r0, [pc, #64]	; (8000b40 <MX_GPIO_Init+0x188>)
 8000b00:	e9cd 3505 	strd	r3, r5, [sp, #20]
 8000b04:	9407      	str	r4, [sp, #28]
 8000b06:	f001 f8d9 	bl	8001cbc <HAL_GPIO_Init>
 8000b0a:	4622      	mov	r2, r4
 8000b0c:	2105      	movs	r1, #5
 8000b0e:	2006      	movs	r0, #6
 8000b10:	f000 ff2a 	bl	8001968 <HAL_NVIC_SetPriority>
 8000b14:	2006      	movs	r0, #6
 8000b16:	f000 ff6b 	bl	80019f0 <HAL_NVIC_EnableIRQ>
 8000b1a:	4622      	mov	r2, r4
 8000b1c:	2105      	movs	r1, #5
 8000b1e:	2007      	movs	r0, #7
 8000b20:	f000 ff22 	bl	8001968 <HAL_NVIC_SetPriority>
 8000b24:	2007      	movs	r0, #7
 8000b26:	f000 ff63 	bl	80019f0 <HAL_NVIC_EnableIRQ>
 8000b2a:	b00a      	add	sp, #40	; 0x28
 8000b2c:	e8bd 81f0 	ldmia.w	sp!, {r4, r5, r6, r7, r8, pc}
 8000b30:	40023800 	.word	0x40023800
 8000b34:	40020800 	.word	0x40020800
 8000b38:	40020000 	.word	0x40020000
 8000b3c:	10110000 	.word	0x10110000
 8000b40:	40020c00 	.word	0x40020c00
 8000b44:	40020400 	.word	0x40020400

08000b48 <MX_I2C1_Init>:
 8000b48:	b508      	push	{r3, lr}
 8000b4a:	480b      	ldr	r0, [pc, #44]	; (8000b78 <MX_I2C1_Init+0x30>)
 8000b4c:	4a0b      	ldr	r2, [pc, #44]	; (8000b7c <MX_I2C1_Init+0x34>)
 8000b4e:	4b0c      	ldr	r3, [pc, #48]	; (8000b80 <MX_I2C1_Init+0x38>)
 8000b50:	e9c0 2300 	strd	r2, r3, [r0]
 8000b54:	2300      	movs	r3, #0
 8000b56:	f44f 4280 	mov.w	r2, #16384	; 0x4000
 8000b5a:	e9c0 3302 	strd	r3, r3, [r0, #8]
 8000b5e:	e9c0 2304 	strd	r2, r3, [r0, #16]
 8000b62:	e9c0 3306 	strd	r3, r3, [r0, #24]
 8000b66:	6203      	str	r3, [r0, #32]
 8000b68:	f001 fba0 	bl	80022ac <HAL_I2C_Init>
 8000b6c:	b118      	cbz	r0, 8000b76 <MX_I2C1_Init+0x2e>
 8000b6e:	e8bd 4008 	ldmia.w	sp!, {r3, lr}
 8000b72:	f000 b89f 	b.w	8000cb4 <Error_Handler>
 8000b76:	bd08      	pop	{r3, pc}
 8000b78:	2000361c 	.word	0x2000361c
 8000b7c:	40005400 	.word	0x40005400
 8000b80:	000186a0 	.word	0x000186a0

08000b84 <HAL_I2C_MspInit>:
 8000b84:	b510      	push	{r4, lr}
 8000b86:	4604      	mov	r4, r0
 8000b88:	b088      	sub	sp, #32
 8000b8a:	2214      	movs	r2, #20
 8000b8c:	2100      	movs	r1, #0
 8000b8e:	a803      	add	r0, sp, #12
 8000b90:	f005 fa7d 	bl	800608e <memset>
 8000b94:	6822      	ldr	r2, [r4, #0]
 8000b96:	4b13      	ldr	r3, [pc, #76]	; (8000be4 <HAL_I2C_MspInit+0x60>)
 8000b98:	429a      	cmp	r2, r3
 8000b9a:	d120      	bne.n	8000bde <HAL_I2C_MspInit+0x5a>
 8000b9c:	4c12      	ldr	r4, [pc, #72]	; (8000be8 <HAL_I2C_MspInit+0x64>)
 8000b9e:	22c0      	movs	r2, #192	; 0xc0
 8000ba0:	69e3      	ldr	r3, [r4, #28]
 8000ba2:	2101      	movs	r1, #1
 8000ba4:	f043 0302 	orr.w	r3, r3, #2
 8000ba8:	61e3      	str	r3, [r4, #28]
 8000baa:	69e3      	ldr	r3, [r4, #28]
 8000bac:	480f      	ldr	r0, [pc, #60]	; (8000bec <HAL_I2C_MspInit+0x68>)
 8000bae:	f003 0302 	and.w	r3, r3, #2
 8000bb2:	9301      	str	r3, [sp, #4]
 8000bb4:	9b01      	ldr	r3, [sp, #4]
 8000bb6:	2312      	movs	r3, #18
 8000bb8:	e9cd 2303 	strd	r2, r3, [sp, #12]
 8000bbc:	2303      	movs	r3, #3
 8000bbe:	e9cd 1305 	strd	r1, r3, [sp, #20]
 8000bc2:	2304      	movs	r3, #4
 8000bc4:	a903      	add	r1, sp, #12
 8000bc6:	9307      	str	r3, [sp, #28]
 8000bc8:	f001 f878 	bl	8001cbc <HAL_GPIO_Init>
 8000bcc:	6a63      	ldr	r3, [r4, #36]	; 0x24
 8000bce:	f443 1300 	orr.w	r3, r3, #2097152	; 0x200000
 8000bd2:	6263      	str	r3, [r4, #36]	; 0x24
 8000bd4:	6a63      	ldr	r3, [r4, #36]	; 0x24
 8000bd6:	f403 1300 	and.w	r3, r3, #2097152	; 0x200000
 8000bda:	9302      	str	r3, [sp, #8]
 8000bdc:	9b02      	ldr	r3, [sp, #8]
 8000bde:	b008      	add	sp, #32
 8000be0:	bd10      	pop	{r4, pc}
 8000be2:	bf00      	nop
 8000be4:	40005400 	.word	0x40005400
 8000be8:	40023800 	.word	0x40023800
 8000bec:	40020400 	.word	0x40020400

08000bf0 <SystemClock_Config>:
 8000bf0:	221c      	movs	r2, #28
 8000bf2:	b530      	push	{r4, r5, lr}
 8000bf4:	b093      	sub	sp, #76	; 0x4c
 8000bf6:	eb0d 0002 	add.w	r0, sp, r2
 8000bfa:	2100      	movs	r1, #0
 8000bfc:	f005 fa47 	bl	800608e <memset>
 8000c00:	2214      	movs	r2, #20
 8000c02:	2100      	movs	r1, #0
 8000c04:	4668      	mov	r0, sp
 8000c06:	f005 fa42 	bl	800608e <memset>
 8000c0a:	4a14      	ldr	r2, [pc, #80]	; (8000c5c <SystemClock_Config+0x6c>)
 8000c0c:	2102      	movs	r1, #2
 8000c0e:	6813      	ldr	r3, [r2, #0]
 8000c10:	f44f 2040 	mov.w	r0, #786432	; 0xc0000
 8000c14:	f423 53c0 	bic.w	r3, r3, #6144	; 0x1800
 8000c18:	f443 6300 	orr.w	r3, r3, #2048	; 0x800
 8000c1c:	6013      	str	r3, [r2, #0]
 8000c1e:	2310      	movs	r3, #16
 8000c20:	9309      	str	r3, [sp, #36]	; 0x24
 8000c22:	f44f 3380 	mov.w	r3, #65536	; 0x10000
 8000c26:	e9cd 130e 	strd	r1, r3, [sp, #56]	; 0x38
 8000c2a:	f44f 0380 	mov.w	r3, #4194304	; 0x400000
 8000c2e:	2401      	movs	r4, #1
 8000c30:	2503      	movs	r5, #3
 8000c32:	e9cd 0310 	strd	r0, r3, [sp, #64]	; 0x40
 8000c36:	a805      	add	r0, sp, #20
 8000c38:	e9cd 5405 	strd	r5, r4, [sp, #20]
 8000c3c:	9408      	str	r4, [sp, #32]
 8000c3e:	f001 fe5f 	bl	8002900 <HAL_RCC_OscConfig>
 8000c42:	230f      	movs	r3, #15
 8000c44:	e9cd 3500 	strd	r3, r5, [sp]
 8000c48:	2300      	movs	r3, #0
 8000c4a:	4621      	mov	r1, r4
 8000c4c:	4668      	mov	r0, sp
 8000c4e:	e9cd 3302 	strd	r3, r3, [sp, #8]
 8000c52:	9304      	str	r3, [sp, #16]
 8000c54:	f002 f950 	bl	8002ef8 <HAL_RCC_ClockConfig>
 8000c58:	b013      	add	sp, #76	; 0x4c
 8000c5a:	bd30      	pop	{r4, r5, pc}
 8000c5c:	40007000 	.word	0x40007000

08000c60 <main>:
 8000c60:	b508      	push	{r3, lr}
 8000c62:	f000 fb06 	bl	8001272 <HAL_Init>
 8000c66:	f7ff ffc3 	bl	8000bf0 <SystemClock_Config>
 8000c6a:	f7ff fea5 	bl	80009b8 <MX_GPIO_Init>
 8000c6e:	f7ff fe5f 	bl	8000930 <MX_DMA_Init>
 8000c72:	f7ff fdbb 	bl	80007ec <MX_ADC_Init>
 8000c76:	f7ff ff67 	bl	8000b48 <MX_I2C1_Init>
 8000c7a:	f000 f957 	bl	8000f2c <MX_TIM2_Init>
 8000c7e:	f000 f9a7 	bl	8000fd0 <MX_TIM3_Init>
 8000c82:	f000 f9f9 	bl	8001078 <MX_TIM9_Init>
 8000c86:	f000 fa49 	bl	800111c <MX_USART3_UART_Init>
 8000c8a:	f7ff fb77 	bl	800037c <device_init>
 8000c8e:	f7ff fa97 	bl	80001c0 <h_bridge_init>
 8000c92:	f003 fac3 	bl	800421c <osKernelInitialize>
 8000c96:	f7ff fe7d 	bl	8000994 <MX_FREERTOS_Init>
 8000c9a:	f003 fadb 	bl	8004254 <osKernelStart>
 8000c9e:	e7fe      	b.n	8000c9e <main+0x3e>

08000ca0 <HAL_TIM_PeriodElapsedCallback>:
 8000ca0:	6802      	ldr	r2, [r0, #0]
 8000ca2:	4b03      	ldr	r3, [pc, #12]	; (8000cb0 <HAL_TIM_PeriodElapsedCallback+0x10>)
 8000ca4:	429a      	cmp	r2, r3
 8000ca6:	d101      	bne.n	8000cac <HAL_TIM_PeriodElapsedCallback+0xc>
 8000ca8:	f000 baf2 	b.w	8001290 <HAL_IncTick>
 8000cac:	4770      	bx	lr
 8000cae:	bf00      	nop
 8000cb0:	40000c00 	.word	0x40000c00

08000cb4 <Error_Handler>:
 8000cb4:	4770      	bx	lr

08000cb6 <assert_failed>:
 8000cb6:	4770      	bx	lr

08000cb8 <HAL_MspInit>:
 8000cb8:	4b11      	ldr	r3, [pc, #68]	; (8000d00 <HAL_MspInit+0x48>)
 8000cba:	b084      	sub	sp, #16
 8000cbc:	6a5a      	ldr	r2, [r3, #36]	; 0x24
 8000cbe:	210f      	movs	r1, #15
 8000cc0:	f042 4200 	orr.w	r2, r2, #2147483648	; 0x80000000
 8000cc4:	625a      	str	r2, [r3, #36]	; 0x24
 8000cc6:	6a5a      	ldr	r2, [r3, #36]	; 0x24
 8000cc8:	f06f 0001 	mvn.w	r0, #1
 8000ccc:	f002 4200 	and.w	r2, r2, #2147483648	; 0x80000000
 8000cd0:	9201      	str	r2, [sp, #4]
 8000cd2:	9a01      	ldr	r2, [sp, #4]
 8000cd4:	6a1a      	ldr	r2, [r3, #32]
 8000cd6:	f042 0201 	orr.w	r2, r2, #1
 8000cda:	621a      	str	r2, [r3, #32]
 8000cdc:	6a1a      	ldr	r2, [r3, #32]
 8000cde:	f002 0201 	and.w	r2, r2, #1
 8000ce2:	9202      	str	r2, [sp, #8]
 8000ce4:	9a02      	ldr	r2, [sp, #8]
 8000ce6:	6a5a      	ldr	r2, [r3, #36]	; 0x24
 8000ce8:	f042 5280 	orr.w	r2, r2, #268435456	; 0x10000000
 8000cec:	625a      	str	r2, [r3, #36]	; 0x24
 8000cee:	2200      	movs	r2, #0
 8000cf0:	6a5b      	ldr	r3, [r3, #36]	; 0x24
 8000cf2:	f003 5380 	and.w	r3, r3, #268435456	; 0x10000000
 8000cf6:	9303      	str	r3, [sp, #12]
 8000cf8:	9b03      	ldr	r3, [sp, #12]
 8000cfa:	b004      	add	sp, #16
 8000cfc:	f000 be34 	b.w	8001968 <HAL_NVIC_SetPriority>
 8000d00:	40023800 	.word	0x40023800

08000d04 <HAL_InitTick>:
 8000d04:	b510      	push	{r4, lr}
 8000d06:	4601      	mov	r1, r0
 8000d08:	b088      	sub	sp, #32
 8000d0a:	2200      	movs	r2, #0
 8000d0c:	202e      	movs	r0, #46	; 0x2e
 8000d0e:	f000 fe2b 	bl	8001968 <HAL_NVIC_SetPriority>
 8000d12:	202e      	movs	r0, #46	; 0x2e
 8000d14:	f000 fe6c 	bl	80019f0 <HAL_NVIC_EnableIRQ>
 8000d18:	4b14      	ldr	r3, [pc, #80]	; (8000d6c <HAL_InitTick+0x68>)
 8000d1a:	a901      	add	r1, sp, #4
 8000d1c:	6a5a      	ldr	r2, [r3, #36]	; 0x24
 8000d1e:	a803      	add	r0, sp, #12
 8000d20:	f042 0208 	orr.w	r2, r2, #8
 8000d24:	625a      	str	r2, [r3, #36]	; 0x24
 8000d26:	6a5b      	ldr	r3, [r3, #36]	; 0x24
 8000d28:	4c11      	ldr	r4, [pc, #68]	; (8000d70 <HAL_InitTick+0x6c>)
 8000d2a:	f003 0308 	and.w	r3, r3, #8
 8000d2e:	9302      	str	r3, [sp, #8]
 8000d30:	9b02      	ldr	r3, [sp, #8]
 8000d32:	f002 fa11 	bl	8003158 <HAL_RCC_GetClockConfig>
 8000d36:	f002 f9ef 	bl	8003118 <HAL_RCC_GetPCLK1Freq>
 8000d3a:	4b0e      	ldr	r3, [pc, #56]	; (8000d74 <HAL_InitTick+0x70>)
 8000d3c:	6023      	str	r3, [r4, #0]
 8000d3e:	f240 33e7 	movw	r3, #999	; 0x3e7
 8000d42:	60e3      	str	r3, [r4, #12]
 8000d44:	4b0c      	ldr	r3, [pc, #48]	; (8000d78 <HAL_InitTick+0x74>)
 8000d46:	fbb0 f0f3 	udiv	r0, r0, r3
 8000d4a:	2300      	movs	r3, #0
 8000d4c:	3801      	subs	r0, #1
 8000d4e:	6060      	str	r0, [r4, #4]
 8000d50:	4620      	mov	r0, r4
 8000d52:	6123      	str	r3, [r4, #16]
 8000d54:	60a3      	str	r3, [r4, #8]
 8000d56:	f002 fae3 	bl	8003320 <HAL_TIM_Base_Init>
 8000d5a:	b920      	cbnz	r0, 8000d66 <HAL_InitTick+0x62>
 8000d5c:	4620      	mov	r0, r4
 8000d5e:	f002 fb4b 	bl	80033f8 <HAL_TIM_Base_Start_IT>
 8000d62:	b008      	add	sp, #32
 8000d64:	bd10      	pop	{r4, pc}
 8000d66:	2001      	movs	r0, #1
 8000d68:	e7fb      	b.n	8000d62 <HAL_InitTick+0x5e>
 8000d6a:	bf00      	nop
 8000d6c:	40023800 	.word	0x40023800
 8000d70:	20003670 	.word	0x20003670
 8000d74:	40000c00 	.word	0x40000c00
 8000d78:	000f4240 	.word	0x000f4240

08000d7c <NMI_Handler>:
 8000d7c:	4770      	bx	lr

08000d7e <HardFault_Handler>:
 8000d7e:	e7fe      	b.n	8000d7e <HardFault_Handler>

08000d80 <MemManage_Handler>:
 8000d80:	e7fe      	b.n	8000d80 <MemManage_Handler>

08000d82 <BusFault_Handler>:
 8000d82:	e7fe      	b.n	8000d82 <BusFault_Handler>

08000d84 <UsageFault_Handler>:
 8000d84:	e7fe      	b.n	8000d84 <UsageFault_Handler>

08000d86 <DebugMon_Handler>:
 8000d86:	4770      	bx	lr

08000d88 <EXTI0_IRQHandler>:
 8000d88:	2001      	movs	r0, #1
 8000d8a:	f001 b90d 	b.w	8001fa8 <HAL_GPIO_EXTI_IRQHandler>

08000d8e <EXTI1_IRQHandler>:
 8000d8e:	2002      	movs	r0, #2
 8000d90:	f001 b90a 	b.w	8001fa8 <HAL_GPIO_EXTI_IRQHandler>

08000d94 <DMA1_Channel1_IRQHandler>:
 8000d94:	4801      	ldr	r0, [pc, #4]	; (8000d9c <DMA1_Channel1_IRQHandler+0x8>)
 8000d96:	f000 bf47 	b.w	8001c28 <HAL_DMA_IRQHandler>
 8000d9a:	bf00      	nop
 8000d9c:	20003580 	.word	0x20003580

08000da0 <DMA1_Channel2_IRQHandler>:
 8000da0:	4801      	ldr	r0, [pc, #4]	; (8000da8 <DMA1_Channel2_IRQHandler+0x8>)
 8000da2:	f000 bf41 	b.w	8001c28 <HAL_DMA_IRQHandler>
 8000da6:	bf00      	nop
 8000da8:	200037e4 	.word	0x200037e4

08000dac <DMA1_Channel3_IRQHandler>:
 8000dac:	4801      	ldr	r0, [pc, #4]	; (8000db4 <DMA1_Channel3_IRQHandler+0x8>)
 8000dae:	f000 bf3b 	b.w	8001c28 <HAL_DMA_IRQHandler>
 8000db2:	bf00      	nop
 8000db4:	20003760 	.word	0x20003760

08000db8 <TIM5_IRQHandler>:
 8000db8:	4801      	ldr	r0, [pc, #4]	; (8000dc0 <TIM5_IRQHandler+0x8>)
 8000dba:	f002 bf33 	b.w	8003c24 <HAL_TIM_IRQHandler>
 8000dbe:	bf00      	nop
 8000dc0:	20003670 	.word	0x20003670

08000dc4 <SystemInit>:
 8000dc4:	4b0e      	ldr	r3, [pc, #56]	; (8000e00 <SystemInit+0x3c>)
 8000dc6:	681a      	ldr	r2, [r3, #0]
 8000dc8:	f442 7280 	orr.w	r2, r2, #256	; 0x100
 8000dcc:	601a      	str	r2, [r3, #0]
 8000dce:	6899      	ldr	r1, [r3, #8]
 8000dd0:	4a0c      	ldr	r2, [pc, #48]	; (8000e04 <SystemInit+0x40>)
 8000dd2:	400a      	ands	r2, r1
 8000dd4:	609a      	str	r2, [r3, #8]
 8000dd6:	681a      	ldr	r2, [r3, #0]
 8000dd8:	f022 5288 	bic.w	r2, r2, #285212672	; 0x11000000
 8000ddc:	f022 1201 	bic.w	r2, r2, #65537	; 0x10001
 8000de0:	601a      	str	r2, [r3, #0]
 8000de2:	681a      	ldr	r2, [r3, #0]
 8000de4:	f422 2280 	bic.w	r2, r2, #262144	; 0x40000
 8000de8:	601a      	str	r2, [r3, #0]
 8000dea:	689a      	ldr	r2, [r3, #8]
 8000dec:	f422 027d 	bic.w	r2, r2, #16580608	; 0xfd0000
 8000df0:	609a      	str	r2, [r3, #8]
 8000df2:	2200      	movs	r2, #0
 8000df4:	60da      	str	r2, [r3, #12]
 8000df6:	f04f 6200 	mov.w	r2, #134217728	; 0x8000000
 8000dfa:	4b03      	ldr	r3, [pc, #12]	; (8000e08 <SystemInit+0x44>)
 8000dfc:	609a      	str	r2, [r3, #8]
 8000dfe:	4770      	bx	lr
 8000e00:	40023800 	.word	0x40023800
 8000e04:	88ffc00c 	.word	0x88ffc00c
 8000e08:	e000ed00 	.word	0xe000ed00

08000e0c <HAL_TIM_Base_MspInit>:
 8000e0c:	6803      	ldr	r3, [r0, #0]
 8000e0e:	b084      	sub	sp, #16
 8000e10:	f1b3 4f80 	cmp.w	r3, #1073741824	; 0x40000000
 8000e14:	d10c      	bne.n	8000e30 <HAL_TIM_Base_MspInit+0x24>
 8000e16:	f503 330e 	add.w	r3, r3, #145408	; 0x23800
 8000e1a:	6a5a      	ldr	r2, [r3, #36]	; 0x24
 8000e1c:	f042 0201 	orr.w	r2, r2, #1
 8000e20:	625a      	str	r2, [r3, #36]	; 0x24
 8000e22:	6a5b      	ldr	r3, [r3, #36]	; 0x24
 8000e24:	f003 0301 	and.w	r3, r3, #1
 8000e28:	9301      	str	r3, [sp, #4]
 8000e2a:	9b01      	ldr	r3, [sp, #4]
 8000e2c:	b004      	add	sp, #16
 8000e2e:	4770      	bx	lr
 8000e30:	4a0d      	ldr	r2, [pc, #52]	; (8000e68 <HAL_TIM_Base_MspInit+0x5c>)
 8000e32:	4293      	cmp	r3, r2
 8000e34:	d10a      	bne.n	8000e4c <HAL_TIM_Base_MspInit+0x40>
 8000e36:	4b0d      	ldr	r3, [pc, #52]	; (8000e6c <HAL_TIM_Base_MspInit+0x60>)
 8000e38:	6a5a      	ldr	r2, [r3, #36]	; 0x24
 8000e3a:	f042 0202 	orr.w	r2, r2, #2
 8000e3e:	625a      	str	r2, [r3, #36]	; 0x24
 8000e40:	6a5b      	ldr	r3, [r3, #36]	; 0x24
 8000e42:	f003 0302 	and.w	r3, r3, #2
 8000e46:	9302      	str	r3, [sp, #8]
 8000e48:	9b02      	ldr	r3, [sp, #8]
 8000e4a:	e7ef      	b.n	8000e2c <HAL_TIM_Base_MspInit+0x20>
 8000e4c:	4a08      	ldr	r2, [pc, #32]	; (8000e70 <HAL_TIM_Base_MspInit+0x64>)
 8000e4e:	4293      	cmp	r3, r2
 8000e50:	d1ec      	bne.n	8000e2c <HAL_TIM_Base_MspInit+0x20>
 8000e52:	4b06      	ldr	r3, [pc, #24]	; (8000e6c <HAL_TIM_Base_MspInit+0x60>)
 8000e54:	6a1a      	ldr	r2, [r3, #32]
 8000e56:	f042 0204 	orr.w	r2, r2, #4
 8000e5a:	621a      	str	r2, [r3, #32]
 8000e5c:	6a1b      	ldr	r3, [r3, #32]
 8000e5e:	f003 0304 	and.w	r3, r3, #4
 8000e62:	9303      	str	r3, [sp, #12]
 8000e64:	9b03      	ldr	r3, [sp, #12]
 8000e66:	e7e1      	b.n	8000e2c <HAL_TIM_Base_MspInit+0x20>
 8000e68:	40000400 	.word	0x40000400
 8000e6c:	40023800 	.word	0x40023800
 8000e70:	40010800 	.word	0x40010800

08000e74 <HAL_TIM_MspPostInit>:
 8000e74:	b510      	push	{r4, lr}
 8000e76:	4604      	mov	r4, r0
 8000e78:	b088      	sub	sp, #32
 8000e7a:	2214      	movs	r2, #20
 8000e7c:	2100      	movs	r1, #0
 8000e7e:	a803      	add	r0, sp, #12
 8000e80:	f005 f905 	bl	800608e <memset>
 8000e84:	6823      	ldr	r3, [r4, #0]
 8000e86:	f1b3 4f80 	cmp.w	r3, #1073741824	; 0x40000000
 8000e8a:	d115      	bne.n	8000eb8 <HAL_TIM_MspPostInit+0x44>
 8000e8c:	f503 330e 	add.w	r3, r3, #145408	; 0x23800
 8000e90:	69da      	ldr	r2, [r3, #28]
 8000e92:	4820      	ldr	r0, [pc, #128]	; (8000f14 <HAL_TIM_MspPostInit+0xa0>)
 8000e94:	f042 0201 	orr.w	r2, r2, #1
 8000e98:	61da      	str	r2, [r3, #28]
 8000e9a:	69db      	ldr	r3, [r3, #28]
 8000e9c:	2202      	movs	r2, #2
 8000e9e:	f003 0301 	and.w	r3, r3, #1
 8000ea2:	9300      	str	r3, [sp, #0]
 8000ea4:	9b00      	ldr	r3, [sp, #0]
 8000ea6:	2301      	movs	r3, #1
 8000ea8:	e9cd 3203 	strd	r3, r2, [sp, #12]
 8000eac:	9307      	str	r3, [sp, #28]
 8000eae:	a903      	add	r1, sp, #12
 8000eb0:	f000 ff04 	bl	8001cbc <HAL_GPIO_Init>
 8000eb4:	b008      	add	sp, #32
 8000eb6:	bd10      	pop	{r4, pc}
 8000eb8:	4a17      	ldr	r2, [pc, #92]	; (8000f18 <HAL_TIM_MspPostInit+0xa4>)
 8000eba:	4293      	cmp	r3, r2
 8000ebc:	d112      	bne.n	8000ee4 <HAL_TIM_MspPostInit+0x70>
 8000ebe:	4b17      	ldr	r3, [pc, #92]	; (8000f1c <HAL_TIM_MspPostInit+0xa8>)
 8000ec0:	f44f 7180 	mov.w	r1, #256	; 0x100
 8000ec4:	69da      	ldr	r2, [r3, #28]
 8000ec6:	4816      	ldr	r0, [pc, #88]	; (8000f20 <HAL_TIM_MspPostInit+0xac>)
 8000ec8:	f042 0204 	orr.w	r2, r2, #4
 8000ecc:	61da      	str	r2, [r3, #28]
 8000ece:	69db      	ldr	r3, [r3, #28]
 8000ed0:	f003 0304 	and.w	r3, r3, #4
 8000ed4:	9301      	str	r3, [sp, #4]
 8000ed6:	9b01      	ldr	r3, [sp, #4]
 8000ed8:	2302      	movs	r3, #2
 8000eda:	e9cd 1303 	strd	r1, r3, [sp, #12]
 8000ede:	9307      	str	r3, [sp, #28]
 8000ee0:	a903      	add	r1, sp, #12
 8000ee2:	e7e5      	b.n	8000eb0 <HAL_TIM_MspPostInit+0x3c>
 8000ee4:	4a0f      	ldr	r2, [pc, #60]	; (8000f24 <HAL_TIM_MspPostInit+0xb0>)
 8000ee6:	4293      	cmp	r3, r2
 8000ee8:	d1e4      	bne.n	8000eb4 <HAL_TIM_MspPostInit+0x40>
 8000eea:	4b0c      	ldr	r3, [pc, #48]	; (8000f1c <HAL_TIM_MspPostInit+0xa8>)
 8000eec:	a903      	add	r1, sp, #12
 8000eee:	69da      	ldr	r2, [r3, #28]
 8000ef0:	480d      	ldr	r0, [pc, #52]	; (8000f28 <HAL_TIM_MspPostInit+0xb4>)
 8000ef2:	f042 0202 	orr.w	r2, r2, #2
 8000ef6:	61da      	str	r2, [r3, #28]
 8000ef8:	69db      	ldr	r3, [r3, #28]
 8000efa:	f44f 4280 	mov.w	r2, #16384	; 0x4000
 8000efe:	f003 0302 	and.w	r3, r3, #2
 8000f02:	9302      	str	r3, [sp, #8]
 8000f04:	9b02      	ldr	r3, [sp, #8]
 8000f06:	2302      	movs	r3, #2
 8000f08:	e9cd 2303 	strd	r2, r3, [sp, #12]
 8000f0c:	2303      	movs	r3, #3
 8000f0e:	9307      	str	r3, [sp, #28]
 8000f10:	e7ce      	b.n	8000eb0 <HAL_TIM_MspPostInit+0x3c>
 8000f12:	bf00      	nop
 8000f14:	40020000 	.word	0x40020000
 8000f18:	40000400 	.word	0x40000400
 8000f1c:	40023800 	.word	0x40023800
 8000f20:	40020800 	.word	0x40020800
 8000f24:	40010800 	.word	0x40010800
 8000f28:	40020400 	.word	0x40020400

08000f2c <MX_TIM2_Init>:
 8000f2c:	b510      	push	{r4, lr}
 8000f2e:	2400      	movs	r4, #0
 8000f30:	b08a      	sub	sp, #40	; 0x28
 8000f32:	2210      	movs	r2, #16
 8000f34:	2100      	movs	r1, #0
 8000f36:	a802      	add	r0, sp, #8
 8000f38:	f005 f8a9 	bl	800608e <memset>
 8000f3c:	2210      	movs	r2, #16
 8000f3e:	4621      	mov	r1, r4
 8000f40:	a806      	add	r0, sp, #24
 8000f42:	e9cd 4400 	strd	r4, r4, [sp]
 8000f46:	f005 f8a2 	bl	800608e <memset>
 8000f4a:	f04f 4380 	mov.w	r3, #1073741824	; 0x40000000
 8000f4e:	481f      	ldr	r0, [pc, #124]	; (8000fcc <MX_TIM2_Init+0xa0>)
 8000f50:	e9c0 3400 	strd	r3, r4, [r0]
 8000f54:	f640 437f 	movw	r3, #3199	; 0xc7f
 8000f58:	e9c0 3403 	strd	r3, r4, [r0, #12]
 8000f5c:	2380      	movs	r3, #128	; 0x80
 8000f5e:	6084      	str	r4, [r0, #8]
 8000f60:	6143      	str	r3, [r0, #20]
 8000f62:	f002 f9dd 	bl	8003320 <HAL_TIM_Base_Init>
 8000f66:	b108      	cbz	r0, 8000f6c <MX_TIM2_Init+0x40>
 8000f68:	f7ff fea4 	bl	8000cb4 <Error_Handler>
 8000f6c:	f44f 5380 	mov.w	r3, #4096	; 0x1000
 8000f70:	a902      	add	r1, sp, #8
 8000f72:	4816      	ldr	r0, [pc, #88]	; (8000fcc <MX_TIM2_Init+0xa0>)
 8000f74:	9302      	str	r3, [sp, #8]
 8000f76:	f002 fc45 	bl	8003804 <HAL_TIM_ConfigClockSource>
 8000f7a:	b108      	cbz	r0, 8000f80 <MX_TIM2_Init+0x54>
 8000f7c:	f7ff fe9a 	bl	8000cb4 <Error_Handler>
 8000f80:	4812      	ldr	r0, [pc, #72]	; (8000fcc <MX_TIM2_Init+0xa0>)
 8000f82:	f002 fa79 	bl	8003478 <HAL_TIM_PWM_Init>
 8000f86:	b108      	cbz	r0, 8000f8c <MX_TIM2_Init+0x60>
 8000f88:	f7ff fe94 	bl	8000cb4 <Error_Handler>
 8000f8c:	2300      	movs	r3, #0
 8000f8e:	4669      	mov	r1, sp
 8000f90:	480e      	ldr	r0, [pc, #56]	; (8000fcc <MX_TIM2_Init+0xa0>)
 8000f92:	e9cd 3300 	strd	r3, r3, [sp]
 8000f96:	f002 fecb 	bl	8003d30 <HAL_TIMEx_MasterConfigSynchronization>
 8000f9a:	b108      	cbz	r0, 8000fa0 <MX_TIM2_Init+0x74>
 8000f9c:	f7ff fe8a 	bl	8000cb4 <Error_Handler>
 8000fa0:	2260      	movs	r2, #96	; 0x60
 8000fa2:	f240 633f 	movw	r3, #1599	; 0x63f
 8000fa6:	e9cd 2306 	strd	r2, r3, [sp, #24]
 8000faa:	2200      	movs	r2, #0
 8000fac:	2304      	movs	r3, #4
 8000fae:	a906      	add	r1, sp, #24
 8000fb0:	4806      	ldr	r0, [pc, #24]	; (8000fcc <MX_TIM2_Init+0xa0>)
 8000fb2:	e9cd 2308 	strd	r2, r3, [sp, #32]
 8000fb6:	f002 fb11 	bl	80035dc <HAL_TIM_PWM_ConfigChannel>
 8000fba:	b108      	cbz	r0, 8000fc0 <MX_TIM2_Init+0x94>
 8000fbc:	f7ff fe7a 	bl	8000cb4 <Error_Handler>
 8000fc0:	4802      	ldr	r0, [pc, #8]	; (8000fcc <MX_TIM2_Init+0xa0>)
 8000fc2:	f7ff ff57 	bl	8000e74 <HAL_TIM_MspPostInit>
 8000fc6:	b00a      	add	sp, #40	; 0x28
 8000fc8:	bd10      	pop	{r4, pc}
 8000fca:	bf00      	nop
 8000fcc:	20003724 	.word	0x20003724

08000fd0 <MX_TIM3_Init>:
 8000fd0:	b510      	push	{r4, lr}
 8000fd2:	2400      	movs	r4, #0
 8000fd4:	b08a      	sub	sp, #40	; 0x28
 8000fd6:	2210      	movs	r2, #16
 8000fd8:	2100      	movs	r1, #0
 8000fda:	a802      	add	r0, sp, #8
 8000fdc:	f005 f857 	bl	800608e <memset>
 8000fe0:	2210      	movs	r2, #16
 8000fe2:	4621      	mov	r1, r4
 8000fe4:	a806      	add	r0, sp, #24
 8000fe6:	e9cd 4400 	strd	r4, r4, [sp]
 8000fea:	f005 f850 	bl	800608e <memset>
 8000fee:	4820      	ldr	r0, [pc, #128]	; (8001070 <MX_TIM3_Init+0xa0>)
 8000ff0:	4b20      	ldr	r3, [pc, #128]	; (8001074 <MX_TIM3_Init+0xa4>)
 8000ff2:	6084      	str	r4, [r0, #8]
 8000ff4:	e9c0 3400 	strd	r3, r4, [r0]
 8000ff8:	f640 437f 	movw	r3, #3199	; 0xc7f
 8000ffc:	e9c0 3403 	strd	r3, r4, [r0, #12]
 8001000:	2380      	movs	r3, #128	; 0x80
 8001002:	6143      	str	r3, [r0, #20]
 8001004:	f002 f98c 	bl	8003320 <HAL_TIM_Base_Init>
 8001008:	b108      	cbz	r0, 800100e <MX_TIM3_Init+0x3e>
 800100a:	f7ff fe53 	bl	8000cb4 <Error_Handler>
 800100e:	f44f 5380 	mov.w	r3, #4096	; 0x1000
 8001012:	a902      	add	r1, sp, #8
 8001014:	4816      	ldr	r0, [pc, #88]	; (8001070 <MX_TIM3_Init+0xa0>)
 8001016:	9302      	str	r3, [sp, #8]
 8001018:	f002 fbf4 	bl	8003804 <HAL_TIM_ConfigClockSource>
 800101c:	b108      	cbz	r0, 8001022 <MX_TIM3_Init+0x52>
 800101e:	f7ff fe49 	bl	8000cb4 <Error_Handler>
 8001022:	4813      	ldr	r0, [pc, #76]	; (8001070 <MX_TIM3_Init+0xa0>)
 8001024:	f002 fa28 	bl	8003478 <HAL_TIM_PWM_Init>
 8001028:	b108      	cbz	r0, 800102e <MX_TIM3_Init+0x5e>
 800102a:	f7ff fe43 	bl	8000cb4 <Error_Handler>
 800102e:	2300      	movs	r3, #0
 8001030:	4669      	mov	r1, sp
 8001032:	480f      	ldr	r0, [pc, #60]	; (8001070 <MX_TIM3_Init+0xa0>)
 8001034:	e9cd 3300 	strd	r3, r3, [sp]
 8001038:	f002 fe7a 	bl	8003d30 <HAL_TIMEx_MasterConfigSynchronization>
 800103c:	b108      	cbz	r0, 8001042 <MX_TIM3_Init+0x72>
 800103e:	f7ff fe39 	bl	8000cb4 <Error_Handler>
 8001042:	2260      	movs	r2, #96	; 0x60
 8001044:	f240 53dc 	movw	r3, #1500	; 0x5dc
 8001048:	2100      	movs	r1, #0
 800104a:	e9cd 2306 	strd	r2, r3, [sp, #24]
 800104e:	2304      	movs	r3, #4
 8001050:	2208      	movs	r2, #8
 8001052:	e9cd 1308 	strd	r1, r3, [sp, #32]
 8001056:	4806      	ldr	r0, [pc, #24]	; (8001070 <MX_TIM3_Init+0xa0>)
 8001058:	a906      	add	r1, sp, #24
 800105a:	f002 fabf 	bl	80035dc <HAL_TIM_PWM_ConfigChannel>
 800105e:	b108      	cbz	r0, 8001064 <MX_TIM3_Init+0x94>
 8001060:	f7ff fe28 	bl	8000cb4 <Error_Handler>
 8001064:	4802      	ldr	r0, [pc, #8]	; (8001070 <MX_TIM3_Init+0xa0>)
 8001066:	f7ff ff05 	bl	8000e74 <HAL_TIM_MspPostInit>
 800106a:	b00a      	add	sp, #40	; 0x28
 800106c:	bd10      	pop	{r4, pc}
 800106e:	bf00      	nop
 8001070:	200036ac 	.word	0x200036ac
 8001074:	40000400 	.word	0x40000400

08001078 <MX_TIM9_Init>:
 8001078:	b510      	push	{r4, lr}
 800107a:	2400      	movs	r4, #0
 800107c:	b08a      	sub	sp, #40	; 0x28
 800107e:	2210      	movs	r2, #16
 8001080:	2100      	movs	r1, #0
 8001082:	a802      	add	r0, sp, #8
 8001084:	f005 f803 	bl	800608e <memset>
 8001088:	2210      	movs	r2, #16
 800108a:	4621      	mov	r1, r4
 800108c:	a806      	add	r0, sp, #24
 800108e:	e9cd 4400 	strd	r4, r4, [sp]
 8001092:	f004 fffc 	bl	800608e <memset>
 8001096:	481f      	ldr	r0, [pc, #124]	; (8001114 <MX_TIM9_Init+0x9c>)
 8001098:	4b1f      	ldr	r3, [pc, #124]	; (8001118 <MX_TIM9_Init+0xa0>)
 800109a:	6084      	str	r4, [r0, #8]
 800109c:	e9c0 3400 	strd	r3, r4, [r0]
 80010a0:	f44f 6348 	mov.w	r3, #3200	; 0xc80
 80010a4:	e9c0 3403 	strd	r3, r4, [r0, #12]
 80010a8:	2380      	movs	r3, #128	; 0x80
 80010aa:	6143      	str	r3, [r0, #20]
 80010ac:	f002 f938 	bl	8003320 <HAL_TIM_Base_Init>
 80010b0:	b108      	cbz	r0, 80010b6 <MX_TIM9_Init+0x3e>
 80010b2:	f7ff fdff 	bl	8000cb4 <Error_Handler>
 80010b6:	f44f 5380 	mov.w	r3, #4096	; 0x1000
 80010ba:	a902      	add	r1, sp, #8
 80010bc:	4815      	ldr	r0, [pc, #84]	; (8001114 <MX_TIM9_Init+0x9c>)
 80010be:	9302      	str	r3, [sp, #8]
 80010c0:	f002 fba0 	bl	8003804 <HAL_TIM_ConfigClockSource>
 80010c4:	b108      	cbz	r0, 80010ca <MX_TIM9_Init+0x52>
 80010c6:	f7ff fdf5 	bl	8000cb4 <Error_Handler>
 80010ca:	4812      	ldr	r0, [pc, #72]	; (8001114 <MX_TIM9_Init+0x9c>)
 80010cc:	f002 f9d4 	bl	8003478 <HAL_TIM_PWM_Init>
 80010d0:	b108      	cbz	r0, 80010d6 <MX_TIM9_Init+0x5e>
 80010d2:	f7ff fdef 	bl	8000cb4 <Error_Handler>
 80010d6:	2300      	movs	r3, #0
 80010d8:	4669      	mov	r1, sp
 80010da:	480e      	ldr	r0, [pc, #56]	; (8001114 <MX_TIM9_Init+0x9c>)
 80010dc:	e9cd 3300 	strd	r3, r3, [sp]
 80010e0:	f002 fe26 	bl	8003d30 <HAL_TIMEx_MasterConfigSynchronization>
 80010e4:	b108      	cbz	r0, 80010ea <MX_TIM9_Init+0x72>
 80010e6:	f7ff fde5 	bl	8000cb4 <Error_Handler>
 80010ea:	2260      	movs	r2, #96	; 0x60
 80010ec:	f240 53dc 	movw	r3, #1500	; 0x5dc
 80010f0:	e9cd 2306 	strd	r2, r3, [sp, #24]
 80010f4:	2300      	movs	r3, #0
 80010f6:	2204      	movs	r2, #4
 80010f8:	a906      	add	r1, sp, #24
 80010fa:	4806      	ldr	r0, [pc, #24]	; (8001114 <MX_TIM9_Init+0x9c>)
 80010fc:	e9cd 3308 	strd	r3, r3, [sp, #32]
 8001100:	f002 fa6c 	bl	80035dc <HAL_TIM_PWM_ConfigChannel>
 8001104:	b108      	cbz	r0, 800110a <MX_TIM9_Init+0x92>
 8001106:	f7ff fdd5 	bl	8000cb4 <Error_Handler>
 800110a:	4802      	ldr	r0, [pc, #8]	; (8001114 <MX_TIM9_Init+0x9c>)
 800110c:	f7ff feb2 	bl	8000e74 <HAL_TIM_MspPostInit>
 8001110:	b00a      	add	sp, #40	; 0x28
 8001112:	bd10      	pop	{r4, pc}
 8001114:	200036e8 	.word	0x200036e8
 8001118:	40010800 	.word	0x40010800

0800111c <MX_USART3_UART_Init>:
 800111c:	b508      	push	{r3, lr}
 800111e:	f44f 5316 	mov.w	r3, #9600	; 0x2580
 8001122:	480a      	ldr	r0, [pc, #40]	; (800114c <MX_USART3_UART_Init+0x30>)
 8001124:	4a0a      	ldr	r2, [pc, #40]	; (8001150 <MX_USART3_UART_Init+0x34>)
 8001126:	e9c0 2300 	strd	r2, r3, [r0]
 800112a:	2300      	movs	r3, #0
 800112c:	220c      	movs	r2, #12
 800112e:	e9c0 3302 	strd	r3, r3, [r0, #8]
 8001132:	6103      	str	r3, [r0, #16]
 8001134:	e9c0 2305 	strd	r2, r3, [r0, #20]
 8001138:	61c3      	str	r3, [r0, #28]
 800113a:	f002 ff09 	bl	8003f50 <HAL_UART_Init>
 800113e:	b118      	cbz	r0, 8001148 <MX_USART3_UART_Init+0x2c>
 8001140:	e8bd 4008 	ldmia.w	sp!, {r3, lr}
 8001144:	f7ff bdb6 	b.w	8000cb4 <Error_Handler>
 8001148:	bd08      	pop	{r3, pc}
 800114a:	bf00      	nop
 800114c:	200037a4 	.word	0x200037a4
 8001150:	40004800 	.word	0x40004800

08001154 <HAL_UART_MspInit>:
 8001154:	b530      	push	{r4, r5, lr}
 8001156:	4605      	mov	r5, r0
 8001158:	b089      	sub	sp, #36	; 0x24
 800115a:	2214      	movs	r2, #20
 800115c:	2100      	movs	r1, #0
 800115e:	a803      	add	r0, sp, #12
 8001160:	f004 ff95 	bl	800608e <memset>
 8001164:	682a      	ldr	r2, [r5, #0]
 8001166:	4b2a      	ldr	r3, [pc, #168]	; (8001210 <HAL_UART_MspInit+0xbc>)
 8001168:	429a      	cmp	r2, r3
 800116a:	d14e      	bne.n	800120a <HAL_UART_MspInit+0xb6>
 800116c:	f503 33f8 	add.w	r3, r3, #126976	; 0x1f000
 8001170:	6a5a      	ldr	r2, [r3, #36]	; 0x24
 8001172:	f44f 6140 	mov.w	r1, #3072	; 0xc00
 8001176:	f442 2280 	orr.w	r2, r2, #262144	; 0x40000
 800117a:	625a      	str	r2, [r3, #36]	; 0x24
 800117c:	6a5a      	ldr	r2, [r3, #36]	; 0x24
 800117e:	2003      	movs	r0, #3
 8001180:	f402 2280 	and.w	r2, r2, #262144	; 0x40000
 8001184:	9201      	str	r2, [sp, #4]
 8001186:	9a01      	ldr	r2, [sp, #4]
 8001188:	69da      	ldr	r2, [r3, #28]
 800118a:	4c22      	ldr	r4, [pc, #136]	; (8001214 <HAL_UART_MspInit+0xc0>)
 800118c:	f042 0202 	orr.w	r2, r2, #2
 8001190:	61da      	str	r2, [r3, #28]
 8001192:	69db      	ldr	r3, [r3, #28]
 8001194:	f003 0302 	and.w	r3, r3, #2
 8001198:	9302      	str	r3, [sp, #8]
 800119a:	9b02      	ldr	r3, [sp, #8]
 800119c:	2302      	movs	r3, #2
 800119e:	e9cd 1303 	strd	r1, r3, [sp, #12]
 80011a2:	2307      	movs	r3, #7
 80011a4:	a903      	add	r1, sp, #12
 80011a6:	e9cd 0306 	strd	r0, r3, [sp, #24]
 80011aa:	481b      	ldr	r0, [pc, #108]	; (8001218 <HAL_UART_MspInit+0xc4>)
 80011ac:	f000 fd86 	bl	8001cbc <HAL_GPIO_Init>
 80011b0:	2300      	movs	r3, #0
 80011b2:	2280      	movs	r2, #128	; 0x80
 80011b4:	f8df c06c 	ldr.w	ip, [pc, #108]	; 8001224 <HAL_UART_MspInit+0xd0>
 80011b8:	60a3      	str	r3, [r4, #8]
 80011ba:	e9c4 c300 	strd	ip, r3, [r4]
 80011be:	e9c4 2303 	strd	r2, r3, [r4, #12]
 80011c2:	e9c4 3305 	strd	r3, r3, [r4, #20]
 80011c6:	f44f 5380 	mov.w	r3, #4096	; 0x1000
 80011ca:	4620      	mov	r0, r4
 80011cc:	61e3      	str	r3, [r4, #28]
 80011ce:	f000 fc23 	bl	8001a18 <HAL_DMA_Init>
 80011d2:	b108      	cbz	r0, 80011d8 <HAL_UART_MspInit+0x84>
 80011d4:	f7ff fd6e 	bl	8000cb4 <Error_Handler>
 80011d8:	2310      	movs	r3, #16
 80011da:	4a10      	ldr	r2, [pc, #64]	; (800121c <HAL_UART_MspInit+0xc8>)
 80011dc:	636c      	str	r4, [r5, #52]	; 0x34
 80011de:	6265      	str	r5, [r4, #36]	; 0x24
 80011e0:	4c0f      	ldr	r4, [pc, #60]	; (8001220 <HAL_UART_MspInit+0xcc>)
 80011e2:	e9c4 2300 	strd	r2, r3, [r4]
 80011e6:	2300      	movs	r3, #0
 80011e8:	2280      	movs	r2, #128	; 0x80
 80011ea:	e9c4 3304 	strd	r3, r3, [r4, #16]
 80011ee:	e9c4 3202 	strd	r3, r2, [r4, #8]
 80011f2:	61a3      	str	r3, [r4, #24]
 80011f4:	f44f 5380 	mov.w	r3, #4096	; 0x1000
 80011f8:	4620      	mov	r0, r4
 80011fa:	61e3      	str	r3, [r4, #28]
 80011fc:	f000 fc0c 	bl	8001a18 <HAL_DMA_Init>
 8001200:	b108      	cbz	r0, 8001206 <HAL_UART_MspInit+0xb2>
 8001202:	f7ff fd57 	bl	8000cb4 <Error_Handler>
 8001206:	632c      	str	r4, [r5, #48]	; 0x30
 8001208:	6265      	str	r5, [r4, #36]	; 0x24
 800120a:	b009      	add	sp, #36	; 0x24
 800120c:	bd30      	pop	{r4, r5, pc}
 800120e:	bf00      	nop
 8001210:	40004800 	.word	0x40004800
 8001214:	20003760 	.word	0x20003760
 8001218:	40020400 	.word	0x40020400
 800121c:	4002601c 	.word	0x4002601c
 8001220:	200037e4 	.word	0x200037e4
 8001224:	40026030 	.word	0x40026030

08001228 <Reset_Handler>:
 8001228:	2100      	movs	r1, #0
 800122a:	e003      	b.n	8001234 <LoopCopyDataInit>

0800122c <CopyDataInit>:
 800122c:	4b0b      	ldr	r3, [pc, #44]	; (800125c <LoopFillZerobss+0x14>)
 800122e:	585b      	ldr	r3, [r3, r1]
 8001230:	5043      	str	r3, [r0, r1]
 8001232:	3104      	adds	r1, #4

08001234 <LoopCopyDataInit>:
 8001234:	480a      	ldr	r0, [pc, #40]	; (8001260 <LoopFillZerobss+0x18>)
 8001236:	4b0b      	ldr	r3, [pc, #44]	; (8001264 <LoopFillZerobss+0x1c>)
 8001238:	1842      	adds	r2, r0, r1
 800123a:	429a      	cmp	r2, r3
 800123c:	d3f6      	bcc.n	800122c <CopyDataInit>
 800123e:	4a0a      	ldr	r2, [pc, #40]	; (8001268 <LoopFillZerobss+0x20>)
 8001240:	e002      	b.n	8001248 <LoopFillZerobss>

08001242 <FillZerobss>:
 8001242:	2300      	movs	r3, #0
 8001244:	f842 3b04 	str.w	r3, [r2], #4

08001248 <LoopFillZerobss>:
 8001248:	4b08      	ldr	r3, [pc, #32]	; (800126c <LoopFillZerobss+0x24>)
 800124a:	429a      	cmp	r2, r3
 800124c:	d3f9      	bcc.n	8001242 <FillZerobss>
 800124e:	f7ff fdb9 	bl	8000dc4 <SystemInit>
 8001252:	f004 feed 	bl	8006030 <__libc_init_array>
 8001256:	f7ff fd03 	bl	8000c60 <main>
 800125a:	4770      	bx	lr
 800125c:	0800643c 	.word	0x0800643c
 8001260:	20000000 	.word	0x20000000
 8001264:	20000010 	.word	0x20000010
 8001268:	20000010 	.word	0x20000010
 800126c:	2000386c 	.word	0x2000386c

08001270 <ADC1_IRQHandler>:
 8001270:	e7fe      	b.n	8001270 <ADC1_IRQHandler>

08001272 <HAL_Init>:
 8001272:	b510      	push	{r4, lr}
 8001274:	2003      	movs	r0, #3
 8001276:	f000 fb59 	bl	800192c <HAL_NVIC_SetPriorityGrouping>
 800127a:	2000      	movs	r0, #0
 800127c:	f7ff fd42 	bl	8000d04 <HAL_InitTick>
 8001280:	4604      	mov	r4, r0
 8001282:	b918      	cbnz	r0, 800128c <HAL_Init+0x1a>
 8001284:	f7ff fd18 	bl	8000cb8 <HAL_MspInit>
 8001288:	4620      	mov	r0, r4
 800128a:	bd10      	pop	{r4, pc}
 800128c:	2401      	movs	r4, #1
 800128e:	e7fb      	b.n	8001288 <HAL_Init+0x16>

08001290 <HAL_IncTick>:
 8001290:	4a03      	ldr	r2, [pc, #12]	; (80012a0 <HAL_IncTick+0x10>)
 8001292:	4904      	ldr	r1, [pc, #16]	; (80012a4 <HAL_IncTick+0x14>)
 8001294:	6813      	ldr	r3, [r2, #0]
 8001296:	6809      	ldr	r1, [r1, #0]
 8001298:	440b      	add	r3, r1
 800129a:	6013      	str	r3, [r2, #0]
 800129c:	4770      	bx	lr
 800129e:	bf00      	nop
 80012a0:	20003828 	.word	0x20003828
 80012a4:	20000004 	.word	0x20000004

080012a8 <HAL_GetTick>:
 80012a8:	4b01      	ldr	r3, [pc, #4]	; (80012b0 <HAL_GetTick+0x8>)
 80012aa:	6818      	ldr	r0, [r3, #0]
 80012ac:	4770      	bx	lr
 80012ae:	bf00      	nop
 80012b0:	20003828 	.word	0x20003828

080012b4 <HAL_ADC_Init>:
 80012b4:	b5f7      	push	{r0, r1, r2, r4, r5, r6, r7, lr}
 80012b6:	4604      	mov	r4, r0
 80012b8:	b908      	cbnz	r0, 80012be <HAL_ADC_Init+0xa>
 80012ba:	2001      	movs	r0, #1
 80012bc:	e14e      	b.n	800155c <HAL_ADC_Init+0x2a8>
 80012be:	6802      	ldr	r2, [r0, #0]
 80012c0:	4bb4      	ldr	r3, [pc, #720]	; (8001594 <HAL_ADC_Init+0x2e0>)
 80012c2:	429a      	cmp	r2, r3
 80012c4:	d004      	beq.n	80012d0 <HAL_ADC_Init+0x1c>
 80012c6:	f240 11bd 	movw	r1, #445	; 0x1bd
 80012ca:	48b3      	ldr	r0, [pc, #716]	; (8001598 <HAL_ADC_Init+0x2e4>)
 80012cc:	f7ff fcf3 	bl	8000cb6 <assert_failed>
 80012d0:	6863      	ldr	r3, [r4, #4]
 80012d2:	f433 3280 	bics.w	r2, r3, #65536	; 0x10000
 80012d6:	d007      	beq.n	80012e8 <HAL_ADC_Init+0x34>
 80012d8:	f5b3 3f00 	cmp.w	r3, #131072	; 0x20000
 80012dc:	d004      	beq.n	80012e8 <HAL_ADC_Init+0x34>
 80012de:	f44f 71df 	mov.w	r1, #446	; 0x1be
 80012e2:	48ad      	ldr	r0, [pc, #692]	; (8001598 <HAL_ADC_Init+0x2e4>)
 80012e4:	f7ff fce7 	bl	8000cb6 <assert_failed>
 80012e8:	68a3      	ldr	r3, [r4, #8]
 80012ea:	f033 7340 	bics.w	r3, r3, #50331648	; 0x3000000
 80012ee:	d004      	beq.n	80012fa <HAL_ADC_Init+0x46>
 80012f0:	f240 11bf 	movw	r1, #447	; 0x1bf
 80012f4:	48a8      	ldr	r0, [pc, #672]	; (8001598 <HAL_ADC_Init+0x2e4>)
 80012f6:	f7ff fcde 	bl	8000cb6 <assert_failed>
 80012fa:	68e3      	ldr	r3, [r4, #12]
 80012fc:	f433 6300 	bics.w	r3, r3, #2048	; 0x800
 8001300:	d004      	beq.n	800130c <HAL_ADC_Init+0x58>
 8001302:	f44f 71e0 	mov.w	r1, #448	; 0x1c0
 8001306:	48a4      	ldr	r0, [pc, #656]	; (8001598 <HAL_ADC_Init+0x2e4>)
 8001308:	f7ff fcd5 	bl	8000cb6 <assert_failed>
 800130c:	6923      	ldr	r3, [r4, #16]
 800130e:	f433 7380 	bics.w	r3, r3, #256	; 0x100
 8001312:	d004      	beq.n	800131e <HAL_ADC_Init+0x6a>
 8001314:	f240 11c1 	movw	r1, #449	; 0x1c1
 8001318:	489f      	ldr	r0, [pc, #636]	; (8001598 <HAL_ADC_Init+0x2e4>)
 800131a:	f7ff fccc 	bl	8000cb6 <assert_failed>
 800131e:	6963      	ldr	r3, [r4, #20]
 8001320:	f433 6380 	bics.w	r3, r3, #1024	; 0x400
 8001324:	d004      	beq.n	8001330 <HAL_ADC_Init+0x7c>
 8001326:	f44f 71e1 	mov.w	r1, #450	; 0x1c2
 800132a:	489b      	ldr	r0, [pc, #620]	; (8001598 <HAL_ADC_Init+0x2e4>)
 800132c:	f7ff fcc3 	bl	8000cb6 <assert_failed>
 8001330:	69a3      	ldr	r3, [r4, #24]
 8001332:	f033 0330 	bics.w	r3, r3, #48	; 0x30
 8001336:	d006      	beq.n	8001346 <HAL_ADC_Init+0x92>
 8001338:	2b40      	cmp	r3, #64	; 0x40
 800133a:	d004      	beq.n	8001346 <HAL_ADC_Init+0x92>
 800133c:	f240 11c3 	movw	r1, #451	; 0x1c3
 8001340:	4895      	ldr	r0, [pc, #596]	; (8001598 <HAL_ADC_Init+0x2e4>)
 8001342:	f7ff fcb8 	bl	8000cb6 <assert_failed>
 8001346:	69e3      	ldr	r3, [r4, #28]
 8001348:	f433 3340 	bics.w	r3, r3, #196608	; 0x30000
 800134c:	d004      	beq.n	8001358 <HAL_ADC_Init+0xa4>
 800134e:	f44f 71e2 	mov.w	r1, #452	; 0x1c4
 8001352:	4891      	ldr	r0, [pc, #580]	; (8001598 <HAL_ADC_Init+0x2e4>)
 8001354:	f7ff fcaf 	bl	8000cb6 <assert_failed>
 8001358:	6a23      	ldr	r3, [r4, #32]
 800135a:	f033 0304 	bics.w	r3, r3, #4
 800135e:	d004      	beq.n	800136a <HAL_ADC_Init+0xb6>
 8001360:	f240 11c5 	movw	r1, #453	; 0x1c5
 8001364:	488c      	ldr	r0, [pc, #560]	; (8001598 <HAL_ADC_Init+0x2e4>)
 8001366:	f7ff fca6 	bl	8000cb6 <assert_failed>
 800136a:	f894 3024 	ldrb.w	r3, [r4, #36]	; 0x24
 800136e:	2b01      	cmp	r3, #1
 8001370:	d904      	bls.n	800137c <HAL_ADC_Init+0xc8>
 8001372:	f44f 71e3 	mov.w	r1, #454	; 0x1c6
 8001376:	4888      	ldr	r0, [pc, #544]	; (8001598 <HAL_ADC_Init+0x2e4>)
 8001378:	f7ff fc9d 	bl	8000cb6 <assert_failed>
 800137c:	6b63      	ldr	r3, [r4, #52]	; 0x34
 800137e:	f023 6280 	bic.w	r2, r3, #67108864	; 0x4000000
 8001382:	f1b2 7f00 	cmp.w	r2, #33554432	; 0x2000000
 8001386:	d01c      	beq.n	80013c2 <HAL_ADC_Init+0x10e>
 8001388:	f023 6200 	bic.w	r2, r3, #134217728	; 0x8000000
 800138c:	f1b2 6fe0 	cmp.w	r2, #117440512	; 0x7000000
 8001390:	d017      	beq.n	80013c2 <HAL_ADC_Init+0x10e>
 8001392:	f023 7280 	bic.w	r2, r3, #16777216	; 0x1000000
 8001396:	f1b2 6f00 	cmp.w	r2, #134217728	; 0x8000000
 800139a:	d012      	beq.n	80013c2 <HAL_ADC_Init+0x10e>
 800139c:	f1b2 6f80 	cmp.w	r2, #67108864	; 0x4000000
 80013a0:	d00f      	beq.n	80013c2 <HAL_ADC_Init+0x10e>
 80013a2:	f1b3 6f20 	cmp.w	r3, #167772160	; 0xa000000
 80013a6:	d00c      	beq.n	80013c2 <HAL_ADC_Init+0x10e>
 80013a8:	f033 0210 	bics.w	r2, r3, #16
 80013ac:	d009      	beq.n	80013c2 <HAL_ADC_Init+0x10e>
 80013ae:	f023 7300 	bic.w	r3, r3, #33554432	; 0x2000000
 80013b2:	f1b3 7f80 	cmp.w	r3, #16777216	; 0x1000000
 80013b6:	d004      	beq.n	80013c2 <HAL_ADC_Init+0x10e>
 80013b8:	f240 11c7 	movw	r1, #455	; 0x1c7
 80013bc:	4876      	ldr	r0, [pc, #472]	; (8001598 <HAL_ADC_Init+0x2e4>)
 80013be:	f7ff fc7a 	bl	8000cb6 <assert_failed>
 80013c2:	f894 303c 	ldrb.w	r3, [r4, #60]	; 0x3c
 80013c6:	2b01      	cmp	r3, #1
 80013c8:	d904      	bls.n	80013d4 <HAL_ADC_Init+0x120>
 80013ca:	f44f 71e4 	mov.w	r1, #456	; 0x1c8
 80013ce:	4872      	ldr	r0, [pc, #456]	; (8001598 <HAL_ADC_Init+0x2e4>)
 80013d0:	f7ff fc71 	bl	8000cb6 <assert_failed>
 80013d4:	6923      	ldr	r3, [r4, #16]
 80013d6:	b1eb      	cbz	r3, 8001414 <HAL_ADC_Init+0x160>
 80013d8:	6aa3      	ldr	r3, [r4, #40]	; 0x28
 80013da:	3b01      	subs	r3, #1
 80013dc:	2b1b      	cmp	r3, #27
 80013de:	d904      	bls.n	80013ea <HAL_ADC_Init+0x136>
 80013e0:	f44f 71e6 	mov.w	r1, #460	; 0x1cc
 80013e4:	486c      	ldr	r0, [pc, #432]	; (8001598 <HAL_ADC_Init+0x2e4>)
 80013e6:	f7ff fc66 	bl	8000cb6 <assert_failed>
 80013ea:	f894 302c 	ldrb.w	r3, [r4, #44]	; 0x2c
 80013ee:	2b01      	cmp	r3, #1
 80013f0:	d904      	bls.n	80013fc <HAL_ADC_Init+0x148>
 80013f2:	f240 11cd 	movw	r1, #461	; 0x1cd
 80013f6:	4868      	ldr	r0, [pc, #416]	; (8001598 <HAL_ADC_Init+0x2e4>)
 80013f8:	f7ff fc5d 	bl	8000cb6 <assert_failed>
 80013fc:	f894 302c 	ldrb.w	r3, [r4, #44]	; 0x2c
 8001400:	b143      	cbz	r3, 8001414 <HAL_ADC_Init+0x160>
 8001402:	6b23      	ldr	r3, [r4, #48]	; 0x30
 8001404:	3b01      	subs	r3, #1
 8001406:	2b07      	cmp	r3, #7
 8001408:	d904      	bls.n	8001414 <HAL_ADC_Init+0x160>
 800140a:	f44f 71e8 	mov.w	r1, #464	; 0x1d0
 800140e:	4862      	ldr	r0, [pc, #392]	; (8001598 <HAL_ADC_Init+0x2e4>)
 8001410:	f7ff fc51 	bl	8000cb6 <assert_failed>
 8001414:	6b63      	ldr	r3, [r4, #52]	; 0x34
 8001416:	2b10      	cmp	r3, #16
 8001418:	d008      	beq.n	800142c <HAL_ADC_Init+0x178>
 800141a:	6ba3      	ldr	r3, [r4, #56]	; 0x38
 800141c:	f033 5340 	bics.w	r3, r3, #805306368	; 0x30000000
 8001420:	d004      	beq.n	800142c <HAL_ADC_Init+0x178>
 8001422:	f44f 71eb 	mov.w	r1, #470	; 0x1d6
 8001426:	485c      	ldr	r0, [pc, #368]	; (8001598 <HAL_ADC_Init+0x2e4>)
 8001428:	f7ff fc45 	bl	8000cb6 <assert_failed>
 800142c:	6ce3      	ldr	r3, [r4, #76]	; 0x4c
 800142e:	b97b      	cbnz	r3, 8001450 <HAL_ADC_Init+0x19c>
 8001430:	6523      	str	r3, [r4, #80]	; 0x50
 8001432:	f884 3048 	strb.w	r3, [r4, #72]	; 0x48
 8001436:	4b59      	ldr	r3, [pc, #356]	; (800159c <HAL_ADC_Init+0x2e8>)
 8001438:	4620      	mov	r0, r4
 800143a:	6a1a      	ldr	r2, [r3, #32]
 800143c:	f042 0201 	orr.w	r2, r2, #1
 8001440:	621a      	str	r2, [r3, #32]
 8001442:	6a1b      	ldr	r3, [r3, #32]
 8001444:	f003 0301 	and.w	r3, r3, #1
 8001448:	9301      	str	r3, [sp, #4]
 800144a:	9b01      	ldr	r3, [sp, #4]
 800144c:	f7ff fa00 	bl	8000850 <HAL_ADC_MspInit>
 8001450:	6ce3      	ldr	r3, [r4, #76]	; 0x4c
 8001452:	06db      	lsls	r3, r3, #27
 8001454:	f53f af31 	bmi.w	80012ba <HAL_ADC_Init+0x6>
 8001458:	6ce3      	ldr	r3, [r4, #76]	; 0x4c
 800145a:	4a51      	ldr	r2, [pc, #324]	; (80015a0 <HAL_ADC_Init+0x2ec>)
 800145c:	f423 5388 	bic.w	r3, r3, #4352	; 0x1100
 8001460:	f023 0302 	bic.w	r3, r3, #2
 8001464:	f043 0302 	orr.w	r3, r3, #2
 8001468:	64e3      	str	r3, [r4, #76]	; 0x4c
 800146a:	6853      	ldr	r3, [r2, #4]
 800146c:	6861      	ldr	r1, [r4, #4]
 800146e:	f423 3340 	bic.w	r3, r3, #196608	; 0x30000
 8001472:	430b      	orrs	r3, r1
 8001474:	6053      	str	r3, [r2, #4]
 8001476:	f44f 7100 	mov.w	r1, #512	; 0x200
 800147a:	fa91 f1a1 	rbit	r1, r1
 800147e:	2302      	movs	r3, #2
 8001480:	fab1 f181 	clz	r1, r1
 8001484:	f894 0024 	ldrb.w	r0, [r4, #36]	; 0x24
 8001488:	fa93 f3a3 	rbit	r3, r3
 800148c:	fab3 f383 	clz	r3, r3
 8001490:	6965      	ldr	r5, [r4, #20]
 8001492:	68e2      	ldr	r2, [r4, #12]
 8001494:	fa00 f303 	lsl.w	r3, r0, r3
 8001498:	432a      	orrs	r2, r5
 800149a:	6a25      	ldr	r5, [r4, #32]
 800149c:	6926      	ldr	r6, [r4, #16]
 800149e:	432a      	orrs	r2, r5
 80014a0:	f894 503c 	ldrb.w	r5, [r4, #60]	; 0x3c
 80014a4:	fa05 f101 	lsl.w	r1, r5, r1
 80014a8:	430a      	orrs	r2, r1
 80014aa:	4313      	orrs	r3, r2
 80014ac:	6b62      	ldr	r2, [r4, #52]	; 0x34
 80014ae:	6825      	ldr	r5, [r4, #0]
 80014b0:	2a10      	cmp	r2, #16
 80014b2:	bf1c      	itt	ne
 80014b4:	6ba1      	ldrne	r1, [r4, #56]	; 0x38
 80014b6:	430a      	orrne	r2, r1
 80014b8:	6829      	ldr	r1, [r5, #0]
 80014ba:	bf18      	it	ne
 80014bc:	4313      	orrne	r3, r2
 80014be:	f011 0140 	ands.w	r1, r1, #64	; 0x40
 80014c2:	d124      	bne.n	800150e <HAL_ADC_Init+0x25a>
 80014c4:	69a2      	ldr	r2, [r4, #24]
 80014c6:	69e7      	ldr	r7, [r4, #28]
 80014c8:	4313      	orrs	r3, r2
 80014ca:	68a2      	ldr	r2, [r4, #8]
 80014cc:	f5b6 7f80 	cmp.w	r6, #256	; 0x100
 80014d0:	ea42 0207 	orr.w	r2, r2, r7
 80014d4:	d044      	beq.n	8001560 <HAL_ADC_Init+0x2ac>
 80014d6:	2e01      	cmp	r6, #1
 80014d8:	bf08      	it	eq
 80014da:	f44f 7180 	moveq.w	r1, #256	; 0x100
 80014de:	430a      	orrs	r2, r1
 80014e0:	f894 102c 	ldrb.w	r1, [r4, #44]	; 0x2c
 80014e4:	2901      	cmp	r1, #1
 80014e6:	d10d      	bne.n	8001504 <HAL_ADC_Init+0x250>
 80014e8:	2800      	cmp	r0, #0
 80014ea:	d13b      	bne.n	8001564 <HAL_ADC_Init+0x2b0>
 80014ec:	f44f 4160 	mov.w	r1, #57344	; 0xe000
 80014f0:	fa91 f1a1 	rbit	r1, r1
 80014f4:	fab1 f081 	clz	r0, r1
 80014f8:	6b21      	ldr	r1, [r4, #48]	; 0x30
 80014fa:	f442 6200 	orr.w	r2, r2, #2048	; 0x800
 80014fe:	3901      	subs	r1, #1
 8001500:	4081      	lsls	r1, r0
 8001502:	430a      	orrs	r2, r1
 8001504:	6868      	ldr	r0, [r5, #4]
 8001506:	4927      	ldr	r1, [pc, #156]	; (80015a4 <HAL_ADC_Init+0x2f0>)
 8001508:	4001      	ands	r1, r0
 800150a:	430a      	orrs	r2, r1
 800150c:	606a      	str	r2, [r5, #4]
 800150e:	68a9      	ldr	r1, [r5, #8]
 8001510:	4a25      	ldr	r2, [pc, #148]	; (80015a8 <HAL_ADC_Init+0x2f4>)
 8001512:	f5b6 7f80 	cmp.w	r6, #256	; 0x100
 8001516:	ea02 0201 	and.w	r2, r2, r1
 800151a:	ea42 0203 	orr.w	r2, r2, r3
 800151e:	60aa      	str	r2, [r5, #8]
 8001520:	d001      	beq.n	8001526 <HAL_ADC_Init+0x272>
 8001522:	2e01      	cmp	r6, #1
 8001524:	d127      	bne.n	8001576 <HAL_ADC_Init+0x2c2>
 8001526:	6b28      	ldr	r0, [r5, #48]	; 0x30
 8001528:	f04f 72f8 	mov.w	r2, #32505856	; 0x1f00000
 800152c:	fa92 f2a2 	rbit	r2, r2
 8001530:	fab2 f182 	clz	r1, r2
 8001534:	6aa2      	ldr	r2, [r4, #40]	; 0x28
 8001536:	3a01      	subs	r2, #1
 8001538:	408a      	lsls	r2, r1
 800153a:	f020 71f8 	bic.w	r1, r0, #32505856	; 0x1f00000
 800153e:	430a      	orrs	r2, r1
 8001540:	632a      	str	r2, [r5, #48]	; 0x30
 8001542:	68a9      	ldr	r1, [r5, #8]
 8001544:	4a19      	ldr	r2, [pc, #100]	; (80015ac <HAL_ADC_Init+0x2f8>)
 8001546:	400a      	ands	r2, r1
 8001548:	429a      	cmp	r2, r3
 800154a:	d118      	bne.n	800157e <HAL_ADC_Init+0x2ca>
 800154c:	2000      	movs	r0, #0
 800154e:	6520      	str	r0, [r4, #80]	; 0x50
 8001550:	6ce3      	ldr	r3, [r4, #76]	; 0x4c
 8001552:	f023 0303 	bic.w	r3, r3, #3
 8001556:	f043 0301 	orr.w	r3, r3, #1
 800155a:	64e3      	str	r3, [r4, #76]	; 0x4c
 800155c:	b003      	add	sp, #12
 800155e:	bdf0      	pop	{r4, r5, r6, r7, pc}
 8001560:	4631      	mov	r1, r6
 8001562:	e7bc      	b.n	80014de <HAL_ADC_Init+0x22a>
 8001564:	6ce1      	ldr	r1, [r4, #76]	; 0x4c
 8001566:	f041 0120 	orr.w	r1, r1, #32
 800156a:	64e1      	str	r1, [r4, #76]	; 0x4c
 800156c:	6d21      	ldr	r1, [r4, #80]	; 0x50
 800156e:	f041 0101 	orr.w	r1, r1, #1
 8001572:	6521      	str	r1, [r4, #80]	; 0x50
 8001574:	e7c6      	b.n	8001504 <HAL_ADC_Init+0x250>
 8001576:	6b2a      	ldr	r2, [r5, #48]	; 0x30
 8001578:	f022 72f8 	bic.w	r2, r2, #32505856	; 0x1f00000
 800157c:	e7e0      	b.n	8001540 <HAL_ADC_Init+0x28c>
 800157e:	6ce3      	ldr	r3, [r4, #76]	; 0x4c
 8001580:	f023 0312 	bic.w	r3, r3, #18
 8001584:	f043 0310 	orr.w	r3, r3, #16
 8001588:	64e3      	str	r3, [r4, #76]	; 0x4c
 800158a:	6d23      	ldr	r3, [r4, #80]	; 0x50
 800158c:	f043 0301 	orr.w	r3, r3, #1
 8001590:	6523      	str	r3, [r4, #80]	; 0x50
 8001592:	e692      	b.n	80012ba <HAL_ADC_Init+0x6>
 8001594:	40012400 	.word	0x40012400
 8001598:	08006221 	.word	0x08006221
 800159c:	40023800 	.word	0x40023800
 80015a0:	40012700 	.word	0x40012700
 80015a4:	fcfc16ff 	.word	0xfcfc16ff
 80015a8:	c0fff189 	.word	0xc0fff189
 80015ac:	bf80fffe 	.word	0xbf80fffe

080015b0 <ADC_DMAConvCplt>:
 80015b0:	6a43      	ldr	r3, [r0, #36]	; 0x24
 80015b2:	b510      	push	{r4, lr}
 80015b4:	6cda      	ldr	r2, [r3, #76]	; 0x4c
 80015b6:	f012 0f50 	tst.w	r2, #80	; 0x50
 80015ba:	d125      	bne.n	8001608 <ADC_DMAConvCplt+0x58>
 80015bc:	6cda      	ldr	r2, [r3, #76]	; 0x4c
 80015be:	f442 7200 	orr.w	r2, r2, #512	; 0x200
 80015c2:	64da      	str	r2, [r3, #76]	; 0x4c
 80015c4:	681a      	ldr	r2, [r3, #0]
 80015c6:	6891      	ldr	r1, [r2, #8]
 80015c8:	f011 5f40 	tst.w	r1, #805306368	; 0x30000000
 80015cc:	d118      	bne.n	8001600 <ADC_DMAConvCplt+0x50>
 80015ce:	f893 1024 	ldrb.w	r1, [r3, #36]	; 0x24
 80015d2:	b9a9      	cbnz	r1, 8001600 <ADC_DMAConvCplt+0x50>
 80015d4:	6b11      	ldr	r1, [r2, #48]	; 0x30
 80015d6:	f011 7ff8 	tst.w	r1, #32505856	; 0x1f00000
 80015da:	d002      	beq.n	80015e2 <ADC_DMAConvCplt+0x32>
 80015dc:	6891      	ldr	r1, [r2, #8]
 80015de:	0549      	lsls	r1, r1, #21
 80015e0:	d40e      	bmi.n	8001600 <ADC_DMAConvCplt+0x50>
 80015e2:	6851      	ldr	r1, [r2, #4]
 80015e4:	f021 0120 	bic.w	r1, r1, #32
 80015e8:	6051      	str	r1, [r2, #4]
 80015ea:	6cda      	ldr	r2, [r3, #76]	; 0x4c
 80015ec:	f422 7280 	bic.w	r2, r2, #256	; 0x100
 80015f0:	64da      	str	r2, [r3, #76]	; 0x4c
 80015f2:	6cda      	ldr	r2, [r3, #76]	; 0x4c
 80015f4:	04d2      	lsls	r2, r2, #19
 80015f6:	bf5e      	ittt	pl
 80015f8:	6cda      	ldrpl	r2, [r3, #76]	; 0x4c
 80015fa:	f042 0201 	orrpl.w	r2, r2, #1
 80015fe:	64da      	strpl	r2, [r3, #76]	; 0x4c
 8001600:	4618      	mov	r0, r3
 8001602:	f7ff f84d 	bl	80006a0 <HAL_ADC_ConvCpltCallback>
 8001606:	bd10      	pop	{r4, pc}
 8001608:	6c5b      	ldr	r3, [r3, #68]	; 0x44
 800160a:	e8bd 4010 	ldmia.w	sp!, {r4, lr}
 800160e:	6b1b      	ldr	r3, [r3, #48]	; 0x30
 8001610:	4718      	bx	r3

08001612 <HAL_ADC_ConvHalfCpltCallback>:
 8001612:	4770      	bx	lr

08001614 <ADC_DMAHalfConvCplt>:
 8001614:	b508      	push	{r3, lr}
 8001616:	6a40      	ldr	r0, [r0, #36]	; 0x24
 8001618:	f7ff fffb 	bl	8001612 <HAL_ADC_ConvHalfCpltCallback>
 800161c:	bd08      	pop	{r3, pc}

0800161e <HAL_ADC_ErrorCallback>:
 800161e:	4770      	bx	lr

08001620 <ADC_DMAError>:
 8001620:	6a40      	ldr	r0, [r0, #36]	; 0x24
 8001622:	b508      	push	{r3, lr}
 8001624:	6cc3      	ldr	r3, [r0, #76]	; 0x4c
 8001626:	f043 0340 	orr.w	r3, r3, #64	; 0x40
 800162a:	64c3      	str	r3, [r0, #76]	; 0x4c
 800162c:	6d03      	ldr	r3, [r0, #80]	; 0x50
 800162e:	f043 0304 	orr.w	r3, r3, #4
 8001632:	6503      	str	r3, [r0, #80]	; 0x50
 8001634:	f7ff fff3 	bl	800161e <HAL_ADC_ErrorCallback>
 8001638:	bd08      	pop	{r3, pc}
	...

0800163c <HAL_ADC_ConfigChannel>:
 800163c:	2300      	movs	r3, #0
 800163e:	b573      	push	{r0, r1, r4, r5, r6, lr}
 8001640:	6802      	ldr	r2, [r0, #0]
 8001642:	9301      	str	r3, [sp, #4]
 8001644:	4b61      	ldr	r3, [pc, #388]	; (80017cc <HAL_ADC_ConfigChannel+0x190>)
 8001646:	4604      	mov	r4, r0
 8001648:	429a      	cmp	r2, r3
 800164a:	460d      	mov	r5, r1
 800164c:	d004      	beq.n	8001658 <HAL_ADC_ConfigChannel+0x1c>
 800164e:	f240 7191 	movw	r1, #1937	; 0x791
 8001652:	485f      	ldr	r0, [pc, #380]	; (80017d0 <HAL_ADC_ConfigChannel+0x194>)
 8001654:	f7ff fb2f 	bl	8000cb6 <assert_failed>
 8001658:	682b      	ldr	r3, [r5, #0]
 800165a:	2b1f      	cmp	r3, #31
 800165c:	d904      	bls.n	8001668 <HAL_ADC_ConfigChannel+0x2c>
 800165e:	f240 7192 	movw	r1, #1938	; 0x792
 8001662:	485b      	ldr	r0, [pc, #364]	; (80017d0 <HAL_ADC_ConfigChannel+0x194>)
 8001664:	f7ff fb27 	bl	8000cb6 <assert_failed>
 8001668:	686b      	ldr	r3, [r5, #4]
 800166a:	3b01      	subs	r3, #1
 800166c:	2b1b      	cmp	r3, #27
 800166e:	d904      	bls.n	800167a <HAL_ADC_ConfigChannel+0x3e>
 8001670:	f240 7193 	movw	r1, #1939	; 0x793
 8001674:	4856      	ldr	r0, [pc, #344]	; (80017d0 <HAL_ADC_ConfigChannel+0x194>)
 8001676:	f7ff fb1e 	bl	8000cb6 <assert_failed>
 800167a:	68ab      	ldr	r3, [r5, #8]
 800167c:	2b07      	cmp	r3, #7
 800167e:	d904      	bls.n	800168a <HAL_ADC_ConfigChannel+0x4e>
 8001680:	f240 7194 	movw	r1, #1940	; 0x794
 8001684:	4852      	ldr	r0, [pc, #328]	; (80017d0 <HAL_ADC_ConfigChannel+0x194>)
 8001686:	f7ff fb16 	bl	8000cb6 <assert_failed>
 800168a:	f894 3048 	ldrb.w	r3, [r4, #72]	; 0x48
 800168e:	2b01      	cmp	r3, #1
 8001690:	f000 809a 	beq.w	80017c8 <HAL_ADC_ConfigChannel+0x18c>
 8001694:	2301      	movs	r3, #1
 8001696:	6868      	ldr	r0, [r5, #4]
 8001698:	f884 3048 	strb.w	r3, [r4, #72]	; 0x48
 800169c:	2806      	cmp	r0, #6
 800169e:	6822      	ldr	r2, [r4, #0]
 80016a0:	eb00 0380 	add.w	r3, r0, r0, lsl #2
 80016a4:	6829      	ldr	r1, [r5, #0]
 80016a6:	d820      	bhi.n	80016ea <HAL_ADC_ConfigChannel+0xae>
 80016a8:	261f      	movs	r6, #31
 80016aa:	6c10      	ldr	r0, [r2, #64]	; 0x40
 80016ac:	3b05      	subs	r3, #5
 80016ae:	409e      	lsls	r6, r3
 80016b0:	ea20 0006 	bic.w	r0, r0, r6
 80016b4:	fa01 f303 	lsl.w	r3, r1, r3
 80016b8:	4303      	orrs	r3, r0
 80016ba:	6413      	str	r3, [r2, #64]	; 0x40
 80016bc:	2909      	cmp	r1, #9
 80016be:	eb01 0341 	add.w	r3, r1, r1, lsl #1
 80016c2:	68a8      	ldr	r0, [r5, #8]
 80016c4:	d843      	bhi.n	800174e <HAL_ADC_ConfigChannel+0x112>
 80016c6:	2607      	movs	r6, #7
 80016c8:	6955      	ldr	r5, [r2, #20]
 80016ca:	409e      	lsls	r6, r3
 80016cc:	ea25 0506 	bic.w	r5, r5, r6
 80016d0:	fa00 f303 	lsl.w	r3, r0, r3
 80016d4:	432b      	orrs	r3, r5
 80016d6:	6153      	str	r3, [r2, #20]
 80016d8:	f1a1 0310 	sub.w	r3, r1, #16
 80016dc:	2b01      	cmp	r3, #1
 80016de:	d95b      	bls.n	8001798 <HAL_ADC_ConfigChannel+0x15c>
 80016e0:	2000      	movs	r0, #0
 80016e2:	f884 0048 	strb.w	r0, [r4, #72]	; 0x48
 80016e6:	b002      	add	sp, #8
 80016e8:	bd70      	pop	{r4, r5, r6, pc}
 80016ea:	280c      	cmp	r0, #12
 80016ec:	d80a      	bhi.n	8001704 <HAL_ADC_ConfigChannel+0xc8>
 80016ee:	261f      	movs	r6, #31
 80016f0:	6bd0      	ldr	r0, [r2, #60]	; 0x3c
 80016f2:	3b23      	subs	r3, #35	; 0x23
 80016f4:	409e      	lsls	r6, r3
 80016f6:	ea20 0006 	bic.w	r0, r0, r6
 80016fa:	fa01 f303 	lsl.w	r3, r1, r3
 80016fe:	4303      	orrs	r3, r0
 8001700:	63d3      	str	r3, [r2, #60]	; 0x3c
 8001702:	e7db      	b.n	80016bc <HAL_ADC_ConfigChannel+0x80>
 8001704:	2812      	cmp	r0, #18
 8001706:	d80a      	bhi.n	800171e <HAL_ADC_ConfigChannel+0xe2>
 8001708:	261f      	movs	r6, #31
 800170a:	6b90      	ldr	r0, [r2, #56]	; 0x38
 800170c:	3b41      	subs	r3, #65	; 0x41
 800170e:	409e      	lsls	r6, r3
 8001710:	ea20 0006 	bic.w	r0, r0, r6
 8001714:	fa01 f303 	lsl.w	r3, r1, r3
 8001718:	4303      	orrs	r3, r0
 800171a:	6393      	str	r3, [r2, #56]	; 0x38
 800171c:	e7ce      	b.n	80016bc <HAL_ADC_ConfigChannel+0x80>
 800171e:	2818      	cmp	r0, #24
 8001720:	f04f 001f 	mov.w	r0, #31
 8001724:	d809      	bhi.n	800173a <HAL_ADC_ConfigChannel+0xfe>
 8001726:	6b56      	ldr	r6, [r2, #52]	; 0x34
 8001728:	3b5f      	subs	r3, #95	; 0x5f
 800172a:	4098      	lsls	r0, r3
 800172c:	ea26 0000 	bic.w	r0, r6, r0
 8001730:	fa01 f303 	lsl.w	r3, r1, r3
 8001734:	4303      	orrs	r3, r0
 8001736:	6353      	str	r3, [r2, #52]	; 0x34
 8001738:	e7c0      	b.n	80016bc <HAL_ADC_ConfigChannel+0x80>
 800173a:	6b16      	ldr	r6, [r2, #48]	; 0x30
 800173c:	3b7d      	subs	r3, #125	; 0x7d
 800173e:	4098      	lsls	r0, r3
 8001740:	ea26 0000 	bic.w	r0, r6, r0
 8001744:	fa01 f303 	lsl.w	r3, r1, r3
 8001748:	4303      	orrs	r3, r0
 800174a:	6313      	str	r3, [r2, #48]	; 0x30
 800174c:	e7b6      	b.n	80016bc <HAL_ADC_ConfigChannel+0x80>
 800174e:	2913      	cmp	r1, #19
 8001750:	d80a      	bhi.n	8001768 <HAL_ADC_ConfigChannel+0x12c>
 8001752:	2607      	movs	r6, #7
 8001754:	6915      	ldr	r5, [r2, #16]
 8001756:	3b1e      	subs	r3, #30
 8001758:	409e      	lsls	r6, r3
 800175a:	ea25 0506 	bic.w	r5, r5, r6
 800175e:	fa00 f303 	lsl.w	r3, r0, r3
 8001762:	432b      	orrs	r3, r5
 8001764:	6113      	str	r3, [r2, #16]
 8001766:	e7b7      	b.n	80016d8 <HAL_ADC_ConfigChannel+0x9c>
 8001768:	291d      	cmp	r1, #29
 800176a:	f04f 0507 	mov.w	r5, #7
 800176e:	d809      	bhi.n	8001784 <HAL_ADC_ConfigChannel+0x148>
 8001770:	68d6      	ldr	r6, [r2, #12]
 8001772:	3b3c      	subs	r3, #60	; 0x3c
 8001774:	409d      	lsls	r5, r3
 8001776:	ea26 0505 	bic.w	r5, r6, r5
 800177a:	fa00 f303 	lsl.w	r3, r0, r3
 800177e:	432b      	orrs	r3, r5
 8001780:	60d3      	str	r3, [r2, #12]
 8001782:	e7a9      	b.n	80016d8 <HAL_ADC_ConfigChannel+0x9c>
 8001784:	6dd6      	ldr	r6, [r2, #92]	; 0x5c
 8001786:	3b5a      	subs	r3, #90	; 0x5a
 8001788:	409d      	lsls	r5, r3
 800178a:	ea26 0505 	bic.w	r5, r6, r5
 800178e:	fa00 f303 	lsl.w	r3, r0, r3
 8001792:	432b      	orrs	r3, r5
 8001794:	65d3      	str	r3, [r2, #92]	; 0x5c
 8001796:	e79f      	b.n	80016d8 <HAL_ADC_ConfigChannel+0x9c>
 8001798:	4b0e      	ldr	r3, [pc, #56]	; (80017d4 <HAL_ADC_ConfigChannel+0x198>)
 800179a:	685a      	ldr	r2, [r3, #4]
 800179c:	0212      	lsls	r2, r2, #8
 800179e:	d49f      	bmi.n	80016e0 <HAL_ADC_ConfigChannel+0xa4>
 80017a0:	685a      	ldr	r2, [r3, #4]
 80017a2:	2910      	cmp	r1, #16
 80017a4:	f442 0200 	orr.w	r2, r2, #8388608	; 0x800000
 80017a8:	605a      	str	r2, [r3, #4]
 80017aa:	d199      	bne.n	80016e0 <HAL_ADC_ConfigChannel+0xa4>
 80017ac:	4b0a      	ldr	r3, [pc, #40]	; (80017d8 <HAL_ADC_ConfigChannel+0x19c>)
 80017ae:	4a0b      	ldr	r2, [pc, #44]	; (80017dc <HAL_ADC_ConfigChannel+0x1a0>)
 80017b0:	681b      	ldr	r3, [r3, #0]
 80017b2:	fbb3 f2f2 	udiv	r2, r3, r2
 80017b6:	230a      	movs	r3, #10
 80017b8:	4353      	muls	r3, r2
 80017ba:	9301      	str	r3, [sp, #4]
 80017bc:	9b01      	ldr	r3, [sp, #4]
 80017be:	2b00      	cmp	r3, #0
 80017c0:	d08e      	beq.n	80016e0 <HAL_ADC_ConfigChannel+0xa4>
 80017c2:	9b01      	ldr	r3, [sp, #4]
 80017c4:	3b01      	subs	r3, #1
 80017c6:	e7f8      	b.n	80017ba <HAL_ADC_ConfigChannel+0x17e>
 80017c8:	2002      	movs	r0, #2
 80017ca:	e78c      	b.n	80016e6 <HAL_ADC_ConfigChannel+0xaa>
 80017cc:	40012400 	.word	0x40012400
 80017d0:	08006221 	.word	0x08006221
 80017d4:	40012700 	.word	0x40012700
 80017d8:	20000000 	.word	0x20000000
 80017dc:	000f4240 	.word	0x000f4240

080017e0 <ADC_Enable>:
 80017e0:	2300      	movs	r3, #0
 80017e2:	b573      	push	{r0, r1, r4, r5, r6, lr}
 80017e4:	9301      	str	r3, [sp, #4]
 80017e6:	6803      	ldr	r3, [r0, #0]
 80017e8:	4604      	mov	r4, r0
 80017ea:	681a      	ldr	r2, [r3, #0]
 80017ec:	0652      	lsls	r2, r2, #25
 80017ee:	d502      	bpl.n	80017f6 <ADC_Enable+0x16>
 80017f0:	2000      	movs	r0, #0
 80017f2:	b002      	add	sp, #8
 80017f4:	bd70      	pop	{r4, r5, r6, pc}
 80017f6:	689a      	ldr	r2, [r3, #8]
 80017f8:	f042 0201 	orr.w	r2, r2, #1
 80017fc:	609a      	str	r2, [r3, #8]
 80017fe:	4b13      	ldr	r3, [pc, #76]	; (800184c <ADC_Enable+0x6c>)
 8001800:	4a13      	ldr	r2, [pc, #76]	; (8001850 <ADC_Enable+0x70>)
 8001802:	681b      	ldr	r3, [r3, #0]
 8001804:	fbb3 f3f2 	udiv	r3, r3, r2
 8001808:	eb03 0343 	add.w	r3, r3, r3, lsl #1
 800180c:	9301      	str	r3, [sp, #4]
 800180e:	9b01      	ldr	r3, [sp, #4]
 8001810:	b9c3      	cbnz	r3, 8001844 <ADC_Enable+0x64>
 8001812:	f7ff fd49 	bl	80012a8 <HAL_GetTick>
 8001816:	4606      	mov	r6, r0
 8001818:	6823      	ldr	r3, [r4, #0]
 800181a:	681d      	ldr	r5, [r3, #0]
 800181c:	f015 0540 	ands.w	r5, r5, #64	; 0x40
 8001820:	d1e6      	bne.n	80017f0 <ADC_Enable+0x10>
 8001822:	f7ff fd41 	bl	80012a8 <HAL_GetTick>
 8001826:	1b80      	subs	r0, r0, r6
 8001828:	2802      	cmp	r0, #2
 800182a:	d9f5      	bls.n	8001818 <ADC_Enable+0x38>
 800182c:	6ce3      	ldr	r3, [r4, #76]	; 0x4c
 800182e:	f884 5048 	strb.w	r5, [r4, #72]	; 0x48
 8001832:	f043 0310 	orr.w	r3, r3, #16
 8001836:	64e3      	str	r3, [r4, #76]	; 0x4c
 8001838:	6d23      	ldr	r3, [r4, #80]	; 0x50
 800183a:	2001      	movs	r0, #1
 800183c:	f043 0301 	orr.w	r3, r3, #1
 8001840:	6523      	str	r3, [r4, #80]	; 0x50
 8001842:	e7d6      	b.n	80017f2 <ADC_Enable+0x12>
 8001844:	9b01      	ldr	r3, [sp, #4]
 8001846:	3b01      	subs	r3, #1
 8001848:	e7e0      	b.n	800180c <ADC_Enable+0x2c>
 800184a:	bf00      	nop
 800184c:	20000000 	.word	0x20000000
 8001850:	000f4240 	.word	0x000f4240

08001854 <HAL_ADC_Start_DMA>:
 8001854:	b5f8      	push	{r3, r4, r5, r6, r7, lr}
 8001856:	4617      	mov	r7, r2
 8001858:	4b2f      	ldr	r3, [pc, #188]	; (8001918 <HAL_ADC_Start_DMA+0xc4>)
 800185a:	6802      	ldr	r2, [r0, #0]
 800185c:	4604      	mov	r4, r0
 800185e:	429a      	cmp	r2, r3
 8001860:	460e      	mov	r6, r1
 8001862:	d004      	beq.n	800186e <HAL_ADC_Start_DMA+0x1a>
 8001864:	f44f 61bc 	mov.w	r1, #1504	; 0x5e0
 8001868:	482c      	ldr	r0, [pc, #176]	; (800191c <HAL_ADC_Start_DMA+0xc8>)
 800186a:	f7ff fa24 	bl	8000cb6 <assert_failed>
 800186e:	f894 3048 	ldrb.w	r3, [r4, #72]	; 0x48
 8001872:	2b01      	cmp	r3, #1
 8001874:	d04d      	beq.n	8001912 <HAL_ADC_Start_DMA+0xbe>
 8001876:	2301      	movs	r3, #1
 8001878:	4620      	mov	r0, r4
 800187a:	f884 3048 	strb.w	r3, [r4, #72]	; 0x48
 800187e:	f7ff ffaf 	bl	80017e0 <ADC_Enable>
 8001882:	4605      	mov	r5, r0
 8001884:	2800      	cmp	r0, #0
 8001886:	d142      	bne.n	800190e <HAL_ADC_Start_DMA+0xba>
 8001888:	6ce3      	ldr	r3, [r4, #76]	; 0x4c
 800188a:	6821      	ldr	r1, [r4, #0]
 800188c:	f423 63e0 	bic.w	r3, r3, #1792	; 0x700
 8001890:	f023 0301 	bic.w	r3, r3, #1
 8001894:	f443 7380 	orr.w	r3, r3, #256	; 0x100
 8001898:	64e3      	str	r3, [r4, #76]	; 0x4c
 800189a:	684b      	ldr	r3, [r1, #4]
 800189c:	6c60      	ldr	r0, [r4, #68]	; 0x44
 800189e:	055b      	lsls	r3, r3, #21
 80018a0:	bf48      	it	mi
 80018a2:	6ce3      	ldrmi	r3, [r4, #76]	; 0x4c
 80018a4:	4632      	mov	r2, r6
 80018a6:	bf42      	ittt	mi
 80018a8:	f423 5340 	bicmi.w	r3, r3, #12288	; 0x3000
 80018ac:	f443 5380 	orrmi.w	r3, r3, #4096	; 0x1000
 80018b0:	64e3      	strmi	r3, [r4, #76]	; 0x4c
 80018b2:	6ce3      	ldr	r3, [r4, #76]	; 0x4c
 80018b4:	3158      	adds	r1, #88	; 0x58
 80018b6:	f413 5380 	ands.w	r3, r3, #4096	; 0x1000
 80018ba:	bf1c      	itt	ne
 80018bc:	6d23      	ldrne	r3, [r4, #80]	; 0x50
 80018be:	f023 0306 	bicne.w	r3, r3, #6
 80018c2:	6523      	str	r3, [r4, #80]	; 0x50
 80018c4:	2300      	movs	r3, #0
 80018c6:	f884 3048 	strb.w	r3, [r4, #72]	; 0x48
 80018ca:	4b15      	ldr	r3, [pc, #84]	; (8001920 <HAL_ADC_Start_DMA+0xcc>)
 80018cc:	6283      	str	r3, [r0, #40]	; 0x28
 80018ce:	4b15      	ldr	r3, [pc, #84]	; (8001924 <HAL_ADC_Start_DMA+0xd0>)
 80018d0:	62c3      	str	r3, [r0, #44]	; 0x2c
 80018d2:	4b15      	ldr	r3, [pc, #84]	; (8001928 <HAL_ADC_Start_DMA+0xd4>)
 80018d4:	6303      	str	r3, [r0, #48]	; 0x30
 80018d6:	f06f 0322 	mvn.w	r3, #34	; 0x22
 80018da:	f841 3c58 	str.w	r3, [r1, #-88]
 80018de:	f851 3c54 	ldr.w	r3, [r1, #-84]
 80018e2:	f043 6380 	orr.w	r3, r3, #67108864	; 0x4000000
 80018e6:	f841 3c54 	str.w	r3, [r1, #-84]
 80018ea:	f851 3c50 	ldr.w	r3, [r1, #-80]
 80018ee:	f443 7380 	orr.w	r3, r3, #256	; 0x100
 80018f2:	f841 3c50 	str.w	r3, [r1, #-80]
 80018f6:	463b      	mov	r3, r7
 80018f8:	f000 f942 	bl	8001b80 <HAL_DMA_Start_IT>
 80018fc:	6823      	ldr	r3, [r4, #0]
 80018fe:	689a      	ldr	r2, [r3, #8]
 8001900:	f012 5f40 	tst.w	r2, #805306368	; 0x30000000
 8001904:	d103      	bne.n	800190e <HAL_ADC_Start_DMA+0xba>
 8001906:	689a      	ldr	r2, [r3, #8]
 8001908:	f042 4280 	orr.w	r2, r2, #1073741824	; 0x40000000
 800190c:	609a      	str	r2, [r3, #8]
 800190e:	4628      	mov	r0, r5
 8001910:	bdf8      	pop	{r3, r4, r5, r6, r7, pc}
 8001912:	2502      	movs	r5, #2
 8001914:	e7fb      	b.n	800190e <HAL_ADC_Start_DMA+0xba>
 8001916:	bf00      	nop
 8001918:	40012400 	.word	0x40012400
 800191c:	08006221 	.word	0x08006221
 8001920:	080015b1 	.word	0x080015b1
 8001924:	08001615 	.word	0x08001615
 8001928:	08001621 	.word	0x08001621

0800192c <HAL_NVIC_SetPriorityGrouping>:
 800192c:	1ec3      	subs	r3, r0, #3
 800192e:	2b04      	cmp	r3, #4
 8001930:	b510      	push	{r4, lr}
 8001932:	4604      	mov	r4, r0
 8001934:	d903      	bls.n	800193e <HAL_NVIC_SetPriorityGrouping+0x12>
 8001936:	21ac      	movs	r1, #172	; 0xac
 8001938:	4809      	ldr	r0, [pc, #36]	; (8001960 <HAL_NVIC_SetPriorityGrouping+0x34>)
 800193a:	f7ff f9bc 	bl	8000cb6 <assert_failed>
 800193e:	4a09      	ldr	r2, [pc, #36]	; (8001964 <HAL_NVIC_SetPriorityGrouping+0x38>)
 8001940:	0224      	lsls	r4, r4, #8
 8001942:	68d3      	ldr	r3, [r2, #12]
 8001944:	f404 64e0 	and.w	r4, r4, #1792	; 0x700
 8001948:	f423 63e0 	bic.w	r3, r3, #1792	; 0x700
 800194c:	041b      	lsls	r3, r3, #16
 800194e:	0c1b      	lsrs	r3, r3, #16
 8001950:	f043 63bf 	orr.w	r3, r3, #100139008	; 0x5f80000
 8001954:	f443 3300 	orr.w	r3, r3, #131072	; 0x20000
 8001958:	431c      	orrs	r4, r3
 800195a:	60d4      	str	r4, [r2, #12]
 800195c:	bd10      	pop	{r4, pc}
 800195e:	bf00      	nop
 8001960:	08006259 	.word	0x08006259
 8001964:	e000ed00 	.word	0xe000ed00

08001968 <HAL_NVIC_SetPriority>:
 8001968:	2a0f      	cmp	r2, #15
 800196a:	b570      	push	{r4, r5, r6, lr}
 800196c:	4605      	mov	r5, r0
 800196e:	460c      	mov	r4, r1
 8001970:	4616      	mov	r6, r2
 8001972:	d903      	bls.n	800197c <HAL_NVIC_SetPriority+0x14>
 8001974:	21c4      	movs	r1, #196	; 0xc4
 8001976:	481b      	ldr	r0, [pc, #108]	; (80019e4 <HAL_NVIC_SetPriority+0x7c>)
 8001978:	f7ff f99d 	bl	8000cb6 <assert_failed>
 800197c:	2c0f      	cmp	r4, #15
 800197e:	d903      	bls.n	8001988 <HAL_NVIC_SetPriority+0x20>
 8001980:	21c5      	movs	r1, #197	; 0xc5
 8001982:	4818      	ldr	r0, [pc, #96]	; (80019e4 <HAL_NVIC_SetPriority+0x7c>)
 8001984:	f7ff f997 	bl	8000cb6 <assert_failed>
 8001988:	4b17      	ldr	r3, [pc, #92]	; (80019e8 <HAL_NVIC_SetPriority+0x80>)
 800198a:	68da      	ldr	r2, [r3, #12]
 800198c:	f3c2 2202 	ubfx	r2, r2, #8, #3
 8001990:	f1c2 0307 	rsb	r3, r2, #7
 8001994:	1d11      	adds	r1, r2, #4
 8001996:	2b04      	cmp	r3, #4
 8001998:	bf28      	it	cs
 800199a:	2304      	movcs	r3, #4
 800199c:	2906      	cmp	r1, #6
 800199e:	f04f 31ff 	mov.w	r1, #4294967295
 80019a2:	bf98      	it	ls
 80019a4:	2200      	movls	r2, #0
 80019a6:	fa01 f303 	lsl.w	r3, r1, r3
 80019aa:	bf88      	it	hi
 80019ac:	3a03      	subhi	r2, #3
 80019ae:	ea24 0303 	bic.w	r3, r4, r3
 80019b2:	4093      	lsls	r3, r2
 80019b4:	fa01 f202 	lsl.w	r2, r1, r2
 80019b8:	ea26 0602 	bic.w	r6, r6, r2
 80019bc:	2d00      	cmp	r5, #0
 80019be:	ea43 0306 	orr.w	r3, r3, r6
 80019c2:	bfa8      	it	ge
 80019c4:	f105 4560 	addge.w	r5, r5, #3758096384	; 0xe0000000
 80019c8:	ea4f 1303 	mov.w	r3, r3, lsl #4
 80019cc:	bfb8      	it	lt
 80019ce:	4a07      	ldrlt	r2, [pc, #28]	; (80019ec <HAL_NVIC_SetPriority+0x84>)
 80019d0:	b2db      	uxtb	r3, r3
 80019d2:	bfab      	itete	ge
 80019d4:	f505 4561 	addge.w	r5, r5, #57600	; 0xe100
 80019d8:	f005 050f 	andlt.w	r5, r5, #15
 80019dc:	f885 3300 	strbge.w	r3, [r5, #768]	; 0x300
 80019e0:	5553      	strblt	r3, [r2, r5]
 80019e2:	bd70      	pop	{r4, r5, r6, pc}
 80019e4:	08006259 	.word	0x08006259
 80019e8:	e000ed00 	.word	0xe000ed00
 80019ec:	e000ed14 	.word	0xe000ed14

080019f0 <HAL_NVIC_EnableIRQ>:
 80019f0:	2800      	cmp	r0, #0
 80019f2:	da03      	bge.n	80019fc <HAL_NVIC_EnableIRQ+0xc>
 80019f4:	21d8      	movs	r1, #216	; 0xd8
 80019f6:	4806      	ldr	r0, [pc, #24]	; (8001a10 <HAL_NVIC_EnableIRQ+0x20>)
 80019f8:	f7ff b95d 	b.w	8000cb6 <assert_failed>
 80019fc:	2301      	movs	r3, #1
 80019fe:	0942      	lsrs	r2, r0, #5
 8001a00:	f000 001f 	and.w	r0, r0, #31
 8001a04:	fa03 f000 	lsl.w	r0, r3, r0
 8001a08:	4b02      	ldr	r3, [pc, #8]	; (8001a14 <HAL_NVIC_EnableIRQ+0x24>)
 8001a0a:	f843 0022 	str.w	r0, [r3, r2, lsl #2]
 8001a0e:	4770      	bx	lr
 8001a10:	08006259 	.word	0x08006259
 8001a14:	e000e100 	.word	0xe000e100

08001a18 <HAL_DMA_Init>:
 8001a18:	b510      	push	{r4, lr}
 8001a1a:	4604      	mov	r4, r0
 8001a1c:	2800      	cmp	r0, #0
 8001a1e:	f000 80a0 	beq.w	8001b62 <HAL_DMA_Init+0x14a>
 8001a22:	6803      	ldr	r3, [r0, #0]
 8001a24:	4a50      	ldr	r2, [pc, #320]	; (8001b68 <HAL_DMA_Init+0x150>)
 8001a26:	4293      	cmp	r3, r2
 8001a28:	d025      	beq.n	8001a76 <HAL_DMA_Init+0x5e>
 8001a2a:	3214      	adds	r2, #20
 8001a2c:	4293      	cmp	r3, r2
 8001a2e:	d022      	beq.n	8001a76 <HAL_DMA_Init+0x5e>
 8001a30:	3214      	adds	r2, #20
 8001a32:	4293      	cmp	r3, r2
 8001a34:	d01f      	beq.n	8001a76 <HAL_DMA_Init+0x5e>
 8001a36:	3214      	adds	r2, #20
 8001a38:	4293      	cmp	r3, r2
 8001a3a:	d01c      	beq.n	8001a76 <HAL_DMA_Init+0x5e>
 8001a3c:	3214      	adds	r2, #20
 8001a3e:	4293      	cmp	r3, r2
 8001a40:	d019      	beq.n	8001a76 <HAL_DMA_Init+0x5e>
 8001a42:	3214      	adds	r2, #20
 8001a44:	4293      	cmp	r3, r2
 8001a46:	d016      	beq.n	8001a76 <HAL_DMA_Init+0x5e>
 8001a48:	3214      	adds	r2, #20
 8001a4a:	4293      	cmp	r3, r2
 8001a4c:	d013      	beq.n	8001a76 <HAL_DMA_Init+0x5e>
 8001a4e:	f502 7262 	add.w	r2, r2, #904	; 0x388
 8001a52:	4293      	cmp	r3, r2
 8001a54:	d00f      	beq.n	8001a76 <HAL_DMA_Init+0x5e>
 8001a56:	3214      	adds	r2, #20
 8001a58:	4293      	cmp	r3, r2
 8001a5a:	d00c      	beq.n	8001a76 <HAL_DMA_Init+0x5e>
 8001a5c:	3214      	adds	r2, #20
 8001a5e:	4293      	cmp	r3, r2
 8001a60:	d009      	beq.n	8001a76 <HAL_DMA_Init+0x5e>
 8001a62:	3214      	adds	r2, #20
 8001a64:	4293      	cmp	r3, r2
 8001a66:	d006      	beq.n	8001a76 <HAL_DMA_Init+0x5e>
 8001a68:	3214      	adds	r2, #20
 8001a6a:	4293      	cmp	r3, r2
 8001a6c:	d003      	beq.n	8001a76 <HAL_DMA_Init+0x5e>
 8001a6e:	219a      	movs	r1, #154	; 0x9a
 8001a70:	483e      	ldr	r0, [pc, #248]	; (8001b6c <HAL_DMA_Init+0x154>)
 8001a72:	f7ff f920 	bl	8000cb6 <assert_failed>
 8001a76:	6863      	ldr	r3, [r4, #4]
 8001a78:	f033 0210 	bics.w	r2, r3, #16
 8001a7c:	d006      	beq.n	8001a8c <HAL_DMA_Init+0x74>
 8001a7e:	f5b3 4f80 	cmp.w	r3, #16384	; 0x4000
 8001a82:	d003      	beq.n	8001a8c <HAL_DMA_Init+0x74>
 8001a84:	219b      	movs	r1, #155	; 0x9b
 8001a86:	4839      	ldr	r0, [pc, #228]	; (8001b6c <HAL_DMA_Init+0x154>)
 8001a88:	f7ff f915 	bl	8000cb6 <assert_failed>
 8001a8c:	68a3      	ldr	r3, [r4, #8]
 8001a8e:	f033 0340 	bics.w	r3, r3, #64	; 0x40
 8001a92:	d003      	beq.n	8001a9c <HAL_DMA_Init+0x84>
 8001a94:	219c      	movs	r1, #156	; 0x9c
 8001a96:	4835      	ldr	r0, [pc, #212]	; (8001b6c <HAL_DMA_Init+0x154>)
 8001a98:	f7ff f90d 	bl	8000cb6 <assert_failed>
 8001a9c:	68e3      	ldr	r3, [r4, #12]
 8001a9e:	f033 0380 	bics.w	r3, r3, #128	; 0x80
 8001aa2:	d003      	beq.n	8001aac <HAL_DMA_Init+0x94>
 8001aa4:	219d      	movs	r1, #157	; 0x9d
 8001aa6:	4831      	ldr	r0, [pc, #196]	; (8001b6c <HAL_DMA_Init+0x154>)
 8001aa8:	f7ff f905 	bl	8000cb6 <assert_failed>
 8001aac:	6923      	ldr	r3, [r4, #16]
 8001aae:	f433 7280 	bics.w	r2, r3, #256	; 0x100
 8001ab2:	d006      	beq.n	8001ac2 <HAL_DMA_Init+0xaa>
 8001ab4:	f5b3 7f00 	cmp.w	r3, #512	; 0x200
 8001ab8:	d003      	beq.n	8001ac2 <HAL_DMA_Init+0xaa>
 8001aba:	219e      	movs	r1, #158	; 0x9e
 8001abc:	482b      	ldr	r0, [pc, #172]	; (8001b6c <HAL_DMA_Init+0x154>)
 8001abe:	f7ff f8fa 	bl	8000cb6 <assert_failed>
 8001ac2:	6963      	ldr	r3, [r4, #20]
 8001ac4:	f433 6280 	bics.w	r2, r3, #1024	; 0x400
 8001ac8:	d006      	beq.n	8001ad8 <HAL_DMA_Init+0xc0>
 8001aca:	f5b3 6f00 	cmp.w	r3, #2048	; 0x800
 8001ace:	d003      	beq.n	8001ad8 <HAL_DMA_Init+0xc0>
 8001ad0:	219f      	movs	r1, #159	; 0x9f
 8001ad2:	4826      	ldr	r0, [pc, #152]	; (8001b6c <HAL_DMA_Init+0x154>)
 8001ad4:	f7ff f8ef 	bl	8000cb6 <assert_failed>
 8001ad8:	69a3      	ldr	r3, [r4, #24]
 8001ada:	f033 0320 	bics.w	r3, r3, #32
 8001ade:	d003      	beq.n	8001ae8 <HAL_DMA_Init+0xd0>
 8001ae0:	21a0      	movs	r1, #160	; 0xa0
 8001ae2:	4822      	ldr	r0, [pc, #136]	; (8001b6c <HAL_DMA_Init+0x154>)
 8001ae4:	f7ff f8e7 	bl	8000cb6 <assert_failed>
 8001ae8:	69e3      	ldr	r3, [r4, #28]
 8001aea:	f433 5340 	bics.w	r3, r3, #12288	; 0x3000
 8001aee:	d003      	beq.n	8001af8 <HAL_DMA_Init+0xe0>
 8001af0:	21a1      	movs	r1, #161	; 0xa1
 8001af2:	481e      	ldr	r0, [pc, #120]	; (8001b6c <HAL_DMA_Init+0x154>)
 8001af4:	f7ff f8df 	bl	8000cb6 <assert_failed>
 8001af8:	6821      	ldr	r1, [r4, #0]
 8001afa:	4b1d      	ldr	r3, [pc, #116]	; (8001b70 <HAL_DMA_Init+0x158>)
 8001afc:	2014      	movs	r0, #20
 8001afe:	4299      	cmp	r1, r3
 8001b00:	d827      	bhi.n	8001b52 <HAL_DMA_Init+0x13a>
 8001b02:	4a1c      	ldr	r2, [pc, #112]	; (8001b74 <HAL_DMA_Init+0x15c>)
 8001b04:	f2a3 4307 	subw	r3, r3, #1031	; 0x407
 8001b08:	440a      	add	r2, r1
 8001b0a:	fbb2 f2f0 	udiv	r2, r2, r0
 8001b0e:	0092      	lsls	r2, r2, #2
 8001b10:	6422      	str	r2, [r4, #64]	; 0x40
 8001b12:	63e3      	str	r3, [r4, #60]	; 0x3c
 8001b14:	2302      	movs	r3, #2
 8001b16:	f884 3021 	strb.w	r3, [r4, #33]	; 0x21
 8001b1a:	e9d4 3001 	ldrd	r3, r0, [r4, #4]
 8001b1e:	4303      	orrs	r3, r0
 8001b20:	68e0      	ldr	r0, [r4, #12]
 8001b22:	680a      	ldr	r2, [r1, #0]
 8001b24:	4303      	orrs	r3, r0
 8001b26:	6920      	ldr	r0, [r4, #16]
 8001b28:	f422 42ff 	bic.w	r2, r2, #32640	; 0x7f80
 8001b2c:	4303      	orrs	r3, r0
 8001b2e:	6960      	ldr	r0, [r4, #20]
 8001b30:	f022 0270 	bic.w	r2, r2, #112	; 0x70
 8001b34:	4303      	orrs	r3, r0
 8001b36:	69a0      	ldr	r0, [r4, #24]
 8001b38:	4303      	orrs	r3, r0
 8001b3a:	69e0      	ldr	r0, [r4, #28]
 8001b3c:	4303      	orrs	r3, r0
 8001b3e:	4313      	orrs	r3, r2
 8001b40:	600b      	str	r3, [r1, #0]
 8001b42:	2000      	movs	r0, #0
 8001b44:	2301      	movs	r3, #1
 8001b46:	63a0      	str	r0, [r4, #56]	; 0x38
 8001b48:	f884 0020 	strb.w	r0, [r4, #32]
 8001b4c:	f884 3021 	strb.w	r3, [r4, #33]	; 0x21
 8001b50:	bd10      	pop	{r4, pc}
 8001b52:	4b09      	ldr	r3, [pc, #36]	; (8001b78 <HAL_DMA_Init+0x160>)
 8001b54:	440b      	add	r3, r1
 8001b56:	fbb3 f3f0 	udiv	r3, r3, r0
 8001b5a:	009b      	lsls	r3, r3, #2
 8001b5c:	6423      	str	r3, [r4, #64]	; 0x40
 8001b5e:	4b07      	ldr	r3, [pc, #28]	; (8001b7c <HAL_DMA_Init+0x164>)
 8001b60:	e7d7      	b.n	8001b12 <HAL_DMA_Init+0xfa>
 8001b62:	2001      	movs	r0, #1
 8001b64:	e7f4      	b.n	8001b50 <HAL_DMA_Init+0x138>
 8001b66:	bf00      	nop
 8001b68:	40026008 	.word	0x40026008
 8001b6c:	08006294 	.word	0x08006294
 8001b70:	40026407 	.word	0x40026407
 8001b74:	bffd9ff8 	.word	0xbffd9ff8
 8001b78:	bffd9bf8 	.word	0xbffd9bf8
 8001b7c:	40026400 	.word	0x40026400

08001b80 <HAL_DMA_Start_IT>:
 8001b80:	e92d 41f0 	stmdb	sp!, {r4, r5, r6, r7, r8, lr}
 8001b84:	4616      	mov	r6, r2
 8001b86:	4698      	mov	r8, r3
 8001b88:	1e5a      	subs	r2, r3, #1
 8001b8a:	f64f 73fe 	movw	r3, #65534	; 0xfffe
 8001b8e:	429a      	cmp	r2, r3
 8001b90:	4604      	mov	r4, r0
 8001b92:	460f      	mov	r7, r1
 8001b94:	d904      	bls.n	8001ba0 <HAL_DMA_Start_IT+0x20>
 8001b96:	f44f 71b5 	mov.w	r1, #362	; 0x16a
 8001b9a:	4822      	ldr	r0, [pc, #136]	; (8001c24 <HAL_DMA_Start_IT+0xa4>)
 8001b9c:	f7ff f88b 	bl	8000cb6 <assert_failed>
 8001ba0:	f894 3020 	ldrb.w	r3, [r4, #32]
 8001ba4:	2b01      	cmp	r3, #1
 8001ba6:	d03b      	beq.n	8001c20 <HAL_DMA_Start_IT+0xa0>
 8001ba8:	2301      	movs	r3, #1
 8001baa:	f894 5021 	ldrb.w	r5, [r4, #33]	; 0x21
 8001bae:	f884 3020 	strb.w	r3, [r4, #32]
 8001bb2:	b2ed      	uxtb	r5, r5
 8001bb4:	429d      	cmp	r5, r3
 8001bb6:	f04f 0002 	mov.w	r0, #2
 8001bba:	f04f 0300 	mov.w	r3, #0
 8001bbe:	d12c      	bne.n	8001c1a <HAL_DMA_Start_IT+0x9a>
 8001bc0:	6821      	ldr	r1, [r4, #0]
 8001bc2:	f884 0021 	strb.w	r0, [r4, #33]	; 0x21
 8001bc6:	63a3      	str	r3, [r4, #56]	; 0x38
 8001bc8:	680b      	ldr	r3, [r1, #0]
 8001bca:	f023 0301 	bic.w	r3, r3, #1
 8001bce:	600b      	str	r3, [r1, #0]
 8001bd0:	e9d4 320f 	ldrd	r3, r2, [r4, #60]	; 0x3c
 8001bd4:	f002 021c 	and.w	r2, r2, #28
 8001bd8:	4095      	lsls	r5, r2
 8001bda:	605d      	str	r5, [r3, #4]
 8001bdc:	6863      	ldr	r3, [r4, #4]
 8001bde:	f8c1 8004 	str.w	r8, [r1, #4]
 8001be2:	2b10      	cmp	r3, #16
 8001be4:	6ae3      	ldr	r3, [r4, #44]	; 0x2c
 8001be6:	6822      	ldr	r2, [r4, #0]
 8001be8:	bf0b      	itete	eq
 8001bea:	608e      	streq	r6, [r1, #8]
 8001bec:	608f      	strne	r7, [r1, #8]
 8001bee:	60cf      	streq	r7, [r1, #12]
 8001bf0:	60ce      	strne	r6, [r1, #12]
 8001bf2:	b153      	cbz	r3, 8001c0a <HAL_DMA_Start_IT+0x8a>
 8001bf4:	680b      	ldr	r3, [r1, #0]
 8001bf6:	f043 030e 	orr.w	r3, r3, #14
 8001bfa:	2000      	movs	r0, #0
 8001bfc:	600b      	str	r3, [r1, #0]
 8001bfe:	6813      	ldr	r3, [r2, #0]
 8001c00:	f043 0301 	orr.w	r3, r3, #1
 8001c04:	6013      	str	r3, [r2, #0]
 8001c06:	e8bd 81f0 	ldmia.w	sp!, {r4, r5, r6, r7, r8, pc}
 8001c0a:	680b      	ldr	r3, [r1, #0]
 8001c0c:	f023 0304 	bic.w	r3, r3, #4
 8001c10:	600b      	str	r3, [r1, #0]
 8001c12:	680b      	ldr	r3, [r1, #0]
 8001c14:	f043 030a 	orr.w	r3, r3, #10
 8001c18:	e7ef      	b.n	8001bfa <HAL_DMA_Start_IT+0x7a>
 8001c1a:	f884 3020 	strb.w	r3, [r4, #32]
 8001c1e:	e7f2      	b.n	8001c06 <HAL_DMA_Start_IT+0x86>
 8001c20:	2002      	movs	r0, #2
 8001c22:	e7f0      	b.n	8001c06 <HAL_DMA_Start_IT+0x86>
 8001c24:	08006294 	.word	0x08006294

08001c28 <HAL_DMA_IRQHandler>:
 8001c28:	b470      	push	{r4, r5, r6}
 8001c2a:	2404      	movs	r4, #4
 8001c2c:	6bc1      	ldr	r1, [r0, #60]	; 0x3c
 8001c2e:	6c02      	ldr	r2, [r0, #64]	; 0x40
 8001c30:	680e      	ldr	r6, [r1, #0]
 8001c32:	f002 021c 	and.w	r2, r2, #28
 8001c36:	6803      	ldr	r3, [r0, #0]
 8001c38:	4094      	lsls	r4, r2
 8001c3a:	4234      	tst	r4, r6
 8001c3c:	681d      	ldr	r5, [r3, #0]
 8001c3e:	d00e      	beq.n	8001c5e <HAL_DMA_IRQHandler+0x36>
 8001c40:	f015 0f04 	tst.w	r5, #4
 8001c44:	d00b      	beq.n	8001c5e <HAL_DMA_IRQHandler+0x36>
 8001c46:	681a      	ldr	r2, [r3, #0]
 8001c48:	0692      	lsls	r2, r2, #26
 8001c4a:	bf5e      	ittt	pl
 8001c4c:	681a      	ldrpl	r2, [r3, #0]
 8001c4e:	f022 0204 	bicpl.w	r2, r2, #4
 8001c52:	601a      	strpl	r2, [r3, #0]
 8001c54:	6ac3      	ldr	r3, [r0, #44]	; 0x2c
 8001c56:	604c      	str	r4, [r1, #4]
 8001c58:	b373      	cbz	r3, 8001cb8 <HAL_DMA_IRQHandler+0x90>
 8001c5a:	bc70      	pop	{r4, r5, r6}
 8001c5c:	4718      	bx	r3
 8001c5e:	2402      	movs	r4, #2
 8001c60:	4094      	lsls	r4, r2
 8001c62:	4234      	tst	r4, r6
 8001c64:	d012      	beq.n	8001c8c <HAL_DMA_IRQHandler+0x64>
 8001c66:	f015 0f02 	tst.w	r5, #2
 8001c6a:	d00f      	beq.n	8001c8c <HAL_DMA_IRQHandler+0x64>
 8001c6c:	681a      	ldr	r2, [r3, #0]
 8001c6e:	0695      	lsls	r5, r2, #26
 8001c70:	d406      	bmi.n	8001c80 <HAL_DMA_IRQHandler+0x58>
 8001c72:	681a      	ldr	r2, [r3, #0]
 8001c74:	f022 020a 	bic.w	r2, r2, #10
 8001c78:	601a      	str	r2, [r3, #0]
 8001c7a:	2301      	movs	r3, #1
 8001c7c:	f880 3021 	strb.w	r3, [r0, #33]	; 0x21
 8001c80:	2300      	movs	r3, #0
 8001c82:	604c      	str	r4, [r1, #4]
 8001c84:	f880 3020 	strb.w	r3, [r0, #32]
 8001c88:	6a83      	ldr	r3, [r0, #40]	; 0x28
 8001c8a:	e7e5      	b.n	8001c58 <HAL_DMA_IRQHandler+0x30>
 8001c8c:	2408      	movs	r4, #8
 8001c8e:	4094      	lsls	r4, r2
 8001c90:	4234      	tst	r4, r6
 8001c92:	d011      	beq.n	8001cb8 <HAL_DMA_IRQHandler+0x90>
 8001c94:	072c      	lsls	r4, r5, #28
 8001c96:	d50f      	bpl.n	8001cb8 <HAL_DMA_IRQHandler+0x90>
 8001c98:	681c      	ldr	r4, [r3, #0]
 8001c9a:	f024 040e 	bic.w	r4, r4, #14
 8001c9e:	601c      	str	r4, [r3, #0]
 8001ca0:	2301      	movs	r3, #1
 8001ca2:	fa03 f202 	lsl.w	r2, r3, r2
 8001ca6:	604a      	str	r2, [r1, #4]
 8001ca8:	6383      	str	r3, [r0, #56]	; 0x38
 8001caa:	f880 3021 	strb.w	r3, [r0, #33]	; 0x21
 8001cae:	2300      	movs	r3, #0
 8001cb0:	f880 3020 	strb.w	r3, [r0, #32]
 8001cb4:	6b03      	ldr	r3, [r0, #48]	; 0x30
 8001cb6:	e7cf      	b.n	8001c58 <HAL_DMA_IRQHandler+0x30>
 8001cb8:	bc70      	pop	{r4, r5, r6}
 8001cba:	4770      	bx	lr

08001cbc <HAL_GPIO_Init>:
 8001cbc:	e92d 4ff0 	stmdb	sp!, {r4, r5, r6, r7, r8, r9, sl, fp, lr}
 8001cc0:	4ba5      	ldr	r3, [pc, #660]	; (8001f58 <HAL_GPIO_Init+0x29c>)
 8001cc2:	b085      	sub	sp, #20
 8001cc4:	4298      	cmp	r0, r3
 8001cc6:	4604      	mov	r4, r0
 8001cc8:	460d      	mov	r5, r1
 8001cca:	d01f      	beq.n	8001d0c <HAL_GPIO_Init+0x50>
 8001ccc:	f503 6380 	add.w	r3, r3, #1024	; 0x400
 8001cd0:	4298      	cmp	r0, r3
 8001cd2:	d01b      	beq.n	8001d0c <HAL_GPIO_Init+0x50>
 8001cd4:	f503 6380 	add.w	r3, r3, #1024	; 0x400
 8001cd8:	4298      	cmp	r0, r3
 8001cda:	d017      	beq.n	8001d0c <HAL_GPIO_Init+0x50>
 8001cdc:	f503 6380 	add.w	r3, r3, #1024	; 0x400
 8001ce0:	4298      	cmp	r0, r3
 8001ce2:	d013      	beq.n	8001d0c <HAL_GPIO_Init+0x50>
 8001ce4:	f503 6380 	add.w	r3, r3, #1024	; 0x400
 8001ce8:	4298      	cmp	r0, r3
 8001cea:	d00f      	beq.n	8001d0c <HAL_GPIO_Init+0x50>
 8001cec:	f503 6300 	add.w	r3, r3, #2048	; 0x800
 8001cf0:	4298      	cmp	r0, r3
 8001cf2:	d00b      	beq.n	8001d0c <HAL_GPIO_Init+0x50>
 8001cf4:	f503 6380 	add.w	r3, r3, #1024	; 0x400
 8001cf8:	4298      	cmp	r0, r3
 8001cfa:	d007      	beq.n	8001d0c <HAL_GPIO_Init+0x50>
 8001cfc:	f5a3 6300 	sub.w	r3, r3, #2048	; 0x800
 8001d00:	4298      	cmp	r0, r3
 8001d02:	d003      	beq.n	8001d0c <HAL_GPIO_Init+0x50>
 8001d04:	21b9      	movs	r1, #185	; 0xb9
 8001d06:	4895      	ldr	r0, [pc, #596]	; (8001f5c <HAL_GPIO_Init+0x2a0>)
 8001d08:	f7fe ffd5 	bl	8000cb6 <assert_failed>
 8001d0c:	682b      	ldr	r3, [r5, #0]
 8001d0e:	b29a      	uxth	r2, r3
 8001d10:	b112      	cbz	r2, 8001d18 <HAL_GPIO_Init+0x5c>
 8001d12:	0c1b      	lsrs	r3, r3, #16
 8001d14:	041b      	lsls	r3, r3, #16
 8001d16:	b11b      	cbz	r3, 8001d20 <HAL_GPIO_Init+0x64>
 8001d18:	21ba      	movs	r1, #186	; 0xba
 8001d1a:	4890      	ldr	r0, [pc, #576]	; (8001f5c <HAL_GPIO_Init+0x2a0>)
 8001d1c:	f7fe ffcb 	bl	8000cb6 <assert_failed>
 8001d20:	686b      	ldr	r3, [r5, #4]
 8001d22:	2b03      	cmp	r3, #3
 8001d24:	d917      	bls.n	8001d56 <HAL_GPIO_Init+0x9a>
 8001d26:	f1a3 0211 	sub.w	r2, r3, #17
 8001d2a:	2a01      	cmp	r2, #1
 8001d2c:	d913      	bls.n	8001d56 <HAL_GPIO_Init+0x9a>
 8001d2e:	498c      	ldr	r1, [pc, #560]	; (8001f60 <HAL_GPIO_Init+0x2a4>)
 8001d30:	f423 1200 	bic.w	r2, r3, #2097152	; 0x200000
 8001d34:	428a      	cmp	r2, r1
 8001d36:	d00e      	beq.n	8001d56 <HAL_GPIO_Init+0x9a>
 8001d38:	f501 1180 	add.w	r1, r1, #1048576	; 0x100000
 8001d3c:	428b      	cmp	r3, r1
 8001d3e:	d00a      	beq.n	8001d56 <HAL_GPIO_Init+0x9a>
 8001d40:	f5a1 2170 	sub.w	r1, r1, #983040	; 0xf0000
 8001d44:	428a      	cmp	r2, r1
 8001d46:	d006      	beq.n	8001d56 <HAL_GPIO_Init+0x9a>
 8001d48:	4a86      	ldr	r2, [pc, #536]	; (8001f64 <HAL_GPIO_Init+0x2a8>)
 8001d4a:	4293      	cmp	r3, r2
 8001d4c:	d003      	beq.n	8001d56 <HAL_GPIO_Init+0x9a>
 8001d4e:	21bb      	movs	r1, #187	; 0xbb
 8001d50:	4882      	ldr	r0, [pc, #520]	; (8001f5c <HAL_GPIO_Init+0x2a0>)
 8001d52:	f7fe ffb0 	bl	8000cb6 <assert_failed>
 8001d56:	68ab      	ldr	r3, [r5, #8]
 8001d58:	2b02      	cmp	r3, #2
 8001d5a:	d903      	bls.n	8001d64 <HAL_GPIO_Init+0xa8>
 8001d5c:	21bc      	movs	r1, #188	; 0xbc
 8001d5e:	487f      	ldr	r0, [pc, #508]	; (8001f5c <HAL_GPIO_Init+0x2a0>)
 8001d60:	f7fe ffa9 	bl	8000cb6 <assert_failed>
 8001d64:	2600      	movs	r6, #0
 8001d66:	f8df 9208 	ldr.w	r9, [pc, #520]	; 8001f70 <HAL_GPIO_Init+0x2b4>
 8001d6a:	4f7f      	ldr	r7, [pc, #508]	; (8001f68 <HAL_GPIO_Init+0x2ac>)
 8001d6c:	682b      	ldr	r3, [r5, #0]
 8001d6e:	fa33 f206 	lsrs.w	r2, r3, r6
 8001d72:	d102      	bne.n	8001d7a <HAL_GPIO_Init+0xbe>
 8001d74:	b005      	add	sp, #20
 8001d76:	e8bd 8ff0 	ldmia.w	sp!, {r4, r5, r6, r7, r8, r9, sl, fp, pc}
 8001d7a:	f04f 0a01 	mov.w	sl, #1
 8001d7e:	fa0a fa06 	lsl.w	sl, sl, r6
 8001d82:	ea1a 0803 	ands.w	r8, sl, r3
 8001d86:	f000 80d8 	beq.w	8001f3a <HAL_GPIO_Init+0x27e>
 8001d8a:	686b      	ldr	r3, [r5, #4]
 8001d8c:	f023 0310 	bic.w	r3, r3, #16
 8001d90:	2b02      	cmp	r3, #2
 8001d92:	d136      	bne.n	8001e02 <HAL_GPIO_Init+0x146>
 8001d94:	4b70      	ldr	r3, [pc, #448]	; (8001f58 <HAL_GPIO_Init+0x29c>)
 8001d96:	429c      	cmp	r4, r3
 8001d98:	d01d      	beq.n	8001dd6 <HAL_GPIO_Init+0x11a>
 8001d9a:	42bc      	cmp	r4, r7
 8001d9c:	d01b      	beq.n	8001dd6 <HAL_GPIO_Init+0x11a>
 8001d9e:	f503 6300 	add.w	r3, r3, #2048	; 0x800
 8001da2:	429c      	cmp	r4, r3
 8001da4:	d017      	beq.n	8001dd6 <HAL_GPIO_Init+0x11a>
 8001da6:	f503 6380 	add.w	r3, r3, #1024	; 0x400
 8001daa:	429c      	cmp	r4, r3
 8001dac:	d013      	beq.n	8001dd6 <HAL_GPIO_Init+0x11a>
 8001dae:	f503 6380 	add.w	r3, r3, #1024	; 0x400
 8001db2:	429c      	cmp	r4, r3
 8001db4:	d00f      	beq.n	8001dd6 <HAL_GPIO_Init+0x11a>
 8001db6:	f503 6300 	add.w	r3, r3, #2048	; 0x800
 8001dba:	429c      	cmp	r4, r3
 8001dbc:	d00b      	beq.n	8001dd6 <HAL_GPIO_Init+0x11a>
 8001dbe:	f503 6380 	add.w	r3, r3, #1024	; 0x400
 8001dc2:	429c      	cmp	r4, r3
 8001dc4:	d007      	beq.n	8001dd6 <HAL_GPIO_Init+0x11a>
 8001dc6:	f5a3 6300 	sub.w	r3, r3, #2048	; 0x800
 8001dca:	429c      	cmp	r4, r3
 8001dcc:	d003      	beq.n	8001dd6 <HAL_GPIO_Init+0x11a>
 8001dce:	21cb      	movs	r1, #203	; 0xcb
 8001dd0:	4862      	ldr	r0, [pc, #392]	; (8001f5c <HAL_GPIO_Init+0x2a0>)
 8001dd2:	f7fe ff70 	bl	8000cb6 <assert_failed>
 8001dd6:	692b      	ldr	r3, [r5, #16]
 8001dd8:	2b0f      	cmp	r3, #15
 8001dda:	d903      	bls.n	8001de4 <HAL_GPIO_Init+0x128>
 8001ddc:	21cc      	movs	r1, #204	; 0xcc
 8001dde:	485f      	ldr	r0, [pc, #380]	; (8001f5c <HAL_GPIO_Init+0x2a0>)
 8001de0:	f7fe ff69 	bl	8000cb6 <assert_failed>
 8001de4:	f006 0307 	and.w	r3, r6, #7
 8001de8:	0099      	lsls	r1, r3, #2
 8001dea:	230f      	movs	r3, #15
 8001dec:	08f2      	lsrs	r2, r6, #3
 8001dee:	eb04 0282 	add.w	r2, r4, r2, lsl #2
 8001df2:	6a10      	ldr	r0, [r2, #32]
 8001df4:	408b      	lsls	r3, r1
 8001df6:	ea20 0003 	bic.w	r0, r0, r3
 8001dfa:	692b      	ldr	r3, [r5, #16]
 8001dfc:	408b      	lsls	r3, r1
 8001dfe:	4303      	orrs	r3, r0
 8001e00:	6213      	str	r3, [r2, #32]
 8001e02:	f04f 0b03 	mov.w	fp, #3
 8001e06:	0072      	lsls	r2, r6, #1
 8001e08:	fa0b fb02 	lsl.w	fp, fp, r2
 8001e0c:	ea6f 0b0b 	mvn.w	fp, fp
 8001e10:	686b      	ldr	r3, [r5, #4]
 8001e12:	6820      	ldr	r0, [r4, #0]
 8001e14:	f003 0103 	and.w	r1, r3, #3
 8001e18:	f023 0310 	bic.w	r3, r3, #16
 8001e1c:	ea0b 0000 	and.w	r0, fp, r0
 8001e20:	4091      	lsls	r1, r2
 8001e22:	3b01      	subs	r3, #1
 8001e24:	4301      	orrs	r1, r0
 8001e26:	2b01      	cmp	r3, #1
 8001e28:	6021      	str	r1, [r4, #0]
 8001e2a:	d819      	bhi.n	8001e60 <HAL_GPIO_Init+0x1a4>
 8001e2c:	68eb      	ldr	r3, [r5, #12]
 8001e2e:	2b03      	cmp	r3, #3
 8001e30:	d905      	bls.n	8001e3e <HAL_GPIO_Init+0x182>
 8001e32:	21e1      	movs	r1, #225	; 0xe1
 8001e34:	4849      	ldr	r0, [pc, #292]	; (8001f5c <HAL_GPIO_Init+0x2a0>)
 8001e36:	9201      	str	r2, [sp, #4]
 8001e38:	f7fe ff3d 	bl	8000cb6 <assert_failed>
 8001e3c:	9a01      	ldr	r2, [sp, #4]
 8001e3e:	68a1      	ldr	r1, [r4, #8]
 8001e40:	68eb      	ldr	r3, [r5, #12]
 8001e42:	ea0b 0101 	and.w	r1, fp, r1
 8001e46:	4093      	lsls	r3, r2
 8001e48:	430b      	orrs	r3, r1
 8001e4a:	60a3      	str	r3, [r4, #8]
 8001e4c:	6863      	ldr	r3, [r4, #4]
 8001e4e:	ea23 0a0a 	bic.w	sl, r3, sl
 8001e52:	686b      	ldr	r3, [r5, #4]
 8001e54:	f3c3 1300 	ubfx	r3, r3, #4, #1
 8001e58:	40b3      	lsls	r3, r6
 8001e5a:	ea43 030a 	orr.w	r3, r3, sl
 8001e5e:	6063      	str	r3, [r4, #4]
 8001e60:	68e3      	ldr	r3, [r4, #12]
 8001e62:	6868      	ldr	r0, [r5, #4]
 8001e64:	ea0b 0b03 	and.w	fp, fp, r3
 8001e68:	68ab      	ldr	r3, [r5, #8]
 8001e6a:	fa03 f202 	lsl.w	r2, r3, r2
 8001e6e:	ea42 020b 	orr.w	r2, r2, fp
 8001e72:	60e2      	str	r2, [r4, #12]
 8001e74:	00c2      	lsls	r2, r0, #3
 8001e76:	d560      	bpl.n	8001f3a <HAL_GPIO_Init+0x27e>
 8001e78:	f04f 0e0f 	mov.w	lr, #15
 8001e7c:	4b3b      	ldr	r3, [pc, #236]	; (8001f6c <HAL_GPIO_Init+0x2b0>)
 8001e7e:	f026 0103 	bic.w	r1, r6, #3
 8001e82:	6a1a      	ldr	r2, [r3, #32]
 8001e84:	f101 4180 	add.w	r1, r1, #1073741824	; 0x40000000
 8001e88:	f042 0201 	orr.w	r2, r2, #1
 8001e8c:	621a      	str	r2, [r3, #32]
 8001e8e:	6a1b      	ldr	r3, [r3, #32]
 8001e90:	f501 3180 	add.w	r1, r1, #65536	; 0x10000
 8001e94:	f003 0301 	and.w	r3, r3, #1
 8001e98:	9303      	str	r3, [sp, #12]
 8001e9a:	9b03      	ldr	r3, [sp, #12]
 8001e9c:	f006 0303 	and.w	r3, r6, #3
 8001ea0:	688a      	ldr	r2, [r1, #8]
 8001ea2:	ea4f 0c83 	mov.w	ip, r3, lsl #2
 8001ea6:	fa0e f30c 	lsl.w	r3, lr, ip
 8001eaa:	ea22 0e03 	bic.w	lr, r2, r3
 8001eae:	4b2a      	ldr	r3, [pc, #168]	; (8001f58 <HAL_GPIO_Init+0x29c>)
 8001eb0:	429c      	cmp	r4, r3
 8001eb2:	d044      	beq.n	8001f3e <HAL_GPIO_Init+0x282>
 8001eb4:	42bc      	cmp	r4, r7
 8001eb6:	d044      	beq.n	8001f42 <HAL_GPIO_Init+0x286>
 8001eb8:	f503 6300 	add.w	r3, r3, #2048	; 0x800
 8001ebc:	429c      	cmp	r4, r3
 8001ebe:	d042      	beq.n	8001f46 <HAL_GPIO_Init+0x28a>
 8001ec0:	f503 6380 	add.w	r3, r3, #1024	; 0x400
 8001ec4:	429c      	cmp	r4, r3
 8001ec6:	d040      	beq.n	8001f4a <HAL_GPIO_Init+0x28e>
 8001ec8:	f503 6380 	add.w	r3, r3, #1024	; 0x400
 8001ecc:	429c      	cmp	r4, r3
 8001ece:	d03e      	beq.n	8001f4e <HAL_GPIO_Init+0x292>
 8001ed0:	f503 6380 	add.w	r3, r3, #1024	; 0x400
 8001ed4:	429c      	cmp	r4, r3
 8001ed6:	d03c      	beq.n	8001f52 <HAL_GPIO_Init+0x296>
 8001ed8:	f503 6380 	add.w	r3, r3, #1024	; 0x400
 8001edc:	429c      	cmp	r4, r3
 8001ede:	bf14      	ite	ne
 8001ee0:	2307      	movne	r3, #7
 8001ee2:	2306      	moveq	r3, #6
 8001ee4:	fa03 f30c 	lsl.w	r3, r3, ip
 8001ee8:	ea43 030e 	orr.w	r3, r3, lr
 8001eec:	608b      	str	r3, [r1, #8]
 8001eee:	ea6f 0108 	mvn.w	r1, r8
 8001ef2:	f8d9 2000 	ldr.w	r2, [r9]
 8001ef6:	03c3      	lsls	r3, r0, #15
 8001ef8:	bf54      	ite	pl
 8001efa:	400a      	andpl	r2, r1
 8001efc:	ea48 0202 	orrmi.w	r2, r8, r2
 8001f00:	f8c9 2000 	str.w	r2, [r9]
 8001f04:	f8d9 2004 	ldr.w	r2, [r9, #4]
 8001f08:	0383      	lsls	r3, r0, #14
 8001f0a:	bf54      	ite	pl
 8001f0c:	400a      	andpl	r2, r1
 8001f0e:	ea48 0202 	orrmi.w	r2, r8, r2
 8001f12:	f8c9 2004 	str.w	r2, [r9, #4]
 8001f16:	f8d9 2008 	ldr.w	r2, [r9, #8]
 8001f1a:	02c3      	lsls	r3, r0, #11
 8001f1c:	bf54      	ite	pl
 8001f1e:	400a      	andpl	r2, r1
 8001f20:	ea48 0202 	orrmi.w	r2, r8, r2
 8001f24:	f8c9 2008 	str.w	r2, [r9, #8]
 8001f28:	f8d9 300c 	ldr.w	r3, [r9, #12]
 8001f2c:	0282      	lsls	r2, r0, #10
 8001f2e:	bf54      	ite	pl
 8001f30:	400b      	andpl	r3, r1
 8001f32:	ea48 0303 	orrmi.w	r3, r8, r3
 8001f36:	f8c9 300c 	str.w	r3, [r9, #12]
 8001f3a:	3601      	adds	r6, #1
 8001f3c:	e716      	b.n	8001d6c <HAL_GPIO_Init+0xb0>
 8001f3e:	2300      	movs	r3, #0
 8001f40:	e7d0      	b.n	8001ee4 <HAL_GPIO_Init+0x228>
 8001f42:	2301      	movs	r3, #1
 8001f44:	e7ce      	b.n	8001ee4 <HAL_GPIO_Init+0x228>
 8001f46:	2302      	movs	r3, #2
 8001f48:	e7cc      	b.n	8001ee4 <HAL_GPIO_Init+0x228>
 8001f4a:	2303      	movs	r3, #3
 8001f4c:	e7ca      	b.n	8001ee4 <HAL_GPIO_Init+0x228>
 8001f4e:	2304      	movs	r3, #4
 8001f50:	e7c8      	b.n	8001ee4 <HAL_GPIO_Init+0x228>
 8001f52:	2305      	movs	r3, #5
 8001f54:	e7c6      	b.n	8001ee4 <HAL_GPIO_Init+0x228>
 8001f56:	bf00      	nop
 8001f58:	40020000 	.word	0x40020000
 8001f5c:	080062cc 	.word	0x080062cc
 8001f60:	10110000 	.word	0x10110000
 8001f64:	10220000 	.word	0x10220000
 8001f68:	40020400 	.word	0x40020400
 8001f6c:	40023800 	.word	0x40023800
 8001f70:	40010400 	.word	0x40010400

08001f74 <HAL_GPIO_WritePin>:
 8001f74:	b570      	push	{r4, r5, r6, lr}
 8001f76:	4605      	mov	r5, r0
 8001f78:	4616      	mov	r6, r2
 8001f7a:	460c      	mov	r4, r1
 8001f7c:	b921      	cbnz	r1, 8001f88 <HAL_GPIO_WritePin+0x14>
 8001f7e:	f44f 71d2 	mov.w	r1, #420	; 0x1a4
 8001f82:	4808      	ldr	r0, [pc, #32]	; (8001fa4 <HAL_GPIO_WritePin+0x30>)
 8001f84:	f7fe fe97 	bl	8000cb6 <assert_failed>
 8001f88:	2e01      	cmp	r6, #1
 8001f8a:	d906      	bls.n	8001f9a <HAL_GPIO_WritePin+0x26>
 8001f8c:	f240 11a5 	movw	r1, #421	; 0x1a5
 8001f90:	4804      	ldr	r0, [pc, #16]	; (8001fa4 <HAL_GPIO_WritePin+0x30>)
 8001f92:	f7fe fe90 	bl	8000cb6 <assert_failed>
 8001f96:	61ac      	str	r4, [r5, #24]
 8001f98:	bd70      	pop	{r4, r5, r6, pc}
 8001f9a:	2e00      	cmp	r6, #0
 8001f9c:	d1fb      	bne.n	8001f96 <HAL_GPIO_WritePin+0x22>
 8001f9e:	0424      	lsls	r4, r4, #16
 8001fa0:	e7f9      	b.n	8001f96 <HAL_GPIO_WritePin+0x22>
 8001fa2:	bf00      	nop
 8001fa4:	080062cc 	.word	0x080062cc

08001fa8 <HAL_GPIO_EXTI_IRQHandler>:
 8001fa8:	b508      	push	{r3, lr}
 8001faa:	4b04      	ldr	r3, [pc, #16]	; (8001fbc <HAL_GPIO_EXTI_IRQHandler+0x14>)
 8001fac:	6959      	ldr	r1, [r3, #20]
 8001fae:	4201      	tst	r1, r0
 8001fb0:	d002      	beq.n	8001fb8 <HAL_GPIO_EXTI_IRQHandler+0x10>
 8001fb2:	6158      	str	r0, [r3, #20]
 8001fb4:	f7fe fb42 	bl	800063c <HAL_GPIO_EXTI_Callback>
 8001fb8:	bd08      	pop	{r3, pc}
 8001fba:	bf00      	nop
 8001fbc:	40010400 	.word	0x40010400

08001fc0 <I2C_IsAcknowledgeFailed>:
 8001fc0:	6801      	ldr	r1, [r0, #0]
 8001fc2:	2200      	movs	r2, #0
 8001fc4:	694b      	ldr	r3, [r1, #20]
 8001fc6:	f413 6380 	ands.w	r3, r3, #1024	; 0x400
 8001fca:	d010      	beq.n	8001fee <I2C_IsAcknowledgeFailed+0x2e>
 8001fcc:	f46f 6380 	mvn.w	r3, #1024	; 0x400
 8001fd0:	614b      	str	r3, [r1, #20]
 8001fd2:	2320      	movs	r3, #32
 8001fd4:	6302      	str	r2, [r0, #48]	; 0x30
 8001fd6:	f880 303d 	strb.w	r3, [r0, #61]	; 0x3d
 8001fda:	f880 203e 	strb.w	r2, [r0, #62]	; 0x3e
 8001fde:	6c03      	ldr	r3, [r0, #64]	; 0x40
 8001fe0:	f880 203c 	strb.w	r2, [r0, #60]	; 0x3c
 8001fe4:	f043 0304 	orr.w	r3, r3, #4
 8001fe8:	6403      	str	r3, [r0, #64]	; 0x40
 8001fea:	2001      	movs	r0, #1
 8001fec:	4770      	bx	lr
 8001fee:	4618      	mov	r0, r3
 8001ff0:	4770      	bx	lr

08001ff2 <I2C_WaitOnMasterAddressFlagUntilTimeout>:
 8001ff2:	e92d 41f0 	stmdb	sp!, {r4, r5, r6, r7, r8, lr}
 8001ff6:	4604      	mov	r4, r0
 8001ff8:	4616      	mov	r6, r2
 8001ffa:	4698      	mov	r8, r3
 8001ffc:	b28f      	uxth	r7, r1
 8001ffe:	6825      	ldr	r5, [r4, #0]
 8002000:	6968      	ldr	r0, [r5, #20]
 8002002:	ea37 0000 	bics.w	r0, r7, r0
 8002006:	d017      	beq.n	8002038 <I2C_WaitOnMasterAddressFlagUntilTimeout+0x46>
 8002008:	696b      	ldr	r3, [r5, #20]
 800200a:	055a      	lsls	r2, r3, #21
 800200c:	d516      	bpl.n	800203c <I2C_WaitOnMasterAddressFlagUntilTimeout+0x4a>
 800200e:	682b      	ldr	r3, [r5, #0]
 8002010:	2220      	movs	r2, #32
 8002012:	f443 7300 	orr.w	r3, r3, #512	; 0x200
 8002016:	602b      	str	r3, [r5, #0]
 8002018:	f46f 6380 	mvn.w	r3, #1024	; 0x400
 800201c:	616b      	str	r3, [r5, #20]
 800201e:	2300      	movs	r3, #0
 8002020:	6323      	str	r3, [r4, #48]	; 0x30
 8002022:	f884 203d 	strb.w	r2, [r4, #61]	; 0x3d
 8002026:	f884 303e 	strb.w	r3, [r4, #62]	; 0x3e
 800202a:	6c22      	ldr	r2, [r4, #64]	; 0x40
 800202c:	f042 0204 	orr.w	r2, r2, #4
 8002030:	2001      	movs	r0, #1
 8002032:	6422      	str	r2, [r4, #64]	; 0x40
 8002034:	f884 303c 	strb.w	r3, [r4, #60]	; 0x3c
 8002038:	e8bd 81f0 	ldmia.w	sp!, {r4, r5, r6, r7, r8, pc}
 800203c:	1c73      	adds	r3, r6, #1
 800203e:	d0df      	beq.n	8002000 <I2C_WaitOnMasterAddressFlagUntilTimeout+0xe>
 8002040:	f7ff f932 	bl	80012a8 <HAL_GetTick>
 8002044:	eba0 0008 	sub.w	r0, r0, r8
 8002048:	42b0      	cmp	r0, r6
 800204a:	d801      	bhi.n	8002050 <I2C_WaitOnMasterAddressFlagUntilTimeout+0x5e>
 800204c:	2e00      	cmp	r6, #0
 800204e:	d1d6      	bne.n	8001ffe <I2C_WaitOnMasterAddressFlagUntilTimeout+0xc>
 8002050:	2300      	movs	r3, #0
 8002052:	2220      	movs	r2, #32
 8002054:	6323      	str	r3, [r4, #48]	; 0x30
 8002056:	f884 203d 	strb.w	r2, [r4, #61]	; 0x3d
 800205a:	f884 303e 	strb.w	r3, [r4, #62]	; 0x3e
 800205e:	6c22      	ldr	r2, [r4, #64]	; 0x40
 8002060:	f042 0220 	orr.w	r2, r2, #32
 8002064:	e7e4      	b.n	8002030 <I2C_WaitOnMasterAddressFlagUntilTimeout+0x3e>

08002066 <I2C_WaitOnBTFFlagUntilTimeout>:
 8002066:	b570      	push	{r4, r5, r6, lr}
 8002068:	4604      	mov	r4, r0
 800206a:	460d      	mov	r5, r1
 800206c:	4616      	mov	r6, r2
 800206e:	6823      	ldr	r3, [r4, #0]
 8002070:	695b      	ldr	r3, [r3, #20]
 8002072:	075b      	lsls	r3, r3, #29
 8002074:	d501      	bpl.n	800207a <I2C_WaitOnBTFFlagUntilTimeout+0x14>
 8002076:	2000      	movs	r0, #0
 8002078:	bd70      	pop	{r4, r5, r6, pc}
 800207a:	4620      	mov	r0, r4
 800207c:	f7ff ffa0 	bl	8001fc0 <I2C_IsAcknowledgeFailed>
 8002080:	b9a8      	cbnz	r0, 80020ae <I2C_WaitOnBTFFlagUntilTimeout+0x48>
 8002082:	1c6a      	adds	r2, r5, #1
 8002084:	d0f3      	beq.n	800206e <I2C_WaitOnBTFFlagUntilTimeout+0x8>
 8002086:	f7ff f90f 	bl	80012a8 <HAL_GetTick>
 800208a:	1b80      	subs	r0, r0, r6
 800208c:	42a8      	cmp	r0, r5
 800208e:	d801      	bhi.n	8002094 <I2C_WaitOnBTFFlagUntilTimeout+0x2e>
 8002090:	2d00      	cmp	r5, #0
 8002092:	d1ec      	bne.n	800206e <I2C_WaitOnBTFFlagUntilTimeout+0x8>
 8002094:	2300      	movs	r3, #0
 8002096:	2220      	movs	r2, #32
 8002098:	6323      	str	r3, [r4, #48]	; 0x30
 800209a:	f884 203d 	strb.w	r2, [r4, #61]	; 0x3d
 800209e:	f884 303e 	strb.w	r3, [r4, #62]	; 0x3e
 80020a2:	6c22      	ldr	r2, [r4, #64]	; 0x40
 80020a4:	f884 303c 	strb.w	r3, [r4, #60]	; 0x3c
 80020a8:	f042 0220 	orr.w	r2, r2, #32
 80020ac:	6422      	str	r2, [r4, #64]	; 0x40
 80020ae:	2001      	movs	r0, #1
 80020b0:	e7e2      	b.n	8002078 <I2C_WaitOnBTFFlagUntilTimeout+0x12>

080020b2 <I2C_WaitOnRXNEFlagUntilTimeout>:
 80020b2:	b570      	push	{r4, r5, r6, lr}
 80020b4:	4604      	mov	r4, r0
 80020b6:	460d      	mov	r5, r1
 80020b8:	4616      	mov	r6, r2
 80020ba:	6820      	ldr	r0, [r4, #0]
 80020bc:	6943      	ldr	r3, [r0, #20]
 80020be:	f013 0340 	ands.w	r3, r3, #64	; 0x40
 80020c2:	d001      	beq.n	80020c8 <I2C_WaitOnRXNEFlagUntilTimeout+0x16>
 80020c4:	2000      	movs	r0, #0
 80020c6:	e010      	b.n	80020ea <I2C_WaitOnRXNEFlagUntilTimeout+0x38>
 80020c8:	6942      	ldr	r2, [r0, #20]
 80020ca:	06d2      	lsls	r2, r2, #27
 80020cc:	d50e      	bpl.n	80020ec <I2C_WaitOnRXNEFlagUntilTimeout+0x3a>
 80020ce:	f06f 0210 	mvn.w	r2, #16
 80020d2:	6142      	str	r2, [r0, #20]
 80020d4:	2220      	movs	r2, #32
 80020d6:	6323      	str	r3, [r4, #48]	; 0x30
 80020d8:	f884 203d 	strb.w	r2, [r4, #61]	; 0x3d
 80020dc:	f884 303e 	strb.w	r3, [r4, #62]	; 0x3e
 80020e0:	6c22      	ldr	r2, [r4, #64]	; 0x40
 80020e2:	2001      	movs	r0, #1
 80020e4:	6422      	str	r2, [r4, #64]	; 0x40
 80020e6:	f884 303c 	strb.w	r3, [r4, #60]	; 0x3c
 80020ea:	bd70      	pop	{r4, r5, r6, pc}
 80020ec:	f7ff f8dc 	bl	80012a8 <HAL_GetTick>
 80020f0:	1b80      	subs	r0, r0, r6
 80020f2:	42a8      	cmp	r0, r5
 80020f4:	d801      	bhi.n	80020fa <I2C_WaitOnRXNEFlagUntilTimeout+0x48>
 80020f6:	2d00      	cmp	r5, #0
 80020f8:	d1df      	bne.n	80020ba <I2C_WaitOnRXNEFlagUntilTimeout+0x8>
 80020fa:	2300      	movs	r3, #0
 80020fc:	2220      	movs	r2, #32
 80020fe:	6323      	str	r3, [r4, #48]	; 0x30
 8002100:	f884 203d 	strb.w	r2, [r4, #61]	; 0x3d
 8002104:	f884 303e 	strb.w	r3, [r4, #62]	; 0x3e
 8002108:	6c22      	ldr	r2, [r4, #64]	; 0x40
 800210a:	f042 0220 	orr.w	r2, r2, #32
 800210e:	e7e8      	b.n	80020e2 <I2C_WaitOnRXNEFlagUntilTimeout+0x30>

08002110 <I2C_WaitOnFlagUntilTimeout>:
 8002110:	e92d 43f8 	stmdb	sp!, {r3, r4, r5, r6, r7, r8, r9, lr}
 8002114:	4604      	mov	r4, r0
 8002116:	4690      	mov	r8, r2
 8002118:	461f      	mov	r7, r3
 800211a:	9e08      	ldr	r6, [sp, #32]
 800211c:	ea4f 4911 	mov.w	r9, r1, lsr #16
 8002120:	b28d      	uxth	r5, r1
 8002122:	6821      	ldr	r1, [r4, #0]
 8002124:	f1b9 0f01 	cmp.w	r9, #1
 8002128:	bf0c      	ite	eq
 800212a:	694b      	ldreq	r3, [r1, #20]
 800212c:	698b      	ldrne	r3, [r1, #24]
 800212e:	ea35 0303 	bics.w	r3, r5, r3
 8002132:	bf0c      	ite	eq
 8002134:	2301      	moveq	r3, #1
 8002136:	2300      	movne	r3, #0
 8002138:	4598      	cmp	r8, r3
 800213a:	d001      	beq.n	8002140 <I2C_WaitOnFlagUntilTimeout+0x30>
 800213c:	2000      	movs	r0, #0
 800213e:	e016      	b.n	800216e <I2C_WaitOnFlagUntilTimeout+0x5e>
 8002140:	1c7b      	adds	r3, r7, #1
 8002142:	d0ef      	beq.n	8002124 <I2C_WaitOnFlagUntilTimeout+0x14>
 8002144:	f7ff f8b0 	bl	80012a8 <HAL_GetTick>
 8002148:	1b80      	subs	r0, r0, r6
 800214a:	42b8      	cmp	r0, r7
 800214c:	d801      	bhi.n	8002152 <I2C_WaitOnFlagUntilTimeout+0x42>
 800214e:	2f00      	cmp	r7, #0
 8002150:	d1e7      	bne.n	8002122 <I2C_WaitOnFlagUntilTimeout+0x12>
 8002152:	2300      	movs	r3, #0
 8002154:	2220      	movs	r2, #32
 8002156:	2001      	movs	r0, #1
 8002158:	6323      	str	r3, [r4, #48]	; 0x30
 800215a:	f884 203d 	strb.w	r2, [r4, #61]	; 0x3d
 800215e:	f884 303e 	strb.w	r3, [r4, #62]	; 0x3e
 8002162:	6c22      	ldr	r2, [r4, #64]	; 0x40
 8002164:	f884 303c 	strb.w	r3, [r4, #60]	; 0x3c
 8002168:	f042 0220 	orr.w	r2, r2, #32
 800216c:	6422      	str	r2, [r4, #64]	; 0x40
 800216e:	e8bd 83f8 	ldmia.w	sp!, {r3, r4, r5, r6, r7, r8, r9, pc}

08002172 <I2C_WaitOnTXEFlagUntilTimeout>:
 8002172:	b570      	push	{r4, r5, r6, lr}
 8002174:	4604      	mov	r4, r0
 8002176:	460d      	mov	r5, r1
 8002178:	4616      	mov	r6, r2
 800217a:	6823      	ldr	r3, [r4, #0]
 800217c:	695b      	ldr	r3, [r3, #20]
 800217e:	061b      	lsls	r3, r3, #24
 8002180:	d501      	bpl.n	8002186 <I2C_WaitOnTXEFlagUntilTimeout+0x14>
 8002182:	2000      	movs	r0, #0
 8002184:	bd70      	pop	{r4, r5, r6, pc}
 8002186:	4620      	mov	r0, r4
 8002188:	f7ff ff1a 	bl	8001fc0 <I2C_IsAcknowledgeFailed>
 800218c:	b9a8      	cbnz	r0, 80021ba <I2C_WaitOnTXEFlagUntilTimeout+0x48>
 800218e:	1c6a      	adds	r2, r5, #1
 8002190:	d0f3      	beq.n	800217a <I2C_WaitOnTXEFlagUntilTimeout+0x8>
 8002192:	f7ff f889 	bl	80012a8 <HAL_GetTick>
 8002196:	1b80      	subs	r0, r0, r6
 8002198:	42a8      	cmp	r0, r5
 800219a:	d801      	bhi.n	80021a0 <I2C_WaitOnTXEFlagUntilTimeout+0x2e>
 800219c:	2d00      	cmp	r5, #0
 800219e:	d1ec      	bne.n	800217a <I2C_WaitOnTXEFlagUntilTimeout+0x8>
 80021a0:	2300      	movs	r3, #0
 80021a2:	2220      	movs	r2, #32
 80021a4:	6323      	str	r3, [r4, #48]	; 0x30
 80021a6:	f884 203d 	strb.w	r2, [r4, #61]	; 0x3d
 80021aa:	f884 303e 	strb.w	r3, [r4, #62]	; 0x3e
 80021ae:	6c22      	ldr	r2, [r4, #64]	; 0x40
 80021b0:	f884 303c 	strb.w	r3, [r4, #60]	; 0x3c
 80021b4:	f042 0220 	orr.w	r2, r2, #32
 80021b8:	6422      	str	r2, [r4, #64]	; 0x40
 80021ba:	2001      	movs	r0, #1
 80021bc:	e7e2      	b.n	8002184 <I2C_WaitOnTXEFlagUntilTimeout+0x12>
	...

080021c0 <I2C_RequestMemoryRead>:
 80021c0:	e92d 41ff 	stmdb	sp!, {r0, r1, r2, r3, r4, r5, r6, r7, r8, lr}
 80021c4:	4698      	mov	r8, r3
 80021c6:	6803      	ldr	r3, [r0, #0]
 80021c8:	4616      	mov	r6, r2
 80021ca:	681a      	ldr	r2, [r3, #0]
 80021cc:	9d0b      	ldr	r5, [sp, #44]	; 0x2c
 80021ce:	f442 6280 	orr.w	r2, r2, #1024	; 0x400
 80021d2:	601a      	str	r2, [r3, #0]
 80021d4:	681a      	ldr	r2, [r3, #0]
 80021d6:	460f      	mov	r7, r1
 80021d8:	f442 7280 	orr.w	r2, r2, #256	; 0x100
 80021dc:	601a      	str	r2, [r3, #0]
 80021de:	f04f 1101 	mov.w	r1, #65537	; 0x10001
 80021e2:	9500      	str	r5, [sp, #0]
 80021e4:	9b0a      	ldr	r3, [sp, #40]	; 0x28
 80021e6:	2200      	movs	r2, #0
 80021e8:	4604      	mov	r4, r0
 80021ea:	f7ff ff91 	bl	8002110 <I2C_WaitOnFlagUntilTimeout>
 80021ee:	b118      	cbz	r0, 80021f8 <I2C_RequestMemoryRead+0x38>
 80021f0:	2001      	movs	r0, #1
 80021f2:	b004      	add	sp, #16
 80021f4:	e8bd 81f0 	ldmia.w	sp!, {r4, r5, r6, r7, r8, pc}
 80021f8:	6823      	ldr	r3, [r4, #0]
 80021fa:	b2ff      	uxtb	r7, r7
 80021fc:	f007 02fe 	and.w	r2, r7, #254	; 0xfe
 8002200:	611a      	str	r2, [r3, #16]
 8002202:	4929      	ldr	r1, [pc, #164]	; (80022a8 <I2C_RequestMemoryRead+0xe8>)
 8002204:	462b      	mov	r3, r5
 8002206:	9a0a      	ldr	r2, [sp, #40]	; 0x28
 8002208:	4620      	mov	r0, r4
 800220a:	f7ff fef2 	bl	8001ff2 <I2C_WaitOnMasterAddressFlagUntilTimeout>
 800220e:	2800      	cmp	r0, #0
 8002210:	d1ee      	bne.n	80021f0 <I2C_RequestMemoryRead+0x30>
 8002212:	6823      	ldr	r3, [r4, #0]
 8002214:	9003      	str	r0, [sp, #12]
 8002216:	695a      	ldr	r2, [r3, #20]
 8002218:	990a      	ldr	r1, [sp, #40]	; 0x28
 800221a:	9203      	str	r2, [sp, #12]
 800221c:	699b      	ldr	r3, [r3, #24]
 800221e:	462a      	mov	r2, r5
 8002220:	9303      	str	r3, [sp, #12]
 8002222:	4620      	mov	r0, r4
 8002224:	9b03      	ldr	r3, [sp, #12]
 8002226:	f7ff ffa4 	bl	8002172 <I2C_WaitOnTXEFlagUntilTimeout>
 800222a:	b140      	cbz	r0, 800223e <I2C_RequestMemoryRead+0x7e>
 800222c:	6c23      	ldr	r3, [r4, #64]	; 0x40
 800222e:	2b04      	cmp	r3, #4
 8002230:	bf01      	itttt	eq
 8002232:	6822      	ldreq	r2, [r4, #0]
 8002234:	6813      	ldreq	r3, [r2, #0]
 8002236:	f443 7300 	orreq.w	r3, r3, #512	; 0x200
 800223a:	6013      	streq	r3, [r2, #0]
 800223c:	e7d8      	b.n	80021f0 <I2C_RequestMemoryRead+0x30>
 800223e:	f1b8 0f01 	cmp.w	r8, #1
 8002242:	6823      	ldr	r3, [r4, #0]
 8002244:	d125      	bne.n	8002292 <I2C_RequestMemoryRead+0xd2>
 8002246:	b2f6      	uxtb	r6, r6
 8002248:	611e      	str	r6, [r3, #16]
 800224a:	462a      	mov	r2, r5
 800224c:	990a      	ldr	r1, [sp, #40]	; 0x28
 800224e:	4620      	mov	r0, r4
 8002250:	f7ff ff8f 	bl	8002172 <I2C_WaitOnTXEFlagUntilTimeout>
 8002254:	4602      	mov	r2, r0
 8002256:	2800      	cmp	r0, #0
 8002258:	d1e8      	bne.n	800222c <I2C_RequestMemoryRead+0x6c>
 800225a:	6821      	ldr	r1, [r4, #0]
 800225c:	4620      	mov	r0, r4
 800225e:	680b      	ldr	r3, [r1, #0]
 8002260:	f443 7380 	orr.w	r3, r3, #256	; 0x100
 8002264:	600b      	str	r3, [r1, #0]
 8002266:	9500      	str	r5, [sp, #0]
 8002268:	9b0a      	ldr	r3, [sp, #40]	; 0x28
 800226a:	f04f 1101 	mov.w	r1, #65537	; 0x10001
 800226e:	f7ff ff4f 	bl	8002110 <I2C_WaitOnFlagUntilTimeout>
 8002272:	2800      	cmp	r0, #0
 8002274:	d1bc      	bne.n	80021f0 <I2C_RequestMemoryRead+0x30>
 8002276:	6823      	ldr	r3, [r4, #0]
 8002278:	f047 0701 	orr.w	r7, r7, #1
 800227c:	611f      	str	r7, [r3, #16]
 800227e:	9a0a      	ldr	r2, [sp, #40]	; 0x28
 8002280:	462b      	mov	r3, r5
 8002282:	4909      	ldr	r1, [pc, #36]	; (80022a8 <I2C_RequestMemoryRead+0xe8>)
 8002284:	4620      	mov	r0, r4
 8002286:	f7ff feb4 	bl	8001ff2 <I2C_WaitOnMasterAddressFlagUntilTimeout>
 800228a:	3000      	adds	r0, #0
 800228c:	bf18      	it	ne
 800228e:	2001      	movne	r0, #1
 8002290:	e7af      	b.n	80021f2 <I2C_RequestMemoryRead+0x32>
 8002292:	0a32      	lsrs	r2, r6, #8
 8002294:	611a      	str	r2, [r3, #16]
 8002296:	990a      	ldr	r1, [sp, #40]	; 0x28
 8002298:	462a      	mov	r2, r5
 800229a:	4620      	mov	r0, r4
 800229c:	f7ff ff69 	bl	8002172 <I2C_WaitOnTXEFlagUntilTimeout>
 80022a0:	2800      	cmp	r0, #0
 80022a2:	d1c3      	bne.n	800222c <I2C_RequestMemoryRead+0x6c>
 80022a4:	6823      	ldr	r3, [r4, #0]
 80022a6:	e7ce      	b.n	8002246 <I2C_RequestMemoryRead+0x86>
 80022a8:	00010002 	.word	0x00010002

080022ac <HAL_I2C_Init>:
 80022ac:	b570      	push	{r4, r5, r6, lr}
 80022ae:	4604      	mov	r4, r0
 80022b0:	b908      	cbnz	r0, 80022b6 <HAL_I2C_Init+0xa>
 80022b2:	2001      	movs	r0, #1
 80022b4:	bd70      	pop	{r4, r5, r6, pc}
 80022b6:	6803      	ldr	r3, [r0, #0]
 80022b8:	4a77      	ldr	r2, [pc, #476]	; (8002498 <HAL_I2C_Init+0x1ec>)
 80022ba:	4293      	cmp	r3, r2
 80022bc:	d008      	beq.n	80022d0 <HAL_I2C_Init+0x24>
 80022be:	f502 6280 	add.w	r2, r2, #1024	; 0x400
 80022c2:	4293      	cmp	r3, r2
 80022c4:	d004      	beq.n	80022d0 <HAL_I2C_Init+0x24>
 80022c6:	f240 11bb 	movw	r1, #443	; 0x1bb
 80022ca:	4874      	ldr	r0, [pc, #464]	; (800249c <HAL_I2C_Init+0x1f0>)
 80022cc:	f7fe fcf3 	bl	8000cb6 <assert_failed>
 80022d0:	6863      	ldr	r3, [r4, #4]
 80022d2:	4a73      	ldr	r2, [pc, #460]	; (80024a0 <HAL_I2C_Init+0x1f4>)
 80022d4:	3b01      	subs	r3, #1
 80022d6:	4293      	cmp	r3, r2
 80022d8:	d904      	bls.n	80022e4 <HAL_I2C_Init+0x38>
 80022da:	f44f 71de 	mov.w	r1, #444	; 0x1bc
 80022de:	486f      	ldr	r0, [pc, #444]	; (800249c <HAL_I2C_Init+0x1f0>)
 80022e0:	f7fe fce9 	bl	8000cb6 <assert_failed>
 80022e4:	68a3      	ldr	r3, [r4, #8]
 80022e6:	f433 4380 	bics.w	r3, r3, #16384	; 0x4000
 80022ea:	d004      	beq.n	80022f6 <HAL_I2C_Init+0x4a>
 80022ec:	f240 11bd 	movw	r1, #445	; 0x1bd
 80022f0:	486a      	ldr	r0, [pc, #424]	; (800249c <HAL_I2C_Init+0x1f0>)
 80022f2:	f7fe fce0 	bl	8000cb6 <assert_failed>
 80022f6:	68e3      	ldr	r3, [r4, #12]
 80022f8:	f423 737f 	bic.w	r3, r3, #1020	; 0x3fc
 80022fc:	f023 0303 	bic.w	r3, r3, #3
 8002300:	b123      	cbz	r3, 800230c <HAL_I2C_Init+0x60>
 8002302:	f44f 71df 	mov.w	r1, #446	; 0x1be
 8002306:	4865      	ldr	r0, [pc, #404]	; (800249c <HAL_I2C_Init+0x1f0>)
 8002308:	f7fe fcd5 	bl	8000cb6 <assert_failed>
 800230c:	6923      	ldr	r3, [r4, #16]
 800230e:	f423 4300 	bic.w	r3, r3, #32768	; 0x8000
 8002312:	f5b3 4f80 	cmp.w	r3, #16384	; 0x4000
 8002316:	d004      	beq.n	8002322 <HAL_I2C_Init+0x76>
 8002318:	f240 11bf 	movw	r1, #447	; 0x1bf
 800231c:	485f      	ldr	r0, [pc, #380]	; (800249c <HAL_I2C_Init+0x1f0>)
 800231e:	f7fe fcca 	bl	8000cb6 <assert_failed>
 8002322:	6963      	ldr	r3, [r4, #20]
 8002324:	2b01      	cmp	r3, #1
 8002326:	d904      	bls.n	8002332 <HAL_I2C_Init+0x86>
 8002328:	f44f 71e0 	mov.w	r1, #448	; 0x1c0
 800232c:	485b      	ldr	r0, [pc, #364]	; (800249c <HAL_I2C_Init+0x1f0>)
 800232e:	f7fe fcc2 	bl	8000cb6 <assert_failed>
 8002332:	69a3      	ldr	r3, [r4, #24]
 8002334:	f033 03fe 	bics.w	r3, r3, #254	; 0xfe
 8002338:	d004      	beq.n	8002344 <HAL_I2C_Init+0x98>
 800233a:	f240 11c1 	movw	r1, #449	; 0x1c1
 800233e:	4857      	ldr	r0, [pc, #348]	; (800249c <HAL_I2C_Init+0x1f0>)
 8002340:	f7fe fcb9 	bl	8000cb6 <assert_failed>
 8002344:	69e3      	ldr	r3, [r4, #28]
 8002346:	f033 0340 	bics.w	r3, r3, #64	; 0x40
 800234a:	d004      	beq.n	8002356 <HAL_I2C_Init+0xaa>
 800234c:	f44f 71e1 	mov.w	r1, #450	; 0x1c2
 8002350:	4852      	ldr	r0, [pc, #328]	; (800249c <HAL_I2C_Init+0x1f0>)
 8002352:	f7fe fcb0 	bl	8000cb6 <assert_failed>
 8002356:	6a23      	ldr	r3, [r4, #32]
 8002358:	f033 0380 	bics.w	r3, r3, #128	; 0x80
 800235c:	d004      	beq.n	8002368 <HAL_I2C_Init+0xbc>
 800235e:	f240 11c3 	movw	r1, #451	; 0x1c3
 8002362:	484e      	ldr	r0, [pc, #312]	; (800249c <HAL_I2C_Init+0x1f0>)
 8002364:	f7fe fca7 	bl	8000cb6 <assert_failed>
 8002368:	f894 303d 	ldrb.w	r3, [r4, #61]	; 0x3d
 800236c:	f003 02ff 	and.w	r2, r3, #255	; 0xff
 8002370:	b923      	cbnz	r3, 800237c <HAL_I2C_Init+0xd0>
 8002372:	f884 203c 	strb.w	r2, [r4, #60]	; 0x3c
 8002376:	4620      	mov	r0, r4
 8002378:	f7fe fc04 	bl	8000b84 <HAL_I2C_MspInit>
 800237c:	2324      	movs	r3, #36	; 0x24
 800237e:	6822      	ldr	r2, [r4, #0]
 8002380:	f884 303d 	strb.w	r3, [r4, #61]	; 0x3d
 8002384:	6813      	ldr	r3, [r2, #0]
 8002386:	f023 0301 	bic.w	r3, r3, #1
 800238a:	6013      	str	r3, [r2, #0]
 800238c:	f000 fec4 	bl	8003118 <HAL_RCC_GetPCLK1Freq>
 8002390:	6863      	ldr	r3, [r4, #4]
 8002392:	4a44      	ldr	r2, [pc, #272]	; (80024a4 <HAL_I2C_Init+0x1f8>)
 8002394:	4293      	cmp	r3, r2
 8002396:	d84d      	bhi.n	8002434 <HAL_I2C_Init+0x188>
 8002398:	4a43      	ldr	r2, [pc, #268]	; (80024a8 <HAL_I2C_Init+0x1fc>)
 800239a:	4290      	cmp	r0, r2
 800239c:	d989      	bls.n	80022b2 <HAL_I2C_Init+0x6>
 800239e:	4943      	ldr	r1, [pc, #268]	; (80024ac <HAL_I2C_Init+0x200>)
 80023a0:	6822      	ldr	r2, [r4, #0]
 80023a2:	fbb0 f1f1 	udiv	r1, r0, r1
 80023a6:	6855      	ldr	r5, [r2, #4]
 80023a8:	f025 053f 	bic.w	r5, r5, #63	; 0x3f
 80023ac:	430d      	orrs	r5, r1
 80023ae:	6055      	str	r5, [r2, #4]
 80023b0:	6a15      	ldr	r5, [r2, #32]
 80023b2:	f025 053f 	bic.w	r5, r5, #63	; 0x3f
 80023b6:	3101      	adds	r1, #1
 80023b8:	4329      	orrs	r1, r5
 80023ba:	6211      	str	r1, [r2, #32]
 80023bc:	69d1      	ldr	r1, [r2, #28]
 80023be:	4d39      	ldr	r5, [pc, #228]	; (80024a4 <HAL_I2C_Init+0x1f8>)
 80023c0:	f421 414f 	bic.w	r1, r1, #52992	; 0xcf00
 80023c4:	42ab      	cmp	r3, r5
 80023c6:	f021 01ff 	bic.w	r1, r1, #255	; 0xff
 80023ca:	f100 30ff 	add.w	r0, r0, #4294967295
 80023ce:	d849      	bhi.n	8002464 <HAL_I2C_Init+0x1b8>
 80023d0:	005b      	lsls	r3, r3, #1
 80023d2:	fbb0 f0f3 	udiv	r0, r0, r3
 80023d6:	1c43      	adds	r3, r0, #1
 80023d8:	f3c3 030b 	ubfx	r3, r3, #0, #12
 80023dc:	2b04      	cmp	r3, #4
 80023de:	bf38      	it	cc
 80023e0:	2304      	movcc	r3, #4
 80023e2:	430b      	orrs	r3, r1
 80023e4:	61d3      	str	r3, [r2, #28]
 80023e6:	6811      	ldr	r1, [r2, #0]
 80023e8:	e9d4 3007 	ldrd	r3, r0, [r4, #28]
 80023ec:	f021 01c0 	bic.w	r1, r1, #192	; 0xc0
 80023f0:	4303      	orrs	r3, r0
 80023f2:	430b      	orrs	r3, r1
 80023f4:	6013      	str	r3, [r2, #0]
 80023f6:	6891      	ldr	r1, [r2, #8]
 80023f8:	e9d4 0303 	ldrd	r0, r3, [r4, #12]
 80023fc:	f421 4103 	bic.w	r1, r1, #33536	; 0x8300
 8002400:	4303      	orrs	r3, r0
 8002402:	f021 01ff 	bic.w	r1, r1, #255	; 0xff
 8002406:	430b      	orrs	r3, r1
 8002408:	6093      	str	r3, [r2, #8]
 800240a:	68d1      	ldr	r1, [r2, #12]
 800240c:	e9d4 3005 	ldrd	r3, r0, [r4, #20]
 8002410:	f021 01ff 	bic.w	r1, r1, #255	; 0xff
 8002414:	4303      	orrs	r3, r0
 8002416:	430b      	orrs	r3, r1
 8002418:	60d3      	str	r3, [r2, #12]
 800241a:	6813      	ldr	r3, [r2, #0]
 800241c:	2000      	movs	r0, #0
 800241e:	f043 0301 	orr.w	r3, r3, #1
 8002422:	6013      	str	r3, [r2, #0]
 8002424:	2320      	movs	r3, #32
 8002426:	6420      	str	r0, [r4, #64]	; 0x40
 8002428:	f884 303d 	strb.w	r3, [r4, #61]	; 0x3d
 800242c:	6320      	str	r0, [r4, #48]	; 0x30
 800242e:	f884 003e 	strb.w	r0, [r4, #62]	; 0x3e
 8002432:	e73f      	b.n	80022b4 <HAL_I2C_Init+0x8>
 8002434:	4a1e      	ldr	r2, [pc, #120]	; (80024b0 <HAL_I2C_Init+0x204>)
 8002436:	4290      	cmp	r0, r2
 8002438:	f67f af3b 	bls.w	80022b2 <HAL_I2C_Init+0x6>
 800243c:	4e1b      	ldr	r6, [pc, #108]	; (80024ac <HAL_I2C_Init+0x200>)
 800243e:	f44f 7196 	mov.w	r1, #300	; 0x12c
 8002442:	fbb0 f6f6 	udiv	r6, r0, r6
 8002446:	6822      	ldr	r2, [r4, #0]
 8002448:	4371      	muls	r1, r6
 800244a:	6855      	ldr	r5, [r2, #4]
 800244c:	f025 053f 	bic.w	r5, r5, #63	; 0x3f
 8002450:	4335      	orrs	r5, r6
 8002452:	f44f 767a 	mov.w	r6, #1000	; 0x3e8
 8002456:	6055      	str	r5, [r2, #4]
 8002458:	6a15      	ldr	r5, [r2, #32]
 800245a:	fbb1 f1f6 	udiv	r1, r1, r6
 800245e:	f025 053f 	bic.w	r5, r5, #63	; 0x3f
 8002462:	e7a8      	b.n	80023b6 <HAL_I2C_Init+0x10a>
 8002464:	68a5      	ldr	r5, [r4, #8]
 8002466:	b955      	cbnz	r5, 800247e <HAL_I2C_Init+0x1d2>
 8002468:	eb03 0343 	add.w	r3, r3, r3, lsl #1
 800246c:	fbb0 f0f3 	udiv	r0, r0, r3
 8002470:	1c43      	adds	r3, r0, #1
 8002472:	f3c3 030b 	ubfx	r3, r3, #0, #12
 8002476:	b16b      	cbz	r3, 8002494 <HAL_I2C_Init+0x1e8>
 8002478:	f443 4300 	orr.w	r3, r3, #32768	; 0x8000
 800247c:	e7b1      	b.n	80023e2 <HAL_I2C_Init+0x136>
 800247e:	2519      	movs	r5, #25
 8002480:	436b      	muls	r3, r5
 8002482:	fbb0 f0f3 	udiv	r0, r0, r3
 8002486:	1c43      	adds	r3, r0, #1
 8002488:	f3c3 030b 	ubfx	r3, r3, #0, #12
 800248c:	b113      	cbz	r3, 8002494 <HAL_I2C_Init+0x1e8>
 800248e:	f443 4340 	orr.w	r3, r3, #49152	; 0xc000
 8002492:	e7a6      	b.n	80023e2 <HAL_I2C_Init+0x136>
 8002494:	2301      	movs	r3, #1
 8002496:	e7a4      	b.n	80023e2 <HAL_I2C_Init+0x136>
 8002498:	40005400 	.word	0x40005400
 800249c:	08006305 	.word	0x08006305
 80024a0:	00061a7f 	.word	0x00061a7f
 80024a4:	000186a0 	.word	0x000186a0
 80024a8:	001e847f 	.word	0x001e847f
 80024ac:	000f4240 	.word	0x000f4240
 80024b0:	003d08ff 	.word	0x003d08ff

080024b4 <HAL_I2C_Master_Transmit>:
 80024b4:	e92d 41ff 	stmdb	sp!, {r0, r1, r2, r3, r4, r5, r6, r7, r8, lr}
 80024b8:	4604      	mov	r4, r0
 80024ba:	461f      	mov	r7, r3
 80024bc:	460d      	mov	r5, r1
 80024be:	4690      	mov	r8, r2
 80024c0:	f7fe fef2 	bl	80012a8 <HAL_GetTick>
 80024c4:	f894 303d 	ldrb.w	r3, [r4, #61]	; 0x3d
 80024c8:	4606      	mov	r6, r0
 80024ca:	2b20      	cmp	r3, #32
 80024cc:	d004      	beq.n	80024d8 <HAL_I2C_Master_Transmit+0x24>
 80024ce:	2502      	movs	r5, #2
 80024d0:	4628      	mov	r0, r5
 80024d2:	b004      	add	sp, #16
 80024d4:	e8bd 81f0 	ldmia.w	sp!, {r4, r5, r6, r7, r8, pc}
 80024d8:	9000      	str	r0, [sp, #0]
 80024da:	2319      	movs	r3, #25
 80024dc:	2201      	movs	r2, #1
 80024de:	4958      	ldr	r1, [pc, #352]	; (8002640 <HAL_I2C_Master_Transmit+0x18c>)
 80024e0:	4620      	mov	r0, r4
 80024e2:	f7ff fe15 	bl	8002110 <I2C_WaitOnFlagUntilTimeout>
 80024e6:	2800      	cmp	r0, #0
 80024e8:	d1f1      	bne.n	80024ce <HAL_I2C_Master_Transmit+0x1a>
 80024ea:	f894 303c 	ldrb.w	r3, [r4, #60]	; 0x3c
 80024ee:	2b01      	cmp	r3, #1
 80024f0:	d0ed      	beq.n	80024ce <HAL_I2C_Master_Transmit+0x1a>
 80024f2:	2301      	movs	r3, #1
 80024f4:	f884 303c 	strb.w	r3, [r4, #60]	; 0x3c
 80024f8:	6823      	ldr	r3, [r4, #0]
 80024fa:	681a      	ldr	r2, [r3, #0]
 80024fc:	07d2      	lsls	r2, r2, #31
 80024fe:	bf5e      	ittt	pl
 8002500:	681a      	ldrpl	r2, [r3, #0]
 8002502:	f042 0201 	orrpl.w	r2, r2, #1
 8002506:	601a      	strpl	r2, [r3, #0]
 8002508:	681a      	ldr	r2, [r3, #0]
 800250a:	f422 6200 	bic.w	r2, r2, #2048	; 0x800
 800250e:	601a      	str	r2, [r3, #0]
 8002510:	2221      	movs	r2, #33	; 0x21
 8002512:	f884 203d 	strb.w	r2, [r4, #61]	; 0x3d
 8002516:	2210      	movs	r2, #16
 8002518:	f884 203e 	strb.w	r2, [r4, #62]	; 0x3e
 800251c:	2200      	movs	r2, #0
 800251e:	6422      	str	r2, [r4, #64]	; 0x40
 8002520:	8567      	strh	r7, [r4, #42]	; 0x2a
 8002522:	8d62      	ldrh	r2, [r4, #42]	; 0x2a
 8002524:	f8c4 8024 	str.w	r8, [r4, #36]	; 0x24
 8002528:	8522      	strh	r2, [r4, #40]	; 0x28
 800252a:	4a46      	ldr	r2, [pc, #280]	; (8002644 <HAL_I2C_Master_Transmit+0x190>)
 800252c:	62e2      	str	r2, [r4, #44]	; 0x2c
 800252e:	6ae2      	ldr	r2, [r4, #44]	; 0x2c
 8002530:	2a08      	cmp	r2, #8
 8002532:	d004      	beq.n	800253e <HAL_I2C_Master_Transmit+0x8a>
 8002534:	2a01      	cmp	r2, #1
 8002536:	d002      	beq.n	800253e <HAL_I2C_Master_Transmit+0x8a>
 8002538:	f512 3f80 	cmn.w	r2, #65536	; 0x10000
 800253c:	d104      	bne.n	8002548 <HAL_I2C_Master_Transmit+0x94>
 800253e:	681a      	ldr	r2, [r3, #0]
 8002540:	f442 7280 	orr.w	r2, r2, #256	; 0x100
 8002544:	601a      	str	r2, [r3, #0]
 8002546:	e002      	b.n	800254e <HAL_I2C_Master_Transmit+0x9a>
 8002548:	6b22      	ldr	r2, [r4, #48]	; 0x30
 800254a:	2a12      	cmp	r2, #18
 800254c:	d0f7      	beq.n	800253e <HAL_I2C_Master_Transmit+0x8a>
 800254e:	9600      	str	r6, [sp, #0]
 8002550:	9b0a      	ldr	r3, [sp, #40]	; 0x28
 8002552:	2200      	movs	r2, #0
 8002554:	f04f 1101 	mov.w	r1, #65537	; 0x10001
 8002558:	4620      	mov	r0, r4
 800255a:	f7ff fdd9 	bl	8002110 <I2C_WaitOnFlagUntilTimeout>
 800255e:	b108      	cbz	r0, 8002564 <HAL_I2C_Master_Transmit+0xb0>
 8002560:	2501      	movs	r5, #1
 8002562:	e7b5      	b.n	80024d0 <HAL_I2C_Master_Transmit+0x1c>
 8002564:	6923      	ldr	r3, [r4, #16]
 8002566:	6822      	ldr	r2, [r4, #0]
 8002568:	f5b3 4f80 	cmp.w	r3, #16384	; 0x4000
 800256c:	d121      	bne.n	80025b2 <HAL_I2C_Master_Transmit+0xfe>
 800256e:	f005 05fe 	and.w	r5, r5, #254	; 0xfe
 8002572:	6115      	str	r5, [r2, #16]
 8002574:	4633      	mov	r3, r6
 8002576:	9a0a      	ldr	r2, [sp, #40]	; 0x28
 8002578:	4933      	ldr	r1, [pc, #204]	; (8002648 <HAL_I2C_Master_Transmit+0x194>)
 800257a:	4620      	mov	r0, r4
 800257c:	f7ff fd39 	bl	8001ff2 <I2C_WaitOnMasterAddressFlagUntilTimeout>
 8002580:	4605      	mov	r5, r0
 8002582:	2800      	cmp	r0, #0
 8002584:	d1ec      	bne.n	8002560 <HAL_I2C_Master_Transmit+0xac>
 8002586:	6823      	ldr	r3, [r4, #0]
 8002588:	9003      	str	r0, [sp, #12]
 800258a:	695a      	ldr	r2, [r3, #20]
 800258c:	9203      	str	r2, [sp, #12]
 800258e:	699b      	ldr	r3, [r3, #24]
 8002590:	9303      	str	r3, [sp, #12]
 8002592:	9b03      	ldr	r3, [sp, #12]
 8002594:	8d23      	ldrh	r3, [r4, #40]	; 0x28
 8002596:	b9f3      	cbnz	r3, 80025d6 <HAL_I2C_Master_Transmit+0x122>
 8002598:	6821      	ldr	r1, [r4, #0]
 800259a:	680a      	ldr	r2, [r1, #0]
 800259c:	f442 7200 	orr.w	r2, r2, #512	; 0x200
 80025a0:	600a      	str	r2, [r1, #0]
 80025a2:	2220      	movs	r2, #32
 80025a4:	f884 303c 	strb.w	r3, [r4, #60]	; 0x3c
 80025a8:	f884 203d 	strb.w	r2, [r4, #61]	; 0x3d
 80025ac:	f884 303e 	strb.w	r3, [r4, #62]	; 0x3e
 80025b0:	e78e      	b.n	80024d0 <HAL_I2C_Master_Transmit+0x1c>
 80025b2:	11eb      	asrs	r3, r5, #7
 80025b4:	f003 0306 	and.w	r3, r3, #6
 80025b8:	f043 03f0 	orr.w	r3, r3, #240	; 0xf0
 80025bc:	6113      	str	r3, [r2, #16]
 80025be:	4923      	ldr	r1, [pc, #140]	; (800264c <HAL_I2C_Master_Transmit+0x198>)
 80025c0:	4633      	mov	r3, r6
 80025c2:	9a0a      	ldr	r2, [sp, #40]	; 0x28
 80025c4:	4620      	mov	r0, r4
 80025c6:	f7ff fd14 	bl	8001ff2 <I2C_WaitOnMasterAddressFlagUntilTimeout>
 80025ca:	2800      	cmp	r0, #0
 80025cc:	d1c8      	bne.n	8002560 <HAL_I2C_Master_Transmit+0xac>
 80025ce:	6823      	ldr	r3, [r4, #0]
 80025d0:	b2ed      	uxtb	r5, r5
 80025d2:	611d      	str	r5, [r3, #16]
 80025d4:	e7ce      	b.n	8002574 <HAL_I2C_Master_Transmit+0xc0>
 80025d6:	4632      	mov	r2, r6
 80025d8:	990a      	ldr	r1, [sp, #40]	; 0x28
 80025da:	4620      	mov	r0, r4
 80025dc:	f7ff fdc9 	bl	8002172 <I2C_WaitOnTXEFlagUntilTimeout>
 80025e0:	b140      	cbz	r0, 80025f4 <HAL_I2C_Master_Transmit+0x140>
 80025e2:	6c23      	ldr	r3, [r4, #64]	; 0x40
 80025e4:	2b04      	cmp	r3, #4
 80025e6:	bf01      	itttt	eq
 80025e8:	6822      	ldreq	r2, [r4, #0]
 80025ea:	6813      	ldreq	r3, [r2, #0]
 80025ec:	f443 7300 	orreq.w	r3, r3, #512	; 0x200
 80025f0:	6013      	streq	r3, [r2, #0]
 80025f2:	e7b5      	b.n	8002560 <HAL_I2C_Master_Transmit+0xac>
 80025f4:	6a63      	ldr	r3, [r4, #36]	; 0x24
 80025f6:	6820      	ldr	r0, [r4, #0]
 80025f8:	461a      	mov	r2, r3
 80025fa:	f812 1b01 	ldrb.w	r1, [r2], #1
 80025fe:	6101      	str	r1, [r0, #16]
 8002600:	6262      	str	r2, [r4, #36]	; 0x24
 8002602:	8d62      	ldrh	r2, [r4, #42]	; 0x2a
 8002604:	3a01      	subs	r2, #1
 8002606:	b292      	uxth	r2, r2
 8002608:	8562      	strh	r2, [r4, #42]	; 0x2a
 800260a:	8d22      	ldrh	r2, [r4, #40]	; 0x28
 800260c:	6947      	ldr	r7, [r0, #20]
 800260e:	1e51      	subs	r1, r2, #1
 8002610:	b289      	uxth	r1, r1
 8002612:	077f      	lsls	r7, r7, #29
 8002614:	8521      	strh	r1, [r4, #40]	; 0x28
 8002616:	d50a      	bpl.n	800262e <HAL_I2C_Master_Transmit+0x17a>
 8002618:	b149      	cbz	r1, 800262e <HAL_I2C_Master_Transmit+0x17a>
 800261a:	7859      	ldrb	r1, [r3, #1]
 800261c:	3302      	adds	r3, #2
 800261e:	6101      	str	r1, [r0, #16]
 8002620:	6263      	str	r3, [r4, #36]	; 0x24
 8002622:	8d63      	ldrh	r3, [r4, #42]	; 0x2a
 8002624:	3a02      	subs	r2, #2
 8002626:	3b01      	subs	r3, #1
 8002628:	b29b      	uxth	r3, r3
 800262a:	8563      	strh	r3, [r4, #42]	; 0x2a
 800262c:	8522      	strh	r2, [r4, #40]	; 0x28
 800262e:	4632      	mov	r2, r6
 8002630:	990a      	ldr	r1, [sp, #40]	; 0x28
 8002632:	4620      	mov	r0, r4
 8002634:	f7ff fd17 	bl	8002066 <I2C_WaitOnBTFFlagUntilTimeout>
 8002638:	2800      	cmp	r0, #0
 800263a:	d0ab      	beq.n	8002594 <HAL_I2C_Master_Transmit+0xe0>
 800263c:	e7d1      	b.n	80025e2 <HAL_I2C_Master_Transmit+0x12e>
 800263e:	bf00      	nop
 8002640:	00100002 	.word	0x00100002
 8002644:	ffff0000 	.word	0xffff0000
 8002648:	00010002 	.word	0x00010002
 800264c:	00010008 	.word	0x00010008

08002650 <HAL_I2C_Mem_Read>:
 8002650:	e92d 43f0 	stmdb	sp!, {r4, r5, r6, r7, r8, r9, lr}
 8002654:	461d      	mov	r5, r3
 8002656:	b087      	sub	sp, #28
 8002658:	4604      	mov	r4, r0
 800265a:	4688      	mov	r8, r1
 800265c:	4691      	mov	r9, r2
 800265e:	9f10      	ldr	r7, [sp, #64]	; 0x40
 8002660:	f7fe fe22 	bl	80012a8 <HAL_GetTick>
 8002664:	2d01      	cmp	r5, #1
 8002666:	4606      	mov	r6, r0
 8002668:	d006      	beq.n	8002678 <HAL_I2C_Mem_Read+0x28>
 800266a:	2d10      	cmp	r5, #16
 800266c:	d004      	beq.n	8002678 <HAL_I2C_Mem_Read+0x28>
 800266e:	f44f 611e 	mov.w	r1, #2528	; 0x9e0
 8002672:	487f      	ldr	r0, [pc, #508]	; (8002870 <HAL_I2C_Mem_Read+0x220>)
 8002674:	f7fe fb1f 	bl	8000cb6 <assert_failed>
 8002678:	f894 303d 	ldrb.w	r3, [r4, #61]	; 0x3d
 800267c:	2b20      	cmp	r3, #32
 800267e:	d004      	beq.n	800268a <HAL_I2C_Mem_Read+0x3a>
 8002680:	2502      	movs	r5, #2
 8002682:	4628      	mov	r0, r5
 8002684:	b007      	add	sp, #28
 8002686:	e8bd 83f0 	ldmia.w	sp!, {r4, r5, r6, r7, r8, r9, pc}
 800268a:	9600      	str	r6, [sp, #0]
 800268c:	2319      	movs	r3, #25
 800268e:	2201      	movs	r2, #1
 8002690:	4978      	ldr	r1, [pc, #480]	; (8002874 <HAL_I2C_Mem_Read+0x224>)
 8002692:	4620      	mov	r0, r4
 8002694:	f7ff fd3c 	bl	8002110 <I2C_WaitOnFlagUntilTimeout>
 8002698:	2800      	cmp	r0, #0
 800269a:	d1f1      	bne.n	8002680 <HAL_I2C_Mem_Read+0x30>
 800269c:	f894 303c 	ldrb.w	r3, [r4, #60]	; 0x3c
 80026a0:	2b01      	cmp	r3, #1
 80026a2:	d0ed      	beq.n	8002680 <HAL_I2C_Mem_Read+0x30>
 80026a4:	2301      	movs	r3, #1
 80026a6:	f884 303c 	strb.w	r3, [r4, #60]	; 0x3c
 80026aa:	6823      	ldr	r3, [r4, #0]
 80026ac:	4641      	mov	r1, r8
 80026ae:	681a      	ldr	r2, [r3, #0]
 80026b0:	07d0      	lsls	r0, r2, #31
 80026b2:	bf58      	it	pl
 80026b4:	681a      	ldrpl	r2, [r3, #0]
 80026b6:	4620      	mov	r0, r4
 80026b8:	bf5c      	itt	pl
 80026ba:	f042 0201 	orrpl.w	r2, r2, #1
 80026be:	601a      	strpl	r2, [r3, #0]
 80026c0:	681a      	ldr	r2, [r3, #0]
 80026c2:	f422 6200 	bic.w	r2, r2, #2048	; 0x800
 80026c6:	601a      	str	r2, [r3, #0]
 80026c8:	2322      	movs	r3, #34	; 0x22
 80026ca:	f884 303d 	strb.w	r3, [r4, #61]	; 0x3d
 80026ce:	2340      	movs	r3, #64	; 0x40
 80026d0:	f884 303e 	strb.w	r3, [r4, #62]	; 0x3e
 80026d4:	2300      	movs	r3, #0
 80026d6:	6423      	str	r3, [r4, #64]	; 0x40
 80026d8:	9b0e      	ldr	r3, [sp, #56]	; 0x38
 80026da:	e9cd 7600 	strd	r7, r6, [sp]
 80026de:	6263      	str	r3, [r4, #36]	; 0x24
 80026e0:	f8bd 303c 	ldrh.w	r3, [sp, #60]	; 0x3c
 80026e4:	464a      	mov	r2, r9
 80026e6:	8563      	strh	r3, [r4, #42]	; 0x2a
 80026e8:	8d63      	ldrh	r3, [r4, #42]	; 0x2a
 80026ea:	8523      	strh	r3, [r4, #40]	; 0x28
 80026ec:	4b62      	ldr	r3, [pc, #392]	; (8002878 <HAL_I2C_Mem_Read+0x228>)
 80026ee:	62e3      	str	r3, [r4, #44]	; 0x2c
 80026f0:	462b      	mov	r3, r5
 80026f2:	f7ff fd65 	bl	80021c0 <I2C_RequestMemoryRead>
 80026f6:	4605      	mov	r5, r0
 80026f8:	b108      	cbz	r0, 80026fe <HAL_I2C_Mem_Read+0xae>
 80026fa:	2501      	movs	r5, #1
 80026fc:	e7c1      	b.n	8002682 <HAL_I2C_Mem_Read+0x32>
 80026fe:	8d22      	ldrh	r2, [r4, #40]	; 0x28
 8002700:	6823      	ldr	r3, [r4, #0]
 8002702:	b992      	cbnz	r2, 800272a <HAL_I2C_Mem_Read+0xda>
 8002704:	9002      	str	r0, [sp, #8]
 8002706:	695a      	ldr	r2, [r3, #20]
 8002708:	9202      	str	r2, [sp, #8]
 800270a:	699a      	ldr	r2, [r3, #24]
 800270c:	9202      	str	r2, [sp, #8]
 800270e:	9a02      	ldr	r2, [sp, #8]
 8002710:	681a      	ldr	r2, [r3, #0]
 8002712:	f442 7200 	orr.w	r2, r2, #512	; 0x200
 8002716:	601a      	str	r2, [r3, #0]
 8002718:	2320      	movs	r3, #32
 800271a:	f884 303d 	strb.w	r3, [r4, #61]	; 0x3d
 800271e:	2300      	movs	r3, #0
 8002720:	f884 303e 	strb.w	r3, [r4, #62]	; 0x3e
 8002724:	f884 303c 	strb.w	r3, [r4, #60]	; 0x3c
 8002728:	e7ab      	b.n	8002682 <HAL_I2C_Mem_Read+0x32>
 800272a:	2a01      	cmp	r2, #1
 800272c:	d12c      	bne.n	8002788 <HAL_I2C_Mem_Read+0x138>
 800272e:	681a      	ldr	r2, [r3, #0]
 8002730:	f422 6280 	bic.w	r2, r2, #1024	; 0x400
 8002734:	601a      	str	r2, [r3, #0]
 8002736:	9003      	str	r0, [sp, #12]
 8002738:	695a      	ldr	r2, [r3, #20]
 800273a:	9203      	str	r2, [sp, #12]
 800273c:	699a      	ldr	r2, [r3, #24]
 800273e:	9203      	str	r2, [sp, #12]
 8002740:	9a03      	ldr	r2, [sp, #12]
 8002742:	681a      	ldr	r2, [r3, #0]
 8002744:	f442 7200 	orr.w	r2, r2, #512	; 0x200
 8002748:	601a      	str	r2, [r3, #0]
 800274a:	f8df 8130 	ldr.w	r8, [pc, #304]	; 800287c <HAL_I2C_Mem_Read+0x22c>
 800274e:	8d23      	ldrh	r3, [r4, #40]	; 0x28
 8002750:	2b00      	cmp	r3, #0
 8002752:	d0e1      	beq.n	8002718 <HAL_I2C_Mem_Read+0xc8>
 8002754:	2b03      	cmp	r3, #3
 8002756:	d86e      	bhi.n	8002836 <HAL_I2C_Mem_Read+0x1e6>
 8002758:	2b01      	cmp	r3, #1
 800275a:	d12d      	bne.n	80027b8 <HAL_I2C_Mem_Read+0x168>
 800275c:	4632      	mov	r2, r6
 800275e:	4639      	mov	r1, r7
 8002760:	4620      	mov	r0, r4
 8002762:	f7ff fca6 	bl	80020b2 <I2C_WaitOnRXNEFlagUntilTimeout>
 8002766:	2800      	cmp	r0, #0
 8002768:	d1c7      	bne.n	80026fa <HAL_I2C_Mem_Read+0xaa>
 800276a:	6823      	ldr	r3, [r4, #0]
 800276c:	691a      	ldr	r2, [r3, #16]
 800276e:	6a63      	ldr	r3, [r4, #36]	; 0x24
 8002770:	701a      	strb	r2, [r3, #0]
 8002772:	6a63      	ldr	r3, [r4, #36]	; 0x24
 8002774:	3301      	adds	r3, #1
 8002776:	6263      	str	r3, [r4, #36]	; 0x24
 8002778:	8d23      	ldrh	r3, [r4, #40]	; 0x28
 800277a:	3b01      	subs	r3, #1
 800277c:	8523      	strh	r3, [r4, #40]	; 0x28
 800277e:	8d63      	ldrh	r3, [r4, #42]	; 0x2a
 8002780:	3b01      	subs	r3, #1
 8002782:	b29b      	uxth	r3, r3
 8002784:	8563      	strh	r3, [r4, #42]	; 0x2a
 8002786:	e7e2      	b.n	800274e <HAL_I2C_Mem_Read+0xfe>
 8002788:	2a02      	cmp	r2, #2
 800278a:	d10e      	bne.n	80027aa <HAL_I2C_Mem_Read+0x15a>
 800278c:	681a      	ldr	r2, [r3, #0]
 800278e:	f422 6280 	bic.w	r2, r2, #1024	; 0x400
 8002792:	601a      	str	r2, [r3, #0]
 8002794:	681a      	ldr	r2, [r3, #0]
 8002796:	f442 6200 	orr.w	r2, r2, #2048	; 0x800
 800279a:	601a      	str	r2, [r3, #0]
 800279c:	9004      	str	r0, [sp, #16]
 800279e:	695a      	ldr	r2, [r3, #20]
 80027a0:	9204      	str	r2, [sp, #16]
 80027a2:	699b      	ldr	r3, [r3, #24]
 80027a4:	9304      	str	r3, [sp, #16]
 80027a6:	9b04      	ldr	r3, [sp, #16]
 80027a8:	e7cf      	b.n	800274a <HAL_I2C_Mem_Read+0xfa>
 80027aa:	9005      	str	r0, [sp, #20]
 80027ac:	695a      	ldr	r2, [r3, #20]
 80027ae:	9205      	str	r2, [sp, #20]
 80027b0:	699b      	ldr	r3, [r3, #24]
 80027b2:	9305      	str	r3, [sp, #20]
 80027b4:	9b05      	ldr	r3, [sp, #20]
 80027b6:	e7c8      	b.n	800274a <HAL_I2C_Mem_Read+0xfa>
 80027b8:	2b02      	cmp	r3, #2
 80027ba:	9600      	str	r6, [sp, #0]
 80027bc:	463b      	mov	r3, r7
 80027be:	f04f 0200 	mov.w	r2, #0
 80027c2:	4641      	mov	r1, r8
 80027c4:	4620      	mov	r0, r4
 80027c6:	d119      	bne.n	80027fc <HAL_I2C_Mem_Read+0x1ac>
 80027c8:	f7ff fca2 	bl	8002110 <I2C_WaitOnFlagUntilTimeout>
 80027cc:	2800      	cmp	r0, #0
 80027ce:	d194      	bne.n	80026fa <HAL_I2C_Mem_Read+0xaa>
 80027d0:	6823      	ldr	r3, [r4, #0]
 80027d2:	681a      	ldr	r2, [r3, #0]
 80027d4:	f442 7200 	orr.w	r2, r2, #512	; 0x200
 80027d8:	601a      	str	r2, [r3, #0]
 80027da:	691a      	ldr	r2, [r3, #16]
 80027dc:	6a63      	ldr	r3, [r4, #36]	; 0x24
 80027de:	701a      	strb	r2, [r3, #0]
 80027e0:	6a62      	ldr	r2, [r4, #36]	; 0x24
 80027e2:	1c53      	adds	r3, r2, #1
 80027e4:	6263      	str	r3, [r4, #36]	; 0x24
 80027e6:	8d23      	ldrh	r3, [r4, #40]	; 0x28
 80027e8:	3b01      	subs	r3, #1
 80027ea:	8523      	strh	r3, [r4, #40]	; 0x28
 80027ec:	8d63      	ldrh	r3, [r4, #42]	; 0x2a
 80027ee:	3b01      	subs	r3, #1
 80027f0:	b29b      	uxth	r3, r3
 80027f2:	8563      	strh	r3, [r4, #42]	; 0x2a
 80027f4:	6823      	ldr	r3, [r4, #0]
 80027f6:	691b      	ldr	r3, [r3, #16]
 80027f8:	7053      	strb	r3, [r2, #1]
 80027fa:	e7ba      	b.n	8002772 <HAL_I2C_Mem_Read+0x122>
 80027fc:	f7ff fc88 	bl	8002110 <I2C_WaitOnFlagUntilTimeout>
 8002800:	4602      	mov	r2, r0
 8002802:	2800      	cmp	r0, #0
 8002804:	f47f af79 	bne.w	80026fa <HAL_I2C_Mem_Read+0xaa>
 8002808:	6823      	ldr	r3, [r4, #0]
 800280a:	4620      	mov	r0, r4
 800280c:	6819      	ldr	r1, [r3, #0]
 800280e:	f421 6180 	bic.w	r1, r1, #1024	; 0x400
 8002812:	6019      	str	r1, [r3, #0]
 8002814:	6919      	ldr	r1, [r3, #16]
 8002816:	6a63      	ldr	r3, [r4, #36]	; 0x24
 8002818:	7019      	strb	r1, [r3, #0]
 800281a:	6a63      	ldr	r3, [r4, #36]	; 0x24
 800281c:	9600      	str	r6, [sp, #0]
 800281e:	3301      	adds	r3, #1
 8002820:	6263      	str	r3, [r4, #36]	; 0x24
 8002822:	8d23      	ldrh	r3, [r4, #40]	; 0x28
 8002824:	4641      	mov	r1, r8
 8002826:	3b01      	subs	r3, #1
 8002828:	8523      	strh	r3, [r4, #40]	; 0x28
 800282a:	8d63      	ldrh	r3, [r4, #42]	; 0x2a
 800282c:	3b01      	subs	r3, #1
 800282e:	b29b      	uxth	r3, r3
 8002830:	8563      	strh	r3, [r4, #42]	; 0x2a
 8002832:	463b      	mov	r3, r7
 8002834:	e7c8      	b.n	80027c8 <HAL_I2C_Mem_Read+0x178>
 8002836:	4632      	mov	r2, r6
 8002838:	4639      	mov	r1, r7
 800283a:	4620      	mov	r0, r4
 800283c:	f7ff fc39 	bl	80020b2 <I2C_WaitOnRXNEFlagUntilTimeout>
 8002840:	2800      	cmp	r0, #0
 8002842:	f47f af5a 	bne.w	80026fa <HAL_I2C_Mem_Read+0xaa>
 8002846:	6823      	ldr	r3, [r4, #0]
 8002848:	691a      	ldr	r2, [r3, #16]
 800284a:	6a63      	ldr	r3, [r4, #36]	; 0x24
 800284c:	701a      	strb	r2, [r3, #0]
 800284e:	6a62      	ldr	r2, [r4, #36]	; 0x24
 8002850:	1c53      	adds	r3, r2, #1
 8002852:	6263      	str	r3, [r4, #36]	; 0x24
 8002854:	8d23      	ldrh	r3, [r4, #40]	; 0x28
 8002856:	3b01      	subs	r3, #1
 8002858:	8523      	strh	r3, [r4, #40]	; 0x28
 800285a:	8d63      	ldrh	r3, [r4, #42]	; 0x2a
 800285c:	3b01      	subs	r3, #1
 800285e:	b29b      	uxth	r3, r3
 8002860:	8563      	strh	r3, [r4, #42]	; 0x2a
 8002862:	6823      	ldr	r3, [r4, #0]
 8002864:	6959      	ldr	r1, [r3, #20]
 8002866:	0749      	lsls	r1, r1, #29
 8002868:	f57f af71 	bpl.w	800274e <HAL_I2C_Mem_Read+0xfe>
 800286c:	e7c3      	b.n	80027f6 <HAL_I2C_Mem_Read+0x1a6>
 800286e:	bf00      	nop
 8002870:	08006305 	.word	0x08006305
 8002874:	00100002 	.word	0x00100002
 8002878:	ffff0000 	.word	0xffff0000
 800287c:	00010004 	.word	0x00010004

08002880 <RCC_SetFlashLatencyFromMSIRange>:
 8002880:	4b1c      	ldr	r3, [pc, #112]	; (80028f4 <RCC_SetFlashLatencyFromMSIRange+0x74>)
 8002882:	b082      	sub	sp, #8
 8002884:	689a      	ldr	r2, [r3, #8]
 8002886:	f012 0ff0 	tst.w	r2, #240	; 0xf0
 800288a:	d00c      	beq.n	80028a6 <RCC_SetFlashLatencyFromMSIRange+0x26>
 800288c:	2200      	movs	r2, #0
 800288e:	491a      	ldr	r1, [pc, #104]	; (80028f8 <RCC_SetFlashLatencyFromMSIRange+0x78>)
 8002890:	680b      	ldr	r3, [r1, #0]
 8002892:	f023 0301 	bic.w	r3, r3, #1
 8002896:	4313      	orrs	r3, r2
 8002898:	600b      	str	r3, [r1, #0]
 800289a:	6808      	ldr	r0, [r1, #0]
 800289c:	f000 0001 	and.w	r0, r0, #1
 80028a0:	4050      	eors	r0, r2
 80028a2:	b002      	add	sp, #8
 80028a4:	4770      	bx	lr
 80028a6:	6a5a      	ldr	r2, [r3, #36]	; 0x24
 80028a8:	4914      	ldr	r1, [pc, #80]	; (80028fc <RCC_SetFlashLatencyFromMSIRange+0x7c>)
 80028aa:	f012 5f80 	tst.w	r2, #268435456	; 0x10000000
 80028ae:	d00f      	beq.n	80028d0 <RCC_SetFlashLatencyFromMSIRange+0x50>
 80028b0:	680a      	ldr	r2, [r1, #0]
 80028b2:	f402 52c0 	and.w	r2, r2, #6144	; 0x1800
 80028b6:	f5b2 5fc0 	cmp.w	r2, #6144	; 0x1800
 80028ba:	d1e7      	bne.n	800288c <RCC_SetFlashLatencyFromMSIRange+0xc>
 80028bc:	f5b0 4f40 	cmp.w	r0, #49152	; 0xc000
 80028c0:	d1e4      	bne.n	800288c <RCC_SetFlashLatencyFromMSIRange+0xc>
 80028c2:	4a0d      	ldr	r2, [pc, #52]	; (80028f8 <RCC_SetFlashLatencyFromMSIRange+0x78>)
 80028c4:	6813      	ldr	r3, [r2, #0]
 80028c6:	f043 0304 	orr.w	r3, r3, #4
 80028ca:	6013      	str	r3, [r2, #0]
 80028cc:	2201      	movs	r2, #1
 80028ce:	e7de      	b.n	800288e <RCC_SetFlashLatencyFromMSIRange+0xe>
 80028d0:	6a5a      	ldr	r2, [r3, #36]	; 0x24
 80028d2:	f042 5280 	orr.w	r2, r2, #268435456	; 0x10000000
 80028d6:	625a      	str	r2, [r3, #36]	; 0x24
 80028d8:	6a5a      	ldr	r2, [r3, #36]	; 0x24
 80028da:	f002 5280 	and.w	r2, r2, #268435456	; 0x10000000
 80028de:	9201      	str	r2, [sp, #4]
 80028e0:	9a01      	ldr	r2, [sp, #4]
 80028e2:	680a      	ldr	r2, [r1, #0]
 80028e4:	6a59      	ldr	r1, [r3, #36]	; 0x24
 80028e6:	f402 52c0 	and.w	r2, r2, #6144	; 0x1800
 80028ea:	f021 5180 	bic.w	r1, r1, #268435456	; 0x10000000
 80028ee:	6259      	str	r1, [r3, #36]	; 0x24
 80028f0:	e7e1      	b.n	80028b6 <RCC_SetFlashLatencyFromMSIRange+0x36>
 80028f2:	bf00      	nop
 80028f4:	40023800 	.word	0x40023800
 80028f8:	40023c00 	.word	0x40023c00
 80028fc:	40007000 	.word	0x40007000

08002900 <HAL_RCC_OscConfig>:
 8002900:	e92d 43f7 	stmdb	sp!, {r0, r1, r2, r4, r5, r6, r7, r8, r9, lr}
 8002904:	4604      	mov	r4, r0
 8002906:	b908      	cbnz	r0, 800290c <HAL_RCC_OscConfig+0xc>
 8002908:	2001      	movs	r0, #1
 800290a:	e0af      	b.n	8002a6c <HAL_RCC_OscConfig+0x16c>
 800290c:	6803      	ldr	r3, [r0, #0]
 800290e:	b133      	cbz	r3, 800291e <HAL_RCC_OscConfig+0x1e>
 8002910:	06dd      	lsls	r5, r3, #27
 8002912:	d104      	bne.n	800291e <HAL_RCC_OscConfig+0x1e>
 8002914:	f44f 71a8 	mov.w	r1, #336	; 0x150
 8002918:	489b      	ldr	r0, [pc, #620]	; (8002b88 <HAL_RCC_OscConfig+0x288>)
 800291a:	f7fe f9cc 	bl	8000cb6 <assert_failed>
 800291e:	4b9b      	ldr	r3, [pc, #620]	; (8002b8c <HAL_RCC_OscConfig+0x28c>)
 8002920:	689e      	ldr	r6, [r3, #8]
 8002922:	689f      	ldr	r7, [r3, #8]
 8002924:	6823      	ldr	r3, [r4, #0]
 8002926:	f006 060c 	and.w	r6, r6, #12
 800292a:	07d8      	lsls	r0, r3, #31
 800292c:	f407 3780 	and.w	r7, r7, #65536	; 0x10000
 8002930:	d46d      	bmi.n	8002a0e <HAL_RCC_OscConfig+0x10e>
 8002932:	6823      	ldr	r3, [r4, #0]
 8002934:	0799      	lsls	r1, r3, #30
 8002936:	f100 80c6 	bmi.w	8002ac6 <HAL_RCC_OscConfig+0x1c6>
 800293a:	6823      	ldr	r3, [r4, #0]
 800293c:	06d8      	lsls	r0, r3, #27
 800293e:	d550      	bpl.n	80029e2 <HAL_RCC_OscConfig+0xe2>
 8002940:	2e00      	cmp	r6, #0
 8002942:	f040 812d 	bne.w	8002ba0 <HAL_RCC_OscConfig+0x2a0>
 8002946:	4b91      	ldr	r3, [pc, #580]	; (8002b8c <HAL_RCC_OscConfig+0x28c>)
 8002948:	681b      	ldr	r3, [r3, #0]
 800294a:	0599      	lsls	r1, r3, #22
 800294c:	d502      	bpl.n	8002954 <HAL_RCC_OscConfig+0x54>
 800294e:	69a3      	ldr	r3, [r4, #24]
 8002950:	2b00      	cmp	r3, #0
 8002952:	d0d9      	beq.n	8002908 <HAL_RCC_OscConfig+0x8>
 8002954:	69e3      	ldr	r3, [r4, #28]
 8002956:	2bff      	cmp	r3, #255	; 0xff
 8002958:	d904      	bls.n	8002964 <HAL_RCC_OscConfig+0x64>
 800295a:	f240 11d7 	movw	r1, #471	; 0x1d7
 800295e:	488a      	ldr	r0, [pc, #552]	; (8002b88 <HAL_RCC_OscConfig+0x288>)
 8002960:	f7fe f9a9 	bl	8000cb6 <assert_failed>
 8002964:	6a23      	ldr	r3, [r4, #32]
 8002966:	f433 41c0 	bics.w	r1, r3, #24576	; 0x6000
 800296a:	f423 5200 	bic.w	r2, r3, #8192	; 0x2000
 800296e:	d00a      	beq.n	8002986 <HAL_RCC_OscConfig+0x86>
 8002970:	f5b2 4f00 	cmp.w	r2, #32768	; 0x8000
 8002974:	d007      	beq.n	8002986 <HAL_RCC_OscConfig+0x86>
 8002976:	f5b3 4f40 	cmp.w	r3, #49152	; 0xc000
 800297a:	d004      	beq.n	8002986 <HAL_RCC_OscConfig+0x86>
 800297c:	f44f 71ec 	mov.w	r1, #472	; 0x1d8
 8002980:	4881      	ldr	r0, [pc, #516]	; (8002b88 <HAL_RCC_OscConfig+0x288>)
 8002982:	f7fe f998 	bl	8000cb6 <assert_failed>
 8002986:	4d81      	ldr	r5, [pc, #516]	; (8002b8c <HAL_RCC_OscConfig+0x28c>)
 8002988:	6a20      	ldr	r0, [r4, #32]
 800298a:	686b      	ldr	r3, [r5, #4]
 800298c:	f403 4360 	and.w	r3, r3, #57344	; 0xe000
 8002990:	4298      	cmp	r0, r3
 8002992:	f240 80e6 	bls.w	8002b62 <HAL_RCC_OscConfig+0x262>
 8002996:	f7ff ff73 	bl	8002880 <RCC_SetFlashLatencyFromMSIRange>
 800299a:	2800      	cmp	r0, #0
 800299c:	d1b4      	bne.n	8002908 <HAL_RCC_OscConfig+0x8>
 800299e:	686b      	ldr	r3, [r5, #4]
 80029a0:	6a22      	ldr	r2, [r4, #32]
 80029a2:	f423 4360 	bic.w	r3, r3, #57344	; 0xe000
 80029a6:	4313      	orrs	r3, r2
 80029a8:	606b      	str	r3, [r5, #4]
 80029aa:	686b      	ldr	r3, [r5, #4]
 80029ac:	69e2      	ldr	r2, [r4, #28]
 80029ae:	f023 437f 	bic.w	r3, r3, #4278190080	; 0xff000000
 80029b2:	ea43 6302 	orr.w	r3, r3, r2, lsl #24
 80029b6:	606b      	str	r3, [r5, #4]
 80029b8:	4b74      	ldr	r3, [pc, #464]	; (8002b8c <HAL_RCC_OscConfig+0x28c>)
 80029ba:	6899      	ldr	r1, [r3, #8]
 80029bc:	6a23      	ldr	r3, [r4, #32]
 80029be:	0b5b      	lsrs	r3, r3, #13
 80029c0:	1c5a      	adds	r2, r3, #1
 80029c2:	f44f 4300 	mov.w	r3, #32768	; 0x8000
 80029c6:	4093      	lsls	r3, r2
 80029c8:	f3c1 1203 	ubfx	r2, r1, #4, #4
 80029cc:	4970      	ldr	r1, [pc, #448]	; (8002b90 <HAL_RCC_OscConfig+0x290>)
 80029ce:	5c8a      	ldrb	r2, [r1, r2]
 80029d0:	40d3      	lsrs	r3, r2
 80029d2:	4a70      	ldr	r2, [pc, #448]	; (8002b94 <HAL_RCC_OscConfig+0x294>)
 80029d4:	6013      	str	r3, [r2, #0]
 80029d6:	4b70      	ldr	r3, [pc, #448]	; (8002b98 <HAL_RCC_OscConfig+0x298>)
 80029d8:	6818      	ldr	r0, [r3, #0]
 80029da:	f7fe f993 	bl	8000d04 <HAL_InitTick>
 80029de:	2800      	cmp	r0, #0
 80029e0:	d144      	bne.n	8002a6c <HAL_RCC_OscConfig+0x16c>
 80029e2:	6823      	ldr	r3, [r4, #0]
 80029e4:	0718      	lsls	r0, r3, #28
 80029e6:	f100 812d 	bmi.w	8002c44 <HAL_RCC_OscConfig+0x344>
 80029ea:	6823      	ldr	r3, [r4, #0]
 80029ec:	0759      	lsls	r1, r3, #29
 80029ee:	f100 8153 	bmi.w	8002c98 <HAL_RCC_OscConfig+0x398>
 80029f2:	6a63      	ldr	r3, [r4, #36]	; 0x24
 80029f4:	2b02      	cmp	r3, #2
 80029f6:	d904      	bls.n	8002a02 <HAL_RCC_OscConfig+0x102>
 80029f8:	f44f 712b 	mov.w	r1, #684	; 0x2ac
 80029fc:	4862      	ldr	r0, [pc, #392]	; (8002b88 <HAL_RCC_OscConfig+0x288>)
 80029fe:	f7fe f95a 	bl	8000cb6 <assert_failed>
 8002a02:	6a60      	ldr	r0, [r4, #36]	; 0x24
 8002a04:	2800      	cmp	r0, #0
 8002a06:	f040 81bf 	bne.w	8002d88 <HAL_RCC_OscConfig+0x488>
 8002a0a:	2000      	movs	r0, #0
 8002a0c:	e02e      	b.n	8002a6c <HAL_RCC_OscConfig+0x16c>
 8002a0e:	6863      	ldr	r3, [r4, #4]
 8002a10:	2b01      	cmp	r3, #1
 8002a12:	d906      	bls.n	8002a22 <HAL_RCC_OscConfig+0x122>
 8002a14:	2b05      	cmp	r3, #5
 8002a16:	d004      	beq.n	8002a22 <HAL_RCC_OscConfig+0x122>
 8002a18:	f240 1159 	movw	r1, #345	; 0x159
 8002a1c:	485a      	ldr	r0, [pc, #360]	; (8002b88 <HAL_RCC_OscConfig+0x288>)
 8002a1e:	f7fe f94a 	bl	8000cb6 <assert_failed>
 8002a22:	2e08      	cmp	r6, #8
 8002a24:	4a59      	ldr	r2, [pc, #356]	; (8002b8c <HAL_RCC_OscConfig+0x28c>)
 8002a26:	d002      	beq.n	8002a2e <HAL_RCC_OscConfig+0x12e>
 8002a28:	2e0c      	cmp	r6, #12
 8002a2a:	d109      	bne.n	8002a40 <HAL_RCC_OscConfig+0x140>
 8002a2c:	b147      	cbz	r7, 8002a40 <HAL_RCC_OscConfig+0x140>
 8002a2e:	6813      	ldr	r3, [r2, #0]
 8002a30:	039a      	lsls	r2, r3, #14
 8002a32:	f57f af7e 	bpl.w	8002932 <HAL_RCC_OscConfig+0x32>
 8002a36:	6863      	ldr	r3, [r4, #4]
 8002a38:	2b00      	cmp	r3, #0
 8002a3a:	f47f af7a 	bne.w	8002932 <HAL_RCC_OscConfig+0x32>
 8002a3e:	e763      	b.n	8002908 <HAL_RCC_OscConfig+0x8>
 8002a40:	6863      	ldr	r3, [r4, #4]
 8002a42:	2b01      	cmp	r3, #1
 8002a44:	d115      	bne.n	8002a72 <HAL_RCC_OscConfig+0x172>
 8002a46:	6813      	ldr	r3, [r2, #0]
 8002a48:	f443 3380 	orr.w	r3, r3, #65536	; 0x10000
 8002a4c:	6013      	str	r3, [r2, #0]
 8002a4e:	f7fe fc2b 	bl	80012a8 <HAL_GetTick>
 8002a52:	4680      	mov	r8, r0
 8002a54:	4d4d      	ldr	r5, [pc, #308]	; (8002b8c <HAL_RCC_OscConfig+0x28c>)
 8002a56:	682b      	ldr	r3, [r5, #0]
 8002a58:	039b      	lsls	r3, r3, #14
 8002a5a:	f53f af6a 	bmi.w	8002932 <HAL_RCC_OscConfig+0x32>
 8002a5e:	f7fe fc23 	bl	80012a8 <HAL_GetTick>
 8002a62:	eba0 0008 	sub.w	r0, r0, r8
 8002a66:	2864      	cmp	r0, #100	; 0x64
 8002a68:	d9f5      	bls.n	8002a56 <HAL_RCC_OscConfig+0x156>
 8002a6a:	2003      	movs	r0, #3
 8002a6c:	b003      	add	sp, #12
 8002a6e:	e8bd 83f0 	ldmia.w	sp!, {r4, r5, r6, r7, r8, r9, pc}
 8002a72:	4d46      	ldr	r5, [pc, #280]	; (8002b8c <HAL_RCC_OscConfig+0x28c>)
 8002a74:	b9ab      	cbnz	r3, 8002aa2 <HAL_RCC_OscConfig+0x1a2>
 8002a76:	682b      	ldr	r3, [r5, #0]
 8002a78:	f423 3380 	bic.w	r3, r3, #65536	; 0x10000
 8002a7c:	602b      	str	r3, [r5, #0]
 8002a7e:	682b      	ldr	r3, [r5, #0]
 8002a80:	f423 2380 	bic.w	r3, r3, #262144	; 0x40000
 8002a84:	602b      	str	r3, [r5, #0]
 8002a86:	f7fe fc0f 	bl	80012a8 <HAL_GetTick>
 8002a8a:	4680      	mov	r8, r0
 8002a8c:	682b      	ldr	r3, [r5, #0]
 8002a8e:	0398      	lsls	r0, r3, #14
 8002a90:	f57f af4f 	bpl.w	8002932 <HAL_RCC_OscConfig+0x32>
 8002a94:	f7fe fc08 	bl	80012a8 <HAL_GetTick>
 8002a98:	eba0 0008 	sub.w	r0, r0, r8
 8002a9c:	2864      	cmp	r0, #100	; 0x64
 8002a9e:	d9f5      	bls.n	8002a8c <HAL_RCC_OscConfig+0x18c>
 8002aa0:	e7e3      	b.n	8002a6a <HAL_RCC_OscConfig+0x16a>
 8002aa2:	2b05      	cmp	r3, #5
 8002aa4:	682b      	ldr	r3, [r5, #0]
 8002aa6:	bf0b      	itete	eq
 8002aa8:	f443 2380 	orreq.w	r3, r3, #262144	; 0x40000
 8002aac:	f423 3380 	bicne.w	r3, r3, #65536	; 0x10000
 8002ab0:	602b      	streq	r3, [r5, #0]
 8002ab2:	602b      	strne	r3, [r5, #0]
 8002ab4:	bf0b      	itete	eq
 8002ab6:	682b      	ldreq	r3, [r5, #0]
 8002ab8:	682b      	ldrne	r3, [r5, #0]
 8002aba:	f443 3380 	orreq.w	r3, r3, #65536	; 0x10000
 8002abe:	f423 2380 	bicne.w	r3, r3, #262144	; 0x40000
 8002ac2:	602b      	str	r3, [r5, #0]
 8002ac4:	e7c3      	b.n	8002a4e <HAL_RCC_OscConfig+0x14e>
 8002ac6:	68e3      	ldr	r3, [r4, #12]
 8002ac8:	2b01      	cmp	r3, #1
 8002aca:	d904      	bls.n	8002ad6 <HAL_RCC_OscConfig+0x1d6>
 8002acc:	f44f 71c6 	mov.w	r1, #396	; 0x18c
 8002ad0:	482d      	ldr	r0, [pc, #180]	; (8002b88 <HAL_RCC_OscConfig+0x288>)
 8002ad2:	f7fe f8f0 	bl	8000cb6 <assert_failed>
 8002ad6:	6923      	ldr	r3, [r4, #16]
 8002ad8:	2b1f      	cmp	r3, #31
 8002ada:	d904      	bls.n	8002ae6 <HAL_RCC_OscConfig+0x1e6>
 8002adc:	f240 118d 	movw	r1, #397	; 0x18d
 8002ae0:	4829      	ldr	r0, [pc, #164]	; (8002b88 <HAL_RCC_OscConfig+0x288>)
 8002ae2:	f7fe f8e8 	bl	8000cb6 <assert_failed>
 8002ae6:	2e04      	cmp	r6, #4
 8002ae8:	d002      	beq.n	8002af0 <HAL_RCC_OscConfig+0x1f0>
 8002aea:	2e0c      	cmp	r6, #12
 8002aec:	d110      	bne.n	8002b10 <HAL_RCC_OscConfig+0x210>
 8002aee:	b97f      	cbnz	r7, 8002b10 <HAL_RCC_OscConfig+0x210>
 8002af0:	4b26      	ldr	r3, [pc, #152]	; (8002b8c <HAL_RCC_OscConfig+0x28c>)
 8002af2:	681a      	ldr	r2, [r3, #0]
 8002af4:	0791      	lsls	r1, r2, #30
 8002af6:	d503      	bpl.n	8002b00 <HAL_RCC_OscConfig+0x200>
 8002af8:	68e2      	ldr	r2, [r4, #12]
 8002afa:	2a01      	cmp	r2, #1
 8002afc:	f47f af04 	bne.w	8002908 <HAL_RCC_OscConfig+0x8>
 8002b00:	685a      	ldr	r2, [r3, #4]
 8002b02:	6921      	ldr	r1, [r4, #16]
 8002b04:	f422 52f8 	bic.w	r2, r2, #7936	; 0x1f00
 8002b08:	ea42 2201 	orr.w	r2, r2, r1, lsl #8
 8002b0c:	605a      	str	r2, [r3, #4]
 8002b0e:	e714      	b.n	800293a <HAL_RCC_OscConfig+0x3a>
 8002b10:	68e2      	ldr	r2, [r4, #12]
 8002b12:	4b22      	ldr	r3, [pc, #136]	; (8002b9c <HAL_RCC_OscConfig+0x29c>)
 8002b14:	b1b2      	cbz	r2, 8002b44 <HAL_RCC_OscConfig+0x244>
 8002b16:	2201      	movs	r2, #1
 8002b18:	601a      	str	r2, [r3, #0]
 8002b1a:	f7fe fbc5 	bl	80012a8 <HAL_GetTick>
 8002b1e:	4607      	mov	r7, r0
 8002b20:	4d1a      	ldr	r5, [pc, #104]	; (8002b8c <HAL_RCC_OscConfig+0x28c>)
 8002b22:	682b      	ldr	r3, [r5, #0]
 8002b24:	079a      	lsls	r2, r3, #30
 8002b26:	d507      	bpl.n	8002b38 <HAL_RCC_OscConfig+0x238>
 8002b28:	686b      	ldr	r3, [r5, #4]
 8002b2a:	6922      	ldr	r2, [r4, #16]
 8002b2c:	f423 53f8 	bic.w	r3, r3, #7936	; 0x1f00
 8002b30:	ea43 2302 	orr.w	r3, r3, r2, lsl #8
 8002b34:	606b      	str	r3, [r5, #4]
 8002b36:	e700      	b.n	800293a <HAL_RCC_OscConfig+0x3a>
 8002b38:	f7fe fbb6 	bl	80012a8 <HAL_GetTick>
 8002b3c:	1bc0      	subs	r0, r0, r7
 8002b3e:	2802      	cmp	r0, #2
 8002b40:	d9ef      	bls.n	8002b22 <HAL_RCC_OscConfig+0x222>
 8002b42:	e792      	b.n	8002a6a <HAL_RCC_OscConfig+0x16a>
 8002b44:	601a      	str	r2, [r3, #0]
 8002b46:	f7fe fbaf 	bl	80012a8 <HAL_GetTick>
 8002b4a:	4607      	mov	r7, r0
 8002b4c:	4d0f      	ldr	r5, [pc, #60]	; (8002b8c <HAL_RCC_OscConfig+0x28c>)
 8002b4e:	682b      	ldr	r3, [r5, #0]
 8002b50:	079b      	lsls	r3, r3, #30
 8002b52:	f57f aef2 	bpl.w	800293a <HAL_RCC_OscConfig+0x3a>
 8002b56:	f7fe fba7 	bl	80012a8 <HAL_GetTick>
 8002b5a:	1bc0      	subs	r0, r0, r7
 8002b5c:	2802      	cmp	r0, #2
 8002b5e:	d9f6      	bls.n	8002b4e <HAL_RCC_OscConfig+0x24e>
 8002b60:	e783      	b.n	8002a6a <HAL_RCC_OscConfig+0x16a>
 8002b62:	686b      	ldr	r3, [r5, #4]
 8002b64:	f423 4360 	bic.w	r3, r3, #57344	; 0xe000
 8002b68:	4303      	orrs	r3, r0
 8002b6a:	606b      	str	r3, [r5, #4]
 8002b6c:	686b      	ldr	r3, [r5, #4]
 8002b6e:	69e2      	ldr	r2, [r4, #28]
 8002b70:	f023 437f 	bic.w	r3, r3, #4278190080	; 0xff000000
 8002b74:	ea43 6302 	orr.w	r3, r3, r2, lsl #24
 8002b78:	606b      	str	r3, [r5, #4]
 8002b7a:	f7ff fe81 	bl	8002880 <RCC_SetFlashLatencyFromMSIRange>
 8002b7e:	2800      	cmp	r0, #0
 8002b80:	f43f af1a 	beq.w	80029b8 <HAL_RCC_OscConfig+0xb8>
 8002b84:	e6c0      	b.n	8002908 <HAL_RCC_OscConfig+0x8>
 8002b86:	bf00      	nop
 8002b88:	0800633d 	.word	0x0800633d
 8002b8c:	40023800 	.word	0x40023800
 8002b90:	08006200 	.word	0x08006200
 8002b94:	20000000 	.word	0x20000000
 8002b98:	20000008 	.word	0x20000008
 8002b9c:	42470000 	.word	0x42470000
 8002ba0:	69a3      	ldr	r3, [r4, #24]
 8002ba2:	2b01      	cmp	r3, #1
 8002ba4:	d904      	bls.n	8002bb0 <HAL_RCC_OscConfig+0x2b0>
 8002ba6:	f44f 7102 	mov.w	r1, #520	; 0x208
 8002baa:	48a9      	ldr	r0, [pc, #676]	; (8002e50 <HAL_RCC_OscConfig+0x550>)
 8002bac:	f7fe f883 	bl	8000cb6 <assert_failed>
 8002bb0:	69a2      	ldr	r2, [r4, #24]
 8002bb2:	4ba8      	ldr	r3, [pc, #672]	; (8002e54 <HAL_RCC_OscConfig+0x554>)
 8002bb4:	2a00      	cmp	r2, #0
 8002bb6:	d036      	beq.n	8002c26 <HAL_RCC_OscConfig+0x326>
 8002bb8:	2201      	movs	r2, #1
 8002bba:	601a      	str	r2, [r3, #0]
 8002bbc:	f7fe fb74 	bl	80012a8 <HAL_GetTick>
 8002bc0:	4607      	mov	r7, r0
 8002bc2:	4da5      	ldr	r5, [pc, #660]	; (8002e58 <HAL_RCC_OscConfig+0x558>)
 8002bc4:	682b      	ldr	r3, [r5, #0]
 8002bc6:	059a      	lsls	r2, r3, #22
 8002bc8:	d527      	bpl.n	8002c1a <HAL_RCC_OscConfig+0x31a>
 8002bca:	69e3      	ldr	r3, [r4, #28]
 8002bcc:	2bff      	cmp	r3, #255	; 0xff
 8002bce:	d904      	bls.n	8002bda <HAL_RCC_OscConfig+0x2da>
 8002bd0:	f44f 7107 	mov.w	r1, #540	; 0x21c
 8002bd4:	489e      	ldr	r0, [pc, #632]	; (8002e50 <HAL_RCC_OscConfig+0x550>)
 8002bd6:	f7fe f86e 	bl	8000cb6 <assert_failed>
 8002bda:	6a23      	ldr	r3, [r4, #32]
 8002bdc:	f433 41c0 	bics.w	r1, r3, #24576	; 0x6000
 8002be0:	f423 5200 	bic.w	r2, r3, #8192	; 0x2000
 8002be4:	d00a      	beq.n	8002bfc <HAL_RCC_OscConfig+0x2fc>
 8002be6:	f5b2 4f00 	cmp.w	r2, #32768	; 0x8000
 8002bea:	d007      	beq.n	8002bfc <HAL_RCC_OscConfig+0x2fc>
 8002bec:	f5b3 4f40 	cmp.w	r3, #49152	; 0xc000
 8002bf0:	d004      	beq.n	8002bfc <HAL_RCC_OscConfig+0x2fc>
 8002bf2:	f240 211d 	movw	r1, #541	; 0x21d
 8002bf6:	4896      	ldr	r0, [pc, #600]	; (8002e50 <HAL_RCC_OscConfig+0x550>)
 8002bf8:	f7fe f85d 	bl	8000cb6 <assert_failed>
 8002bfc:	4a96      	ldr	r2, [pc, #600]	; (8002e58 <HAL_RCC_OscConfig+0x558>)
 8002bfe:	6a21      	ldr	r1, [r4, #32]
 8002c00:	6853      	ldr	r3, [r2, #4]
 8002c02:	f423 4360 	bic.w	r3, r3, #57344	; 0xe000
 8002c06:	430b      	orrs	r3, r1
 8002c08:	6053      	str	r3, [r2, #4]
 8002c0a:	6853      	ldr	r3, [r2, #4]
 8002c0c:	69e1      	ldr	r1, [r4, #28]
 8002c0e:	f023 437f 	bic.w	r3, r3, #4278190080	; 0xff000000
 8002c12:	ea43 6301 	orr.w	r3, r3, r1, lsl #24
 8002c16:	6053      	str	r3, [r2, #4]
 8002c18:	e6e3      	b.n	80029e2 <HAL_RCC_OscConfig+0xe2>
 8002c1a:	f7fe fb45 	bl	80012a8 <HAL_GetTick>
 8002c1e:	1bc0      	subs	r0, r0, r7
 8002c20:	2802      	cmp	r0, #2
 8002c22:	d9cf      	bls.n	8002bc4 <HAL_RCC_OscConfig+0x2c4>
 8002c24:	e721      	b.n	8002a6a <HAL_RCC_OscConfig+0x16a>
 8002c26:	601a      	str	r2, [r3, #0]
 8002c28:	f7fe fb3e 	bl	80012a8 <HAL_GetTick>
 8002c2c:	4607      	mov	r7, r0
 8002c2e:	4d8a      	ldr	r5, [pc, #552]	; (8002e58 <HAL_RCC_OscConfig+0x558>)
 8002c30:	682b      	ldr	r3, [r5, #0]
 8002c32:	059b      	lsls	r3, r3, #22
 8002c34:	f57f aed5 	bpl.w	80029e2 <HAL_RCC_OscConfig+0xe2>
 8002c38:	f7fe fb36 	bl	80012a8 <HAL_GetTick>
 8002c3c:	1bc0      	subs	r0, r0, r7
 8002c3e:	2802      	cmp	r0, #2
 8002c40:	d9f6      	bls.n	8002c30 <HAL_RCC_OscConfig+0x330>
 8002c42:	e712      	b.n	8002a6a <HAL_RCC_OscConfig+0x16a>
 8002c44:	6963      	ldr	r3, [r4, #20]
 8002c46:	2b01      	cmp	r3, #1
 8002c48:	d904      	bls.n	8002c54 <HAL_RCC_OscConfig+0x354>
 8002c4a:	f44f 710f 	mov.w	r1, #572	; 0x23c
 8002c4e:	4880      	ldr	r0, [pc, #512]	; (8002e50 <HAL_RCC_OscConfig+0x550>)
 8002c50:	f7fe f831 	bl	8000cb6 <assert_failed>
 8002c54:	6962      	ldr	r2, [r4, #20]
 8002c56:	4b81      	ldr	r3, [pc, #516]	; (8002e5c <HAL_RCC_OscConfig+0x55c>)
 8002c58:	b17a      	cbz	r2, 8002c7a <HAL_RCC_OscConfig+0x37a>
 8002c5a:	2201      	movs	r2, #1
 8002c5c:	601a      	str	r2, [r3, #0]
 8002c5e:	f7fe fb23 	bl	80012a8 <HAL_GetTick>
 8002c62:	4607      	mov	r7, r0
 8002c64:	4d7c      	ldr	r5, [pc, #496]	; (8002e58 <HAL_RCC_OscConfig+0x558>)
 8002c66:	6b6b      	ldr	r3, [r5, #52]	; 0x34
 8002c68:	079a      	lsls	r2, r3, #30
 8002c6a:	f53f aebe 	bmi.w	80029ea <HAL_RCC_OscConfig+0xea>
 8002c6e:	f7fe fb1b 	bl	80012a8 <HAL_GetTick>
 8002c72:	1bc0      	subs	r0, r0, r7
 8002c74:	2802      	cmp	r0, #2
 8002c76:	d9f6      	bls.n	8002c66 <HAL_RCC_OscConfig+0x366>
 8002c78:	e6f7      	b.n	8002a6a <HAL_RCC_OscConfig+0x16a>
 8002c7a:	601a      	str	r2, [r3, #0]
 8002c7c:	f7fe fb14 	bl	80012a8 <HAL_GetTick>
 8002c80:	4607      	mov	r7, r0
 8002c82:	4d75      	ldr	r5, [pc, #468]	; (8002e58 <HAL_RCC_OscConfig+0x558>)
 8002c84:	6b6b      	ldr	r3, [r5, #52]	; 0x34
 8002c86:	079b      	lsls	r3, r3, #30
 8002c88:	f57f aeaf 	bpl.w	80029ea <HAL_RCC_OscConfig+0xea>
 8002c8c:	f7fe fb0c 	bl	80012a8 <HAL_GetTick>
 8002c90:	1bc0      	subs	r0, r0, r7
 8002c92:	2802      	cmp	r0, #2
 8002c94:	d9f6      	bls.n	8002c84 <HAL_RCC_OscConfig+0x384>
 8002c96:	e6e8      	b.n	8002a6a <HAL_RCC_OscConfig+0x16a>
 8002c98:	68a3      	ldr	r3, [r4, #8]
 8002c9a:	2b01      	cmp	r3, #1
 8002c9c:	d906      	bls.n	8002cac <HAL_RCC_OscConfig+0x3ac>
 8002c9e:	2b05      	cmp	r3, #5
 8002ca0:	d004      	beq.n	8002cac <HAL_RCC_OscConfig+0x3ac>
 8002ca2:	f44f 711a 	mov.w	r1, #616	; 0x268
 8002ca6:	486a      	ldr	r0, [pc, #424]	; (8002e50 <HAL_RCC_OscConfig+0x550>)
 8002ca8:	f7fe f805 	bl	8000cb6 <assert_failed>
 8002cac:	4b6a      	ldr	r3, [pc, #424]	; (8002e58 <HAL_RCC_OscConfig+0x558>)
 8002cae:	6a5a      	ldr	r2, [r3, #36]	; 0x24
 8002cb0:	00d0      	lsls	r0, r2, #3
 8002cb2:	d429      	bmi.n	8002d08 <HAL_RCC_OscConfig+0x408>
 8002cb4:	2701      	movs	r7, #1
 8002cb6:	6a5a      	ldr	r2, [r3, #36]	; 0x24
 8002cb8:	f042 5280 	orr.w	r2, r2, #268435456	; 0x10000000
 8002cbc:	625a      	str	r2, [r3, #36]	; 0x24
 8002cbe:	6a5b      	ldr	r3, [r3, #36]	; 0x24
 8002cc0:	f003 5380 	and.w	r3, r3, #268435456	; 0x10000000
 8002cc4:	9301      	str	r3, [sp, #4]
 8002cc6:	9b01      	ldr	r3, [sp, #4]
 8002cc8:	4d65      	ldr	r5, [pc, #404]	; (8002e60 <HAL_RCC_OscConfig+0x560>)
 8002cca:	682b      	ldr	r3, [r5, #0]
 8002ccc:	05d9      	lsls	r1, r3, #23
 8002cce:	d51d      	bpl.n	8002d0c <HAL_RCC_OscConfig+0x40c>
 8002cd0:	68a3      	ldr	r3, [r4, #8]
 8002cd2:	4d61      	ldr	r5, [pc, #388]	; (8002e58 <HAL_RCC_OscConfig+0x558>)
 8002cd4:	2b01      	cmp	r3, #1
 8002cd6:	d12a      	bne.n	8002d2e <HAL_RCC_OscConfig+0x42e>
 8002cd8:	6b6b      	ldr	r3, [r5, #52]	; 0x34
 8002cda:	f443 7380 	orr.w	r3, r3, #256	; 0x100
 8002cde:	636b      	str	r3, [r5, #52]	; 0x34
 8002ce0:	f7fe fae2 	bl	80012a8 <HAL_GetTick>
 8002ce4:	f241 3588 	movw	r5, #5000	; 0x1388
 8002ce8:	4681      	mov	r9, r0
 8002cea:	f8df 816c 	ldr.w	r8, [pc, #364]	; 8002e58 <HAL_RCC_OscConfig+0x558>
 8002cee:	f8d8 3034 	ldr.w	r3, [r8, #52]	; 0x34
 8002cf2:	059b      	lsls	r3, r3, #22
 8002cf4:	d541      	bpl.n	8002d7a <HAL_RCC_OscConfig+0x47a>
 8002cf6:	2f00      	cmp	r7, #0
 8002cf8:	f43f ae7b 	beq.w	80029f2 <HAL_RCC_OscConfig+0xf2>
 8002cfc:	4a56      	ldr	r2, [pc, #344]	; (8002e58 <HAL_RCC_OscConfig+0x558>)
 8002cfe:	6a53      	ldr	r3, [r2, #36]	; 0x24
 8002d00:	f023 5380 	bic.w	r3, r3, #268435456	; 0x10000000
 8002d04:	6253      	str	r3, [r2, #36]	; 0x24
 8002d06:	e674      	b.n	80029f2 <HAL_RCC_OscConfig+0xf2>
 8002d08:	2700      	movs	r7, #0
 8002d0a:	e7dd      	b.n	8002cc8 <HAL_RCC_OscConfig+0x3c8>
 8002d0c:	682b      	ldr	r3, [r5, #0]
 8002d0e:	f443 7380 	orr.w	r3, r3, #256	; 0x100
 8002d12:	602b      	str	r3, [r5, #0]
 8002d14:	f7fe fac8 	bl	80012a8 <HAL_GetTick>
 8002d18:	4680      	mov	r8, r0
 8002d1a:	682b      	ldr	r3, [r5, #0]
 8002d1c:	05da      	lsls	r2, r3, #23
 8002d1e:	d4d7      	bmi.n	8002cd0 <HAL_RCC_OscConfig+0x3d0>
 8002d20:	f7fe fac2 	bl	80012a8 <HAL_GetTick>
 8002d24:	eba0 0008 	sub.w	r0, r0, r8
 8002d28:	2864      	cmp	r0, #100	; 0x64
 8002d2a:	d9f6      	bls.n	8002d1a <HAL_RCC_OscConfig+0x41a>
 8002d2c:	e69d      	b.n	8002a6a <HAL_RCC_OscConfig+0x16a>
 8002d2e:	b9b3      	cbnz	r3, 8002d5e <HAL_RCC_OscConfig+0x45e>
 8002d30:	6b6b      	ldr	r3, [r5, #52]	; 0x34
 8002d32:	f241 3988 	movw	r9, #5000	; 0x1388
 8002d36:	f423 7380 	bic.w	r3, r3, #256	; 0x100
 8002d3a:	636b      	str	r3, [r5, #52]	; 0x34
 8002d3c:	6b6b      	ldr	r3, [r5, #52]	; 0x34
 8002d3e:	f423 6380 	bic.w	r3, r3, #1024	; 0x400
 8002d42:	636b      	str	r3, [r5, #52]	; 0x34
 8002d44:	f7fe fab0 	bl	80012a8 <HAL_GetTick>
 8002d48:	4680      	mov	r8, r0
 8002d4a:	6b6b      	ldr	r3, [r5, #52]	; 0x34
 8002d4c:	0598      	lsls	r0, r3, #22
 8002d4e:	d5d2      	bpl.n	8002cf6 <HAL_RCC_OscConfig+0x3f6>
 8002d50:	f7fe faaa 	bl	80012a8 <HAL_GetTick>
 8002d54:	eba0 0008 	sub.w	r0, r0, r8
 8002d58:	4548      	cmp	r0, r9
 8002d5a:	d9f6      	bls.n	8002d4a <HAL_RCC_OscConfig+0x44a>
 8002d5c:	e685      	b.n	8002a6a <HAL_RCC_OscConfig+0x16a>
 8002d5e:	2b05      	cmp	r3, #5
 8002d60:	6b6b      	ldr	r3, [r5, #52]	; 0x34
 8002d62:	d103      	bne.n	8002d6c <HAL_RCC_OscConfig+0x46c>
 8002d64:	f443 6380 	orr.w	r3, r3, #1024	; 0x400
 8002d68:	636b      	str	r3, [r5, #52]	; 0x34
 8002d6a:	e7b5      	b.n	8002cd8 <HAL_RCC_OscConfig+0x3d8>
 8002d6c:	f423 7380 	bic.w	r3, r3, #256	; 0x100
 8002d70:	636b      	str	r3, [r5, #52]	; 0x34
 8002d72:	6b6b      	ldr	r3, [r5, #52]	; 0x34
 8002d74:	f423 6380 	bic.w	r3, r3, #1024	; 0x400
 8002d78:	e7b1      	b.n	8002cde <HAL_RCC_OscConfig+0x3de>
 8002d7a:	f7fe fa95 	bl	80012a8 <HAL_GetTick>
 8002d7e:	eba0 0009 	sub.w	r0, r0, r9
 8002d82:	42a8      	cmp	r0, r5
 8002d84:	d9b3      	bls.n	8002cee <HAL_RCC_OscConfig+0x3ee>
 8002d86:	e670      	b.n	8002a6a <HAL_RCC_OscConfig+0x16a>
 8002d88:	2e0c      	cmp	r6, #12
 8002d8a:	d06d      	beq.n	8002e68 <HAL_RCC_OscConfig+0x568>
 8002d8c:	2802      	cmp	r0, #2
 8002d8e:	4d35      	ldr	r5, [pc, #212]	; (8002e64 <HAL_RCC_OscConfig+0x564>)
 8002d90:	d14e      	bne.n	8002e30 <HAL_RCC_OscConfig+0x530>
 8002d92:	6aa3      	ldr	r3, [r4, #40]	; 0x28
 8002d94:	f433 3380 	bics.w	r3, r3, #65536	; 0x10000
 8002d98:	d004      	beq.n	8002da4 <HAL_RCC_OscConfig+0x4a4>
 8002d9a:	f240 21b5 	movw	r1, #693	; 0x2b5
 8002d9e:	482c      	ldr	r0, [pc, #176]	; (8002e50 <HAL_RCC_OscConfig+0x550>)
 8002da0:	f7fd ff89 	bl	8000cb6 <assert_failed>
 8002da4:	6ae3      	ldr	r3, [r4, #44]	; 0x2c
 8002da6:	f433 2240 	bics.w	r2, r3, #786432	; 0xc0000
 8002daa:	d00a      	beq.n	8002dc2 <HAL_RCC_OscConfig+0x4c2>
 8002dac:	f5b2 1f80 	cmp.w	r2, #1048576	; 0x100000
 8002db0:	d007      	beq.n	8002dc2 <HAL_RCC_OscConfig+0x4c2>
 8002db2:	f5b3 1f00 	cmp.w	r3, #2097152	; 0x200000
 8002db6:	d004      	beq.n	8002dc2 <HAL_RCC_OscConfig+0x4c2>
 8002db8:	f240 21b6 	movw	r1, #694	; 0x2b6
 8002dbc:	4824      	ldr	r0, [pc, #144]	; (8002e50 <HAL_RCC_OscConfig+0x550>)
 8002dbe:	f7fd ff7a 	bl	8000cb6 <assert_failed>
 8002dc2:	6b23      	ldr	r3, [r4, #48]	; 0x30
 8002dc4:	f423 0200 	bic.w	r2, r3, #8388608	; 0x800000
 8002dc8:	f5b2 0f80 	cmp.w	r2, #4194304	; 0x400000
 8002dcc:	d007      	beq.n	8002dde <HAL_RCC_OscConfig+0x4de>
 8002dce:	f5b3 0f00 	cmp.w	r3, #8388608	; 0x800000
 8002dd2:	d004      	beq.n	8002dde <HAL_RCC_OscConfig+0x4de>
 8002dd4:	f240 21b7 	movw	r1, #695	; 0x2b7
 8002dd8:	481d      	ldr	r0, [pc, #116]	; (8002e50 <HAL_RCC_OscConfig+0x550>)
 8002dda:	f7fd ff6c 	bl	8000cb6 <assert_failed>
 8002dde:	2300      	movs	r3, #0
 8002de0:	602b      	str	r3, [r5, #0]
 8002de2:	f7fe fa61 	bl	80012a8 <HAL_GetTick>
 8002de6:	4607      	mov	r7, r0
 8002de8:	4e1b      	ldr	r6, [pc, #108]	; (8002e58 <HAL_RCC_OscConfig+0x558>)
 8002dea:	6833      	ldr	r3, [r6, #0]
 8002dec:	0199      	lsls	r1, r3, #6
 8002dee:	d419      	bmi.n	8002e24 <HAL_RCC_OscConfig+0x524>
 8002df0:	68b2      	ldr	r2, [r6, #8]
 8002df2:	e9d4 310a 	ldrd	r3, r1, [r4, #40]	; 0x28
 8002df6:	f422 027d 	bic.w	r2, r2, #16580608	; 0xfd0000
 8002dfa:	430b      	orrs	r3, r1
 8002dfc:	4313      	orrs	r3, r2
 8002dfe:	6b22      	ldr	r2, [r4, #48]	; 0x30
 8002e00:	4c15      	ldr	r4, [pc, #84]	; (8002e58 <HAL_RCC_OscConfig+0x558>)
 8002e02:	4313      	orrs	r3, r2
 8002e04:	60b3      	str	r3, [r6, #8]
 8002e06:	2301      	movs	r3, #1
 8002e08:	602b      	str	r3, [r5, #0]
 8002e0a:	f7fe fa4d 	bl	80012a8 <HAL_GetTick>
 8002e0e:	4605      	mov	r5, r0
 8002e10:	6823      	ldr	r3, [r4, #0]
 8002e12:	019a      	lsls	r2, r3, #6
 8002e14:	f53f adf9 	bmi.w	8002a0a <HAL_RCC_OscConfig+0x10a>
 8002e18:	f7fe fa46 	bl	80012a8 <HAL_GetTick>
 8002e1c:	1b40      	subs	r0, r0, r5
 8002e1e:	2802      	cmp	r0, #2
 8002e20:	d9f6      	bls.n	8002e10 <HAL_RCC_OscConfig+0x510>
 8002e22:	e622      	b.n	8002a6a <HAL_RCC_OscConfig+0x16a>
 8002e24:	f7fe fa40 	bl	80012a8 <HAL_GetTick>
 8002e28:	1bc0      	subs	r0, r0, r7
 8002e2a:	2802      	cmp	r0, #2
 8002e2c:	d9dd      	bls.n	8002dea <HAL_RCC_OscConfig+0x4ea>
 8002e2e:	e61c      	b.n	8002a6a <HAL_RCC_OscConfig+0x16a>
 8002e30:	2300      	movs	r3, #0
 8002e32:	602b      	str	r3, [r5, #0]
 8002e34:	f7fe fa38 	bl	80012a8 <HAL_GetTick>
 8002e38:	4605      	mov	r5, r0
 8002e3a:	4c07      	ldr	r4, [pc, #28]	; (8002e58 <HAL_RCC_OscConfig+0x558>)
 8002e3c:	6823      	ldr	r3, [r4, #0]
 8002e3e:	019b      	lsls	r3, r3, #6
 8002e40:	f57f ade3 	bpl.w	8002a0a <HAL_RCC_OscConfig+0x10a>
 8002e44:	f7fe fa30 	bl	80012a8 <HAL_GetTick>
 8002e48:	1b40      	subs	r0, r0, r5
 8002e4a:	2802      	cmp	r0, #2
 8002e4c:	d9f6      	bls.n	8002e3c <HAL_RCC_OscConfig+0x53c>
 8002e4e:	e60c      	b.n	8002a6a <HAL_RCC_OscConfig+0x16a>
 8002e50:	0800633d 	.word	0x0800633d
 8002e54:	42470020 	.word	0x42470020
 8002e58:	40023800 	.word	0x40023800
 8002e5c:	42470680 	.word	0x42470680
 8002e60:	40007000 	.word	0x40007000
 8002e64:	42470060 	.word	0x42470060
 8002e68:	2801      	cmp	r0, #1
 8002e6a:	f43f adff 	beq.w	8002a6c <HAL_RCC_OscConfig+0x16c>
 8002e6e:	4b0a      	ldr	r3, [pc, #40]	; (8002e98 <HAL_RCC_OscConfig+0x598>)
 8002e70:	6898      	ldr	r0, [r3, #8]
 8002e72:	6aa3      	ldr	r3, [r4, #40]	; 0x28
 8002e74:	f400 3280 	and.w	r2, r0, #65536	; 0x10000
 8002e78:	429a      	cmp	r2, r3
 8002e7a:	f47f ad45 	bne.w	8002908 <HAL_RCC_OscConfig+0x8>
 8002e7e:	6ae2      	ldr	r2, [r4, #44]	; 0x2c
 8002e80:	f400 1370 	and.w	r3, r0, #3932160	; 0x3c0000
 8002e84:	4293      	cmp	r3, r2
 8002e86:	f47f ad3f 	bne.w	8002908 <HAL_RCC_OscConfig+0x8>
 8002e8a:	6b23      	ldr	r3, [r4, #48]	; 0x30
 8002e8c:	f400 0040 	and.w	r0, r0, #12582912	; 0xc00000
 8002e90:	1ac0      	subs	r0, r0, r3
 8002e92:	bf18      	it	ne
 8002e94:	2001      	movne	r0, #1
 8002e96:	e5e9      	b.n	8002a6c <HAL_RCC_OscConfig+0x16c>
 8002e98:	40023800 	.word	0x40023800

08002e9c <HAL_RCC_GetSysClockFreq>:
 8002e9c:	4a12      	ldr	r2, [pc, #72]	; (8002ee8 <HAL_RCC_GetSysClockFreq+0x4c>)
 8002e9e:	6893      	ldr	r3, [r2, #8]
 8002ea0:	f003 010c 	and.w	r1, r3, #12
 8002ea4:	2908      	cmp	r1, #8
 8002ea6:	d005      	beq.n	8002eb4 <HAL_RCC_GetSysClockFreq+0x18>
 8002ea8:	290c      	cmp	r1, #12
 8002eaa:	d005      	beq.n	8002eb8 <HAL_RCC_GetSysClockFreq+0x1c>
 8002eac:	2904      	cmp	r1, #4
 8002eae:	d113      	bne.n	8002ed8 <HAL_RCC_GetSysClockFreq+0x3c>
 8002eb0:	480e      	ldr	r0, [pc, #56]	; (8002eec <HAL_RCC_GetSysClockFreq+0x50>)
 8002eb2:	4770      	bx	lr
 8002eb4:	480e      	ldr	r0, [pc, #56]	; (8002ef0 <HAL_RCC_GetSysClockFreq+0x54>)
 8002eb6:	4770      	bx	lr
 8002eb8:	480e      	ldr	r0, [pc, #56]	; (8002ef4 <HAL_RCC_GetSysClockFreq+0x58>)
 8002eba:	f3c3 4183 	ubfx	r1, r3, #18, #4
 8002ebe:	5c41      	ldrb	r1, [r0, r1]
 8002ec0:	f3c3 5081 	ubfx	r0, r3, #22, #2
 8002ec4:	6893      	ldr	r3, [r2, #8]
 8002ec6:	3001      	adds	r0, #1
 8002ec8:	03db      	lsls	r3, r3, #15
 8002eca:	bf4c      	ite	mi
 8002ecc:	4b08      	ldrmi	r3, [pc, #32]	; (8002ef0 <HAL_RCC_GetSysClockFreq+0x54>)
 8002ece:	4b07      	ldrpl	r3, [pc, #28]	; (8002eec <HAL_RCC_GetSysClockFreq+0x50>)
 8002ed0:	434b      	muls	r3, r1
 8002ed2:	fbb3 f0f0 	udiv	r0, r3, r0
 8002ed6:	4770      	bx	lr
 8002ed8:	6850      	ldr	r0, [r2, #4]
 8002eda:	f3c0 3042 	ubfx	r0, r0, #13, #3
 8002ede:	1c43      	adds	r3, r0, #1
 8002ee0:	f44f 4000 	mov.w	r0, #32768	; 0x8000
 8002ee4:	4098      	lsls	r0, r3
 8002ee6:	4770      	bx	lr
 8002ee8:	40023800 	.word	0x40023800
 8002eec:	00f42400 	.word	0x00f42400
 8002ef0:	007a1200 	.word	0x007a1200
 8002ef4:	08006218 	.word	0x08006218

08002ef8 <HAL_RCC_ClockConfig>:
 8002ef8:	e92d 41f0 	stmdb	sp!, {r4, r5, r6, r7, r8, lr}
 8002efc:	460d      	mov	r5, r1
 8002efe:	4604      	mov	r4, r0
 8002f00:	b910      	cbnz	r0, 8002f08 <HAL_RCC_ClockConfig+0x10>
 8002f02:	2001      	movs	r0, #1
 8002f04:	e8bd 81f0 	ldmia.w	sp!, {r4, r5, r6, r7, r8, pc}
 8002f08:	2901      	cmp	r1, #1
 8002f0a:	d904      	bls.n	8002f16 <HAL_RCC_ClockConfig+0x1e>
 8002f0c:	f240 312a 	movw	r1, #810	; 0x32a
 8002f10:	487b      	ldr	r0, [pc, #492]	; (8003100 <HAL_RCC_ClockConfig+0x208>)
 8002f12:	f7fd fed0 	bl	8000cb6 <assert_failed>
 8002f16:	4b7b      	ldr	r3, [pc, #492]	; (8003104 <HAL_RCC_ClockConfig+0x20c>)
 8002f18:	681a      	ldr	r2, [r3, #0]
 8002f1a:	f002 0201 	and.w	r2, r2, #1
 8002f1e:	42aa      	cmp	r2, r5
 8002f20:	d33d      	bcc.n	8002f9e <HAL_RCC_ClockConfig+0xa6>
 8002f22:	6823      	ldr	r3, [r4, #0]
 8002f24:	079e      	lsls	r6, r3, #30
 8002f26:	d44b      	bmi.n	8002fc0 <HAL_RCC_ClockConfig+0xc8>
 8002f28:	6823      	ldr	r3, [r4, #0]
 8002f2a:	07d8      	lsls	r0, r3, #31
 8002f2c:	d467      	bmi.n	8002ffe <HAL_RCC_ClockConfig+0x106>
 8002f2e:	4b75      	ldr	r3, [pc, #468]	; (8003104 <HAL_RCC_ClockConfig+0x20c>)
 8002f30:	681a      	ldr	r2, [r3, #0]
 8002f32:	f002 0201 	and.w	r2, r2, #1
 8002f36:	42aa      	cmp	r2, r5
 8002f38:	f200 80c0 	bhi.w	80030bc <HAL_RCC_ClockConfig+0x1c4>
 8002f3c:	6823      	ldr	r3, [r4, #0]
 8002f3e:	0759      	lsls	r1, r3, #29
 8002f40:	f100 80c5 	bmi.w	80030ce <HAL_RCC_ClockConfig+0x1d6>
 8002f44:	6823      	ldr	r3, [r4, #0]
 8002f46:	071b      	lsls	r3, r3, #28
 8002f48:	d518      	bpl.n	8002f7c <HAL_RCC_ClockConfig+0x84>
 8002f4a:	6923      	ldr	r3, [r4, #16]
 8002f4c:	f433 6280 	bics.w	r2, r3, #1024	; 0x400
 8002f50:	d00c      	beq.n	8002f6c <HAL_RCC_ClockConfig+0x74>
 8002f52:	f423 7200 	bic.w	r2, r3, #512	; 0x200
 8002f56:	f5b2 6fa0 	cmp.w	r2, #1280	; 0x500
 8002f5a:	d007      	beq.n	8002f6c <HAL_RCC_ClockConfig+0x74>
 8002f5c:	f5b3 6fc0 	cmp.w	r3, #1536	; 0x600
 8002f60:	d004      	beq.n	8002f6c <HAL_RCC_ClockConfig+0x74>
 8002f62:	f44f 716d 	mov.w	r1, #948	; 0x3b4
 8002f66:	4866      	ldr	r0, [pc, #408]	; (8003100 <HAL_RCC_ClockConfig+0x208>)
 8002f68:	f7fd fea5 	bl	8000cb6 <assert_failed>
 8002f6c:	4a66      	ldr	r2, [pc, #408]	; (8003108 <HAL_RCC_ClockConfig+0x210>)
 8002f6e:	6921      	ldr	r1, [r4, #16]
 8002f70:	6893      	ldr	r3, [r2, #8]
 8002f72:	f423 5360 	bic.w	r3, r3, #14336	; 0x3800
 8002f76:	ea43 03c1 	orr.w	r3, r3, r1, lsl #3
 8002f7a:	6093      	str	r3, [r2, #8]
 8002f7c:	f7ff ff8e 	bl	8002e9c <HAL_RCC_GetSysClockFreq>
 8002f80:	e8bd 41f0 	ldmia.w	sp!, {r4, r5, r6, r7, r8, lr}
 8002f84:	4b60      	ldr	r3, [pc, #384]	; (8003108 <HAL_RCC_ClockConfig+0x210>)
 8002f86:	4a61      	ldr	r2, [pc, #388]	; (800310c <HAL_RCC_ClockConfig+0x214>)
 8002f88:	689b      	ldr	r3, [r3, #8]
 8002f8a:	f3c3 1303 	ubfx	r3, r3, #4, #4
 8002f8e:	5cd3      	ldrb	r3, [r2, r3]
 8002f90:	40d8      	lsrs	r0, r3
 8002f92:	4b5f      	ldr	r3, [pc, #380]	; (8003110 <HAL_RCC_ClockConfig+0x218>)
 8002f94:	6018      	str	r0, [r3, #0]
 8002f96:	4b5f      	ldr	r3, [pc, #380]	; (8003114 <HAL_RCC_ClockConfig+0x21c>)
 8002f98:	6818      	ldr	r0, [r3, #0]
 8002f9a:	f7fd beb3 	b.w	8000d04 <HAL_InitTick>
 8002f9e:	2d01      	cmp	r5, #1
 8002fa0:	bf02      	ittt	eq
 8002fa2:	681a      	ldreq	r2, [r3, #0]
 8002fa4:	f042 0204 	orreq.w	r2, r2, #4
 8002fa8:	601a      	streq	r2, [r3, #0]
 8002faa:	681a      	ldr	r2, [r3, #0]
 8002fac:	f022 0201 	bic.w	r2, r2, #1
 8002fb0:	432a      	orrs	r2, r5
 8002fb2:	601a      	str	r2, [r3, #0]
 8002fb4:	681b      	ldr	r3, [r3, #0]
 8002fb6:	f003 0301 	and.w	r3, r3, #1
 8002fba:	42ab      	cmp	r3, r5
 8002fbc:	d1a1      	bne.n	8002f02 <HAL_RCC_ClockConfig+0xa>
 8002fbe:	e7b0      	b.n	8002f22 <HAL_RCC_ClockConfig+0x2a>
 8002fc0:	68a3      	ldr	r3, [r4, #8]
 8002fc2:	f033 0280 	bics.w	r2, r3, #128	; 0x80
 8002fc6:	d012      	beq.n	8002fee <HAL_RCC_ClockConfig+0xf6>
 8002fc8:	f023 0220 	bic.w	r2, r3, #32
 8002fcc:	2a90      	cmp	r2, #144	; 0x90
 8002fce:	d00e      	beq.n	8002fee <HAL_RCC_ClockConfig+0xf6>
 8002fd0:	f023 0240 	bic.w	r2, r3, #64	; 0x40
 8002fd4:	2aa0      	cmp	r2, #160	; 0xa0
 8002fd6:	d00a      	beq.n	8002fee <HAL_RCC_ClockConfig+0xf6>
 8002fd8:	f023 0210 	bic.w	r2, r3, #16
 8002fdc:	2ac0      	cmp	r2, #192	; 0xc0
 8002fde:	d006      	beq.n	8002fee <HAL_RCC_ClockConfig+0xf6>
 8002fe0:	2bf0      	cmp	r3, #240	; 0xf0
 8002fe2:	d004      	beq.n	8002fee <HAL_RCC_ClockConfig+0xf6>
 8002fe4:	f240 3141 	movw	r1, #833	; 0x341
 8002fe8:	4845      	ldr	r0, [pc, #276]	; (8003100 <HAL_RCC_ClockConfig+0x208>)
 8002fea:	f7fd fe64 	bl	8000cb6 <assert_failed>
 8002fee:	4a46      	ldr	r2, [pc, #280]	; (8003108 <HAL_RCC_ClockConfig+0x210>)
 8002ff0:	68a1      	ldr	r1, [r4, #8]
 8002ff2:	6893      	ldr	r3, [r2, #8]
 8002ff4:	f023 03f0 	bic.w	r3, r3, #240	; 0xf0
 8002ff8:	430b      	orrs	r3, r1
 8002ffa:	6093      	str	r3, [r2, #8]
 8002ffc:	e794      	b.n	8002f28 <HAL_RCC_ClockConfig+0x30>
 8002ffe:	6863      	ldr	r3, [r4, #4]
 8003000:	2b03      	cmp	r3, #3
 8003002:	d904      	bls.n	800300e <HAL_RCC_ClockConfig+0x116>
 8003004:	f44f 7152 	mov.w	r1, #840	; 0x348
 8003008:	483d      	ldr	r0, [pc, #244]	; (8003100 <HAL_RCC_ClockConfig+0x208>)
 800300a:	f7fd fe54 	bl	8000cb6 <assert_failed>
 800300e:	6861      	ldr	r1, [r4, #4]
 8003010:	4b3d      	ldr	r3, [pc, #244]	; (8003108 <HAL_RCC_ClockConfig+0x210>)
 8003012:	2902      	cmp	r1, #2
 8003014:	681a      	ldr	r2, [r3, #0]
 8003016:	d11e      	bne.n	8003056 <HAL_RCC_ClockConfig+0x15e>
 8003018:	f412 3f00 	tst.w	r2, #131072	; 0x20000
 800301c:	f43f af71 	beq.w	8002f02 <HAL_RCC_ClockConfig+0xa>
 8003020:	689a      	ldr	r2, [r3, #8]
 8003022:	4f39      	ldr	r7, [pc, #228]	; (8003108 <HAL_RCC_ClockConfig+0x210>)
 8003024:	f022 0203 	bic.w	r2, r2, #3
 8003028:	430a      	orrs	r2, r1
 800302a:	609a      	str	r2, [r3, #8]
 800302c:	f7fe f93c 	bl	80012a8 <HAL_GetTick>
 8003030:	6863      	ldr	r3, [r4, #4]
 8003032:	4606      	mov	r6, r0
 8003034:	2b02      	cmp	r3, #2
 8003036:	f241 3888 	movw	r8, #5000	; 0x1388
 800303a:	d119      	bne.n	8003070 <HAL_RCC_ClockConfig+0x178>
 800303c:	68bb      	ldr	r3, [r7, #8]
 800303e:	f003 030c 	and.w	r3, r3, #12
 8003042:	2b08      	cmp	r3, #8
 8003044:	f43f af73 	beq.w	8002f2e <HAL_RCC_ClockConfig+0x36>
 8003048:	f7fe f92e 	bl	80012a8 <HAL_GetTick>
 800304c:	1b80      	subs	r0, r0, r6
 800304e:	4540      	cmp	r0, r8
 8003050:	d9f4      	bls.n	800303c <HAL_RCC_ClockConfig+0x144>
 8003052:	2003      	movs	r0, #3
 8003054:	e756      	b.n	8002f04 <HAL_RCC_ClockConfig+0xc>
 8003056:	2903      	cmp	r1, #3
 8003058:	d102      	bne.n	8003060 <HAL_RCC_ClockConfig+0x168>
 800305a:	f012 7f00 	tst.w	r2, #33554432	; 0x2000000
 800305e:	e7dd      	b.n	800301c <HAL_RCC_ClockConfig+0x124>
 8003060:	2901      	cmp	r1, #1
 8003062:	d102      	bne.n	800306a <HAL_RCC_ClockConfig+0x172>
 8003064:	f012 0f02 	tst.w	r2, #2
 8003068:	e7d8      	b.n	800301c <HAL_RCC_ClockConfig+0x124>
 800306a:	f412 7f00 	tst.w	r2, #512	; 0x200
 800306e:	e7d5      	b.n	800301c <HAL_RCC_ClockConfig+0x124>
 8003070:	2b03      	cmp	r3, #3
 8003072:	d10b      	bne.n	800308c <HAL_RCC_ClockConfig+0x194>
 8003074:	68bb      	ldr	r3, [r7, #8]
 8003076:	f003 030c 	and.w	r3, r3, #12
 800307a:	2b0c      	cmp	r3, #12
 800307c:	f43f af57 	beq.w	8002f2e <HAL_RCC_ClockConfig+0x36>
 8003080:	f7fe f912 	bl	80012a8 <HAL_GetTick>
 8003084:	1b80      	subs	r0, r0, r6
 8003086:	4540      	cmp	r0, r8
 8003088:	d9f4      	bls.n	8003074 <HAL_RCC_ClockConfig+0x17c>
 800308a:	e7e2      	b.n	8003052 <HAL_RCC_ClockConfig+0x15a>
 800308c:	2b01      	cmp	r3, #1
 800308e:	d110      	bne.n	80030b2 <HAL_RCC_ClockConfig+0x1ba>
 8003090:	68bb      	ldr	r3, [r7, #8]
 8003092:	f003 030c 	and.w	r3, r3, #12
 8003096:	2b04      	cmp	r3, #4
 8003098:	f43f af49 	beq.w	8002f2e <HAL_RCC_ClockConfig+0x36>
 800309c:	f7fe f904 	bl	80012a8 <HAL_GetTick>
 80030a0:	1b80      	subs	r0, r0, r6
 80030a2:	4540      	cmp	r0, r8
 80030a4:	d9f4      	bls.n	8003090 <HAL_RCC_ClockConfig+0x198>
 80030a6:	e7d4      	b.n	8003052 <HAL_RCC_ClockConfig+0x15a>
 80030a8:	f7fe f8fe 	bl	80012a8 <HAL_GetTick>
 80030ac:	1b80      	subs	r0, r0, r6
 80030ae:	4540      	cmp	r0, r8
 80030b0:	d8cf      	bhi.n	8003052 <HAL_RCC_ClockConfig+0x15a>
 80030b2:	68bb      	ldr	r3, [r7, #8]
 80030b4:	f013 0f0c 	tst.w	r3, #12
 80030b8:	d1f6      	bne.n	80030a8 <HAL_RCC_ClockConfig+0x1b0>
 80030ba:	e738      	b.n	8002f2e <HAL_RCC_ClockConfig+0x36>
 80030bc:	681a      	ldr	r2, [r3, #0]
 80030be:	f022 0201 	bic.w	r2, r2, #1
 80030c2:	601a      	str	r2, [r3, #0]
 80030c4:	681b      	ldr	r3, [r3, #0]
 80030c6:	07da      	lsls	r2, r3, #31
 80030c8:	f57f af38 	bpl.w	8002f3c <HAL_RCC_ClockConfig+0x44>
 80030cc:	e719      	b.n	8002f02 <HAL_RCC_ClockConfig+0xa>
 80030ce:	68e3      	ldr	r3, [r4, #12]
 80030d0:	f433 6280 	bics.w	r2, r3, #1024	; 0x400
 80030d4:	d00c      	beq.n	80030f0 <HAL_RCC_ClockConfig+0x1f8>
 80030d6:	f423 7200 	bic.w	r2, r3, #512	; 0x200
 80030da:	f5b2 6fa0 	cmp.w	r2, #1280	; 0x500
 80030de:	d007      	beq.n	80030f0 <HAL_RCC_ClockConfig+0x1f8>
 80030e0:	f5b3 6fc0 	cmp.w	r3, #1536	; 0x600
 80030e4:	d004      	beq.n	80030f0 <HAL_RCC_ClockConfig+0x1f8>
 80030e6:	f240 31ad 	movw	r1, #941	; 0x3ad
 80030ea:	4805      	ldr	r0, [pc, #20]	; (8003100 <HAL_RCC_ClockConfig+0x208>)
 80030ec:	f7fd fde3 	bl	8000cb6 <assert_failed>
 80030f0:	4a05      	ldr	r2, [pc, #20]	; (8003108 <HAL_RCC_ClockConfig+0x210>)
 80030f2:	68e1      	ldr	r1, [r4, #12]
 80030f4:	6893      	ldr	r3, [r2, #8]
 80030f6:	f423 63e0 	bic.w	r3, r3, #1792	; 0x700
 80030fa:	430b      	orrs	r3, r1
 80030fc:	6093      	str	r3, [r2, #8]
 80030fe:	e721      	b.n	8002f44 <HAL_RCC_ClockConfig+0x4c>
 8003100:	0800633d 	.word	0x0800633d
 8003104:	40023c00 	.word	0x40023c00
 8003108:	40023800 	.word	0x40023800
 800310c:	08006200 	.word	0x08006200
 8003110:	20000000 	.word	0x20000000
 8003114:	20000008 	.word	0x20000008

08003118 <HAL_RCC_GetPCLK1Freq>:
 8003118:	4b04      	ldr	r3, [pc, #16]	; (800312c <HAL_RCC_GetPCLK1Freq+0x14>)
 800311a:	4a05      	ldr	r2, [pc, #20]	; (8003130 <HAL_RCC_GetPCLK1Freq+0x18>)
 800311c:	689b      	ldr	r3, [r3, #8]
 800311e:	f3c3 2302 	ubfx	r3, r3, #8, #3
 8003122:	5cd3      	ldrb	r3, [r2, r3]
 8003124:	4a03      	ldr	r2, [pc, #12]	; (8003134 <HAL_RCC_GetPCLK1Freq+0x1c>)
 8003126:	6810      	ldr	r0, [r2, #0]
 8003128:	40d8      	lsrs	r0, r3
 800312a:	4770      	bx	lr
 800312c:	40023800 	.word	0x40023800
 8003130:	08006210 	.word	0x08006210
 8003134:	20000000 	.word	0x20000000

08003138 <HAL_RCC_GetPCLK2Freq>:
 8003138:	4b04      	ldr	r3, [pc, #16]	; (800314c <HAL_RCC_GetPCLK2Freq+0x14>)
 800313a:	4a05      	ldr	r2, [pc, #20]	; (8003150 <HAL_RCC_GetPCLK2Freq+0x18>)
 800313c:	689b      	ldr	r3, [r3, #8]
 800313e:	f3c3 23c2 	ubfx	r3, r3, #11, #3
 8003142:	5cd3      	ldrb	r3, [r2, r3]
 8003144:	4a03      	ldr	r2, [pc, #12]	; (8003154 <HAL_RCC_GetPCLK2Freq+0x1c>)
 8003146:	6810      	ldr	r0, [r2, #0]
 8003148:	40d8      	lsrs	r0, r3
 800314a:	4770      	bx	lr
 800314c:	40023800 	.word	0x40023800
 8003150:	08006210 	.word	0x08006210
 8003154:	20000000 	.word	0x20000000

08003158 <HAL_RCC_GetClockConfig>:
 8003158:	b538      	push	{r3, r4, r5, lr}
 800315a:	460d      	mov	r5, r1
 800315c:	4604      	mov	r4, r0
 800315e:	b920      	cbnz	r0, 800316a <HAL_RCC_GetClockConfig+0x12>
 8003160:	f240 41fa 	movw	r1, #1274	; 0x4fa
 8003164:	4811      	ldr	r0, [pc, #68]	; (80031ac <HAL_RCC_GetClockConfig+0x54>)
 8003166:	f7fd fda6 	bl	8000cb6 <assert_failed>
 800316a:	b925      	cbnz	r5, 8003176 <HAL_RCC_GetClockConfig+0x1e>
 800316c:	f240 41fb 	movw	r1, #1275	; 0x4fb
 8003170:	480e      	ldr	r0, [pc, #56]	; (80031ac <HAL_RCC_GetClockConfig+0x54>)
 8003172:	f7fd fda0 	bl	8000cb6 <assert_failed>
 8003176:	230f      	movs	r3, #15
 8003178:	6023      	str	r3, [r4, #0]
 800317a:	4b0d      	ldr	r3, [pc, #52]	; (80031b0 <HAL_RCC_GetClockConfig+0x58>)
 800317c:	689a      	ldr	r2, [r3, #8]
 800317e:	f002 0203 	and.w	r2, r2, #3
 8003182:	6062      	str	r2, [r4, #4]
 8003184:	689a      	ldr	r2, [r3, #8]
 8003186:	f002 02f0 	and.w	r2, r2, #240	; 0xf0
 800318a:	60a2      	str	r2, [r4, #8]
 800318c:	689a      	ldr	r2, [r3, #8]
 800318e:	f402 62e0 	and.w	r2, r2, #1792	; 0x700
 8003192:	60e2      	str	r2, [r4, #12]
 8003194:	689b      	ldr	r3, [r3, #8]
 8003196:	08db      	lsrs	r3, r3, #3
 8003198:	f403 63e0 	and.w	r3, r3, #1792	; 0x700
 800319c:	6123      	str	r3, [r4, #16]
 800319e:	4b05      	ldr	r3, [pc, #20]	; (80031b4 <HAL_RCC_GetClockConfig+0x5c>)
 80031a0:	681b      	ldr	r3, [r3, #0]
 80031a2:	f003 0301 	and.w	r3, r3, #1
 80031a6:	602b      	str	r3, [r5, #0]
 80031a8:	bd38      	pop	{r3, r4, r5, pc}
 80031aa:	bf00      	nop
 80031ac:	0800633d 	.word	0x0800633d
 80031b0:	40023800 	.word	0x40023800
 80031b4:	40023c00 	.word	0x40023c00

080031b8 <TIM_Base_SetConfig>:
 80031b8:	f1b0 4f80 	cmp.w	r0, #1073741824	; 0x40000000
 80031bc:	6803      	ldr	r3, [r0, #0]
 80031be:	d00e      	beq.n	80031de <TIM_Base_SetConfig+0x26>
 80031c0:	4a1e      	ldr	r2, [pc, #120]	; (800323c <TIM_Base_SetConfig+0x84>)
 80031c2:	4290      	cmp	r0, r2
 80031c4:	d00b      	beq.n	80031de <TIM_Base_SetConfig+0x26>
 80031c6:	f502 6280 	add.w	r2, r2, #1024	; 0x400
 80031ca:	4290      	cmp	r0, r2
 80031cc:	d007      	beq.n	80031de <TIM_Base_SetConfig+0x26>
 80031ce:	f502 6280 	add.w	r2, r2, #1024	; 0x400
 80031d2:	4290      	cmp	r0, r2
 80031d4:	d003      	beq.n	80031de <TIM_Base_SetConfig+0x26>
 80031d6:	f502 427c 	add.w	r2, r2, #64512	; 0xfc00
 80031da:	4290      	cmp	r0, r2
 80031dc:	d116      	bne.n	800320c <TIM_Base_SetConfig+0x54>
 80031de:	684a      	ldr	r2, [r1, #4]
 80031e0:	f023 0370 	bic.w	r3, r3, #112	; 0x70
 80031e4:	f1b0 4f80 	cmp.w	r0, #1073741824	; 0x40000000
 80031e8:	ea43 0302 	orr.w	r3, r3, r2
 80031ec:	d015      	beq.n	800321a <TIM_Base_SetConfig+0x62>
 80031ee:	4a13      	ldr	r2, [pc, #76]	; (800323c <TIM_Base_SetConfig+0x84>)
 80031f0:	4290      	cmp	r0, r2
 80031f2:	d012      	beq.n	800321a <TIM_Base_SetConfig+0x62>
 80031f4:	f502 6280 	add.w	r2, r2, #1024	; 0x400
 80031f8:	4290      	cmp	r0, r2
 80031fa:	d00e      	beq.n	800321a <TIM_Base_SetConfig+0x62>
 80031fc:	f502 6280 	add.w	r2, r2, #1024	; 0x400
 8003200:	4290      	cmp	r0, r2
 8003202:	d00a      	beq.n	800321a <TIM_Base_SetConfig+0x62>
 8003204:	f502 427c 	add.w	r2, r2, #64512	; 0xfc00
 8003208:	4290      	cmp	r0, r2
 800320a:	d006      	beq.n	800321a <TIM_Base_SetConfig+0x62>
 800320c:	4a0c      	ldr	r2, [pc, #48]	; (8003240 <TIM_Base_SetConfig+0x88>)
 800320e:	4290      	cmp	r0, r2
 8003210:	d003      	beq.n	800321a <TIM_Base_SetConfig+0x62>
 8003212:	f502 6280 	add.w	r2, r2, #1024	; 0x400
 8003216:	4290      	cmp	r0, r2
 8003218:	d103      	bne.n	8003222 <TIM_Base_SetConfig+0x6a>
 800321a:	68ca      	ldr	r2, [r1, #12]
 800321c:	f423 7340 	bic.w	r3, r3, #768	; 0x300
 8003220:	4313      	orrs	r3, r2
 8003222:	690a      	ldr	r2, [r1, #16]
 8003224:	f023 0380 	bic.w	r3, r3, #128	; 0x80
 8003228:	4313      	orrs	r3, r2
 800322a:	6003      	str	r3, [r0, #0]
 800322c:	688b      	ldr	r3, [r1, #8]
 800322e:	62c3      	str	r3, [r0, #44]	; 0x2c
 8003230:	680b      	ldr	r3, [r1, #0]
 8003232:	6283      	str	r3, [r0, #40]	; 0x28
 8003234:	2301      	movs	r3, #1
 8003236:	6143      	str	r3, [r0, #20]
 8003238:	4770      	bx	lr
 800323a:	bf00      	nop
 800323c:	40000400 	.word	0x40000400
 8003240:	40010c00 	.word	0x40010c00

08003244 <TIM_OC1_SetConfig>:
 8003244:	6a03      	ldr	r3, [r0, #32]
 8003246:	b530      	push	{r4, r5, lr}
 8003248:	f023 0301 	bic.w	r3, r3, #1
 800324c:	6203      	str	r3, [r0, #32]
 800324e:	6a03      	ldr	r3, [r0, #32]
 8003250:	6844      	ldr	r4, [r0, #4]
 8003252:	6982      	ldr	r2, [r0, #24]
 8003254:	680d      	ldr	r5, [r1, #0]
 8003256:	f022 0273 	bic.w	r2, r2, #115	; 0x73
 800325a:	432a      	orrs	r2, r5
 800325c:	688d      	ldr	r5, [r1, #8]
 800325e:	f023 0302 	bic.w	r3, r3, #2
 8003262:	6044      	str	r4, [r0, #4]
 8003264:	6182      	str	r2, [r0, #24]
 8003266:	684a      	ldr	r2, [r1, #4]
 8003268:	432b      	orrs	r3, r5
 800326a:	6342      	str	r2, [r0, #52]	; 0x34
 800326c:	6203      	str	r3, [r0, #32]
 800326e:	bd30      	pop	{r4, r5, pc}

08003270 <TIM_OC2_SetConfig>:
 8003270:	6a03      	ldr	r3, [r0, #32]
 8003272:	b530      	push	{r4, r5, lr}
 8003274:	f023 0310 	bic.w	r3, r3, #16
 8003278:	6203      	str	r3, [r0, #32]
 800327a:	6a03      	ldr	r3, [r0, #32]
 800327c:	6844      	ldr	r4, [r0, #4]
 800327e:	6982      	ldr	r2, [r0, #24]
 8003280:	680d      	ldr	r5, [r1, #0]
 8003282:	f422 42e6 	bic.w	r2, r2, #29440	; 0x7300
 8003286:	ea42 2205 	orr.w	r2, r2, r5, lsl #8
 800328a:	688d      	ldr	r5, [r1, #8]
 800328c:	f023 0320 	bic.w	r3, r3, #32
 8003290:	6044      	str	r4, [r0, #4]
 8003292:	6182      	str	r2, [r0, #24]
 8003294:	684a      	ldr	r2, [r1, #4]
 8003296:	ea43 1305 	orr.w	r3, r3, r5, lsl #4
 800329a:	6382      	str	r2, [r0, #56]	; 0x38
 800329c:	6203      	str	r3, [r0, #32]
 800329e:	bd30      	pop	{r4, r5, pc}

080032a0 <TIM_CCxChannelCmd>:
 80032a0:	f1b0 4f80 	cmp.w	r0, #1073741824	; 0x40000000
 80032a4:	b570      	push	{r4, r5, r6, lr}
 80032a6:	4604      	mov	r4, r0
 80032a8:	460d      	mov	r5, r1
 80032aa:	4616      	mov	r6, r2
 80032ac:	d01b      	beq.n	80032e6 <TIM_CCxChannelCmd+0x46>
 80032ae:	4b1a      	ldr	r3, [pc, #104]	; (8003318 <TIM_CCxChannelCmd+0x78>)
 80032b0:	4298      	cmp	r0, r3
 80032b2:	d018      	beq.n	80032e6 <TIM_CCxChannelCmd+0x46>
 80032b4:	f503 6380 	add.w	r3, r3, #1024	; 0x400
 80032b8:	4298      	cmp	r0, r3
 80032ba:	d014      	beq.n	80032e6 <TIM_CCxChannelCmd+0x46>
 80032bc:	f503 6380 	add.w	r3, r3, #1024	; 0x400
 80032c0:	4298      	cmp	r0, r3
 80032c2:	d010      	beq.n	80032e6 <TIM_CCxChannelCmd+0x46>
 80032c4:	f503 437c 	add.w	r3, r3, #64512	; 0xfc00
 80032c8:	4298      	cmp	r0, r3
 80032ca:	d00c      	beq.n	80032e6 <TIM_CCxChannelCmd+0x46>
 80032cc:	f503 6380 	add.w	r3, r3, #1024	; 0x400
 80032d0:	4298      	cmp	r0, r3
 80032d2:	d008      	beq.n	80032e6 <TIM_CCxChannelCmd+0x46>
 80032d4:	f503 6380 	add.w	r3, r3, #1024	; 0x400
 80032d8:	4298      	cmp	r0, r3
 80032da:	d004      	beq.n	80032e6 <TIM_CCxChannelCmd+0x46>
 80032dc:	f641 0169 	movw	r1, #6249	; 0x1869
 80032e0:	480e      	ldr	r0, [pc, #56]	; (800331c <TIM_CCxChannelCmd+0x7c>)
 80032e2:	f7fd fce8 	bl	8000cb6 <assert_failed>
 80032e6:	f035 030c 	bics.w	r3, r5, #12
 80032ea:	d006      	beq.n	80032fa <TIM_CCxChannelCmd+0x5a>
 80032ec:	2d3c      	cmp	r5, #60	; 0x3c
 80032ee:	d004      	beq.n	80032fa <TIM_CCxChannelCmd+0x5a>
 80032f0:	f641 016a 	movw	r1, #6250	; 0x186a
 80032f4:	4809      	ldr	r0, [pc, #36]	; (800331c <TIM_CCxChannelCmd+0x7c>)
 80032f6:	f7fd fcde 	bl	8000cb6 <assert_failed>
 80032fa:	2201      	movs	r2, #1
 80032fc:	6a23      	ldr	r3, [r4, #32]
 80032fe:	f005 051f 	and.w	r5, r5, #31
 8003302:	40aa      	lsls	r2, r5
 8003304:	ea23 0302 	bic.w	r3, r3, r2
 8003308:	6223      	str	r3, [r4, #32]
 800330a:	6a23      	ldr	r3, [r4, #32]
 800330c:	fa06 f505 	lsl.w	r5, r6, r5
 8003310:	431d      	orrs	r5, r3
 8003312:	6225      	str	r5, [r4, #32]
 8003314:	bd70      	pop	{r4, r5, r6, pc}
 8003316:	bf00      	nop
 8003318:	40000400 	.word	0x40000400
 800331c:	08006375 	.word	0x08006375

08003320 <HAL_TIM_Base_Init>:
 8003320:	b510      	push	{r4, lr}
 8003322:	4604      	mov	r4, r0
 8003324:	2800      	cmp	r0, #0
 8003326:	d061      	beq.n	80033ec <HAL_TIM_Base_Init+0xcc>
 8003328:	6803      	ldr	r3, [r0, #0]
 800332a:	f1b3 4f80 	cmp.w	r3, #1073741824	; 0x40000000
 800332e:	d023      	beq.n	8003378 <HAL_TIM_Base_Init+0x58>
 8003330:	4a2f      	ldr	r2, [pc, #188]	; (80033f0 <HAL_TIM_Base_Init+0xd0>)
 8003332:	4293      	cmp	r3, r2
 8003334:	d020      	beq.n	8003378 <HAL_TIM_Base_Init+0x58>
 8003336:	f502 6280 	add.w	r2, r2, #1024	; 0x400
 800333a:	4293      	cmp	r3, r2
 800333c:	d01c      	beq.n	8003378 <HAL_TIM_Base_Init+0x58>
 800333e:	f502 6280 	add.w	r2, r2, #1024	; 0x400
 8003342:	4293      	cmp	r3, r2
 8003344:	d018      	beq.n	8003378 <HAL_TIM_Base_Init+0x58>
 8003346:	f502 6280 	add.w	r2, r2, #1024	; 0x400
 800334a:	4293      	cmp	r3, r2
 800334c:	d014      	beq.n	8003378 <HAL_TIM_Base_Init+0x58>
 800334e:	f502 6280 	add.w	r2, r2, #1024	; 0x400
 8003352:	4293      	cmp	r3, r2
 8003354:	d010      	beq.n	8003378 <HAL_TIM_Base_Init+0x58>
 8003356:	f502 4274 	add.w	r2, r2, #62464	; 0xf400
 800335a:	4293      	cmp	r3, r2
 800335c:	d00c      	beq.n	8003378 <HAL_TIM_Base_Init+0x58>
 800335e:	f502 6280 	add.w	r2, r2, #1024	; 0x400
 8003362:	4293      	cmp	r3, r2
 8003364:	d008      	beq.n	8003378 <HAL_TIM_Base_Init+0x58>
 8003366:	f502 6280 	add.w	r2, r2, #1024	; 0x400
 800336a:	4293      	cmp	r3, r2
 800336c:	d004      	beq.n	8003378 <HAL_TIM_Base_Init+0x58>
 800336e:	f240 110b 	movw	r1, #267	; 0x10b
 8003372:	4820      	ldr	r0, [pc, #128]	; (80033f4 <HAL_TIM_Base_Init+0xd4>)
 8003374:	f7fd fc9f 	bl	8000cb6 <assert_failed>
 8003378:	68a3      	ldr	r3, [r4, #8]
 800337a:	f033 0210 	bics.w	r2, r3, #16
 800337e:	d00a      	beq.n	8003396 <HAL_TIM_Base_Init+0x76>
 8003380:	f023 0240 	bic.w	r2, r3, #64	; 0x40
 8003384:	2a20      	cmp	r2, #32
 8003386:	d006      	beq.n	8003396 <HAL_TIM_Base_Init+0x76>
 8003388:	2b40      	cmp	r3, #64	; 0x40
 800338a:	d004      	beq.n	8003396 <HAL_TIM_Base_Init+0x76>
 800338c:	f44f 7186 	mov.w	r1, #268	; 0x10c
 8003390:	4818      	ldr	r0, [pc, #96]	; (80033f4 <HAL_TIM_Base_Init+0xd4>)
 8003392:	f7fd fc90 	bl	8000cb6 <assert_failed>
 8003396:	6923      	ldr	r3, [r4, #16]
 8003398:	f433 7280 	bics.w	r2, r3, #256	; 0x100
 800339c:	d007      	beq.n	80033ae <HAL_TIM_Base_Init+0x8e>
 800339e:	f5b3 7f00 	cmp.w	r3, #512	; 0x200
 80033a2:	d004      	beq.n	80033ae <HAL_TIM_Base_Init+0x8e>
 80033a4:	f240 110d 	movw	r1, #269	; 0x10d
 80033a8:	4812      	ldr	r0, [pc, #72]	; (80033f4 <HAL_TIM_Base_Init+0xd4>)
 80033aa:	f7fd fc84 	bl	8000cb6 <assert_failed>
 80033ae:	6963      	ldr	r3, [r4, #20]
 80033b0:	f033 0380 	bics.w	r3, r3, #128	; 0x80
 80033b4:	d004      	beq.n	80033c0 <HAL_TIM_Base_Init+0xa0>
 80033b6:	f44f 7187 	mov.w	r1, #270	; 0x10e
 80033ba:	480e      	ldr	r0, [pc, #56]	; (80033f4 <HAL_TIM_Base_Init+0xd4>)
 80033bc:	f7fd fc7b 	bl	8000cb6 <assert_failed>
 80033c0:	f894 3039 	ldrb.w	r3, [r4, #57]	; 0x39
 80033c4:	f003 02ff 	and.w	r2, r3, #255	; 0xff
 80033c8:	b923      	cbnz	r3, 80033d4 <HAL_TIM_Base_Init+0xb4>
 80033ca:	f884 2038 	strb.w	r2, [r4, #56]	; 0x38
 80033ce:	4620      	mov	r0, r4
 80033d0:	f7fd fd1c 	bl	8000e0c <HAL_TIM_Base_MspInit>
 80033d4:	2302      	movs	r3, #2
 80033d6:	6820      	ldr	r0, [r4, #0]
 80033d8:	f884 3039 	strb.w	r3, [r4, #57]	; 0x39
 80033dc:	1d21      	adds	r1, r4, #4
 80033de:	f7ff feeb 	bl	80031b8 <TIM_Base_SetConfig>
 80033e2:	2301      	movs	r3, #1
 80033e4:	2000      	movs	r0, #0
 80033e6:	f884 3039 	strb.w	r3, [r4, #57]	; 0x39
 80033ea:	bd10      	pop	{r4, pc}
 80033ec:	2001      	movs	r0, #1
 80033ee:	e7fc      	b.n	80033ea <HAL_TIM_Base_Init+0xca>
 80033f0:	40000400 	.word	0x40000400
 80033f4:	08006375 	.word	0x08006375

080033f8 <HAL_TIM_Base_Start_IT>:
 80033f8:	6803      	ldr	r3, [r0, #0]
 80033fa:	b510      	push	{r4, lr}
 80033fc:	f1b3 4f80 	cmp.w	r3, #1073741824	; 0x40000000
 8003400:	4604      	mov	r4, r0
 8003402:	d023      	beq.n	800344c <HAL_TIM_Base_Start_IT+0x54>
 8003404:	4a19      	ldr	r2, [pc, #100]	; (800346c <HAL_TIM_Base_Start_IT+0x74>)
 8003406:	4293      	cmp	r3, r2
 8003408:	d020      	beq.n	800344c <HAL_TIM_Base_Start_IT+0x54>
 800340a:	f502 6280 	add.w	r2, r2, #1024	; 0x400
 800340e:	4293      	cmp	r3, r2
 8003410:	d01c      	beq.n	800344c <HAL_TIM_Base_Start_IT+0x54>
 8003412:	f502 6280 	add.w	r2, r2, #1024	; 0x400
 8003416:	4293      	cmp	r3, r2
 8003418:	d018      	beq.n	800344c <HAL_TIM_Base_Start_IT+0x54>
 800341a:	f502 6280 	add.w	r2, r2, #1024	; 0x400
 800341e:	4293      	cmp	r3, r2
 8003420:	d014      	beq.n	800344c <HAL_TIM_Base_Start_IT+0x54>
 8003422:	f502 6280 	add.w	r2, r2, #1024	; 0x400
 8003426:	4293      	cmp	r3, r2
 8003428:	d010      	beq.n	800344c <HAL_TIM_Base_Start_IT+0x54>
 800342a:	f502 4274 	add.w	r2, r2, #62464	; 0xf400
 800342e:	4293      	cmp	r3, r2
 8003430:	d00c      	beq.n	800344c <HAL_TIM_Base_Start_IT+0x54>
 8003432:	f502 6280 	add.w	r2, r2, #1024	; 0x400
 8003436:	4293      	cmp	r3, r2
 8003438:	d008      	beq.n	800344c <HAL_TIM_Base_Start_IT+0x54>
 800343a:	f502 6280 	add.w	r2, r2, #1024	; 0x400
 800343e:	4293      	cmp	r3, r2
 8003440:	d004      	beq.n	800344c <HAL_TIM_Base_Start_IT+0x54>
 8003442:	f44f 71d9 	mov.w	r1, #434	; 0x1b2
 8003446:	480a      	ldr	r0, [pc, #40]	; (8003470 <HAL_TIM_Base_Start_IT+0x78>)
 8003448:	f7fd fc35 	bl	8000cb6 <assert_failed>
 800344c:	6823      	ldr	r3, [r4, #0]
 800344e:	2000      	movs	r0, #0
 8003450:	68da      	ldr	r2, [r3, #12]
 8003452:	f042 0201 	orr.w	r2, r2, #1
 8003456:	60da      	str	r2, [r3, #12]
 8003458:	689a      	ldr	r2, [r3, #8]
 800345a:	f002 0207 	and.w	r2, r2, #7
 800345e:	2a06      	cmp	r2, #6
 8003460:	bf1e      	ittt	ne
 8003462:	681a      	ldrne	r2, [r3, #0]
 8003464:	f042 0201 	orrne.w	r2, r2, #1
 8003468:	601a      	strne	r2, [r3, #0]
 800346a:	bd10      	pop	{r4, pc}
 800346c:	40000400 	.word	0x40000400
 8003470:	08006375 	.word	0x08006375

08003474 <HAL_TIM_PWM_MspInit>:
 8003474:	4770      	bx	lr
	...

08003478 <HAL_TIM_PWM_Init>:
 8003478:	b510      	push	{r4, lr}
 800347a:	4604      	mov	r4, r0
 800347c:	2800      	cmp	r0, #0
 800347e:	d061      	beq.n	8003544 <HAL_TIM_PWM_Init+0xcc>
 8003480:	6803      	ldr	r3, [r0, #0]
 8003482:	f1b3 4f80 	cmp.w	r3, #1073741824	; 0x40000000
 8003486:	d023      	beq.n	80034d0 <HAL_TIM_PWM_Init+0x58>
 8003488:	4a2f      	ldr	r2, [pc, #188]	; (8003548 <HAL_TIM_PWM_Init+0xd0>)
 800348a:	4293      	cmp	r3, r2
 800348c:	d020      	beq.n	80034d0 <HAL_TIM_PWM_Init+0x58>
 800348e:	f502 6280 	add.w	r2, r2, #1024	; 0x400
 8003492:	4293      	cmp	r3, r2
 8003494:	d01c      	beq.n	80034d0 <HAL_TIM_PWM_Init+0x58>
 8003496:	f502 6280 	add.w	r2, r2, #1024	; 0x400
 800349a:	4293      	cmp	r3, r2
 800349c:	d018      	beq.n	80034d0 <HAL_TIM_PWM_Init+0x58>
 800349e:	f502 6280 	add.w	r2, r2, #1024	; 0x400
 80034a2:	4293      	cmp	r3, r2
 80034a4:	d014      	beq.n	80034d0 <HAL_TIM_PWM_Init+0x58>
 80034a6:	f502 6280 	add.w	r2, r2, #1024	; 0x400
 80034aa:	4293      	cmp	r3, r2
 80034ac:	d010      	beq.n	80034d0 <HAL_TIM_PWM_Init+0x58>
 80034ae:	f502 4274 	add.w	r2, r2, #62464	; 0xf400
 80034b2:	4293      	cmp	r3, r2
 80034b4:	d00c      	beq.n	80034d0 <HAL_TIM_PWM_Init+0x58>
 80034b6:	f502 6280 	add.w	r2, r2, #1024	; 0x400
 80034ba:	4293      	cmp	r3, r2
 80034bc:	d008      	beq.n	80034d0 <HAL_TIM_PWM_Init+0x58>
 80034be:	f502 6280 	add.w	r2, r2, #1024	; 0x400
 80034c2:	4293      	cmp	r3, r2
 80034c4:	d004      	beq.n	80034d0 <HAL_TIM_PWM_Init+0x58>
 80034c6:	f44f 618e 	mov.w	r1, #1136	; 0x470
 80034ca:	4820      	ldr	r0, [pc, #128]	; (800354c <HAL_TIM_PWM_Init+0xd4>)
 80034cc:	f7fd fbf3 	bl	8000cb6 <assert_failed>
 80034d0:	68a3      	ldr	r3, [r4, #8]
 80034d2:	f033 0210 	bics.w	r2, r3, #16
 80034d6:	d00a      	beq.n	80034ee <HAL_TIM_PWM_Init+0x76>
 80034d8:	f023 0240 	bic.w	r2, r3, #64	; 0x40
 80034dc:	2a20      	cmp	r2, #32
 80034de:	d006      	beq.n	80034ee <HAL_TIM_PWM_Init+0x76>
 80034e0:	2b40      	cmp	r3, #64	; 0x40
 80034e2:	d004      	beq.n	80034ee <HAL_TIM_PWM_Init+0x76>
 80034e4:	f240 4171 	movw	r1, #1137	; 0x471
 80034e8:	4818      	ldr	r0, [pc, #96]	; (800354c <HAL_TIM_PWM_Init+0xd4>)
 80034ea:	f7fd fbe4 	bl	8000cb6 <assert_failed>
 80034ee:	6923      	ldr	r3, [r4, #16]
 80034f0:	f433 7280 	bics.w	r2, r3, #256	; 0x100
 80034f4:	d007      	beq.n	8003506 <HAL_TIM_PWM_Init+0x8e>
 80034f6:	f5b3 7f00 	cmp.w	r3, #512	; 0x200
 80034fa:	d004      	beq.n	8003506 <HAL_TIM_PWM_Init+0x8e>
 80034fc:	f240 4172 	movw	r1, #1138	; 0x472
 8003500:	4812      	ldr	r0, [pc, #72]	; (800354c <HAL_TIM_PWM_Init+0xd4>)
 8003502:	f7fd fbd8 	bl	8000cb6 <assert_failed>
 8003506:	6963      	ldr	r3, [r4, #20]
 8003508:	f033 0380 	bics.w	r3, r3, #128	; 0x80
 800350c:	d004      	beq.n	8003518 <HAL_TIM_PWM_Init+0xa0>
 800350e:	f240 4173 	movw	r1, #1139	; 0x473
 8003512:	480e      	ldr	r0, [pc, #56]	; (800354c <HAL_TIM_PWM_Init+0xd4>)
 8003514:	f7fd fbcf 	bl	8000cb6 <assert_failed>
 8003518:	f894 3039 	ldrb.w	r3, [r4, #57]	; 0x39
 800351c:	f003 02ff 	and.w	r2, r3, #255	; 0xff
 8003520:	b923      	cbnz	r3, 800352c <HAL_TIM_PWM_Init+0xb4>
 8003522:	f884 2038 	strb.w	r2, [r4, #56]	; 0x38
 8003526:	4620      	mov	r0, r4
 8003528:	f7ff ffa4 	bl	8003474 <HAL_TIM_PWM_MspInit>
 800352c:	2302      	movs	r3, #2
 800352e:	6820      	ldr	r0, [r4, #0]
 8003530:	f884 3039 	strb.w	r3, [r4, #57]	; 0x39
 8003534:	1d21      	adds	r1, r4, #4
 8003536:	f7ff fe3f 	bl	80031b8 <TIM_Base_SetConfig>
 800353a:	2301      	movs	r3, #1
 800353c:	2000      	movs	r0, #0
 800353e:	f884 3039 	strb.w	r3, [r4, #57]	; 0x39
 8003542:	bd10      	pop	{r4, pc}
 8003544:	2001      	movs	r0, #1
 8003546:	e7fc      	b.n	8003542 <HAL_TIM_PWM_Init+0xca>
 8003548:	40000400 	.word	0x40000400
 800354c:	08006375 	.word	0x08006375

08003550 <HAL_TIM_PWM_Start>:
 8003550:	b538      	push	{r3, r4, r5, lr}
 8003552:	6803      	ldr	r3, [r0, #0]
 8003554:	4605      	mov	r5, r0
 8003556:	f1b3 4f80 	cmp.w	r3, #1073741824	; 0x40000000
 800355a:	460c      	mov	r4, r1
 800355c:	d00a      	beq.n	8003574 <HAL_TIM_PWM_Start+0x24>
 800355e:	4a1a      	ldr	r2, [pc, #104]	; (80035c8 <HAL_TIM_PWM_Start+0x78>)
 8003560:	4293      	cmp	r3, r2
 8003562:	d007      	beq.n	8003574 <HAL_TIM_PWM_Start+0x24>
 8003564:	f502 6280 	add.w	r2, r2, #1024	; 0x400
 8003568:	4293      	cmp	r3, r2
 800356a:	d003      	beq.n	8003574 <HAL_TIM_PWM_Start+0x24>
 800356c:	f502 6280 	add.w	r2, r2, #1024	; 0x400
 8003570:	4293      	cmp	r3, r2
 8003572:	d102      	bne.n	800357a <HAL_TIM_PWM_Start+0x2a>
 8003574:	f034 020c 	bics.w	r2, r4, #12
 8003578:	d005      	beq.n	8003586 <HAL_TIM_PWM_Start+0x36>
 800357a:	4a14      	ldr	r2, [pc, #80]	; (80035cc <HAL_TIM_PWM_Start+0x7c>)
 800357c:	4293      	cmp	r3, r2
 800357e:	d113      	bne.n	80035a8 <HAL_TIM_PWM_Start+0x58>
 8003580:	f034 0304 	bics.w	r3, r4, #4
 8003584:	d115      	bne.n	80035b2 <HAL_TIM_PWM_Start+0x62>
 8003586:	6828      	ldr	r0, [r5, #0]
 8003588:	2201      	movs	r2, #1
 800358a:	4621      	mov	r1, r4
 800358c:	f7ff fe88 	bl	80032a0 <TIM_CCxChannelCmd>
 8003590:	682b      	ldr	r3, [r5, #0]
 8003592:	2000      	movs	r0, #0
 8003594:	689a      	ldr	r2, [r3, #8]
 8003596:	f002 0207 	and.w	r2, r2, #7
 800359a:	2a06      	cmp	r2, #6
 800359c:	bf1e      	ittt	ne
 800359e:	681a      	ldrne	r2, [r3, #0]
 80035a0:	f042 0201 	orrne.w	r2, r2, #1
 80035a4:	601a      	strne	r2, [r3, #0]
 80035a6:	bd38      	pop	{r3, r4, r5, pc}
 80035a8:	4a09      	ldr	r2, [pc, #36]	; (80035d0 <HAL_TIM_PWM_Start+0x80>)
 80035aa:	4293      	cmp	r3, r2
 80035ac:	d107      	bne.n	80035be <HAL_TIM_PWM_Start+0x6e>
 80035ae:	2c00      	cmp	r4, #0
 80035b0:	d0e9      	beq.n	8003586 <HAL_TIM_PWM_Start+0x36>
 80035b2:	f44f 619d 	mov.w	r1, #1256	; 0x4e8
 80035b6:	4807      	ldr	r0, [pc, #28]	; (80035d4 <HAL_TIM_PWM_Start+0x84>)
 80035b8:	f7fd fb7d 	bl	8000cb6 <assert_failed>
 80035bc:	e7e3      	b.n	8003586 <HAL_TIM_PWM_Start+0x36>
 80035be:	4a06      	ldr	r2, [pc, #24]	; (80035d8 <HAL_TIM_PWM_Start+0x88>)
 80035c0:	4293      	cmp	r3, r2
 80035c2:	d0f4      	beq.n	80035ae <HAL_TIM_PWM_Start+0x5e>
 80035c4:	e7f5      	b.n	80035b2 <HAL_TIM_PWM_Start+0x62>
 80035c6:	bf00      	nop
 80035c8:	40000400 	.word	0x40000400
 80035cc:	40010800 	.word	0x40010800
 80035d0:	40010c00 	.word	0x40010c00
 80035d4:	08006375 	.word	0x08006375
 80035d8:	40011000 	.word	0x40011000

080035dc <HAL_TIM_PWM_ConfigChannel>:
 80035dc:	f032 030c 	bics.w	r3, r2, #12
 80035e0:	b570      	push	{r4, r5, r6, lr}
 80035e2:	4604      	mov	r4, r0
 80035e4:	460d      	mov	r5, r1
 80035e6:	4616      	mov	r6, r2
 80035e8:	d006      	beq.n	80035f8 <HAL_TIM_PWM_ConfigChannel+0x1c>
 80035ea:	2a3c      	cmp	r2, #60	; 0x3c
 80035ec:	d004      	beq.n	80035f8 <HAL_TIM_PWM_ConfigChannel+0x1c>
 80035ee:	f640 5169 	movw	r1, #3433	; 0xd69
 80035f2:	4882      	ldr	r0, [pc, #520]	; (80037fc <HAL_TIM_PWM_ConfigChannel+0x220>)
 80035f4:	f7fd fb5f 	bl	8000cb6 <assert_failed>
 80035f8:	682b      	ldr	r3, [r5, #0]
 80035fa:	f023 0310 	bic.w	r3, r3, #16
 80035fe:	2b60      	cmp	r3, #96	; 0x60
 8003600:	d004      	beq.n	800360c <HAL_TIM_PWM_ConfigChannel+0x30>
 8003602:	f640 516a 	movw	r1, #3434	; 0xd6a
 8003606:	487d      	ldr	r0, [pc, #500]	; (80037fc <HAL_TIM_PWM_ConfigChannel+0x220>)
 8003608:	f7fd fb55 	bl	8000cb6 <assert_failed>
 800360c:	68ab      	ldr	r3, [r5, #8]
 800360e:	f033 0302 	bics.w	r3, r3, #2
 8003612:	d004      	beq.n	800361e <HAL_TIM_PWM_ConfigChannel+0x42>
 8003614:	f640 516b 	movw	r1, #3435	; 0xd6b
 8003618:	4878      	ldr	r0, [pc, #480]	; (80037fc <HAL_TIM_PWM_ConfigChannel+0x220>)
 800361a:	f7fd fb4c 	bl	8000cb6 <assert_failed>
 800361e:	68eb      	ldr	r3, [r5, #12]
 8003620:	f033 0304 	bics.w	r3, r3, #4
 8003624:	d004      	beq.n	8003630 <HAL_TIM_PWM_ConfigChannel+0x54>
 8003626:	f640 516c 	movw	r1, #3436	; 0xd6c
 800362a:	4874      	ldr	r0, [pc, #464]	; (80037fc <HAL_TIM_PWM_ConfigChannel+0x220>)
 800362c:	f7fd fb43 	bl	8000cb6 <assert_failed>
 8003630:	f894 3038 	ldrb.w	r3, [r4, #56]	; 0x38
 8003634:	2002      	movs	r0, #2
 8003636:	2b01      	cmp	r3, #1
 8003638:	d046      	beq.n	80036c8 <HAL_TIM_PWM_ConfigChannel+0xec>
 800363a:	2301      	movs	r3, #1
 800363c:	f884 0039 	strb.w	r0, [r4, #57]	; 0x39
 8003640:	f884 3038 	strb.w	r3, [r4, #56]	; 0x38
 8003644:	2e0c      	cmp	r6, #12
 8003646:	d839      	bhi.n	80036bc <HAL_TIM_PWM_ConfigChannel+0xe0>
 8003648:	e8df f006 	tbb	[pc, r6]
 800364c:	38383807 	.word	0x38383807
 8003650:	3838383f 	.word	0x3838383f
 8003654:	38383869 	.word	0x38383869
 8003658:	a0          	.byte	0xa0
 8003659:	00          	.byte	0x00
 800365a:	6823      	ldr	r3, [r4, #0]
 800365c:	f1b3 4f80 	cmp.w	r3, #1073741824	; 0x40000000
 8003660:	d01b      	beq.n	800369a <HAL_TIM_PWM_ConfigChannel+0xbe>
 8003662:	4a67      	ldr	r2, [pc, #412]	; (8003800 <HAL_TIM_PWM_ConfigChannel+0x224>)
 8003664:	4293      	cmp	r3, r2
 8003666:	d018      	beq.n	800369a <HAL_TIM_PWM_ConfigChannel+0xbe>
 8003668:	f502 6280 	add.w	r2, r2, #1024	; 0x400
 800366c:	4293      	cmp	r3, r2
 800366e:	d014      	beq.n	800369a <HAL_TIM_PWM_ConfigChannel+0xbe>
 8003670:	f502 6280 	add.w	r2, r2, #1024	; 0x400
 8003674:	4293      	cmp	r3, r2
 8003676:	d010      	beq.n	800369a <HAL_TIM_PWM_ConfigChannel+0xbe>
 8003678:	f502 427c 	add.w	r2, r2, #64512	; 0xfc00
 800367c:	4293      	cmp	r3, r2
 800367e:	d00c      	beq.n	800369a <HAL_TIM_PWM_ConfigChannel+0xbe>
 8003680:	f502 6280 	add.w	r2, r2, #1024	; 0x400
 8003684:	4293      	cmp	r3, r2
 8003686:	d008      	beq.n	800369a <HAL_TIM_PWM_ConfigChannel+0xbe>
 8003688:	f502 6280 	add.w	r2, r2, #1024	; 0x400
 800368c:	4293      	cmp	r3, r2
 800368e:	d004      	beq.n	800369a <HAL_TIM_PWM_ConfigChannel+0xbe>
 8003690:	f640 5178 	movw	r1, #3448	; 0xd78
 8003694:	4859      	ldr	r0, [pc, #356]	; (80037fc <HAL_TIM_PWM_ConfigChannel+0x220>)
 8003696:	f7fd fb0e 	bl	8000cb6 <assert_failed>
 800369a:	4629      	mov	r1, r5
 800369c:	6820      	ldr	r0, [r4, #0]
 800369e:	f7ff fdd1 	bl	8003244 <TIM_OC1_SetConfig>
 80036a2:	6823      	ldr	r3, [r4, #0]
 80036a4:	68e9      	ldr	r1, [r5, #12]
 80036a6:	699a      	ldr	r2, [r3, #24]
 80036a8:	f042 0208 	orr.w	r2, r2, #8
 80036ac:	619a      	str	r2, [r3, #24]
 80036ae:	699a      	ldr	r2, [r3, #24]
 80036b0:	f022 0204 	bic.w	r2, r2, #4
 80036b4:	619a      	str	r2, [r3, #24]
 80036b6:	699a      	ldr	r2, [r3, #24]
 80036b8:	430a      	orrs	r2, r1
 80036ba:	619a      	str	r2, [r3, #24]
 80036bc:	2301      	movs	r3, #1
 80036be:	2000      	movs	r0, #0
 80036c0:	f884 3039 	strb.w	r3, [r4, #57]	; 0x39
 80036c4:	f884 0038 	strb.w	r0, [r4, #56]	; 0x38
 80036c8:	bd70      	pop	{r4, r5, r6, pc}
 80036ca:	6823      	ldr	r3, [r4, #0]
 80036cc:	f1b3 4f80 	cmp.w	r3, #1073741824	; 0x40000000
 80036d0:	d013      	beq.n	80036fa <HAL_TIM_PWM_ConfigChannel+0x11e>
 80036d2:	4a4b      	ldr	r2, [pc, #300]	; (8003800 <HAL_TIM_PWM_ConfigChannel+0x224>)
 80036d4:	4293      	cmp	r3, r2
 80036d6:	d010      	beq.n	80036fa <HAL_TIM_PWM_ConfigChannel+0x11e>
 80036d8:	f502 6280 	add.w	r2, r2, #1024	; 0x400
 80036dc:	4293      	cmp	r3, r2
 80036de:	d00c      	beq.n	80036fa <HAL_TIM_PWM_ConfigChannel+0x11e>
 80036e0:	f502 6280 	add.w	r2, r2, #1024	; 0x400
 80036e4:	4293      	cmp	r3, r2
 80036e6:	d008      	beq.n	80036fa <HAL_TIM_PWM_ConfigChannel+0x11e>
 80036e8:	f502 427c 	add.w	r2, r2, #64512	; 0xfc00
 80036ec:	4293      	cmp	r3, r2
 80036ee:	d004      	beq.n	80036fa <HAL_TIM_PWM_ConfigChannel+0x11e>
 80036f0:	f640 5189 	movw	r1, #3465	; 0xd89
 80036f4:	4841      	ldr	r0, [pc, #260]	; (80037fc <HAL_TIM_PWM_ConfigChannel+0x220>)
 80036f6:	f7fd fade 	bl	8000cb6 <assert_failed>
 80036fa:	4629      	mov	r1, r5
 80036fc:	6820      	ldr	r0, [r4, #0]
 80036fe:	f7ff fdb7 	bl	8003270 <TIM_OC2_SetConfig>
 8003702:	6823      	ldr	r3, [r4, #0]
 8003704:	68e9      	ldr	r1, [r5, #12]
 8003706:	699a      	ldr	r2, [r3, #24]
 8003708:	f442 6200 	orr.w	r2, r2, #2048	; 0x800
 800370c:	619a      	str	r2, [r3, #24]
 800370e:	699a      	ldr	r2, [r3, #24]
 8003710:	f422 6280 	bic.w	r2, r2, #1024	; 0x400
 8003714:	619a      	str	r2, [r3, #24]
 8003716:	699a      	ldr	r2, [r3, #24]
 8003718:	ea42 2201 	orr.w	r2, r2, r1, lsl #8
 800371c:	e7cd      	b.n	80036ba <HAL_TIM_PWM_ConfigChannel+0xde>
 800371e:	6823      	ldr	r3, [r4, #0]
 8003720:	f1b3 4f80 	cmp.w	r3, #1073741824	; 0x40000000
 8003724:	d00f      	beq.n	8003746 <HAL_TIM_PWM_ConfigChannel+0x16a>
 8003726:	4a36      	ldr	r2, [pc, #216]	; (8003800 <HAL_TIM_PWM_ConfigChannel+0x224>)
 8003728:	4293      	cmp	r3, r2
 800372a:	d00c      	beq.n	8003746 <HAL_TIM_PWM_ConfigChannel+0x16a>
 800372c:	f502 6280 	add.w	r2, r2, #1024	; 0x400
 8003730:	4293      	cmp	r3, r2
 8003732:	d008      	beq.n	8003746 <HAL_TIM_PWM_ConfigChannel+0x16a>
 8003734:	f502 6280 	add.w	r2, r2, #1024	; 0x400
 8003738:	4293      	cmp	r3, r2
 800373a:	d004      	beq.n	8003746 <HAL_TIM_PWM_ConfigChannel+0x16a>
 800373c:	f640 519a 	movw	r1, #3482	; 0xd9a
 8003740:	482e      	ldr	r0, [pc, #184]	; (80037fc <HAL_TIM_PWM_ConfigChannel+0x220>)
 8003742:	f7fd fab8 	bl	8000cb6 <assert_failed>
 8003746:	6823      	ldr	r3, [r4, #0]
 8003748:	682e      	ldr	r6, [r5, #0]
 800374a:	6a1a      	ldr	r2, [r3, #32]
 800374c:	f422 7280 	bic.w	r2, r2, #256	; 0x100
 8003750:	621a      	str	r2, [r3, #32]
 8003752:	6a1a      	ldr	r2, [r3, #32]
 8003754:	6858      	ldr	r0, [r3, #4]
 8003756:	69d9      	ldr	r1, [r3, #28]
 8003758:	f422 7200 	bic.w	r2, r2, #512	; 0x200
 800375c:	f021 0173 	bic.w	r1, r1, #115	; 0x73
 8003760:	4331      	orrs	r1, r6
 8003762:	68ae      	ldr	r6, [r5, #8]
 8003764:	6058      	str	r0, [r3, #4]
 8003766:	61d9      	str	r1, [r3, #28]
 8003768:	6869      	ldr	r1, [r5, #4]
 800376a:	ea42 2206 	orr.w	r2, r2, r6, lsl #8
 800376e:	63d9      	str	r1, [r3, #60]	; 0x3c
 8003770:	621a      	str	r2, [r3, #32]
 8003772:	69da      	ldr	r2, [r3, #28]
 8003774:	68e9      	ldr	r1, [r5, #12]
 8003776:	f042 0208 	orr.w	r2, r2, #8
 800377a:	61da      	str	r2, [r3, #28]
 800377c:	69da      	ldr	r2, [r3, #28]
 800377e:	f022 0204 	bic.w	r2, r2, #4
 8003782:	61da      	str	r2, [r3, #28]
 8003784:	69da      	ldr	r2, [r3, #28]
 8003786:	430a      	orrs	r2, r1
 8003788:	61da      	str	r2, [r3, #28]
 800378a:	e797      	b.n	80036bc <HAL_TIM_PWM_ConfigChannel+0xe0>
 800378c:	6823      	ldr	r3, [r4, #0]
 800378e:	f1b3 4f80 	cmp.w	r3, #1073741824	; 0x40000000
 8003792:	d00f      	beq.n	80037b4 <HAL_TIM_PWM_ConfigChannel+0x1d8>
 8003794:	4a1a      	ldr	r2, [pc, #104]	; (8003800 <HAL_TIM_PWM_ConfigChannel+0x224>)
 8003796:	4293      	cmp	r3, r2
 8003798:	d00c      	beq.n	80037b4 <HAL_TIM_PWM_ConfigChannel+0x1d8>
 800379a:	f502 6280 	add.w	r2, r2, #1024	; 0x400
 800379e:	4293      	cmp	r3, r2
 80037a0:	d008      	beq.n	80037b4 <HAL_TIM_PWM_ConfigChannel+0x1d8>
 80037a2:	f502 6280 	add.w	r2, r2, #1024	; 0x400
 80037a6:	4293      	cmp	r3, r2
 80037a8:	d004      	beq.n	80037b4 <HAL_TIM_PWM_ConfigChannel+0x1d8>
 80037aa:	f640 51ab 	movw	r1, #3499	; 0xdab
 80037ae:	4813      	ldr	r0, [pc, #76]	; (80037fc <HAL_TIM_PWM_ConfigChannel+0x220>)
 80037b0:	f7fd fa81 	bl	8000cb6 <assert_failed>
 80037b4:	6823      	ldr	r3, [r4, #0]
 80037b6:	682e      	ldr	r6, [r5, #0]
 80037b8:	6a1a      	ldr	r2, [r3, #32]
 80037ba:	f422 5280 	bic.w	r2, r2, #4096	; 0x1000
 80037be:	621a      	str	r2, [r3, #32]
 80037c0:	6a1a      	ldr	r2, [r3, #32]
 80037c2:	6858      	ldr	r0, [r3, #4]
 80037c4:	69d9      	ldr	r1, [r3, #28]
 80037c6:	f422 5200 	bic.w	r2, r2, #8192	; 0x2000
 80037ca:	f421 41e6 	bic.w	r1, r1, #29440	; 0x7300
 80037ce:	ea41 2106 	orr.w	r1, r1, r6, lsl #8
 80037d2:	68ae      	ldr	r6, [r5, #8]
 80037d4:	6058      	str	r0, [r3, #4]
 80037d6:	61d9      	str	r1, [r3, #28]
 80037d8:	6869      	ldr	r1, [r5, #4]
 80037da:	ea42 3206 	orr.w	r2, r2, r6, lsl #12
 80037de:	6419      	str	r1, [r3, #64]	; 0x40
 80037e0:	621a      	str	r2, [r3, #32]
 80037e2:	69da      	ldr	r2, [r3, #28]
 80037e4:	68e9      	ldr	r1, [r5, #12]
 80037e6:	f442 6200 	orr.w	r2, r2, #2048	; 0x800
 80037ea:	61da      	str	r2, [r3, #28]
 80037ec:	69da      	ldr	r2, [r3, #28]
 80037ee:	f422 6280 	bic.w	r2, r2, #1024	; 0x400
 80037f2:	61da      	str	r2, [r3, #28]
 80037f4:	69da      	ldr	r2, [r3, #28]
 80037f6:	ea42 2201 	orr.w	r2, r2, r1, lsl #8
 80037fa:	e7c5      	b.n	8003788 <HAL_TIM_PWM_ConfigChannel+0x1ac>
 80037fc:	08006375 	.word	0x08006375
 8003800:	40000400 	.word	0x40000400

08003804 <HAL_TIM_ConfigClockSource>:
 8003804:	f890 3038 	ldrb.w	r3, [r0, #56]	; 0x38
 8003808:	b570      	push	{r4, r5, r6, lr}
 800380a:	2b01      	cmp	r3, #1
 800380c:	4605      	mov	r5, r0
 800380e:	460c      	mov	r4, r1
 8003810:	f04f 0002 	mov.w	r0, #2
 8003814:	d02b      	beq.n	800386e <HAL_TIM_ConfigClockSource+0x6a>
 8003816:	2301      	movs	r3, #1
 8003818:	f885 3038 	strb.w	r3, [r5, #56]	; 0x38
 800381c:	680b      	ldr	r3, [r1, #0]
 800381e:	f885 0039 	strb.w	r0, [r5, #57]	; 0x39
 8003822:	f5b3 5f80 	cmp.w	r3, #4096	; 0x1000
 8003826:	d00c      	beq.n	8003842 <HAL_TIM_ConfigClockSource+0x3e>
 8003828:	f5b3 5f00 	cmp.w	r3, #8192	; 0x2000
 800382c:	d009      	beq.n	8003842 <HAL_TIM_ConfigClockSource+0x3e>
 800382e:	f033 0330 	bics.w	r3, r3, #48	; 0x30
 8003832:	d006      	beq.n	8003842 <HAL_TIM_ConfigClockSource+0x3e>
 8003834:	2b40      	cmp	r3, #64	; 0x40
 8003836:	d004      	beq.n	8003842 <HAL_TIM_ConfigClockSource+0x3e>
 8003838:	f241 01d0 	movw	r1, #4304	; 0x10d0
 800383c:	48ad      	ldr	r0, [pc, #692]	; (8003af4 <HAL_TIM_ConfigClockSource+0x2f0>)
 800383e:	f7fd fa3a 	bl	8000cb6 <assert_failed>
 8003842:	682b      	ldr	r3, [r5, #0]
 8003844:	689a      	ldr	r2, [r3, #8]
 8003846:	f422 427f 	bic.w	r2, r2, #65280	; 0xff00
 800384a:	f022 0277 	bic.w	r2, r2, #119	; 0x77
 800384e:	609a      	str	r2, [r3, #8]
 8003850:	6822      	ldr	r2, [r4, #0]
 8003852:	2a40      	cmp	r2, #64	; 0x40
 8003854:	f000 8198 	beq.w	8003b88 <HAL_TIM_ConfigClockSource+0x384>
 8003858:	d82f      	bhi.n	80038ba <HAL_TIM_ConfigClockSource+0xb6>
 800385a:	2a10      	cmp	r2, #16
 800385c:	d00c      	beq.n	8003878 <HAL_TIM_ConfigClockSource+0x74>
 800385e:	d807      	bhi.n	8003870 <HAL_TIM_ConfigClockSource+0x6c>
 8003860:	b152      	cbz	r2, 8003878 <HAL_TIM_ConfigClockSource+0x74>
 8003862:	2301      	movs	r3, #1
 8003864:	2000      	movs	r0, #0
 8003866:	f885 3039 	strb.w	r3, [r5, #57]	; 0x39
 800386a:	f885 0038 	strb.w	r0, [r5, #56]	; 0x38
 800386e:	bd70      	pop	{r4, r5, r6, pc}
 8003870:	2a20      	cmp	r2, #32
 8003872:	d001      	beq.n	8003878 <HAL_TIM_ConfigClockSource+0x74>
 8003874:	2a30      	cmp	r2, #48	; 0x30
 8003876:	d1f4      	bne.n	8003862 <HAL_TIM_ConfigClockSource+0x5e>
 8003878:	f1b3 4f80 	cmp.w	r3, #1073741824	; 0x40000000
 800387c:	d013      	beq.n	80038a6 <HAL_TIM_ConfigClockSource+0xa2>
 800387e:	4a9e      	ldr	r2, [pc, #632]	; (8003af8 <HAL_TIM_ConfigClockSource+0x2f4>)
 8003880:	4293      	cmp	r3, r2
 8003882:	d010      	beq.n	80038a6 <HAL_TIM_ConfigClockSource+0xa2>
 8003884:	f502 6280 	add.w	r2, r2, #1024	; 0x400
 8003888:	4293      	cmp	r3, r2
 800388a:	d00c      	beq.n	80038a6 <HAL_TIM_ConfigClockSource+0xa2>
 800388c:	f502 6280 	add.w	r2, r2, #1024	; 0x400
 8003890:	4293      	cmp	r3, r2
 8003892:	d008      	beq.n	80038a6 <HAL_TIM_ConfigClockSource+0xa2>
 8003894:	f502 427c 	add.w	r2, r2, #64512	; 0xfc00
 8003898:	4293      	cmp	r3, r2
 800389a:	d004      	beq.n	80038a6 <HAL_TIM_ConfigClockSource+0xa2>
 800389c:	f241 1142 	movw	r1, #4418	; 0x1142
 80038a0:	4894      	ldr	r0, [pc, #592]	; (8003af4 <HAL_TIM_ConfigClockSource+0x2f0>)
 80038a2:	f7fd fa08 	bl	8000cb6 <assert_failed>
 80038a6:	6829      	ldr	r1, [r5, #0]
 80038a8:	6823      	ldr	r3, [r4, #0]
 80038aa:	688a      	ldr	r2, [r1, #8]
 80038ac:	f043 0307 	orr.w	r3, r3, #7
 80038b0:	f022 0270 	bic.w	r2, r2, #112	; 0x70
 80038b4:	4313      	orrs	r3, r2
 80038b6:	608b      	str	r3, [r1, #8]
 80038b8:	e7d3      	b.n	8003862 <HAL_TIM_ConfigClockSource+0x5e>
 80038ba:	2a70      	cmp	r2, #112	; 0x70
 80038bc:	f000 80d2 	beq.w	8003a64 <HAL_TIM_ConfigClockSource+0x260>
 80038c0:	d84a      	bhi.n	8003958 <HAL_TIM_ConfigClockSource+0x154>
 80038c2:	2a50      	cmp	r2, #80	; 0x50
 80038c4:	f000 811a 	beq.w	8003afc <HAL_TIM_ConfigClockSource+0x2f8>
 80038c8:	2a60      	cmp	r2, #96	; 0x60
 80038ca:	d1ca      	bne.n	8003862 <HAL_TIM_ConfigClockSource+0x5e>
 80038cc:	f1b3 4f80 	cmp.w	r3, #1073741824	; 0x40000000
 80038d0:	d013      	beq.n	80038fa <HAL_TIM_ConfigClockSource+0xf6>
 80038d2:	4a89      	ldr	r2, [pc, #548]	; (8003af8 <HAL_TIM_ConfigClockSource+0x2f4>)
 80038d4:	4293      	cmp	r3, r2
 80038d6:	d010      	beq.n	80038fa <HAL_TIM_ConfigClockSource+0xf6>
 80038d8:	f502 6280 	add.w	r2, r2, #1024	; 0x400
 80038dc:	4293      	cmp	r3, r2
 80038de:	d00c      	beq.n	80038fa <HAL_TIM_ConfigClockSource+0xf6>
 80038e0:	f502 6280 	add.w	r2, r2, #1024	; 0x400
 80038e4:	4293      	cmp	r3, r2
 80038e6:	d008      	beq.n	80038fa <HAL_TIM_ConfigClockSource+0xf6>
 80038e8:	f502 427c 	add.w	r2, r2, #64512	; 0xfc00
 80038ec:	4293      	cmp	r3, r2
 80038ee:	d004      	beq.n	80038fa <HAL_TIM_ConfigClockSource+0xf6>
 80038f0:	f241 111f 	movw	r1, #4383	; 0x111f
 80038f4:	487f      	ldr	r0, [pc, #508]	; (8003af4 <HAL_TIM_ConfigClockSource+0x2f0>)
 80038f6:	f7fd f9de 	bl	8000cb6 <assert_failed>
 80038fa:	6863      	ldr	r3, [r4, #4]
 80038fc:	f5b3 4f00 	cmp.w	r3, #32768	; 0x8000
 8003900:	d009      	beq.n	8003916 <HAL_TIM_ConfigClockSource+0x112>
 8003902:	f033 0202 	bics.w	r2, r3, #2
 8003906:	d006      	beq.n	8003916 <HAL_TIM_ConfigClockSource+0x112>
 8003908:	2b0a      	cmp	r3, #10
 800390a:	d004      	beq.n	8003916 <HAL_TIM_ConfigClockSource+0x112>
 800390c:	f241 1122 	movw	r1, #4386	; 0x1122
 8003910:	4878      	ldr	r0, [pc, #480]	; (8003af4 <HAL_TIM_ConfigClockSource+0x2f0>)
 8003912:	f7fd f9d0 	bl	8000cb6 <assert_failed>
 8003916:	68e3      	ldr	r3, [r4, #12]
 8003918:	2b0f      	cmp	r3, #15
 800391a:	d904      	bls.n	8003926 <HAL_TIM_ConfigClockSource+0x122>
 800391c:	f241 1123 	movw	r1, #4387	; 0x1123
 8003920:	4874      	ldr	r0, [pc, #464]	; (8003af4 <HAL_TIM_ConfigClockSource+0x2f0>)
 8003922:	f7fd f9c8 	bl	8000cb6 <assert_failed>
 8003926:	682b      	ldr	r3, [r5, #0]
 8003928:	6866      	ldr	r6, [r4, #4]
 800392a:	6a18      	ldr	r0, [r3, #32]
 800392c:	68e4      	ldr	r4, [r4, #12]
 800392e:	f020 0010 	bic.w	r0, r0, #16
 8003932:	6218      	str	r0, [r3, #32]
 8003934:	6999      	ldr	r1, [r3, #24]
 8003936:	6a1a      	ldr	r2, [r3, #32]
 8003938:	f421 4170 	bic.w	r1, r1, #61440	; 0xf000
 800393c:	f022 02a0 	bic.w	r2, r2, #160	; 0xa0
 8003940:	ea42 1206 	orr.w	r2, r2, r6, lsl #4
 8003944:	ea41 3104 	orr.w	r1, r1, r4, lsl #12
 8003948:	6199      	str	r1, [r3, #24]
 800394a:	621a      	str	r2, [r3, #32]
 800394c:	689a      	ldr	r2, [r3, #8]
 800394e:	f022 0270 	bic.w	r2, r2, #112	; 0x70
 8003952:	f042 0267 	orr.w	r2, r2, #103	; 0x67
 8003956:	e115      	b.n	8003b84 <HAL_TIM_ConfigClockSource+0x380>
 8003958:	f5b2 5f80 	cmp.w	r2, #4096	; 0x1000
 800395c:	d051      	beq.n	8003a02 <HAL_TIM_ConfigClockSource+0x1fe>
 800395e:	f5b2 5f00 	cmp.w	r2, #8192	; 0x2000
 8003962:	f47f af7e 	bne.w	8003862 <HAL_TIM_ConfigClockSource+0x5e>
 8003966:	f1b3 4f80 	cmp.w	r3, #1073741824	; 0x40000000
 800396a:	d01b      	beq.n	80039a4 <HAL_TIM_ConfigClockSource+0x1a0>
 800396c:	4a62      	ldr	r2, [pc, #392]	; (8003af8 <HAL_TIM_ConfigClockSource+0x2f4>)
 800396e:	4293      	cmp	r3, r2
 8003970:	d018      	beq.n	80039a4 <HAL_TIM_ConfigClockSource+0x1a0>
 8003972:	f502 6280 	add.w	r2, r2, #1024	; 0x400
 8003976:	4293      	cmp	r3, r2
 8003978:	d014      	beq.n	80039a4 <HAL_TIM_ConfigClockSource+0x1a0>
 800397a:	f502 6280 	add.w	r2, r2, #1024	; 0x400
 800397e:	4293      	cmp	r3, r2
 8003980:	d010      	beq.n	80039a4 <HAL_TIM_ConfigClockSource+0x1a0>
 8003982:	f502 427c 	add.w	r2, r2, #64512	; 0xfc00
 8003986:	4293      	cmp	r3, r2
 8003988:	d00c      	beq.n	80039a4 <HAL_TIM_ConfigClockSource+0x1a0>
 800398a:	f502 6280 	add.w	r2, r2, #1024	; 0x400
 800398e:	4293      	cmp	r3, r2
 8003990:	d008      	beq.n	80039a4 <HAL_TIM_ConfigClockSource+0x1a0>
 8003992:	f502 6280 	add.w	r2, r2, #1024	; 0x400
 8003996:	4293      	cmp	r3, r2
 8003998:	d004      	beq.n	80039a4 <HAL_TIM_ConfigClockSource+0x1a0>
 800399a:	f241 01fb 	movw	r1, #4347	; 0x10fb
 800399e:	4855      	ldr	r0, [pc, #340]	; (8003af4 <HAL_TIM_ConfigClockSource+0x2f0>)
 80039a0:	f7fd f989 	bl	8000cb6 <assert_failed>
 80039a4:	68a3      	ldr	r3, [r4, #8]
 80039a6:	f433 5340 	bics.w	r3, r3, #12288	; 0x3000
 80039aa:	d004      	beq.n	80039b6 <HAL_TIM_ConfigClockSource+0x1b2>
 80039ac:	f241 01fe 	movw	r1, #4350	; 0x10fe
 80039b0:	4850      	ldr	r0, [pc, #320]	; (8003af4 <HAL_TIM_ConfigClockSource+0x2f0>)
 80039b2:	f7fd f980 	bl	8000cb6 <assert_failed>
 80039b6:	6863      	ldr	r3, [r4, #4]
 80039b8:	f5b3 4f00 	cmp.w	r3, #32768	; 0x8000
 80039bc:	d009      	beq.n	80039d2 <HAL_TIM_ConfigClockSource+0x1ce>
 80039be:	f033 0202 	bics.w	r2, r3, #2
 80039c2:	d006      	beq.n	80039d2 <HAL_TIM_ConfigClockSource+0x1ce>
 80039c4:	2b0a      	cmp	r3, #10
 80039c6:	d004      	beq.n	80039d2 <HAL_TIM_ConfigClockSource+0x1ce>
 80039c8:	f241 01ff 	movw	r1, #4351	; 0x10ff
 80039cc:	4849      	ldr	r0, [pc, #292]	; (8003af4 <HAL_TIM_ConfigClockSource+0x2f0>)
 80039ce:	f7fd f972 	bl	8000cb6 <assert_failed>
 80039d2:	68e3      	ldr	r3, [r4, #12]
 80039d4:	2b0f      	cmp	r3, #15
 80039d6:	d904      	bls.n	80039e2 <HAL_TIM_ConfigClockSource+0x1de>
 80039d8:	f44f 5188 	mov.w	r1, #4352	; 0x1100
 80039dc:	4845      	ldr	r0, [pc, #276]	; (8003af4 <HAL_TIM_ConfigClockSource+0x2f0>)
 80039de:	f7fd f96a 	bl	8000cb6 <assert_failed>
 80039e2:	e9d4 0301 	ldrd	r0, r3, [r4, #4]
 80039e6:	682a      	ldr	r2, [r5, #0]
 80039e8:	4303      	orrs	r3, r0
 80039ea:	6891      	ldr	r1, [r2, #8]
 80039ec:	68e0      	ldr	r0, [r4, #12]
 80039ee:	f421 417f 	bic.w	r1, r1, #65280	; 0xff00
 80039f2:	ea43 2300 	orr.w	r3, r3, r0, lsl #8
 80039f6:	430b      	orrs	r3, r1
 80039f8:	6093      	str	r3, [r2, #8]
 80039fa:	6893      	ldr	r3, [r2, #8]
 80039fc:	f443 4380 	orr.w	r3, r3, #16384	; 0x4000
 8003a00:	e075      	b.n	8003aee <HAL_TIM_ConfigClockSource+0x2ea>
 8003a02:	f1b3 4f80 	cmp.w	r3, #1073741824	; 0x40000000
 8003a06:	f43f af2c 	beq.w	8003862 <HAL_TIM_ConfigClockSource+0x5e>
 8003a0a:	4a3b      	ldr	r2, [pc, #236]	; (8003af8 <HAL_TIM_ConfigClockSource+0x2f4>)
 8003a0c:	4293      	cmp	r3, r2
 8003a0e:	f43f af28 	beq.w	8003862 <HAL_TIM_ConfigClockSource+0x5e>
 8003a12:	f502 6280 	add.w	r2, r2, #1024	; 0x400
 8003a16:	4293      	cmp	r3, r2
 8003a18:	f43f af23 	beq.w	8003862 <HAL_TIM_ConfigClockSource+0x5e>
 8003a1c:	f502 6280 	add.w	r2, r2, #1024	; 0x400
 8003a20:	4293      	cmp	r3, r2
 8003a22:	f43f af1e 	beq.w	8003862 <HAL_TIM_ConfigClockSource+0x5e>
 8003a26:	f502 6280 	add.w	r2, r2, #1024	; 0x400
 8003a2a:	4293      	cmp	r3, r2
 8003a2c:	f43f af19 	beq.w	8003862 <HAL_TIM_ConfigClockSource+0x5e>
 8003a30:	f502 6280 	add.w	r2, r2, #1024	; 0x400
 8003a34:	4293      	cmp	r3, r2
 8003a36:	f43f af14 	beq.w	8003862 <HAL_TIM_ConfigClockSource+0x5e>
 8003a3a:	f502 4274 	add.w	r2, r2, #62464	; 0xf400
 8003a3e:	4293      	cmp	r3, r2
 8003a40:	f43f af0f 	beq.w	8003862 <HAL_TIM_ConfigClockSource+0x5e>
 8003a44:	f502 6280 	add.w	r2, r2, #1024	; 0x400
 8003a48:	4293      	cmp	r3, r2
 8003a4a:	f43f af0a 	beq.w	8003862 <HAL_TIM_ConfigClockSource+0x5e>
 8003a4e:	f502 6280 	add.w	r2, r2, #1024	; 0x400
 8003a52:	4293      	cmp	r3, r2
 8003a54:	f43f af05 	beq.w	8003862 <HAL_TIM_ConfigClockSource+0x5e>
 8003a58:	f241 01dc 	movw	r1, #4316	; 0x10dc
 8003a5c:	4825      	ldr	r0, [pc, #148]	; (8003af4 <HAL_TIM_ConfigClockSource+0x2f0>)
 8003a5e:	f7fd f92a 	bl	8000cb6 <assert_failed>
 8003a62:	e6fe      	b.n	8003862 <HAL_TIM_ConfigClockSource+0x5e>
 8003a64:	f1b3 4f80 	cmp.w	r3, #1073741824	; 0x40000000
 8003a68:	d013      	beq.n	8003a92 <HAL_TIM_ConfigClockSource+0x28e>
 8003a6a:	4a23      	ldr	r2, [pc, #140]	; (8003af8 <HAL_TIM_ConfigClockSource+0x2f4>)
 8003a6c:	4293      	cmp	r3, r2
 8003a6e:	d010      	beq.n	8003a92 <HAL_TIM_ConfigClockSource+0x28e>
 8003a70:	f502 6280 	add.w	r2, r2, #1024	; 0x400
 8003a74:	4293      	cmp	r3, r2
 8003a76:	d00c      	beq.n	8003a92 <HAL_TIM_ConfigClockSource+0x28e>
 8003a78:	f502 6280 	add.w	r2, r2, #1024	; 0x400
 8003a7c:	4293      	cmp	r3, r2
 8003a7e:	d008      	beq.n	8003a92 <HAL_TIM_ConfigClockSource+0x28e>
 8003a80:	f502 427c 	add.w	r2, r2, #64512	; 0xfc00
 8003a84:	4293      	cmp	r3, r2
 8003a86:	d004      	beq.n	8003a92 <HAL_TIM_ConfigClockSource+0x28e>
 8003a88:	f241 01e3 	movw	r1, #4323	; 0x10e3
 8003a8c:	4819      	ldr	r0, [pc, #100]	; (8003af4 <HAL_TIM_ConfigClockSource+0x2f0>)
 8003a8e:	f7fd f912 	bl	8000cb6 <assert_failed>
 8003a92:	68a3      	ldr	r3, [r4, #8]
 8003a94:	f433 5340 	bics.w	r3, r3, #12288	; 0x3000
 8003a98:	d004      	beq.n	8003aa4 <HAL_TIM_ConfigClockSource+0x2a0>
 8003a9a:	f241 01e6 	movw	r1, #4326	; 0x10e6
 8003a9e:	4815      	ldr	r0, [pc, #84]	; (8003af4 <HAL_TIM_ConfigClockSource+0x2f0>)
 8003aa0:	f7fd f909 	bl	8000cb6 <assert_failed>
 8003aa4:	6863      	ldr	r3, [r4, #4]
 8003aa6:	f5b3 4f00 	cmp.w	r3, #32768	; 0x8000
 8003aaa:	d009      	beq.n	8003ac0 <HAL_TIM_ConfigClockSource+0x2bc>
 8003aac:	f033 0202 	bics.w	r2, r3, #2
 8003ab0:	d006      	beq.n	8003ac0 <HAL_TIM_ConfigClockSource+0x2bc>
 8003ab2:	2b0a      	cmp	r3, #10
 8003ab4:	d004      	beq.n	8003ac0 <HAL_TIM_ConfigClockSource+0x2bc>
 8003ab6:	f241 01e7 	movw	r1, #4327	; 0x10e7
 8003aba:	480e      	ldr	r0, [pc, #56]	; (8003af4 <HAL_TIM_ConfigClockSource+0x2f0>)
 8003abc:	f7fd f8fb 	bl	8000cb6 <assert_failed>
 8003ac0:	68e3      	ldr	r3, [r4, #12]
 8003ac2:	2b0f      	cmp	r3, #15
 8003ac4:	d904      	bls.n	8003ad0 <HAL_TIM_ConfigClockSource+0x2cc>
 8003ac6:	f241 01e8 	movw	r1, #4328	; 0x10e8
 8003aca:	480a      	ldr	r0, [pc, #40]	; (8003af4 <HAL_TIM_ConfigClockSource+0x2f0>)
 8003acc:	f7fd f8f3 	bl	8000cb6 <assert_failed>
 8003ad0:	e9d4 0301 	ldrd	r0, r3, [r4, #4]
 8003ad4:	682a      	ldr	r2, [r5, #0]
 8003ad6:	4303      	orrs	r3, r0
 8003ad8:	6891      	ldr	r1, [r2, #8]
 8003ada:	68e0      	ldr	r0, [r4, #12]
 8003adc:	f421 417f 	bic.w	r1, r1, #65280	; 0xff00
 8003ae0:	ea43 2300 	orr.w	r3, r3, r0, lsl #8
 8003ae4:	430b      	orrs	r3, r1
 8003ae6:	6093      	str	r3, [r2, #8]
 8003ae8:	6893      	ldr	r3, [r2, #8]
 8003aea:	f043 0377 	orr.w	r3, r3, #119	; 0x77
 8003aee:	6093      	str	r3, [r2, #8]
 8003af0:	e6b7      	b.n	8003862 <HAL_TIM_ConfigClockSource+0x5e>
 8003af2:	bf00      	nop
 8003af4:	08006375 	.word	0x08006375
 8003af8:	40000400 	.word	0x40000400
 8003afc:	f1b3 4f80 	cmp.w	r3, #1073741824	; 0x40000000
 8003b00:	d013      	beq.n	8003b2a <HAL_TIM_ConfigClockSource+0x326>
 8003b02:	4a44      	ldr	r2, [pc, #272]	; (8003c14 <HAL_TIM_ConfigClockSource+0x410>)
 8003b04:	4293      	cmp	r3, r2
 8003b06:	d010      	beq.n	8003b2a <HAL_TIM_ConfigClockSource+0x326>
 8003b08:	f502 6280 	add.w	r2, r2, #1024	; 0x400
 8003b0c:	4293      	cmp	r3, r2
 8003b0e:	d00c      	beq.n	8003b2a <HAL_TIM_ConfigClockSource+0x326>
 8003b10:	f502 6280 	add.w	r2, r2, #1024	; 0x400
 8003b14:	4293      	cmp	r3, r2
 8003b16:	d008      	beq.n	8003b2a <HAL_TIM_ConfigClockSource+0x326>
 8003b18:	f502 427c 	add.w	r2, r2, #64512	; 0xfc00
 8003b1c:	4293      	cmp	r3, r2
 8003b1e:	d004      	beq.n	8003b2a <HAL_TIM_ConfigClockSource+0x326>
 8003b20:	f241 110f 	movw	r1, #4367	; 0x110f
 8003b24:	483c      	ldr	r0, [pc, #240]	; (8003c18 <HAL_TIM_ConfigClockSource+0x414>)
 8003b26:	f7fd f8c6 	bl	8000cb6 <assert_failed>
 8003b2a:	6863      	ldr	r3, [r4, #4]
 8003b2c:	f5b3 4f00 	cmp.w	r3, #32768	; 0x8000
 8003b30:	d009      	beq.n	8003b46 <HAL_TIM_ConfigClockSource+0x342>
 8003b32:	f033 0202 	bics.w	r2, r3, #2
 8003b36:	d006      	beq.n	8003b46 <HAL_TIM_ConfigClockSource+0x342>
 8003b38:	2b0a      	cmp	r3, #10
 8003b3a:	d004      	beq.n	8003b46 <HAL_TIM_ConfigClockSource+0x342>
 8003b3c:	f241 1112 	movw	r1, #4370	; 0x1112
 8003b40:	4835      	ldr	r0, [pc, #212]	; (8003c18 <HAL_TIM_ConfigClockSource+0x414>)
 8003b42:	f7fd f8b8 	bl	8000cb6 <assert_failed>
 8003b46:	68e3      	ldr	r3, [r4, #12]
 8003b48:	2b0f      	cmp	r3, #15
 8003b4a:	d904      	bls.n	8003b56 <HAL_TIM_ConfigClockSource+0x352>
 8003b4c:	f241 1113 	movw	r1, #4371	; 0x1113
 8003b50:	4831      	ldr	r0, [pc, #196]	; (8003c18 <HAL_TIM_ConfigClockSource+0x414>)
 8003b52:	f7fd f8b0 	bl	8000cb6 <assert_failed>
 8003b56:	682b      	ldr	r3, [r5, #0]
 8003b58:	6861      	ldr	r1, [r4, #4]
 8003b5a:	6a18      	ldr	r0, [r3, #32]
 8003b5c:	68e6      	ldr	r6, [r4, #12]
 8003b5e:	6a1c      	ldr	r4, [r3, #32]
 8003b60:	f020 000a 	bic.w	r0, r0, #10
 8003b64:	f024 0401 	bic.w	r4, r4, #1
 8003b68:	621c      	str	r4, [r3, #32]
 8003b6a:	699a      	ldr	r2, [r3, #24]
 8003b6c:	4301      	orrs	r1, r0
 8003b6e:	f022 02f0 	bic.w	r2, r2, #240	; 0xf0
 8003b72:	ea42 1206 	orr.w	r2, r2, r6, lsl #4
 8003b76:	619a      	str	r2, [r3, #24]
 8003b78:	6219      	str	r1, [r3, #32]
 8003b7a:	689a      	ldr	r2, [r3, #8]
 8003b7c:	f022 0270 	bic.w	r2, r2, #112	; 0x70
 8003b80:	f042 0257 	orr.w	r2, r2, #87	; 0x57
 8003b84:	609a      	str	r2, [r3, #8]
 8003b86:	e66c      	b.n	8003862 <HAL_TIM_ConfigClockSource+0x5e>
 8003b88:	f1b3 4f80 	cmp.w	r3, #1073741824	; 0x40000000
 8003b8c:	d013      	beq.n	8003bb6 <HAL_TIM_ConfigClockSource+0x3b2>
 8003b8e:	4a21      	ldr	r2, [pc, #132]	; (8003c14 <HAL_TIM_ConfigClockSource+0x410>)
 8003b90:	4293      	cmp	r3, r2
 8003b92:	d010      	beq.n	8003bb6 <HAL_TIM_ConfigClockSource+0x3b2>
 8003b94:	f502 6280 	add.w	r2, r2, #1024	; 0x400
 8003b98:	4293      	cmp	r3, r2
 8003b9a:	d00c      	beq.n	8003bb6 <HAL_TIM_ConfigClockSource+0x3b2>
 8003b9c:	f502 6280 	add.w	r2, r2, #1024	; 0x400
 8003ba0:	4293      	cmp	r3, r2
 8003ba2:	d008      	beq.n	8003bb6 <HAL_TIM_ConfigClockSource+0x3b2>
 8003ba4:	f502 427c 	add.w	r2, r2, #64512	; 0xfc00
 8003ba8:	4293      	cmp	r3, r2
 8003baa:	d004      	beq.n	8003bb6 <HAL_TIM_ConfigClockSource+0x3b2>
 8003bac:	f241 112f 	movw	r1, #4399	; 0x112f
 8003bb0:	4819      	ldr	r0, [pc, #100]	; (8003c18 <HAL_TIM_ConfigClockSource+0x414>)
 8003bb2:	f7fd f880 	bl	8000cb6 <assert_failed>
 8003bb6:	6863      	ldr	r3, [r4, #4]
 8003bb8:	f5b3 4f00 	cmp.w	r3, #32768	; 0x8000
 8003bbc:	d009      	beq.n	8003bd2 <HAL_TIM_ConfigClockSource+0x3ce>
 8003bbe:	f033 0202 	bics.w	r2, r3, #2
 8003bc2:	d006      	beq.n	8003bd2 <HAL_TIM_ConfigClockSource+0x3ce>
 8003bc4:	2b0a      	cmp	r3, #10
 8003bc6:	d004      	beq.n	8003bd2 <HAL_TIM_ConfigClockSource+0x3ce>
 8003bc8:	f241 1132 	movw	r1, #4402	; 0x1132
 8003bcc:	4812      	ldr	r0, [pc, #72]	; (8003c18 <HAL_TIM_ConfigClockSource+0x414>)
 8003bce:	f7fd f872 	bl	8000cb6 <assert_failed>
 8003bd2:	68e3      	ldr	r3, [r4, #12]
 8003bd4:	2b0f      	cmp	r3, #15
 8003bd6:	d904      	bls.n	8003be2 <HAL_TIM_ConfigClockSource+0x3de>
 8003bd8:	f241 1133 	movw	r1, #4403	; 0x1133
 8003bdc:	480e      	ldr	r0, [pc, #56]	; (8003c18 <HAL_TIM_ConfigClockSource+0x414>)
 8003bde:	f7fd f86a 	bl	8000cb6 <assert_failed>
 8003be2:	682b      	ldr	r3, [r5, #0]
 8003be4:	6861      	ldr	r1, [r4, #4]
 8003be6:	6a18      	ldr	r0, [r3, #32]
 8003be8:	68e6      	ldr	r6, [r4, #12]
 8003bea:	6a1c      	ldr	r4, [r3, #32]
 8003bec:	f020 000a 	bic.w	r0, r0, #10
 8003bf0:	f024 0401 	bic.w	r4, r4, #1
 8003bf4:	621c      	str	r4, [r3, #32]
 8003bf6:	699a      	ldr	r2, [r3, #24]
 8003bf8:	4301      	orrs	r1, r0
 8003bfa:	f022 02f0 	bic.w	r2, r2, #240	; 0xf0
 8003bfe:	ea42 1206 	orr.w	r2, r2, r6, lsl #4
 8003c02:	619a      	str	r2, [r3, #24]
 8003c04:	6219      	str	r1, [r3, #32]
 8003c06:	689a      	ldr	r2, [r3, #8]
 8003c08:	f022 0270 	bic.w	r2, r2, #112	; 0x70
 8003c0c:	f042 0247 	orr.w	r2, r2, #71	; 0x47
 8003c10:	e7b8      	b.n	8003b84 <HAL_TIM_ConfigClockSource+0x380>
 8003c12:	bf00      	nop
 8003c14:	40000400 	.word	0x40000400
 8003c18:	08006375 	.word	0x08006375

08003c1c <HAL_TIM_OC_DelayElapsedCallback>:
 8003c1c:	4770      	bx	lr

08003c1e <HAL_TIM_IC_CaptureCallback>:
 8003c1e:	4770      	bx	lr

08003c20 <HAL_TIM_PWM_PulseFinishedCallback>:
 8003c20:	4770      	bx	lr

08003c22 <HAL_TIM_TriggerCallback>:
 8003c22:	4770      	bx	lr

08003c24 <HAL_TIM_IRQHandler>:
 8003c24:	6803      	ldr	r3, [r0, #0]
 8003c26:	b510      	push	{r4, lr}
 8003c28:	691a      	ldr	r2, [r3, #16]
 8003c2a:	4604      	mov	r4, r0
 8003c2c:	0791      	lsls	r1, r2, #30
 8003c2e:	d50e      	bpl.n	8003c4e <HAL_TIM_IRQHandler+0x2a>
 8003c30:	68da      	ldr	r2, [r3, #12]
 8003c32:	0792      	lsls	r2, r2, #30
 8003c34:	d50b      	bpl.n	8003c4e <HAL_TIM_IRQHandler+0x2a>
 8003c36:	f06f 0202 	mvn.w	r2, #2
 8003c3a:	611a      	str	r2, [r3, #16]
 8003c3c:	2201      	movs	r2, #1
 8003c3e:	699b      	ldr	r3, [r3, #24]
 8003c40:	7602      	strb	r2, [r0, #24]
 8003c42:	0799      	lsls	r1, r3, #30
 8003c44:	d05c      	beq.n	8003d00 <HAL_TIM_IRQHandler+0xdc>
 8003c46:	f7ff ffea 	bl	8003c1e <HAL_TIM_IC_CaptureCallback>
 8003c4a:	2300      	movs	r3, #0
 8003c4c:	7623      	strb	r3, [r4, #24]
 8003c4e:	6823      	ldr	r3, [r4, #0]
 8003c50:	691a      	ldr	r2, [r3, #16]
 8003c52:	0752      	lsls	r2, r2, #29
 8003c54:	d510      	bpl.n	8003c78 <HAL_TIM_IRQHandler+0x54>
 8003c56:	68da      	ldr	r2, [r3, #12]
 8003c58:	0750      	lsls	r0, r2, #29
 8003c5a:	d50d      	bpl.n	8003c78 <HAL_TIM_IRQHandler+0x54>
 8003c5c:	f06f 0204 	mvn.w	r2, #4
 8003c60:	611a      	str	r2, [r3, #16]
 8003c62:	2202      	movs	r2, #2
 8003c64:	699b      	ldr	r3, [r3, #24]
 8003c66:	7622      	strb	r2, [r4, #24]
 8003c68:	f413 7f40 	tst.w	r3, #768	; 0x300
 8003c6c:	4620      	mov	r0, r4
 8003c6e:	d04d      	beq.n	8003d0c <HAL_TIM_IRQHandler+0xe8>
 8003c70:	f7ff ffd5 	bl	8003c1e <HAL_TIM_IC_CaptureCallback>
 8003c74:	2300      	movs	r3, #0
 8003c76:	7623      	strb	r3, [r4, #24]
 8003c78:	6823      	ldr	r3, [r4, #0]
 8003c7a:	691a      	ldr	r2, [r3, #16]
 8003c7c:	0711      	lsls	r1, r2, #28
 8003c7e:	d50f      	bpl.n	8003ca0 <HAL_TIM_IRQHandler+0x7c>
 8003c80:	68da      	ldr	r2, [r3, #12]
 8003c82:	0712      	lsls	r2, r2, #28
 8003c84:	d50c      	bpl.n	8003ca0 <HAL_TIM_IRQHandler+0x7c>
 8003c86:	f06f 0208 	mvn.w	r2, #8
 8003c8a:	611a      	str	r2, [r3, #16]
 8003c8c:	2204      	movs	r2, #4
 8003c8e:	69db      	ldr	r3, [r3, #28]
 8003c90:	7622      	strb	r2, [r4, #24]
 8003c92:	079b      	lsls	r3, r3, #30
 8003c94:	4620      	mov	r0, r4
 8003c96:	d03f      	beq.n	8003d18 <HAL_TIM_IRQHandler+0xf4>
 8003c98:	f7ff ffc1 	bl	8003c1e <HAL_TIM_IC_CaptureCallback>
 8003c9c:	2300      	movs	r3, #0
 8003c9e:	7623      	strb	r3, [r4, #24]
 8003ca0:	6823      	ldr	r3, [r4, #0]
 8003ca2:	691a      	ldr	r2, [r3, #16]
 8003ca4:	06d0      	lsls	r0, r2, #27
 8003ca6:	d510      	bpl.n	8003cca <HAL_TIM_IRQHandler+0xa6>
 8003ca8:	68da      	ldr	r2, [r3, #12]
 8003caa:	06d1      	lsls	r1, r2, #27
 8003cac:	d50d      	bpl.n	8003cca <HAL_TIM_IRQHandler+0xa6>
 8003cae:	f06f 0210 	mvn.w	r2, #16
 8003cb2:	611a      	str	r2, [r3, #16]
 8003cb4:	2208      	movs	r2, #8
 8003cb6:	69db      	ldr	r3, [r3, #28]
 8003cb8:	7622      	strb	r2, [r4, #24]
 8003cba:	f413 7f40 	tst.w	r3, #768	; 0x300
 8003cbe:	4620      	mov	r0, r4
 8003cc0:	d030      	beq.n	8003d24 <HAL_TIM_IRQHandler+0x100>
 8003cc2:	f7ff ffac 	bl	8003c1e <HAL_TIM_IC_CaptureCallback>
 8003cc6:	2300      	movs	r3, #0
 8003cc8:	7623      	strb	r3, [r4, #24]
 8003cca:	6823      	ldr	r3, [r4, #0]
 8003ccc:	691a      	ldr	r2, [r3, #16]
 8003cce:	07d2      	lsls	r2, r2, #31
 8003cd0:	d508      	bpl.n	8003ce4 <HAL_TIM_IRQHandler+0xc0>
 8003cd2:	68da      	ldr	r2, [r3, #12]
 8003cd4:	07d0      	lsls	r0, r2, #31
 8003cd6:	d505      	bpl.n	8003ce4 <HAL_TIM_IRQHandler+0xc0>
 8003cd8:	f06f 0201 	mvn.w	r2, #1
 8003cdc:	4620      	mov	r0, r4
 8003cde:	611a      	str	r2, [r3, #16]
 8003ce0:	f7fc ffde 	bl	8000ca0 <HAL_TIM_PeriodElapsedCallback>
 8003ce4:	6823      	ldr	r3, [r4, #0]
 8003ce6:	691a      	ldr	r2, [r3, #16]
 8003ce8:	0651      	lsls	r1, r2, #25
 8003cea:	d508      	bpl.n	8003cfe <HAL_TIM_IRQHandler+0xda>
 8003cec:	68da      	ldr	r2, [r3, #12]
 8003cee:	0652      	lsls	r2, r2, #25
 8003cf0:	d505      	bpl.n	8003cfe <HAL_TIM_IRQHandler+0xda>
 8003cf2:	f06f 0240 	mvn.w	r2, #64	; 0x40
 8003cf6:	4620      	mov	r0, r4
 8003cf8:	611a      	str	r2, [r3, #16]
 8003cfa:	f7ff ff92 	bl	8003c22 <HAL_TIM_TriggerCallback>
 8003cfe:	bd10      	pop	{r4, pc}
 8003d00:	f7ff ff8c 	bl	8003c1c <HAL_TIM_OC_DelayElapsedCallback>
 8003d04:	4620      	mov	r0, r4
 8003d06:	f7ff ff8b 	bl	8003c20 <HAL_TIM_PWM_PulseFinishedCallback>
 8003d0a:	e79e      	b.n	8003c4a <HAL_TIM_IRQHandler+0x26>
 8003d0c:	f7ff ff86 	bl	8003c1c <HAL_TIM_OC_DelayElapsedCallback>
 8003d10:	4620      	mov	r0, r4
 8003d12:	f7ff ff85 	bl	8003c20 <HAL_TIM_PWM_PulseFinishedCallback>
 8003d16:	e7ad      	b.n	8003c74 <HAL_TIM_IRQHandler+0x50>
 8003d18:	f7ff ff80 	bl	8003c1c <HAL_TIM_OC_DelayElapsedCallback>
 8003d1c:	4620      	mov	r0, r4
 8003d1e:	f7ff ff7f 	bl	8003c20 <HAL_TIM_PWM_PulseFinishedCallback>
 8003d22:	e7bb      	b.n	8003c9c <HAL_TIM_IRQHandler+0x78>
 8003d24:	f7ff ff7a 	bl	8003c1c <HAL_TIM_OC_DelayElapsedCallback>
 8003d28:	4620      	mov	r0, r4
 8003d2a:	f7ff ff79 	bl	8003c20 <HAL_TIM_PWM_PulseFinishedCallback>
 8003d2e:	e7ca      	b.n	8003cc6 <HAL_TIM_IRQHandler+0xa2>

08003d30 <HAL_TIMEx_MasterConfigSynchronization>:
 8003d30:	b538      	push	{r3, r4, r5, lr}
 8003d32:	6803      	ldr	r3, [r0, #0]
 8003d34:	4604      	mov	r4, r0
 8003d36:	f1b3 4f80 	cmp.w	r3, #1073741824	; 0x40000000
 8003d3a:	460d      	mov	r5, r1
 8003d3c:	d012      	beq.n	8003d64 <HAL_TIMEx_MasterConfigSynchronization+0x34>
 8003d3e:	4a20      	ldr	r2, [pc, #128]	; (8003dc0 <HAL_TIMEx_MasterConfigSynchronization+0x90>)
 8003d40:	4293      	cmp	r3, r2
 8003d42:	d00f      	beq.n	8003d64 <HAL_TIMEx_MasterConfigSynchronization+0x34>
 8003d44:	f502 6280 	add.w	r2, r2, #1024	; 0x400
 8003d48:	4293      	cmp	r3, r2
 8003d4a:	d00b      	beq.n	8003d64 <HAL_TIMEx_MasterConfigSynchronization+0x34>
 8003d4c:	f502 6280 	add.w	r2, r2, #1024	; 0x400
 8003d50:	4293      	cmp	r3, r2
 8003d52:	d007      	beq.n	8003d64 <HAL_TIMEx_MasterConfigSynchronization+0x34>
 8003d54:	f502 427c 	add.w	r2, r2, #64512	; 0xfc00
 8003d58:	4293      	cmp	r3, r2
 8003d5a:	d003      	beq.n	8003d64 <HAL_TIMEx_MasterConfigSynchronization+0x34>
 8003d5c:	215a      	movs	r1, #90	; 0x5a
 8003d5e:	4819      	ldr	r0, [pc, #100]	; (8003dc4 <HAL_TIMEx_MasterConfigSynchronization+0x94>)
 8003d60:	f7fc ffa9 	bl	8000cb6 <assert_failed>
 8003d64:	682b      	ldr	r3, [r5, #0]
 8003d66:	f033 0330 	bics.w	r3, r3, #48	; 0x30
 8003d6a:	d005      	beq.n	8003d78 <HAL_TIMEx_MasterConfigSynchronization+0x48>
 8003d6c:	2b40      	cmp	r3, #64	; 0x40
 8003d6e:	d003      	beq.n	8003d78 <HAL_TIMEx_MasterConfigSynchronization+0x48>
 8003d70:	215b      	movs	r1, #91	; 0x5b
 8003d72:	4814      	ldr	r0, [pc, #80]	; (8003dc4 <HAL_TIMEx_MasterConfigSynchronization+0x94>)
 8003d74:	f7fc ff9f 	bl	8000cb6 <assert_failed>
 8003d78:	686b      	ldr	r3, [r5, #4]
 8003d7a:	f033 0380 	bics.w	r3, r3, #128	; 0x80
 8003d7e:	d003      	beq.n	8003d88 <HAL_TIMEx_MasterConfigSynchronization+0x58>
 8003d80:	215c      	movs	r1, #92	; 0x5c
 8003d82:	4810      	ldr	r0, [pc, #64]	; (8003dc4 <HAL_TIMEx_MasterConfigSynchronization+0x94>)
 8003d84:	f7fc ff97 	bl	8000cb6 <assert_failed>
 8003d88:	f894 3038 	ldrb.w	r3, [r4, #56]	; 0x38
 8003d8c:	2002      	movs	r0, #2
 8003d8e:	2b01      	cmp	r3, #1
 8003d90:	d014      	beq.n	8003dbc <HAL_TIMEx_MasterConfigSynchronization+0x8c>
 8003d92:	6821      	ldr	r1, [r4, #0]
 8003d94:	f884 0039 	strb.w	r0, [r4, #57]	; 0x39
 8003d98:	684a      	ldr	r2, [r1, #4]
 8003d9a:	6828      	ldr	r0, [r5, #0]
 8003d9c:	688b      	ldr	r3, [r1, #8]
 8003d9e:	f022 0270 	bic.w	r2, r2, #112	; 0x70
 8003da2:	4302      	orrs	r2, r0
 8003da4:	6868      	ldr	r0, [r5, #4]
 8003da6:	f023 0380 	bic.w	r3, r3, #128	; 0x80
 8003daa:	4303      	orrs	r3, r0
 8003dac:	604a      	str	r2, [r1, #4]
 8003dae:	2000      	movs	r0, #0
 8003db0:	608b      	str	r3, [r1, #8]
 8003db2:	2301      	movs	r3, #1
 8003db4:	f884 0038 	strb.w	r0, [r4, #56]	; 0x38
 8003db8:	f884 3039 	strb.w	r3, [r4, #57]	; 0x39
 8003dbc:	bd38      	pop	{r3, r4, r5, pc}
 8003dbe:	bf00      	nop
 8003dc0:	40000400 	.word	0x40000400
 8003dc4:	080063ad 	.word	0x080063ad

08003dc8 <UART_EndRxTransfer>:
 8003dc8:	6803      	ldr	r3, [r0, #0]
 8003dca:	68da      	ldr	r2, [r3, #12]
 8003dcc:	f422 7290 	bic.w	r2, r2, #288	; 0x120
 8003dd0:	60da      	str	r2, [r3, #12]
 8003dd2:	695a      	ldr	r2, [r3, #20]
 8003dd4:	f022 0201 	bic.w	r2, r2, #1
 8003dd8:	615a      	str	r2, [r3, #20]
 8003dda:	2320      	movs	r3, #32
 8003ddc:	f880 303a 	strb.w	r3, [r0, #58]	; 0x3a
 8003de0:	4770      	bx	lr
	...

08003de4 <UART_SetConfig>:
 8003de4:	b538      	push	{r3, r4, r5, lr}
 8003de6:	6842      	ldr	r2, [r0, #4]
 8003de8:	4b42      	ldr	r3, [pc, #264]	; (8003ef4 <UART_SetConfig+0x110>)
 8003dea:	4605      	mov	r5, r0
 8003dec:	429a      	cmp	r2, r3
 8003dee:	d904      	bls.n	8003dfa <UART_SetConfig+0x16>
 8003df0:	f640 31e2 	movw	r1, #3042	; 0xbe2
 8003df4:	4840      	ldr	r0, [pc, #256]	; (8003ef8 <UART_SetConfig+0x114>)
 8003df6:	f7fc ff5e 	bl	8000cb6 <assert_failed>
 8003dfa:	68eb      	ldr	r3, [r5, #12]
 8003dfc:	f433 5300 	bics.w	r3, r3, #8192	; 0x2000
 8003e00:	d004      	beq.n	8003e0c <UART_SetConfig+0x28>
 8003e02:	f640 31e3 	movw	r1, #3043	; 0xbe3
 8003e06:	483c      	ldr	r0, [pc, #240]	; (8003ef8 <UART_SetConfig+0x114>)
 8003e08:	f7fc ff55 	bl	8000cb6 <assert_failed>
 8003e0c:	692b      	ldr	r3, [r5, #16]
 8003e0e:	f433 6280 	bics.w	r2, r3, #1024	; 0x400
 8003e12:	d007      	beq.n	8003e24 <UART_SetConfig+0x40>
 8003e14:	f5b3 6fc0 	cmp.w	r3, #1536	; 0x600
 8003e18:	d004      	beq.n	8003e24 <UART_SetConfig+0x40>
 8003e1a:	f640 31e4 	movw	r1, #3044	; 0xbe4
 8003e1e:	4836      	ldr	r0, [pc, #216]	; (8003ef8 <UART_SetConfig+0x114>)
 8003e20:	f7fc ff49 	bl	8000cb6 <assert_failed>
 8003e24:	f64f 72f3 	movw	r2, #65523	; 0xfff3
 8003e28:	696b      	ldr	r3, [r5, #20]
 8003e2a:	4213      	tst	r3, r2
 8003e2c:	d100      	bne.n	8003e30 <UART_SetConfig+0x4c>
 8003e2e:	b923      	cbnz	r3, 8003e3a <UART_SetConfig+0x56>
 8003e30:	f640 31e5 	movw	r1, #3045	; 0xbe5
 8003e34:	4830      	ldr	r0, [pc, #192]	; (8003ef8 <UART_SetConfig+0x114>)
 8003e36:	f7fc ff3e 	bl	8000cb6 <assert_failed>
 8003e3a:	682a      	ldr	r2, [r5, #0]
 8003e3c:	68e9      	ldr	r1, [r5, #12]
 8003e3e:	6913      	ldr	r3, [r2, #16]
 8003e40:	692c      	ldr	r4, [r5, #16]
 8003e42:	f423 5340 	bic.w	r3, r3, #12288	; 0x3000
 8003e46:	430b      	orrs	r3, r1
 8003e48:	6113      	str	r3, [r2, #16]
 8003e4a:	68ab      	ldr	r3, [r5, #8]
 8003e4c:	68d1      	ldr	r1, [r2, #12]
 8003e4e:	4323      	orrs	r3, r4
 8003e50:	696c      	ldr	r4, [r5, #20]
 8003e52:	69e8      	ldr	r0, [r5, #28]
 8003e54:	4323      	orrs	r3, r4
 8003e56:	f421 4116 	bic.w	r1, r1, #38400	; 0x9600
 8003e5a:	f021 010c 	bic.w	r1, r1, #12
 8003e5e:	4303      	orrs	r3, r0
 8003e60:	430b      	orrs	r3, r1
 8003e62:	60d3      	str	r3, [r2, #12]
 8003e64:	6953      	ldr	r3, [r2, #20]
 8003e66:	69a9      	ldr	r1, [r5, #24]
 8003e68:	f423 7340 	bic.w	r3, r3, #768	; 0x300
 8003e6c:	430b      	orrs	r3, r1
 8003e6e:	f5b0 4f00 	cmp.w	r0, #32768	; 0x8000
 8003e72:	6153      	str	r3, [r2, #20]
 8003e74:	4b21      	ldr	r3, [pc, #132]	; (8003efc <UART_SetConfig+0x118>)
 8003e76:	d121      	bne.n	8003ebc <UART_SetConfig+0xd8>
 8003e78:	429a      	cmp	r2, r3
 8003e7a:	f04f 0419 	mov.w	r4, #25
 8003e7e:	d11a      	bne.n	8003eb6 <UART_SetConfig+0xd2>
 8003e80:	f7ff f95a 	bl	8003138 <HAL_RCC_GetPCLK2Freq>
 8003e84:	4360      	muls	r0, r4
 8003e86:	686c      	ldr	r4, [r5, #4]
 8003e88:	2164      	movs	r1, #100	; 0x64
 8003e8a:	0064      	lsls	r4, r4, #1
 8003e8c:	fbb0 f0f4 	udiv	r0, r0, r4
 8003e90:	fbb0 f4f1 	udiv	r4, r0, r1
 8003e94:	fb01 0314 	mls	r3, r1, r4, r0
 8003e98:	00db      	lsls	r3, r3, #3
 8003e9a:	3332      	adds	r3, #50	; 0x32
 8003e9c:	fbb3 f3f1 	udiv	r3, r3, r1
 8003ea0:	f003 0207 	and.w	r2, r3, #7
 8003ea4:	005b      	lsls	r3, r3, #1
 8003ea6:	6829      	ldr	r1, [r5, #0]
 8003ea8:	eb02 1204 	add.w	r2, r2, r4, lsl #4
 8003eac:	f403 73f8 	and.w	r3, r3, #496	; 0x1f0
 8003eb0:	4413      	add	r3, r2
 8003eb2:	608b      	str	r3, [r1, #8]
 8003eb4:	bd38      	pop	{r3, r4, r5, pc}
 8003eb6:	f7ff f92f 	bl	8003118 <HAL_RCC_GetPCLK1Freq>
 8003eba:	e7e3      	b.n	8003e84 <UART_SetConfig+0xa0>
 8003ebc:	429a      	cmp	r2, r3
 8003ebe:	f04f 0419 	mov.w	r4, #25
 8003ec2:	d114      	bne.n	8003eee <UART_SetConfig+0x10a>
 8003ec4:	f7ff f938 	bl	8003138 <HAL_RCC_GetPCLK2Freq>
 8003ec8:	4360      	muls	r0, r4
 8003eca:	686c      	ldr	r4, [r5, #4]
 8003ecc:	2264      	movs	r2, #100	; 0x64
 8003ece:	00a4      	lsls	r4, r4, #2
 8003ed0:	fbb0 f0f4 	udiv	r0, r0, r4
 8003ed4:	fbb0 f1f2 	udiv	r1, r0, r2
 8003ed8:	fb02 0311 	mls	r3, r2, r1, r0
 8003edc:	011b      	lsls	r3, r3, #4
 8003ede:	3332      	adds	r3, #50	; 0x32
 8003ee0:	fbb3 f3f2 	udiv	r3, r3, r2
 8003ee4:	682c      	ldr	r4, [r5, #0]
 8003ee6:	eb03 1301 	add.w	r3, r3, r1, lsl #4
 8003eea:	60a3      	str	r3, [r4, #8]
 8003eec:	e7e2      	b.n	8003eb4 <UART_SetConfig+0xd0>
 8003eee:	f7ff f913 	bl	8003118 <HAL_RCC_GetPCLK1Freq>
 8003ef2:	e7e9      	b.n	8003ec8 <UART_SetConfig+0xe4>
 8003ef4:	003d0900 	.word	0x003d0900
 8003ef8:	080063e8 	.word	0x080063e8
 8003efc:	40013800 	.word	0x40013800

08003f00 <UART_WaitOnFlagUntilTimeout.constprop.3>:
 8003f00:	b5f8      	push	{r3, r4, r5, r6, r7, lr}
 8003f02:	4604      	mov	r4, r0
 8003f04:	460e      	mov	r6, r1
 8003f06:	4617      	mov	r7, r2
 8003f08:	461d      	mov	r5, r3
 8003f0a:	6821      	ldr	r1, [r4, #0]
 8003f0c:	680b      	ldr	r3, [r1, #0]
 8003f0e:	ea36 0303 	bics.w	r3, r6, r3
 8003f12:	d101      	bne.n	8003f18 <UART_WaitOnFlagUntilTimeout.constprop.3+0x18>
 8003f14:	2000      	movs	r0, #0
 8003f16:	e014      	b.n	8003f42 <UART_WaitOnFlagUntilTimeout.constprop.3+0x42>
 8003f18:	1c6b      	adds	r3, r5, #1
 8003f1a:	d0f7      	beq.n	8003f0c <UART_WaitOnFlagUntilTimeout.constprop.3+0xc>
 8003f1c:	b995      	cbnz	r5, 8003f44 <UART_WaitOnFlagUntilTimeout.constprop.3+0x44>
 8003f1e:	6823      	ldr	r3, [r4, #0]
 8003f20:	2003      	movs	r0, #3
 8003f22:	68da      	ldr	r2, [r3, #12]
 8003f24:	f422 72d0 	bic.w	r2, r2, #416	; 0x1a0
 8003f28:	60da      	str	r2, [r3, #12]
 8003f2a:	695a      	ldr	r2, [r3, #20]
 8003f2c:	f022 0201 	bic.w	r2, r2, #1
 8003f30:	615a      	str	r2, [r3, #20]
 8003f32:	2320      	movs	r3, #32
 8003f34:	f884 3039 	strb.w	r3, [r4, #57]	; 0x39
 8003f38:	f884 303a 	strb.w	r3, [r4, #58]	; 0x3a
 8003f3c:	2300      	movs	r3, #0
 8003f3e:	f884 3038 	strb.w	r3, [r4, #56]	; 0x38
 8003f42:	bdf8      	pop	{r3, r4, r5, r6, r7, pc}
 8003f44:	f7fd f9b0 	bl	80012a8 <HAL_GetTick>
 8003f48:	1bc0      	subs	r0, r0, r7
 8003f4a:	4285      	cmp	r5, r0
 8003f4c:	d2dd      	bcs.n	8003f0a <UART_WaitOnFlagUntilTimeout.constprop.3+0xa>
 8003f4e:	e7e6      	b.n	8003f1e <UART_WaitOnFlagUntilTimeout.constprop.3+0x1e>

08003f50 <HAL_UART_Init>:
 8003f50:	b510      	push	{r4, lr}
 8003f52:	4604      	mov	r4, r0
 8003f54:	2800      	cmp	r0, #0
 8003f56:	d06c      	beq.n	8004032 <HAL_UART_Init+0xe2>
 8003f58:	6981      	ldr	r1, [r0, #24]
 8003f5a:	6803      	ldr	r3, [r0, #0]
 8003f5c:	4a36      	ldr	r2, [pc, #216]	; (8004038 <HAL_UART_Init+0xe8>)
 8003f5e:	2900      	cmp	r1, #0
 8003f60:	d053      	beq.n	800400a <HAL_UART_Init+0xba>
 8003f62:	4293      	cmp	r3, r2
 8003f64:	d00c      	beq.n	8003f80 <HAL_UART_Init+0x30>
 8003f66:	f5a2 4274 	sub.w	r2, r2, #62464	; 0xf400
 8003f6a:	4293      	cmp	r3, r2
 8003f6c:	d008      	beq.n	8003f80 <HAL_UART_Init+0x30>
 8003f6e:	f502 6280 	add.w	r2, r2, #1024	; 0x400
 8003f72:	4293      	cmp	r3, r2
 8003f74:	d004      	beq.n	8003f80 <HAL_UART_Init+0x30>
 8003f76:	f240 1145 	movw	r1, #325	; 0x145
 8003f7a:	4830      	ldr	r0, [pc, #192]	; (800403c <HAL_UART_Init+0xec>)
 8003f7c:	f7fc fe9b 	bl	8000cb6 <assert_failed>
 8003f80:	69a3      	ldr	r3, [r4, #24]
 8003f82:	f433 7340 	bics.w	r3, r3, #768	; 0x300
 8003f86:	d004      	beq.n	8003f92 <HAL_UART_Init+0x42>
 8003f88:	f44f 71a3 	mov.w	r1, #326	; 0x146
 8003f8c:	482b      	ldr	r0, [pc, #172]	; (800403c <HAL_UART_Init+0xec>)
 8003f8e:	f7fc fe92 	bl	8000cb6 <assert_failed>
 8003f92:	68a3      	ldr	r3, [r4, #8]
 8003f94:	f433 5380 	bics.w	r3, r3, #4096	; 0x1000
 8003f98:	d004      	beq.n	8003fa4 <HAL_UART_Init+0x54>
 8003f9a:	f44f 71a6 	mov.w	r1, #332	; 0x14c
 8003f9e:	4827      	ldr	r0, [pc, #156]	; (800403c <HAL_UART_Init+0xec>)
 8003fa0:	f7fc fe89 	bl	8000cb6 <assert_failed>
 8003fa4:	69e3      	ldr	r3, [r4, #28]
 8003fa6:	f433 4300 	bics.w	r3, r3, #32768	; 0x8000
 8003faa:	d004      	beq.n	8003fb6 <HAL_UART_Init+0x66>
 8003fac:	f240 114d 	movw	r1, #333	; 0x14d
 8003fb0:	4822      	ldr	r0, [pc, #136]	; (800403c <HAL_UART_Init+0xec>)
 8003fb2:	f7fc fe80 	bl	8000cb6 <assert_failed>
 8003fb6:	f894 3039 	ldrb.w	r3, [r4, #57]	; 0x39
 8003fba:	f003 02ff 	and.w	r2, r3, #255	; 0xff
 8003fbe:	b923      	cbnz	r3, 8003fca <HAL_UART_Init+0x7a>
 8003fc0:	f884 2038 	strb.w	r2, [r4, #56]	; 0x38
 8003fc4:	4620      	mov	r0, r4
 8003fc6:	f7fd f8c5 	bl	8001154 <HAL_UART_MspInit>
 8003fca:	2324      	movs	r3, #36	; 0x24
 8003fcc:	6822      	ldr	r2, [r4, #0]
 8003fce:	f884 3039 	strb.w	r3, [r4, #57]	; 0x39
 8003fd2:	68d3      	ldr	r3, [r2, #12]
 8003fd4:	4620      	mov	r0, r4
 8003fd6:	f423 5300 	bic.w	r3, r3, #8192	; 0x2000
 8003fda:	60d3      	str	r3, [r2, #12]
 8003fdc:	f7ff ff02 	bl	8003de4 <UART_SetConfig>
 8003fe0:	6823      	ldr	r3, [r4, #0]
 8003fe2:	2000      	movs	r0, #0
 8003fe4:	691a      	ldr	r2, [r3, #16]
 8003fe6:	f422 4290 	bic.w	r2, r2, #18432	; 0x4800
 8003fea:	611a      	str	r2, [r3, #16]
 8003fec:	695a      	ldr	r2, [r3, #20]
 8003fee:	f022 022a 	bic.w	r2, r2, #42	; 0x2a
 8003ff2:	615a      	str	r2, [r3, #20]
 8003ff4:	68da      	ldr	r2, [r3, #12]
 8003ff6:	f442 5200 	orr.w	r2, r2, #8192	; 0x2000
 8003ffa:	60da      	str	r2, [r3, #12]
 8003ffc:	2320      	movs	r3, #32
 8003ffe:	63e0      	str	r0, [r4, #60]	; 0x3c
 8004000:	f884 3039 	strb.w	r3, [r4, #57]	; 0x39
 8004004:	f884 303a 	strb.w	r3, [r4, #58]	; 0x3a
 8004008:	bd10      	pop	{r4, pc}
 800400a:	4293      	cmp	r3, r2
 800400c:	d0c1      	beq.n	8003f92 <HAL_UART_Init+0x42>
 800400e:	4a0c      	ldr	r2, [pc, #48]	; (8004040 <HAL_UART_Init+0xf0>)
 8004010:	4293      	cmp	r3, r2
 8004012:	d0be      	beq.n	8003f92 <HAL_UART_Init+0x42>
 8004014:	f502 6280 	add.w	r2, r2, #1024	; 0x400
 8004018:	4293      	cmp	r3, r2
 800401a:	d0ba      	beq.n	8003f92 <HAL_UART_Init+0x42>
 800401c:	f502 6280 	add.w	r2, r2, #1024	; 0x400
 8004020:	4293      	cmp	r3, r2
 8004022:	d0b6      	beq.n	8003f92 <HAL_UART_Init+0x42>
 8004024:	f502 6280 	add.w	r2, r2, #1024	; 0x400
 8004028:	4293      	cmp	r3, r2
 800402a:	d0b2      	beq.n	8003f92 <HAL_UART_Init+0x42>
 800402c:	f44f 71a5 	mov.w	r1, #330	; 0x14a
 8004030:	e7ac      	b.n	8003f8c <HAL_UART_Init+0x3c>
 8004032:	2001      	movs	r0, #1
 8004034:	e7e8      	b.n	8004008 <HAL_UART_Init+0xb8>
 8004036:	bf00      	nop
 8004038:	40013800 	.word	0x40013800
 800403c:	080063e8 	.word	0x080063e8
 8004040:	40004400 	.word	0x40004400

08004044 <HAL_UART_Transmit>:
 8004044:	e92d 41f0 	stmdb	sp!, {r4, r5, r6, r7, r8, lr}
 8004048:	461f      	mov	r7, r3
 800404a:	f890 3039 	ldrb.w	r3, [r0, #57]	; 0x39
 800404e:	4604      	mov	r4, r0
 8004050:	2b20      	cmp	r3, #32
 8004052:	460d      	mov	r5, r1
 8004054:	4690      	mov	r8, r2
 8004056:	d14c      	bne.n	80040f2 <HAL_UART_Transmit+0xae>
 8004058:	2900      	cmp	r1, #0
 800405a:	d048      	beq.n	80040ee <HAL_UART_Transmit+0xaa>
 800405c:	2a00      	cmp	r2, #0
 800405e:	d046      	beq.n	80040ee <HAL_UART_Transmit+0xaa>
 8004060:	f890 3038 	ldrb.w	r3, [r0, #56]	; 0x38
 8004064:	2b01      	cmp	r3, #1
 8004066:	d044      	beq.n	80040f2 <HAL_UART_Transmit+0xae>
 8004068:	2301      	movs	r3, #1
 800406a:	f880 3038 	strb.w	r3, [r0, #56]	; 0x38
 800406e:	2300      	movs	r3, #0
 8004070:	63c3      	str	r3, [r0, #60]	; 0x3c
 8004072:	2321      	movs	r3, #33	; 0x21
 8004074:	f880 3039 	strb.w	r3, [r0, #57]	; 0x39
 8004078:	f7fd f916 	bl	80012a8 <HAL_GetTick>
 800407c:	4606      	mov	r6, r0
 800407e:	f8a4 8024 	strh.w	r8, [r4, #36]	; 0x24
 8004082:	f8a4 8026 	strh.w	r8, [r4, #38]	; 0x26
 8004086:	8ce3      	ldrh	r3, [r4, #38]	; 0x26
 8004088:	b29b      	uxth	r3, r3
 800408a:	b963      	cbnz	r3, 80040a6 <HAL_UART_Transmit+0x62>
 800408c:	463b      	mov	r3, r7
 800408e:	4632      	mov	r2, r6
 8004090:	2140      	movs	r1, #64	; 0x40
 8004092:	4620      	mov	r0, r4
 8004094:	f7ff ff34 	bl	8003f00 <UART_WaitOnFlagUntilTimeout.constprop.3>
 8004098:	b9a0      	cbnz	r0, 80040c4 <HAL_UART_Transmit+0x80>
 800409a:	2320      	movs	r3, #32
 800409c:	f884 0038 	strb.w	r0, [r4, #56]	; 0x38
 80040a0:	f884 3039 	strb.w	r3, [r4, #57]	; 0x39
 80040a4:	e00f      	b.n	80040c6 <HAL_UART_Transmit+0x82>
 80040a6:	8ce3      	ldrh	r3, [r4, #38]	; 0x26
 80040a8:	4632      	mov	r2, r6
 80040aa:	3b01      	subs	r3, #1
 80040ac:	b29b      	uxth	r3, r3
 80040ae:	84e3      	strh	r3, [r4, #38]	; 0x26
 80040b0:	68a3      	ldr	r3, [r4, #8]
 80040b2:	2180      	movs	r1, #128	; 0x80
 80040b4:	f5b3 5f80 	cmp.w	r3, #4096	; 0x1000
 80040b8:	4620      	mov	r0, r4
 80040ba:	463b      	mov	r3, r7
 80040bc:	d10e      	bne.n	80040dc <HAL_UART_Transmit+0x98>
 80040be:	f7ff ff1f 	bl	8003f00 <UART_WaitOnFlagUntilTimeout.constprop.3>
 80040c2:	b110      	cbz	r0, 80040ca <HAL_UART_Transmit+0x86>
 80040c4:	2003      	movs	r0, #3
 80040c6:	e8bd 81f0 	ldmia.w	sp!, {r4, r5, r6, r7, r8, pc}
 80040ca:	882b      	ldrh	r3, [r5, #0]
 80040cc:	6822      	ldr	r2, [r4, #0]
 80040ce:	f3c3 0308 	ubfx	r3, r3, #0, #9
 80040d2:	6053      	str	r3, [r2, #4]
 80040d4:	6923      	ldr	r3, [r4, #16]
 80040d6:	b943      	cbnz	r3, 80040ea <HAL_UART_Transmit+0xa6>
 80040d8:	3502      	adds	r5, #2
 80040da:	e7d4      	b.n	8004086 <HAL_UART_Transmit+0x42>
 80040dc:	f7ff ff10 	bl	8003f00 <UART_WaitOnFlagUntilTimeout.constprop.3>
 80040e0:	2800      	cmp	r0, #0
 80040e2:	d1ef      	bne.n	80040c4 <HAL_UART_Transmit+0x80>
 80040e4:	6823      	ldr	r3, [r4, #0]
 80040e6:	782a      	ldrb	r2, [r5, #0]
 80040e8:	605a      	str	r2, [r3, #4]
 80040ea:	3501      	adds	r5, #1
 80040ec:	e7cb      	b.n	8004086 <HAL_UART_Transmit+0x42>
 80040ee:	2001      	movs	r0, #1
 80040f0:	e7e9      	b.n	80040c6 <HAL_UART_Transmit+0x82>
 80040f2:	2002      	movs	r0, #2
 80040f4:	e7e7      	b.n	80040c6 <HAL_UART_Transmit+0x82>
	...

080040f8 <HAL_UART_Receive_DMA>:
 80040f8:	4613      	mov	r3, r2
 80040fa:	f890 203a 	ldrb.w	r2, [r0, #58]	; 0x3a
 80040fe:	b573      	push	{r0, r1, r4, r5, r6, lr}
 8004100:	2a20      	cmp	r2, #32
 8004102:	4605      	mov	r5, r0
 8004104:	d138      	bne.n	8004178 <HAL_UART_Receive_DMA+0x80>
 8004106:	2900      	cmp	r1, #0
 8004108:	d034      	beq.n	8004174 <HAL_UART_Receive_DMA+0x7c>
 800410a:	2b00      	cmp	r3, #0
 800410c:	d032      	beq.n	8004174 <HAL_UART_Receive_DMA+0x7c>
 800410e:	f890 2038 	ldrb.w	r2, [r0, #56]	; 0x38
 8004112:	2a01      	cmp	r2, #1
 8004114:	d030      	beq.n	8004178 <HAL_UART_Receive_DMA+0x80>
 8004116:	2201      	movs	r2, #1
 8004118:	2400      	movs	r4, #0
 800411a:	f880 2038 	strb.w	r2, [r0, #56]	; 0x38
 800411e:	2222      	movs	r2, #34	; 0x22
 8004120:	6281      	str	r1, [r0, #40]	; 0x28
 8004122:	8583      	strh	r3, [r0, #44]	; 0x2c
 8004124:	63c4      	str	r4, [r0, #60]	; 0x3c
 8004126:	f880 203a 	strb.w	r2, [r0, #58]	; 0x3a
 800412a:	6b40      	ldr	r0, [r0, #52]	; 0x34
 800412c:	4a13      	ldr	r2, [pc, #76]	; (800417c <HAL_UART_Receive_DMA+0x84>)
 800412e:	682e      	ldr	r6, [r5, #0]
 8004130:	6282      	str	r2, [r0, #40]	; 0x28
 8004132:	4a13      	ldr	r2, [pc, #76]	; (8004180 <HAL_UART_Receive_DMA+0x88>)
 8004134:	62c2      	str	r2, [r0, #44]	; 0x2c
 8004136:	4a13      	ldr	r2, [pc, #76]	; (8004184 <HAL_UART_Receive_DMA+0x8c>)
 8004138:	e9c0 240c 	strd	r2, r4, [r0, #48]	; 0x30
 800413c:	460a      	mov	r2, r1
 800413e:	1d31      	adds	r1, r6, #4
 8004140:	f7fd fd1e 	bl	8001b80 <HAL_DMA_Start_IT>
 8004144:	4620      	mov	r0, r4
 8004146:	682b      	ldr	r3, [r5, #0]
 8004148:	9401      	str	r4, [sp, #4]
 800414a:	681a      	ldr	r2, [r3, #0]
 800414c:	9201      	str	r2, [sp, #4]
 800414e:	685a      	ldr	r2, [r3, #4]
 8004150:	f885 4038 	strb.w	r4, [r5, #56]	; 0x38
 8004154:	9201      	str	r2, [sp, #4]
 8004156:	9a01      	ldr	r2, [sp, #4]
 8004158:	68da      	ldr	r2, [r3, #12]
 800415a:	f442 7280 	orr.w	r2, r2, #256	; 0x100
 800415e:	60da      	str	r2, [r3, #12]
 8004160:	695a      	ldr	r2, [r3, #20]
 8004162:	f042 0201 	orr.w	r2, r2, #1
 8004166:	615a      	str	r2, [r3, #20]
 8004168:	695a      	ldr	r2, [r3, #20]
 800416a:	f042 0240 	orr.w	r2, r2, #64	; 0x40
 800416e:	615a      	str	r2, [r3, #20]
 8004170:	b002      	add	sp, #8
 8004172:	bd70      	pop	{r4, r5, r6, pc}
 8004174:	2001      	movs	r0, #1
 8004176:	e7fb      	b.n	8004170 <HAL_UART_Receive_DMA+0x78>
 8004178:	2002      	movs	r0, #2
 800417a:	e7f9      	b.n	8004170 <HAL_UART_Receive_DMA+0x78>
 800417c:	08004189 	.word	0x08004189
 8004180:	080041c3 	.word	0x080041c3
 8004184:	080041cd 	.word	0x080041cd

08004188 <UART_DMAReceiveCplt>:
 8004188:	b508      	push	{r3, lr}
 800418a:	6803      	ldr	r3, [r0, #0]
 800418c:	6a42      	ldr	r2, [r0, #36]	; 0x24
 800418e:	681b      	ldr	r3, [r3, #0]
 8004190:	f013 0320 	ands.w	r3, r3, #32
 8004194:	d110      	bne.n	80041b8 <UART_DMAReceiveCplt+0x30>
 8004196:	85d3      	strh	r3, [r2, #46]	; 0x2e
 8004198:	6813      	ldr	r3, [r2, #0]
 800419a:	68d9      	ldr	r1, [r3, #12]
 800419c:	f421 7180 	bic.w	r1, r1, #256	; 0x100
 80041a0:	60d9      	str	r1, [r3, #12]
 80041a2:	6959      	ldr	r1, [r3, #20]
 80041a4:	f021 0101 	bic.w	r1, r1, #1
 80041a8:	6159      	str	r1, [r3, #20]
 80041aa:	6959      	ldr	r1, [r3, #20]
 80041ac:	f021 0140 	bic.w	r1, r1, #64	; 0x40
 80041b0:	6159      	str	r1, [r3, #20]
 80041b2:	2320      	movs	r3, #32
 80041b4:	f882 303a 	strb.w	r3, [r2, #58]	; 0x3a
 80041b8:	4610      	mov	r0, r2
 80041ba:	f7fc f9bf 	bl	800053c <HAL_UART_RxCpltCallback>
 80041be:	bd08      	pop	{r3, pc}

080041c0 <HAL_UART_RxHalfCpltCallback>:
 80041c0:	4770      	bx	lr

080041c2 <UART_DMARxHalfCplt>:
 80041c2:	b508      	push	{r3, lr}
 80041c4:	6a40      	ldr	r0, [r0, #36]	; 0x24
 80041c6:	f7ff fffb 	bl	80041c0 <HAL_UART_RxHalfCpltCallback>
 80041ca:	bd08      	pop	{r3, pc}

080041cc <UART_DMAError>:
 80041cc:	6a41      	ldr	r1, [r0, #36]	; 0x24
 80041ce:	b508      	push	{r3, lr}
 80041d0:	680b      	ldr	r3, [r1, #0]
 80041d2:	695a      	ldr	r2, [r3, #20]
 80041d4:	f891 0039 	ldrb.w	r0, [r1, #57]	; 0x39
 80041d8:	2821      	cmp	r0, #33	; 0x21
 80041da:	d10a      	bne.n	80041f2 <UART_DMAError+0x26>
 80041dc:	0612      	lsls	r2, r2, #24
 80041de:	d508      	bpl.n	80041f2 <UART_DMAError+0x26>
 80041e0:	2200      	movs	r2, #0
 80041e2:	84ca      	strh	r2, [r1, #38]	; 0x26
 80041e4:	68da      	ldr	r2, [r3, #12]
 80041e6:	f022 02c0 	bic.w	r2, r2, #192	; 0xc0
 80041ea:	60da      	str	r2, [r3, #12]
 80041ec:	2220      	movs	r2, #32
 80041ee:	f881 2039 	strb.w	r2, [r1, #57]	; 0x39
 80041f2:	695b      	ldr	r3, [r3, #20]
 80041f4:	f891 203a 	ldrb.w	r2, [r1, #58]	; 0x3a
 80041f8:	2a22      	cmp	r2, #34	; 0x22
 80041fa:	d106      	bne.n	800420a <UART_DMAError+0x3e>
 80041fc:	065b      	lsls	r3, r3, #25
 80041fe:	d504      	bpl.n	800420a <UART_DMAError+0x3e>
 8004200:	2300      	movs	r3, #0
 8004202:	4608      	mov	r0, r1
 8004204:	85cb      	strh	r3, [r1, #46]	; 0x2e
 8004206:	f7ff fddf 	bl	8003dc8 <UART_EndRxTransfer>
 800420a:	6bcb      	ldr	r3, [r1, #60]	; 0x3c
 800420c:	4608      	mov	r0, r1
 800420e:	f043 0310 	orr.w	r3, r3, #16
 8004212:	63cb      	str	r3, [r1, #60]	; 0x3c
 8004214:	f7fc f9a8 	bl	8000568 <HAL_UART_ErrorCallback>
 8004218:	bd08      	pop	{r3, pc}
	...

0800421c <osKernelInitialize>:
 800421c:	f3ef 8305 	mrs	r3, IPSR
 8004220:	b113      	cbz	r3, 8004228 <osKernelInitialize+0xc>
 8004222:	f06f 0005 	mvn.w	r0, #5
 8004226:	4770      	bx	lr
 8004228:	f3ef 8310 	mrs	r3, PRIMASK
 800422c:	2b00      	cmp	r3, #0
 800422e:	d1f8      	bne.n	8004222 <osKernelInitialize+0x6>
 8004230:	4b07      	ldr	r3, [pc, #28]	; (8004250 <osKernelInitialize+0x34>)
 8004232:	6818      	ldr	r0, [r3, #0]
 8004234:	2802      	cmp	r0, #2
 8004236:	d106      	bne.n	8004246 <osKernelInitialize+0x2a>
 8004238:	f3ef 8311 	mrs	r3, BASEPRI
 800423c:	2b00      	cmp	r3, #0
 800423e:	d1f0      	bne.n	8004222 <osKernelInitialize+0x6>
 8004240:	f04f 30ff 	mov.w	r0, #4294967295
 8004244:	4770      	bx	lr
 8004246:	2800      	cmp	r0, #0
 8004248:	d1fa      	bne.n	8004240 <osKernelInitialize+0x24>
 800424a:	2201      	movs	r2, #1
 800424c:	601a      	str	r2, [r3, #0]
 800424e:	4770      	bx	lr
 8004250:	20000294 	.word	0x20000294

08004254 <osKernelStart>:
 8004254:	b510      	push	{r4, lr}
 8004256:	f3ef 8305 	mrs	r3, IPSR
 800425a:	b113      	cbz	r3, 8004262 <osKernelStart+0xe>
 800425c:	f06f 0005 	mvn.w	r0, #5
 8004260:	bd10      	pop	{r4, pc}
 8004262:	f3ef 8410 	mrs	r4, PRIMASK
 8004266:	2c00      	cmp	r4, #0
 8004268:	d1f8      	bne.n	800425c <osKernelStart+0x8>
 800426a:	4b09      	ldr	r3, [pc, #36]	; (8004290 <osKernelStart+0x3c>)
 800426c:	681a      	ldr	r2, [r3, #0]
 800426e:	2a02      	cmp	r2, #2
 8004270:	d106      	bne.n	8004280 <osKernelStart+0x2c>
 8004272:	f3ef 8311 	mrs	r3, BASEPRI
 8004276:	2b00      	cmp	r3, #0
 8004278:	d1f0      	bne.n	800425c <osKernelStart+0x8>
 800427a:	f04f 30ff 	mov.w	r0, #4294967295
 800427e:	e7ef      	b.n	8004260 <osKernelStart+0xc>
 8004280:	2a01      	cmp	r2, #1
 8004282:	d1fa      	bne.n	800427a <osKernelStart+0x26>
 8004284:	2202      	movs	r2, #2
 8004286:	601a      	str	r2, [r3, #0]
 8004288:	f000 fea8 	bl	8004fdc <vTaskStartScheduler>
 800428c:	4620      	mov	r0, r4
 800428e:	e7e7      	b.n	8004260 <osKernelStart+0xc>
 8004290:	20000294 	.word	0x20000294

08004294 <osThreadNew>:
 8004294:	b5f0      	push	{r4, r5, r6, r7, lr}
 8004296:	4614      	mov	r4, r2
 8004298:	2200      	movs	r2, #0
 800429a:	b087      	sub	sp, #28
 800429c:	460b      	mov	r3, r1
 800429e:	9205      	str	r2, [sp, #20]
 80042a0:	f3ef 8205 	mrs	r2, IPSR
 80042a4:	bb62      	cbnz	r2, 8004300 <osThreadNew+0x6c>
 80042a6:	f3ef 8210 	mrs	r2, PRIMASK
 80042aa:	bb4a      	cbnz	r2, 8004300 <osThreadNew+0x6c>
 80042ac:	4a26      	ldr	r2, [pc, #152]	; (8004348 <osThreadNew+0xb4>)
 80042ae:	6812      	ldr	r2, [r2, #0]
 80042b0:	2a02      	cmp	r2, #2
 80042b2:	d102      	bne.n	80042ba <osThreadNew+0x26>
 80042b4:	f3ef 8211 	mrs	r2, BASEPRI
 80042b8:	bb12      	cbnz	r2, 8004300 <osThreadNew+0x6c>
 80042ba:	b308      	cbz	r0, 8004300 <osThreadNew+0x6c>
 80042bc:	2200      	movs	r2, #0
 80042be:	f88d 2013 	strb.w	r2, [sp, #19]
 80042c2:	2c00      	cmp	r4, #0
 80042c4:	d039      	beq.n	800433a <osThreadNew+0xa6>
 80042c6:	6821      	ldr	r1, [r4, #0]
 80042c8:	b909      	cbnz	r1, 80042ce <osThreadNew+0x3a>
 80042ca:	f10d 0113 	add.w	r1, sp, #19
 80042ce:	69a5      	ldr	r5, [r4, #24]
 80042d0:	2d00      	cmp	r5, #0
 80042d2:	bf08      	it	eq
 80042d4:	2518      	moveq	r5, #24
 80042d6:	1e6a      	subs	r2, r5, #1
 80042d8:	2a37      	cmp	r2, #55	; 0x37
 80042da:	462f      	mov	r7, r5
 80042dc:	d832      	bhi.n	8004344 <osThreadNew+0xb0>
 80042de:	6862      	ldr	r2, [r4, #4]
 80042e0:	07d2      	lsls	r2, r2, #31
 80042e2:	d42f      	bmi.n	8004344 <osThreadNew+0xb0>
 80042e4:	6966      	ldr	r6, [r4, #20]
 80042e6:	b176      	cbz	r6, 8004306 <osThreadNew+0x72>
 80042e8:	08b2      	lsrs	r2, r6, #2
 80042ea:	e9d4 ce02 	ldrd	ip, lr, [r4, #8]
 80042ee:	f1bc 0f00 	cmp.w	ip, #0
 80042f2:	d00a      	beq.n	800430a <osThreadNew+0x76>
 80042f4:	f1be 0f5b 	cmp.w	lr, #91	; 0x5b
 80042f8:	d902      	bls.n	8004300 <osThreadNew+0x6c>
 80042fa:	6924      	ldr	r4, [r4, #16]
 80042fc:	b104      	cbz	r4, 8004300 <osThreadNew+0x6c>
 80042fe:	b9ae      	cbnz	r6, 800432c <osThreadNew+0x98>
 8004300:	9805      	ldr	r0, [sp, #20]
 8004302:	b007      	add	sp, #28
 8004304:	bdf0      	pop	{r4, r5, r6, r7, pc}
 8004306:	2280      	movs	r2, #128	; 0x80
 8004308:	e7ef      	b.n	80042ea <osThreadNew+0x56>
 800430a:	f1be 0f00 	cmp.w	lr, #0
 800430e:	d1f7      	bne.n	8004300 <osThreadNew+0x6c>
 8004310:	6924      	ldr	r4, [r4, #16]
 8004312:	2c00      	cmp	r4, #0
 8004314:	d1f4      	bne.n	8004300 <osThreadNew+0x6c>
 8004316:	ac05      	add	r4, sp, #20
 8004318:	e9cd 7400 	strd	r7, r4, [sp]
 800431c:	b292      	uxth	r2, r2
 800431e:	f000 fe30 	bl	8004f82 <xTaskCreate>
 8004322:	2801      	cmp	r0, #1
 8004324:	bf1c      	itt	ne
 8004326:	2300      	movne	r3, #0
 8004328:	9305      	strne	r3, [sp, #20]
 800432a:	e7e9      	b.n	8004300 <osThreadNew+0x6c>
 800432c:	e9cd 4c01 	strd	r4, ip, [sp, #4]
 8004330:	9500      	str	r5, [sp, #0]
 8004332:	f000 fdef 	bl	8004f14 <xTaskCreateStatic>
 8004336:	9005      	str	r0, [sp, #20]
 8004338:	e7e2      	b.n	8004300 <osThreadNew+0x6c>
 800433a:	2718      	movs	r7, #24
 800433c:	2280      	movs	r2, #128	; 0x80
 800433e:	f10d 0113 	add.w	r1, sp, #19
 8004342:	e7e8      	b.n	8004316 <osThreadNew+0x82>
 8004344:	2000      	movs	r0, #0
 8004346:	e7dc      	b.n	8004302 <osThreadNew+0x6e>
 8004348:	20000294 	.word	0x20000294

0800434c <osDelay>:
 800434c:	b508      	push	{r3, lr}
 800434e:	f3ef 8305 	mrs	r3, IPSR
 8004352:	b113      	cbz	r3, 800435a <osDelay+0xe>
 8004354:	f06f 0005 	mvn.w	r0, #5
 8004358:	bd08      	pop	{r3, pc}
 800435a:	f3ef 8310 	mrs	r3, PRIMASK
 800435e:	2b00      	cmp	r3, #0
 8004360:	d1f8      	bne.n	8004354 <osDelay+0x8>
 8004362:	4b07      	ldr	r3, [pc, #28]	; (8004380 <osDelay+0x34>)
 8004364:	681b      	ldr	r3, [r3, #0]
 8004366:	2b02      	cmp	r3, #2
 8004368:	d103      	bne.n	8004372 <osDelay+0x26>
 800436a:	f3ef 8311 	mrs	r3, BASEPRI
 800436e:	2b00      	cmp	r3, #0
 8004370:	d1f0      	bne.n	8004354 <osDelay+0x8>
 8004372:	2800      	cmp	r0, #0
 8004374:	d0f0      	beq.n	8004358 <osDelay+0xc>
 8004376:	f000 ff95 	bl	80052a4 <vTaskDelay>
 800437a:	2000      	movs	r0, #0
 800437c:	e7ec      	b.n	8004358 <osDelay+0xc>
 800437e:	bf00      	nop
 8004380:	20000294 	.word	0x20000294

08004384 <vApplicationGetIdleTaskMemory>:
 8004384:	4b03      	ldr	r3, [pc, #12]	; (8004394 <vApplicationGetIdleTaskMemory+0x10>)
 8004386:	6003      	str	r3, [r0, #0]
 8004388:	4b03      	ldr	r3, [pc, #12]	; (8004398 <vApplicationGetIdleTaskMemory+0x14>)
 800438a:	600b      	str	r3, [r1, #0]
 800438c:	2380      	movs	r3, #128	; 0x80
 800438e:	6013      	str	r3, [r2, #0]
 8004390:	4770      	bx	lr
 8004392:	bf00      	nop
 8004394:	20000238 	.word	0x20000238
 8004398:	20000038 	.word	0x20000038

0800439c <vApplicationGetTimerTaskMemory>:
 800439c:	4b03      	ldr	r3, [pc, #12]	; (80043ac <vApplicationGetTimerTaskMemory+0x10>)
 800439e:	6003      	str	r3, [r0, #0]
 80043a0:	4b03      	ldr	r3, [pc, #12]	; (80043b0 <vApplicationGetTimerTaskMemory+0x14>)
 80043a2:	600b      	str	r3, [r1, #0]
 80043a4:	f44f 7380 	mov.w	r3, #256	; 0x100
 80043a8:	6013      	str	r3, [r2, #0]
 80043aa:	4770      	bx	lr
 80043ac:	20000698 	.word	0x20000698
 80043b0:	20000298 	.word	0x20000298

080043b4 <xEventGroupCreate>:
 80043b4:	b538      	push	{r3, r4, r5, lr}
 80043b6:	2020      	movs	r0, #32
 80043b8:	f001 fd70 	bl	8005e9c <pvPortMalloc>
 80043bc:	4604      	mov	r4, r0
 80043be:	b128      	cbz	r0, 80043cc <xEventGroupCreate+0x18>
 80043c0:	2500      	movs	r5, #0
 80043c2:	f840 5b04 	str.w	r5, [r0], #4
 80043c6:	f000 f8db 	bl	8004580 <vListInitialise>
 80043ca:	7725      	strb	r5, [r4, #28]
 80043cc:	4620      	mov	r0, r4
 80043ce:	bd38      	pop	{r3, r4, r5, pc}

080043d0 <xEventGroupWaitBits>:
 80043d0:	e92d 47f0 	stmdb	sp!, {r4, r5, r6, r7, r8, r9, sl, lr}
 80043d4:	9f08      	ldr	r7, [sp, #32]
 80043d6:	460c      	mov	r4, r1
 80043d8:	4690      	mov	r8, r2
 80043da:	4699      	mov	r9, r3
 80043dc:	4606      	mov	r6, r0
 80043de:	b940      	cbnz	r0, 80043f2 <xEventGroupWaitBits+0x22>
 80043e0:	f04f 0350 	mov.w	r3, #80	; 0x50
 80043e4:	f383 8811 	msr	BASEPRI, r3
 80043e8:	f3bf 8f6f 	isb	sy
 80043ec:	f3bf 8f4f 	dsb	sy
 80043f0:	e7fe      	b.n	80043f0 <xEventGroupWaitBits+0x20>
 80043f2:	f011 4a7f 	ands.w	sl, r1, #4278190080	; 0xff000000
 80043f6:	d008      	beq.n	800440a <xEventGroupWaitBits+0x3a>
 80043f8:	f04f 0350 	mov.w	r3, #80	; 0x50
 80043fc:	f383 8811 	msr	BASEPRI, r3
 8004400:	f3bf 8f6f 	isb	sy
 8004404:	f3bf 8f4f 	dsb	sy
 8004408:	e7fe      	b.n	8004408 <xEventGroupWaitBits+0x38>
 800440a:	b941      	cbnz	r1, 800441e <xEventGroupWaitBits+0x4e>
 800440c:	f04f 0350 	mov.w	r3, #80	; 0x50
 8004410:	f383 8811 	msr	BASEPRI, r3
 8004414:	f3bf 8f6f 	isb	sy
 8004418:	f3bf 8f4f 	dsb	sy
 800441c:	e7fe      	b.n	800441c <xEventGroupWaitBits+0x4c>
 800441e:	f001 f93d 	bl	800569c <xTaskGetSchedulerState>
 8004422:	b948      	cbnz	r0, 8004438 <xEventGroupWaitBits+0x68>
 8004424:	b147      	cbz	r7, 8004438 <xEventGroupWaitBits+0x68>
 8004426:	f04f 0350 	mov.w	r3, #80	; 0x50
 800442a:	f383 8811 	msr	BASEPRI, r3
 800442e:	f3bf 8f6f 	isb	sy
 8004432:	f3bf 8f4f 	dsb	sy
 8004436:	e7fe      	b.n	8004436 <xEventGroupWaitBits+0x66>
 8004438:	f000 fe14 	bl	8005064 <vTaskSuspendAll>
 800443c:	6835      	ldr	r5, [r6, #0]
 800443e:	ea04 0305 	and.w	r3, r4, r5
 8004442:	f1b9 0f00 	cmp.w	r9, #0
 8004446:	d115      	bne.n	8004474 <xEventGroupWaitBits+0xa4>
 8004448:	b9b3      	cbnz	r3, 8004478 <xEventGroupWaitBits+0xa8>
 800444a:	2f00      	cmp	r7, #0
 800444c:	d03d      	beq.n	80044ca <xEventGroupWaitBits+0xfa>
 800444e:	f1b8 0f00 	cmp.w	r8, #0
 8004452:	bf0c      	ite	eq
 8004454:	2100      	moveq	r1, #0
 8004456:	f04f 7180 	movne.w	r1, #16777216	; 0x1000000
 800445a:	f1b9 0f00 	cmp.w	r9, #0
 800445e:	d001      	beq.n	8004464 <xEventGroupWaitBits+0x94>
 8004460:	f041 6180 	orr.w	r1, r1, #67108864	; 0x4000000
 8004464:	463a      	mov	r2, r7
 8004466:	4321      	orrs	r1, r4
 8004468:	1d30      	adds	r0, r6, #4
 800446a:	f000 fffb 	bl	8005464 <vTaskPlaceOnUnorderedEventList>
 800446e:	46ba      	mov	sl, r7
 8004470:	2500      	movs	r5, #0
 8004472:	e007      	b.n	8004484 <xEventGroupWaitBits+0xb4>
 8004474:	429c      	cmp	r4, r3
 8004476:	d1e8      	bne.n	800444a <xEventGroupWaitBits+0x7a>
 8004478:	f1b8 0f00 	cmp.w	r8, #0
 800447c:	d002      	beq.n	8004484 <xEventGroupWaitBits+0xb4>
 800447e:	ea25 0304 	bic.w	r3, r5, r4
 8004482:	6033      	str	r3, [r6, #0]
 8004484:	f000 fe9a 	bl	80051bc <xTaskResumeAll>
 8004488:	f1ba 0f00 	cmp.w	sl, #0
 800448c:	d01a      	beq.n	80044c4 <xEventGroupWaitBits+0xf4>
 800448e:	b938      	cbnz	r0, 80044a0 <xEventGroupWaitBits+0xd0>
 8004490:	f04f 5280 	mov.w	r2, #268435456	; 0x10000000
 8004494:	4b12      	ldr	r3, [pc, #72]	; (80044e0 <xEventGroupWaitBits+0x110>)
 8004496:	601a      	str	r2, [r3, #0]
 8004498:	f3bf 8f4f 	dsb	sy
 800449c:	f3bf 8f6f 	isb	sy
 80044a0:	f001 f94e 	bl	8005740 <uxTaskResetEventItemValue>
 80044a4:	0183      	lsls	r3, r0, #6
 80044a6:	4605      	mov	r5, r0
 80044a8:	d40a      	bmi.n	80044c0 <xEventGroupWaitBits+0xf0>
 80044aa:	f001 fbc3 	bl	8005c34 <vPortEnterCritical>
 80044ae:	6835      	ldr	r5, [r6, #0]
 80044b0:	ea04 0305 	and.w	r3, r4, r5
 80044b4:	f1b9 0f00 	cmp.w	r9, #0
 80044b8:	d109      	bne.n	80044ce <xEventGroupWaitBits+0xfe>
 80044ba:	b953      	cbnz	r3, 80044d2 <xEventGroupWaitBits+0x102>
 80044bc:	f001 fbdc 	bl	8005c78 <vPortExitCritical>
 80044c0:	f025 457f 	bic.w	r5, r5, #4278190080	; 0xff000000
 80044c4:	4628      	mov	r0, r5
 80044c6:	e8bd 87f0 	ldmia.w	sp!, {r4, r5, r6, r7, r8, r9, sl, pc}
 80044ca:	46ba      	mov	sl, r7
 80044cc:	e7da      	b.n	8004484 <xEventGroupWaitBits+0xb4>
 80044ce:	429c      	cmp	r4, r3
 80044d0:	d1f4      	bne.n	80044bc <xEventGroupWaitBits+0xec>
 80044d2:	f1b8 0f00 	cmp.w	r8, #0
 80044d6:	d0f1      	beq.n	80044bc <xEventGroupWaitBits+0xec>
 80044d8:	ea25 0404 	bic.w	r4, r5, r4
 80044dc:	6034      	str	r4, [r6, #0]
 80044de:	e7ed      	b.n	80044bc <xEventGroupWaitBits+0xec>
 80044e0:	e000ed04 	.word	0xe000ed04

080044e4 <xEventGroupSetBits>:
 80044e4:	e92d 41f0 	stmdb	sp!, {r4, r5, r6, r7, r8, lr}
 80044e8:	460f      	mov	r7, r1
 80044ea:	4604      	mov	r4, r0
 80044ec:	b940      	cbnz	r0, 8004500 <xEventGroupSetBits+0x1c>
 80044ee:	f04f 0350 	mov.w	r3, #80	; 0x50
 80044f2:	f383 8811 	msr	BASEPRI, r3
 80044f6:	f3bf 8f6f 	isb	sy
 80044fa:	f3bf 8f4f 	dsb	sy
 80044fe:	e7fe      	b.n	80044fe <xEventGroupSetBits+0x1a>
 8004500:	f011 457f 	ands.w	r5, r1, #4278190080	; 0xff000000
 8004504:	d008      	beq.n	8004518 <xEventGroupSetBits+0x34>
 8004506:	f04f 0350 	mov.w	r3, #80	; 0x50
 800450a:	f383 8811 	msr	BASEPRI, r3
 800450e:	f3bf 8f6f 	isb	sy
 8004512:	f3bf 8f4f 	dsb	sy
 8004516:	e7fe      	b.n	8004516 <xEventGroupSetBits+0x32>
 8004518:	f100 060c 	add.w	r6, r0, #12
 800451c:	f000 fda2 	bl	8005064 <vTaskSuspendAll>
 8004520:	6823      	ldr	r3, [r4, #0]
 8004522:	6920      	ldr	r0, [r4, #16]
 8004524:	433b      	orrs	r3, r7
 8004526:	6023      	str	r3, [r4, #0]
 8004528:	4286      	cmp	r6, r0
 800452a:	6821      	ldr	r1, [r4, #0]
 800452c:	d107      	bne.n	800453e <xEventGroupSetBits+0x5a>
 800452e:	ea21 0105 	bic.w	r1, r1, r5
 8004532:	6021      	str	r1, [r4, #0]
 8004534:	f000 fe42 	bl	80051bc <xTaskResumeAll>
 8004538:	6820      	ldr	r0, [r4, #0]
 800453a:	e8bd 81f0 	ldmia.w	sp!, {r4, r5, r6, r7, r8, pc}
 800453e:	e9d0 2800 	ldrd	r2, r8, [r0]
 8004542:	f022 437f 	bic.w	r3, r2, #4278190080	; 0xff000000
 8004546:	f012 6f80 	tst.w	r2, #67108864	; 0x4000000
 800454a:	ea03 0701 	and.w	r7, r3, r1
 800454e:	d102      	bne.n	8004556 <xEventGroupSetBits+0x72>
 8004550:	b91f      	cbnz	r7, 800455a <xEventGroupSetBits+0x76>
 8004552:	4640      	mov	r0, r8
 8004554:	e7e8      	b.n	8004528 <xEventGroupSetBits+0x44>
 8004556:	42bb      	cmp	r3, r7
 8004558:	d1fb      	bne.n	8004552 <xEventGroupSetBits+0x6e>
 800455a:	01d2      	lsls	r2, r2, #7
 800455c:	f041 7100 	orr.w	r1, r1, #33554432	; 0x2000000
 8004560:	bf48      	it	mi
 8004562:	431d      	orrmi	r5, r3
 8004564:	f001 f80a 	bl	800557c <vTaskRemoveFromUnorderedEventList>
 8004568:	e7f3      	b.n	8004552 <xEventGroupSetBits+0x6e>

0800456a <vEventGroupSetBitsCallback>:
 800456a:	f7ff bfbb 	b.w	80044e4 <xEventGroupSetBits>
	...

08004570 <xEventGroupSetBitsFromISR>:
 8004570:	4613      	mov	r3, r2
 8004572:	460a      	mov	r2, r1
 8004574:	4601      	mov	r1, r0
 8004576:	4801      	ldr	r0, [pc, #4]	; (800457c <xEventGroupSetBitsFromISR+0xc>)
 8004578:	f001 baee 	b.w	8005b58 <xTimerPendFunctionCallFromISR>
 800457c:	0800456b 	.word	0x0800456b

08004580 <vListInitialise>:
 8004580:	f04f 32ff 	mov.w	r2, #4294967295
 8004584:	f100 0308 	add.w	r3, r0, #8
 8004588:	6043      	str	r3, [r0, #4]
 800458a:	e9c0 2302 	strd	r2, r3, [r0, #8]
 800458e:	6103      	str	r3, [r0, #16]
 8004590:	2300      	movs	r3, #0
 8004592:	6003      	str	r3, [r0, #0]
 8004594:	4770      	bx	lr

08004596 <vListInitialiseItem>:
 8004596:	2300      	movs	r3, #0
 8004598:	6103      	str	r3, [r0, #16]
 800459a:	4770      	bx	lr

0800459c <vListInsertEnd>:
 800459c:	6843      	ldr	r3, [r0, #4]
 800459e:	689a      	ldr	r2, [r3, #8]
 80045a0:	604b      	str	r3, [r1, #4]
 80045a2:	608a      	str	r2, [r1, #8]
 80045a4:	689a      	ldr	r2, [r3, #8]
 80045a6:	6051      	str	r1, [r2, #4]
 80045a8:	6099      	str	r1, [r3, #8]
 80045aa:	6803      	ldr	r3, [r0, #0]
 80045ac:	6108      	str	r0, [r1, #16]
 80045ae:	3301      	adds	r3, #1
 80045b0:	6003      	str	r3, [r0, #0]
 80045b2:	4770      	bx	lr

080045b4 <vListInsert>:
 80045b4:	680a      	ldr	r2, [r1, #0]
 80045b6:	b530      	push	{r4, r5, lr}
 80045b8:	1c53      	adds	r3, r2, #1
 80045ba:	d10a      	bne.n	80045d2 <vListInsert+0x1e>
 80045bc:	6903      	ldr	r3, [r0, #16]
 80045be:	685a      	ldr	r2, [r3, #4]
 80045c0:	604a      	str	r2, [r1, #4]
 80045c2:	6091      	str	r1, [r2, #8]
 80045c4:	608b      	str	r3, [r1, #8]
 80045c6:	6059      	str	r1, [r3, #4]
 80045c8:	6803      	ldr	r3, [r0, #0]
 80045ca:	6108      	str	r0, [r1, #16]
 80045cc:	3301      	adds	r3, #1
 80045ce:	6003      	str	r3, [r0, #0]
 80045d0:	bd30      	pop	{r4, r5, pc}
 80045d2:	f100 0308 	add.w	r3, r0, #8
 80045d6:	685c      	ldr	r4, [r3, #4]
 80045d8:	6825      	ldr	r5, [r4, #0]
 80045da:	4295      	cmp	r5, r2
 80045dc:	d8ef      	bhi.n	80045be <vListInsert+0xa>
 80045de:	4623      	mov	r3, r4
 80045e0:	e7f9      	b.n	80045d6 <vListInsert+0x22>

080045e2 <uxListRemove>:
 80045e2:	6903      	ldr	r3, [r0, #16]
 80045e4:	e9d0 1201 	ldrd	r1, r2, [r0, #4]
 80045e8:	608a      	str	r2, [r1, #8]
 80045ea:	6882      	ldr	r2, [r0, #8]
 80045ec:	6051      	str	r1, [r2, #4]
 80045ee:	6859      	ldr	r1, [r3, #4]
 80045f0:	4281      	cmp	r1, r0
 80045f2:	bf08      	it	eq
 80045f4:	605a      	streq	r2, [r3, #4]
 80045f6:	2200      	movs	r2, #0
 80045f8:	6102      	str	r2, [r0, #16]
 80045fa:	681a      	ldr	r2, [r3, #0]
 80045fc:	3a01      	subs	r2, #1
 80045fe:	601a      	str	r2, [r3, #0]
 8004600:	6818      	ldr	r0, [r3, #0]
 8004602:	4770      	bx	lr

08004604 <prvIsQueueEmpty>:
 8004604:	b510      	push	{r4, lr}
 8004606:	4604      	mov	r4, r0
 8004608:	f001 fb14 	bl	8005c34 <vPortEnterCritical>
 800460c:	6ba4      	ldr	r4, [r4, #56]	; 0x38
 800460e:	f001 fb33 	bl	8005c78 <vPortExitCritical>
 8004612:	fab4 f084 	clz	r0, r4
 8004616:	0940      	lsrs	r0, r0, #5
 8004618:	bd10      	pop	{r4, pc}

0800461a <prvCopyDataToQueue>:
 800461a:	b570      	push	{r4, r5, r6, lr}
 800461c:	4615      	mov	r5, r2
 800461e:	6c02      	ldr	r2, [r0, #64]	; 0x40
 8004620:	4604      	mov	r4, r0
 8004622:	6b86      	ldr	r6, [r0, #56]	; 0x38
 8004624:	b942      	cbnz	r2, 8004638 <prvCopyDataToQueue+0x1e>
 8004626:	6805      	ldr	r5, [r0, #0]
 8004628:	b99d      	cbnz	r5, 8004652 <prvCopyDataToQueue+0x38>
 800462a:	6840      	ldr	r0, [r0, #4]
 800462c:	f001 f846 	bl	80056bc <xTaskPriorityDisinherit>
 8004630:	6065      	str	r5, [r4, #4]
 8004632:	3601      	adds	r6, #1
 8004634:	63a6      	str	r6, [r4, #56]	; 0x38
 8004636:	bd70      	pop	{r4, r5, r6, pc}
 8004638:	b96d      	cbnz	r5, 8004656 <prvCopyDataToQueue+0x3c>
 800463a:	6880      	ldr	r0, [r0, #8]
 800463c:	f001 fd1c 	bl	8006078 <memcpy>
 8004640:	68a3      	ldr	r3, [r4, #8]
 8004642:	6c22      	ldr	r2, [r4, #64]	; 0x40
 8004644:	4413      	add	r3, r2
 8004646:	6862      	ldr	r2, [r4, #4]
 8004648:	60a3      	str	r3, [r4, #8]
 800464a:	4293      	cmp	r3, r2
 800464c:	d301      	bcc.n	8004652 <prvCopyDataToQueue+0x38>
 800464e:	6823      	ldr	r3, [r4, #0]
 8004650:	60a3      	str	r3, [r4, #8]
 8004652:	2000      	movs	r0, #0
 8004654:	e7ed      	b.n	8004632 <prvCopyDataToQueue+0x18>
 8004656:	68c0      	ldr	r0, [r0, #12]
 8004658:	f001 fd0e 	bl	8006078 <memcpy>
 800465c:	6c23      	ldr	r3, [r4, #64]	; 0x40
 800465e:	68e2      	ldr	r2, [r4, #12]
 8004660:	425b      	negs	r3, r3
 8004662:	6821      	ldr	r1, [r4, #0]
 8004664:	441a      	add	r2, r3
 8004666:	428a      	cmp	r2, r1
 8004668:	60e2      	str	r2, [r4, #12]
 800466a:	bf3e      	ittt	cc
 800466c:	6862      	ldrcc	r2, [r4, #4]
 800466e:	189b      	addcc	r3, r3, r2
 8004670:	60e3      	strcc	r3, [r4, #12]
 8004672:	2d02      	cmp	r5, #2
 8004674:	d1ed      	bne.n	8004652 <prvCopyDataToQueue+0x38>
 8004676:	b10e      	cbz	r6, 800467c <prvCopyDataToQueue+0x62>
 8004678:	3e01      	subs	r6, #1
 800467a:	e7ea      	b.n	8004652 <prvCopyDataToQueue+0x38>
 800467c:	4630      	mov	r0, r6
 800467e:	e7d8      	b.n	8004632 <prvCopyDataToQueue+0x18>

08004680 <prvCopyDataFromQueue>:
 8004680:	4603      	mov	r3, r0
 8004682:	6c1a      	ldr	r2, [r3, #64]	; 0x40
 8004684:	b410      	push	{r4}
 8004686:	4608      	mov	r0, r1
 8004688:	b162      	cbz	r2, 80046a4 <prvCopyDataFromQueue+0x24>
 800468a:	68d9      	ldr	r1, [r3, #12]
 800468c:	685c      	ldr	r4, [r3, #4]
 800468e:	4411      	add	r1, r2
 8004690:	42a1      	cmp	r1, r4
 8004692:	60d9      	str	r1, [r3, #12]
 8004694:	bf28      	it	cs
 8004696:	6819      	ldrcs	r1, [r3, #0]
 8004698:	bc10      	pop	{r4}
 800469a:	bf28      	it	cs
 800469c:	60d9      	strcs	r1, [r3, #12]
 800469e:	68d9      	ldr	r1, [r3, #12]
 80046a0:	f001 bcea 	b.w	8006078 <memcpy>
 80046a4:	bc10      	pop	{r4}
 80046a6:	4770      	bx	lr

080046a8 <prvUnlockQueue>:
 80046a8:	b570      	push	{r4, r5, r6, lr}
 80046aa:	4604      	mov	r4, r0
 80046ac:	f001 fac2 	bl	8005c34 <vPortEnterCritical>
 80046b0:	f894 5045 	ldrb.w	r5, [r4, #69]	; 0x45
 80046b4:	f104 0624 	add.w	r6, r4, #36	; 0x24
 80046b8:	b26d      	sxtb	r5, r5
 80046ba:	2d00      	cmp	r5, #0
 80046bc:	dc14      	bgt.n	80046e8 <prvUnlockQueue+0x40>
 80046be:	23ff      	movs	r3, #255	; 0xff
 80046c0:	f884 3045 	strb.w	r3, [r4, #69]	; 0x45
 80046c4:	f001 fad8 	bl	8005c78 <vPortExitCritical>
 80046c8:	f001 fab4 	bl	8005c34 <vPortEnterCritical>
 80046cc:	f894 5044 	ldrb.w	r5, [r4, #68]	; 0x44
 80046d0:	f104 0610 	add.w	r6, r4, #16
 80046d4:	b26d      	sxtb	r5, r5
 80046d6:	2d00      	cmp	r5, #0
 80046d8:	dc12      	bgt.n	8004700 <prvUnlockQueue+0x58>
 80046da:	23ff      	movs	r3, #255	; 0xff
 80046dc:	f884 3044 	strb.w	r3, [r4, #68]	; 0x44
 80046e0:	e8bd 4070 	ldmia.w	sp!, {r4, r5, r6, lr}
 80046e4:	f001 bac8 	b.w	8005c78 <vPortExitCritical>
 80046e8:	6a63      	ldr	r3, [r4, #36]	; 0x24
 80046ea:	2b00      	cmp	r3, #0
 80046ec:	d0e7      	beq.n	80046be <prvUnlockQueue+0x16>
 80046ee:	4630      	mov	r0, r6
 80046f0:	f000 ff04 	bl	80054fc <xTaskRemoveFromEventList>
 80046f4:	b108      	cbz	r0, 80046fa <prvUnlockQueue+0x52>
 80046f6:	f000 ffcb 	bl	8005690 <vTaskMissedYield>
 80046fa:	3d01      	subs	r5, #1
 80046fc:	b26d      	sxtb	r5, r5
 80046fe:	e7dc      	b.n	80046ba <prvUnlockQueue+0x12>
 8004700:	6923      	ldr	r3, [r4, #16]
 8004702:	2b00      	cmp	r3, #0
 8004704:	d0e9      	beq.n	80046da <prvUnlockQueue+0x32>
 8004706:	4630      	mov	r0, r6
 8004708:	f000 fef8 	bl	80054fc <xTaskRemoveFromEventList>
 800470c:	b108      	cbz	r0, 8004712 <prvUnlockQueue+0x6a>
 800470e:	f000 ffbf 	bl	8005690 <vTaskMissedYield>
 8004712:	3d01      	subs	r5, #1
 8004714:	b26d      	sxtb	r5, r5
 8004716:	e7de      	b.n	80046d6 <prvUnlockQueue+0x2e>

08004718 <xQueueGenericReset>:
 8004718:	b538      	push	{r3, r4, r5, lr}
 800471a:	460d      	mov	r5, r1
 800471c:	4604      	mov	r4, r0
 800471e:	b940      	cbnz	r0, 8004732 <xQueueGenericReset+0x1a>
 8004720:	f04f 0350 	mov.w	r3, #80	; 0x50
 8004724:	f383 8811 	msr	BASEPRI, r3
 8004728:	f3bf 8f6f 	isb	sy
 800472c:	f3bf 8f4f 	dsb	sy
 8004730:	e7fe      	b.n	8004730 <xQueueGenericReset+0x18>
 8004732:	f001 fa7f 	bl	8005c34 <vPortEnterCritical>
 8004736:	e9d4 300f 	ldrd	r3, r0, [r4, #60]	; 0x3c
 800473a:	4343      	muls	r3, r0
 800473c:	6822      	ldr	r2, [r4, #0]
 800473e:	18d1      	adds	r1, r2, r3
 8004740:	1a1b      	subs	r3, r3, r0
 8004742:	4413      	add	r3, r2
 8004744:	6061      	str	r1, [r4, #4]
 8004746:	60e3      	str	r3, [r4, #12]
 8004748:	2100      	movs	r1, #0
 800474a:	23ff      	movs	r3, #255	; 0xff
 800474c:	63a1      	str	r1, [r4, #56]	; 0x38
 800474e:	60a2      	str	r2, [r4, #8]
 8004750:	f884 3044 	strb.w	r3, [r4, #68]	; 0x44
 8004754:	f884 3045 	strb.w	r3, [r4, #69]	; 0x45
 8004758:	b995      	cbnz	r5, 8004780 <xQueueGenericReset+0x68>
 800475a:	6923      	ldr	r3, [r4, #16]
 800475c:	b163      	cbz	r3, 8004778 <xQueueGenericReset+0x60>
 800475e:	f104 0010 	add.w	r0, r4, #16
 8004762:	f000 fecb 	bl	80054fc <xTaskRemoveFromEventList>
 8004766:	b138      	cbz	r0, 8004778 <xQueueGenericReset+0x60>
 8004768:	f04f 5280 	mov.w	r2, #268435456	; 0x10000000
 800476c:	4b09      	ldr	r3, [pc, #36]	; (8004794 <xQueueGenericReset+0x7c>)
 800476e:	601a      	str	r2, [r3, #0]
 8004770:	f3bf 8f4f 	dsb	sy
 8004774:	f3bf 8f6f 	isb	sy
 8004778:	f001 fa7e 	bl	8005c78 <vPortExitCritical>
 800477c:	2001      	movs	r0, #1
 800477e:	bd38      	pop	{r3, r4, r5, pc}
 8004780:	f104 0010 	add.w	r0, r4, #16
 8004784:	f7ff fefc 	bl	8004580 <vListInitialise>
 8004788:	f104 0024 	add.w	r0, r4, #36	; 0x24
 800478c:	f7ff fef8 	bl	8004580 <vListInitialise>
 8004790:	e7f2      	b.n	8004778 <xQueueGenericReset+0x60>
 8004792:	bf00      	nop
 8004794:	e000ed04 	.word	0xe000ed04

08004798 <xQueueGenericCreateStatic>:
 8004798:	b513      	push	{r0, r1, r4, lr}
 800479a:	461c      	mov	r4, r3
 800479c:	b940      	cbnz	r0, 80047b0 <xQueueGenericCreateStatic+0x18>
 800479e:	f04f 0350 	mov.w	r3, #80	; 0x50
 80047a2:	f383 8811 	msr	BASEPRI, r3
 80047a6:	f3bf 8f6f 	isb	sy
 80047aa:	f3bf 8f4f 	dsb	sy
 80047ae:	e7fe      	b.n	80047ae <xQueueGenericCreateStatic+0x16>
 80047b0:	b943      	cbnz	r3, 80047c4 <xQueueGenericCreateStatic+0x2c>
 80047b2:	f04f 0350 	mov.w	r3, #80	; 0x50
 80047b6:	f383 8811 	msr	BASEPRI, r3
 80047ba:	f3bf 8f6f 	isb	sy
 80047be:	f3bf 8f4f 	dsb	sy
 80047c2:	e7fe      	b.n	80047c2 <xQueueGenericCreateStatic+0x2a>
 80047c4:	b14a      	cbz	r2, 80047da <xQueueGenericCreateStatic+0x42>
 80047c6:	b991      	cbnz	r1, 80047ee <xQueueGenericCreateStatic+0x56>
 80047c8:	f04f 0350 	mov.w	r3, #80	; 0x50
 80047cc:	f383 8811 	msr	BASEPRI, r3
 80047d0:	f3bf 8f6f 	isb	sy
 80047d4:	f3bf 8f4f 	dsb	sy
 80047d8:	e7fe      	b.n	80047d8 <xQueueGenericCreateStatic+0x40>
 80047da:	b141      	cbz	r1, 80047ee <xQueueGenericCreateStatic+0x56>
 80047dc:	f04f 0350 	mov.w	r3, #80	; 0x50
 80047e0:	f383 8811 	msr	BASEPRI, r3
 80047e4:	f3bf 8f6f 	isb	sy
 80047e8:	f3bf 8f4f 	dsb	sy
 80047ec:	e7fe      	b.n	80047ec <xQueueGenericCreateStatic+0x54>
 80047ee:	2350      	movs	r3, #80	; 0x50
 80047f0:	9301      	str	r3, [sp, #4]
 80047f2:	9b01      	ldr	r3, [sp, #4]
 80047f4:	2b50      	cmp	r3, #80	; 0x50
 80047f6:	d008      	beq.n	800480a <xQueueGenericCreateStatic+0x72>
 80047f8:	f04f 0350 	mov.w	r3, #80	; 0x50
 80047fc:	f383 8811 	msr	BASEPRI, r3
 8004800:	f3bf 8f6f 	isb	sy
 8004804:	f3bf 8f4f 	dsb	sy
 8004808:	e7fe      	b.n	8004808 <xQueueGenericCreateStatic+0x70>
 800480a:	2301      	movs	r3, #1
 800480c:	2900      	cmp	r1, #0
 800480e:	bf08      	it	eq
 8004810:	4622      	moveq	r2, r4
 8004812:	e9c4 010f 	strd	r0, r1, [r4, #60]	; 0x3c
 8004816:	f884 3046 	strb.w	r3, [r4, #70]	; 0x46
 800481a:	4619      	mov	r1, r3
 800481c:	6022      	str	r2, [r4, #0]
 800481e:	4620      	mov	r0, r4
 8004820:	f7ff ff7a 	bl	8004718 <xQueueGenericReset>
 8004824:	4620      	mov	r0, r4
 8004826:	f89d 3010 	ldrb.w	r3, [sp, #16]
 800482a:	f884 304c 	strb.w	r3, [r4, #76]	; 0x4c
 800482e:	b002      	add	sp, #8
 8004830:	bd10      	pop	{r4, pc}

08004832 <xQueueGenericCreate>:
 8004832:	b5f8      	push	{r3, r4, r5, r6, r7, lr}
 8004834:	460d      	mov	r5, r1
 8004836:	4617      	mov	r7, r2
 8004838:	4606      	mov	r6, r0
 800483a:	b940      	cbnz	r0, 800484e <xQueueGenericCreate+0x1c>
 800483c:	f04f 0350 	mov.w	r3, #80	; 0x50
 8004840:	f383 8811 	msr	BASEPRI, r3
 8004844:	f3bf 8f6f 	isb	sy
 8004848:	f3bf 8f4f 	dsb	sy
 800484c:	e7fe      	b.n	800484c <xQueueGenericCreate+0x1a>
 800484e:	4348      	muls	r0, r1
 8004850:	3050      	adds	r0, #80	; 0x50
 8004852:	f001 fb23 	bl	8005e9c <pvPortMalloc>
 8004856:	4604      	mov	r4, r0
 8004858:	b160      	cbz	r0, 8004874 <xQueueGenericCreate+0x42>
 800485a:	2300      	movs	r3, #0
 800485c:	f880 3046 	strb.w	r3, [r0, #70]	; 0x46
 8004860:	b955      	cbnz	r5, 8004878 <xQueueGenericCreate+0x46>
 8004862:	6020      	str	r0, [r4, #0]
 8004864:	e9c4 650f 	strd	r6, r5, [r4, #60]	; 0x3c
 8004868:	2101      	movs	r1, #1
 800486a:	4620      	mov	r0, r4
 800486c:	f7ff ff54 	bl	8004718 <xQueueGenericReset>
 8004870:	f884 704c 	strb.w	r7, [r4, #76]	; 0x4c
 8004874:	4620      	mov	r0, r4
 8004876:	bdf8      	pop	{r3, r4, r5, r6, r7, pc}
 8004878:	f100 0350 	add.w	r3, r0, #80	; 0x50
 800487c:	6003      	str	r3, [r0, #0]
 800487e:	e7f1      	b.n	8004864 <xQueueGenericCreate+0x32>

08004880 <xQueueGenericSend>:
 8004880:	e92d 47ff 	stmdb	sp!, {r0, r1, r2, r3, r4, r5, r6, r7, r8, r9, sl, lr}
 8004884:	4688      	mov	r8, r1
 8004886:	9201      	str	r2, [sp, #4]
 8004888:	461f      	mov	r7, r3
 800488a:	4604      	mov	r4, r0
 800488c:	b940      	cbnz	r0, 80048a0 <xQueueGenericSend+0x20>
 800488e:	f04f 0350 	mov.w	r3, #80	; 0x50
 8004892:	f383 8811 	msr	BASEPRI, r3
 8004896:	f3bf 8f6f 	isb	sy
 800489a:	f3bf 8f4f 	dsb	sy
 800489e:	e7fe      	b.n	800489e <xQueueGenericSend+0x1e>
 80048a0:	b951      	cbnz	r1, 80048b8 <xQueueGenericSend+0x38>
 80048a2:	6c03      	ldr	r3, [r0, #64]	; 0x40
 80048a4:	b143      	cbz	r3, 80048b8 <xQueueGenericSend+0x38>
 80048a6:	f04f 0350 	mov.w	r3, #80	; 0x50
 80048aa:	f383 8811 	msr	BASEPRI, r3
 80048ae:	f3bf 8f6f 	isb	sy
 80048b2:	f3bf 8f4f 	dsb	sy
 80048b6:	e7fe      	b.n	80048b6 <xQueueGenericSend+0x36>
 80048b8:	2f02      	cmp	r7, #2
 80048ba:	d10b      	bne.n	80048d4 <xQueueGenericSend+0x54>
 80048bc:	6be3      	ldr	r3, [r4, #60]	; 0x3c
 80048be:	2b01      	cmp	r3, #1
 80048c0:	d008      	beq.n	80048d4 <xQueueGenericSend+0x54>
 80048c2:	f04f 0350 	mov.w	r3, #80	; 0x50
 80048c6:	f383 8811 	msr	BASEPRI, r3
 80048ca:	f3bf 8f6f 	isb	sy
 80048ce:	f3bf 8f4f 	dsb	sy
 80048d2:	e7fe      	b.n	80048d2 <xQueueGenericSend+0x52>
 80048d4:	f000 fee2 	bl	800569c <xTaskGetSchedulerState>
 80048d8:	b950      	cbnz	r0, 80048f0 <xQueueGenericSend+0x70>
 80048da:	9e01      	ldr	r6, [sp, #4]
 80048dc:	b14e      	cbz	r6, 80048f2 <xQueueGenericSend+0x72>
 80048de:	f04f 0350 	mov.w	r3, #80	; 0x50
 80048e2:	f383 8811 	msr	BASEPRI, r3
 80048e6:	f3bf 8f6f 	isb	sy
 80048ea:	f3bf 8f4f 	dsb	sy
 80048ee:	e7fe      	b.n	80048ee <xQueueGenericSend+0x6e>
 80048f0:	2600      	movs	r6, #0
 80048f2:	f04f 0900 	mov.w	r9, #0
 80048f6:	f8df a0e8 	ldr.w	sl, [pc, #232]	; 80049e0 <xQueueGenericSend+0x160>
 80048fa:	e037      	b.n	800496c <xQueueGenericSend+0xec>
 80048fc:	9d01      	ldr	r5, [sp, #4]
 80048fe:	b91d      	cbnz	r5, 8004908 <xQueueGenericSend+0x88>
 8004900:	f001 f9ba 	bl	8005c78 <vPortExitCritical>
 8004904:	2000      	movs	r0, #0
 8004906:	e050      	b.n	80049aa <xQueueGenericSend+0x12a>
 8004908:	b916      	cbnz	r6, 8004910 <xQueueGenericSend+0x90>
 800490a:	a802      	add	r0, sp, #8
 800490c:	f000 fe78 	bl	8005600 <vTaskInternalSetTimeOutState>
 8004910:	f001 f9b2 	bl	8005c78 <vPortExitCritical>
 8004914:	f000 fba6 	bl	8005064 <vTaskSuspendAll>
 8004918:	f001 f98c 	bl	8005c34 <vPortEnterCritical>
 800491c:	f894 3044 	ldrb.w	r3, [r4, #68]	; 0x44
 8004920:	2bff      	cmp	r3, #255	; 0xff
 8004922:	bf08      	it	eq
 8004924:	f884 9044 	strbeq.w	r9, [r4, #68]	; 0x44
 8004928:	f894 3045 	ldrb.w	r3, [r4, #69]	; 0x45
 800492c:	2bff      	cmp	r3, #255	; 0xff
 800492e:	bf08      	it	eq
 8004930:	f884 9045 	strbeq.w	r9, [r4, #69]	; 0x45
 8004934:	f001 f9a0 	bl	8005c78 <vPortExitCritical>
 8004938:	a901      	add	r1, sp, #4
 800493a:	a802      	add	r0, sp, #8
 800493c:	f000 fe6c 	bl	8005618 <xTaskCheckForTimeOut>
 8004940:	2800      	cmp	r0, #0
 8004942:	d146      	bne.n	80049d2 <xQueueGenericSend+0x152>
 8004944:	f001 f976 	bl	8005c34 <vPortEnterCritical>
 8004948:	6ba2      	ldr	r2, [r4, #56]	; 0x38
 800494a:	6be3      	ldr	r3, [r4, #60]	; 0x3c
 800494c:	429a      	cmp	r2, r3
 800494e:	d12f      	bne.n	80049b0 <xQueueGenericSend+0x130>
 8004950:	f001 f992 	bl	8005c78 <vPortExitCritical>
 8004954:	9901      	ldr	r1, [sp, #4]
 8004956:	f104 0010 	add.w	r0, r4, #16
 800495a:	f000 fd69 	bl	8005430 <vTaskPlaceOnEventList>
 800495e:	4620      	mov	r0, r4
 8004960:	f7ff fea2 	bl	80046a8 <prvUnlockQueue>
 8004964:	f000 fc2a 	bl	80051bc <xTaskResumeAll>
 8004968:	b350      	cbz	r0, 80049c0 <xQueueGenericSend+0x140>
 800496a:	2601      	movs	r6, #1
 800496c:	f001 f962 	bl	8005c34 <vPortEnterCritical>
 8004970:	6ba2      	ldr	r2, [r4, #56]	; 0x38
 8004972:	6be3      	ldr	r3, [r4, #60]	; 0x3c
 8004974:	429a      	cmp	r2, r3
 8004976:	d301      	bcc.n	800497c <xQueueGenericSend+0xfc>
 8004978:	2f02      	cmp	r7, #2
 800497a:	d1bf      	bne.n	80048fc <xQueueGenericSend+0x7c>
 800497c:	463a      	mov	r2, r7
 800497e:	4641      	mov	r1, r8
 8004980:	4620      	mov	r0, r4
 8004982:	f7ff fe4a 	bl	800461a <prvCopyDataToQueue>
 8004986:	6a63      	ldr	r3, [r4, #36]	; 0x24
 8004988:	b11b      	cbz	r3, 8004992 <xQueueGenericSend+0x112>
 800498a:	f104 0024 	add.w	r0, r4, #36	; 0x24
 800498e:	f000 fdb5 	bl	80054fc <xTaskRemoveFromEventList>
 8004992:	b138      	cbz	r0, 80049a4 <xQueueGenericSend+0x124>
 8004994:	f04f 5280 	mov.w	r2, #268435456	; 0x10000000
 8004998:	4b11      	ldr	r3, [pc, #68]	; (80049e0 <xQueueGenericSend+0x160>)
 800499a:	601a      	str	r2, [r3, #0]
 800499c:	f3bf 8f4f 	dsb	sy
 80049a0:	f3bf 8f6f 	isb	sy
 80049a4:	f001 f968 	bl	8005c78 <vPortExitCritical>
 80049a8:	2001      	movs	r0, #1
 80049aa:	b004      	add	sp, #16
 80049ac:	e8bd 87f0 	ldmia.w	sp!, {r4, r5, r6, r7, r8, r9, sl, pc}
 80049b0:	f001 f962 	bl	8005c78 <vPortExitCritical>
 80049b4:	4620      	mov	r0, r4
 80049b6:	f7ff fe77 	bl	80046a8 <prvUnlockQueue>
 80049ba:	f000 fbff 	bl	80051bc <xTaskResumeAll>
 80049be:	e7d4      	b.n	800496a <xQueueGenericSend+0xea>
 80049c0:	f04f 5380 	mov.w	r3, #268435456	; 0x10000000
 80049c4:	f8ca 3000 	str.w	r3, [sl]
 80049c8:	f3bf 8f4f 	dsb	sy
 80049cc:	f3bf 8f6f 	isb	sy
 80049d0:	e7cb      	b.n	800496a <xQueueGenericSend+0xea>
 80049d2:	4620      	mov	r0, r4
 80049d4:	f7ff fe68 	bl	80046a8 <prvUnlockQueue>
 80049d8:	f000 fbf0 	bl	80051bc <xTaskResumeAll>
 80049dc:	e792      	b.n	8004904 <xQueueGenericSend+0x84>
 80049de:	bf00      	nop
 80049e0:	e000ed04 	.word	0xe000ed04

080049e4 <xQueueGenericSendFromISR>:
 80049e4:	e92d 43f8 	stmdb	sp!, {r3, r4, r5, r6, r7, r8, r9, lr}
 80049e8:	4689      	mov	r9, r1
 80049ea:	4690      	mov	r8, r2
 80049ec:	461f      	mov	r7, r3
 80049ee:	4604      	mov	r4, r0
 80049f0:	b940      	cbnz	r0, 8004a04 <xQueueGenericSendFromISR+0x20>
 80049f2:	f04f 0350 	mov.w	r3, #80	; 0x50
 80049f6:	f383 8811 	msr	BASEPRI, r3
 80049fa:	f3bf 8f6f 	isb	sy
 80049fe:	f3bf 8f4f 	dsb	sy
 8004a02:	e7fe      	b.n	8004a02 <xQueueGenericSendFromISR+0x1e>
 8004a04:	b951      	cbnz	r1, 8004a1c <xQueueGenericSendFromISR+0x38>
 8004a06:	6c03      	ldr	r3, [r0, #64]	; 0x40
 8004a08:	b143      	cbz	r3, 8004a1c <xQueueGenericSendFromISR+0x38>
 8004a0a:	f04f 0350 	mov.w	r3, #80	; 0x50
 8004a0e:	f383 8811 	msr	BASEPRI, r3
 8004a12:	f3bf 8f6f 	isb	sy
 8004a16:	f3bf 8f4f 	dsb	sy
 8004a1a:	e7fe      	b.n	8004a1a <xQueueGenericSendFromISR+0x36>
 8004a1c:	2f02      	cmp	r7, #2
 8004a1e:	d10b      	bne.n	8004a38 <xQueueGenericSendFromISR+0x54>
 8004a20:	6be3      	ldr	r3, [r4, #60]	; 0x3c
 8004a22:	2b01      	cmp	r3, #1
 8004a24:	d008      	beq.n	8004a38 <xQueueGenericSendFromISR+0x54>
 8004a26:	f04f 0350 	mov.w	r3, #80	; 0x50
 8004a2a:	f383 8811 	msr	BASEPRI, r3
 8004a2e:	f3bf 8f6f 	isb	sy
 8004a32:	f3bf 8f4f 	dsb	sy
 8004a36:	e7fe      	b.n	8004a36 <xQueueGenericSendFromISR+0x52>
 8004a38:	f001 f9de 	bl	8005df8 <vPortValidateInterruptPriority>
 8004a3c:	f3ef 8611 	mrs	r6, BASEPRI
 8004a40:	f04f 0350 	mov.w	r3, #80	; 0x50
 8004a44:	f383 8811 	msr	BASEPRI, r3
 8004a48:	f3bf 8f6f 	isb	sy
 8004a4c:	f3bf 8f4f 	dsb	sy
 8004a50:	6ba2      	ldr	r2, [r4, #56]	; 0x38
 8004a52:	6be3      	ldr	r3, [r4, #60]	; 0x3c
 8004a54:	429a      	cmp	r2, r3
 8004a56:	d301      	bcc.n	8004a5c <xQueueGenericSendFromISR+0x78>
 8004a58:	2f02      	cmp	r7, #2
 8004a5a:	d122      	bne.n	8004aa2 <xQueueGenericSendFromISR+0xbe>
 8004a5c:	f894 5045 	ldrb.w	r5, [r4, #69]	; 0x45
 8004a60:	463a      	mov	r2, r7
 8004a62:	b26d      	sxtb	r5, r5
 8004a64:	4649      	mov	r1, r9
 8004a66:	4620      	mov	r0, r4
 8004a68:	f7ff fdd7 	bl	800461a <prvCopyDataToQueue>
 8004a6c:	1c6b      	adds	r3, r5, #1
 8004a6e:	d113      	bne.n	8004a98 <xQueueGenericSendFromISR+0xb4>
 8004a70:	6a63      	ldr	r3, [r4, #36]	; 0x24
 8004a72:	b90b      	cbnz	r3, 8004a78 <xQueueGenericSendFromISR+0x94>
 8004a74:	2001      	movs	r0, #1
 8004a76:	e00b      	b.n	8004a90 <xQueueGenericSendFromISR+0xac>
 8004a78:	f104 0024 	add.w	r0, r4, #36	; 0x24
 8004a7c:	f000 fd3e 	bl	80054fc <xTaskRemoveFromEventList>
 8004a80:	2800      	cmp	r0, #0
 8004a82:	d0f7      	beq.n	8004a74 <xQueueGenericSendFromISR+0x90>
 8004a84:	f1b8 0f00 	cmp.w	r8, #0
 8004a88:	d0f4      	beq.n	8004a74 <xQueueGenericSendFromISR+0x90>
 8004a8a:	2001      	movs	r0, #1
 8004a8c:	f8c8 0000 	str.w	r0, [r8]
 8004a90:	f386 8811 	msr	BASEPRI, r6
 8004a94:	e8bd 83f8 	ldmia.w	sp!, {r3, r4, r5, r6, r7, r8, r9, pc}
 8004a98:	3501      	adds	r5, #1
 8004a9a:	b26d      	sxtb	r5, r5
 8004a9c:	f884 5045 	strb.w	r5, [r4, #69]	; 0x45
 8004aa0:	e7e8      	b.n	8004a74 <xQueueGenericSendFromISR+0x90>
 8004aa2:	2000      	movs	r0, #0
 8004aa4:	e7f4      	b.n	8004a90 <xQueueGenericSendFromISR+0xac>
	...

08004aa8 <xQueueReceive>:
 8004aa8:	e92d 43f0 	stmdb	sp!, {r4, r5, r6, r7, r8, r9, lr}
 8004aac:	b085      	sub	sp, #20
 8004aae:	460f      	mov	r7, r1
 8004ab0:	9201      	str	r2, [sp, #4]
 8004ab2:	4604      	mov	r4, r0
 8004ab4:	b940      	cbnz	r0, 8004ac8 <xQueueReceive+0x20>
 8004ab6:	f04f 0350 	mov.w	r3, #80	; 0x50
 8004aba:	f383 8811 	msr	BASEPRI, r3
 8004abe:	f3bf 8f6f 	isb	sy
 8004ac2:	f3bf 8f4f 	dsb	sy
 8004ac6:	e7fe      	b.n	8004ac6 <xQueueReceive+0x1e>
 8004ac8:	b951      	cbnz	r1, 8004ae0 <xQueueReceive+0x38>
 8004aca:	6c03      	ldr	r3, [r0, #64]	; 0x40
 8004acc:	b143      	cbz	r3, 8004ae0 <xQueueReceive+0x38>
 8004ace:	f04f 0350 	mov.w	r3, #80	; 0x50
 8004ad2:	f383 8811 	msr	BASEPRI, r3
 8004ad6:	f3bf 8f6f 	isb	sy
 8004ada:	f3bf 8f4f 	dsb	sy
 8004ade:	e7fe      	b.n	8004ade <xQueueReceive+0x36>
 8004ae0:	f000 fddc 	bl	800569c <xTaskGetSchedulerState>
 8004ae4:	b950      	cbnz	r0, 8004afc <xQueueReceive+0x54>
 8004ae6:	9e01      	ldr	r6, [sp, #4]
 8004ae8:	b14e      	cbz	r6, 8004afe <xQueueReceive+0x56>
 8004aea:	f04f 0350 	mov.w	r3, #80	; 0x50
 8004aee:	f383 8811 	msr	BASEPRI, r3
 8004af2:	f3bf 8f6f 	isb	sy
 8004af6:	f3bf 8f4f 	dsb	sy
 8004afa:	e7fe      	b.n	8004afa <xQueueReceive+0x52>
 8004afc:	2600      	movs	r6, #0
 8004afe:	f04f 0800 	mov.w	r8, #0
 8004b02:	f8df 90e0 	ldr.w	r9, [pc, #224]	; 8004be4 <xQueueReceive+0x13c>
 8004b06:	e03b      	b.n	8004b80 <xQueueReceive+0xd8>
 8004b08:	9d01      	ldr	r5, [sp, #4]
 8004b0a:	b91d      	cbnz	r5, 8004b14 <xQueueReceive+0x6c>
 8004b0c:	f001 f8b4 	bl	8005c78 <vPortExitCritical>
 8004b10:	2000      	movs	r0, #0
 8004b12:	e052      	b.n	8004bba <xQueueReceive+0x112>
 8004b14:	b916      	cbnz	r6, 8004b1c <xQueueReceive+0x74>
 8004b16:	a802      	add	r0, sp, #8
 8004b18:	f000 fd72 	bl	8005600 <vTaskInternalSetTimeOutState>
 8004b1c:	f001 f8ac 	bl	8005c78 <vPortExitCritical>
 8004b20:	f000 faa0 	bl	8005064 <vTaskSuspendAll>
 8004b24:	f001 f886 	bl	8005c34 <vPortEnterCritical>
 8004b28:	f894 3044 	ldrb.w	r3, [r4, #68]	; 0x44
 8004b2c:	2bff      	cmp	r3, #255	; 0xff
 8004b2e:	bf08      	it	eq
 8004b30:	f884 8044 	strbeq.w	r8, [r4, #68]	; 0x44
 8004b34:	f894 3045 	ldrb.w	r3, [r4, #69]	; 0x45
 8004b38:	2bff      	cmp	r3, #255	; 0xff
 8004b3a:	bf08      	it	eq
 8004b3c:	f884 8045 	strbeq.w	r8, [r4, #69]	; 0x45
 8004b40:	f001 f89a 	bl	8005c78 <vPortExitCritical>
 8004b44:	a901      	add	r1, sp, #4
 8004b46:	a802      	add	r0, sp, #8
 8004b48:	f000 fd66 	bl	8005618 <xTaskCheckForTimeOut>
 8004b4c:	2800      	cmp	r0, #0
 8004b4e:	d13d      	bne.n	8004bcc <xQueueReceive+0x124>
 8004b50:	4620      	mov	r0, r4
 8004b52:	f7ff fd57 	bl	8004604 <prvIsQueueEmpty>
 8004b56:	b398      	cbz	r0, 8004bc0 <xQueueReceive+0x118>
 8004b58:	9901      	ldr	r1, [sp, #4]
 8004b5a:	f104 0024 	add.w	r0, r4, #36	; 0x24
 8004b5e:	f000 fc67 	bl	8005430 <vTaskPlaceOnEventList>
 8004b62:	4620      	mov	r0, r4
 8004b64:	f7ff fda0 	bl	80046a8 <prvUnlockQueue>
 8004b68:	f000 fb28 	bl	80051bc <xTaskResumeAll>
 8004b6c:	b938      	cbnz	r0, 8004b7e <xQueueReceive+0xd6>
 8004b6e:	f04f 5380 	mov.w	r3, #268435456	; 0x10000000
 8004b72:	f8c9 3000 	str.w	r3, [r9]
 8004b76:	f3bf 8f4f 	dsb	sy
 8004b7a:	f3bf 8f6f 	isb	sy
 8004b7e:	2601      	movs	r6, #1
 8004b80:	f001 f858 	bl	8005c34 <vPortEnterCritical>
 8004b84:	6ba5      	ldr	r5, [r4, #56]	; 0x38
 8004b86:	2d00      	cmp	r5, #0
 8004b88:	d0be      	beq.n	8004b08 <xQueueReceive+0x60>
 8004b8a:	4639      	mov	r1, r7
 8004b8c:	4620      	mov	r0, r4
 8004b8e:	3d01      	subs	r5, #1
 8004b90:	f7ff fd76 	bl	8004680 <prvCopyDataFromQueue>
 8004b94:	63a5      	str	r5, [r4, #56]	; 0x38
 8004b96:	6923      	ldr	r3, [r4, #16]
 8004b98:	b163      	cbz	r3, 8004bb4 <xQueueReceive+0x10c>
 8004b9a:	f104 0010 	add.w	r0, r4, #16
 8004b9e:	f000 fcad 	bl	80054fc <xTaskRemoveFromEventList>
 8004ba2:	b138      	cbz	r0, 8004bb4 <xQueueReceive+0x10c>
 8004ba4:	f04f 5280 	mov.w	r2, #268435456	; 0x10000000
 8004ba8:	4b0e      	ldr	r3, [pc, #56]	; (8004be4 <xQueueReceive+0x13c>)
 8004baa:	601a      	str	r2, [r3, #0]
 8004bac:	f3bf 8f4f 	dsb	sy
 8004bb0:	f3bf 8f6f 	isb	sy
 8004bb4:	f001 f860 	bl	8005c78 <vPortExitCritical>
 8004bb8:	2001      	movs	r0, #1
 8004bba:	b005      	add	sp, #20
 8004bbc:	e8bd 83f0 	ldmia.w	sp!, {r4, r5, r6, r7, r8, r9, pc}
 8004bc0:	4620      	mov	r0, r4
 8004bc2:	f7ff fd71 	bl	80046a8 <prvUnlockQueue>
 8004bc6:	f000 faf9 	bl	80051bc <xTaskResumeAll>
 8004bca:	e7d8      	b.n	8004b7e <xQueueReceive+0xd6>
 8004bcc:	4620      	mov	r0, r4
 8004bce:	f7ff fd6b 	bl	80046a8 <prvUnlockQueue>
 8004bd2:	f000 faf3 	bl	80051bc <xTaskResumeAll>
 8004bd6:	4620      	mov	r0, r4
 8004bd8:	f7ff fd14 	bl	8004604 <prvIsQueueEmpty>
 8004bdc:	2800      	cmp	r0, #0
 8004bde:	d0ce      	beq.n	8004b7e <xQueueReceive+0xd6>
 8004be0:	e796      	b.n	8004b10 <xQueueReceive+0x68>
 8004be2:	bf00      	nop
 8004be4:	e000ed04 	.word	0xe000ed04

08004be8 <vQueueAddToRegistry>:
 8004be8:	2300      	movs	r3, #0
 8004bea:	b530      	push	{r4, r5, lr}
 8004bec:	4a06      	ldr	r2, [pc, #24]	; (8004c08 <vQueueAddToRegistry+0x20>)
 8004bee:	f852 5033 	ldr.w	r5, [r2, r3, lsl #3]
 8004bf2:	eb02 04c3 	add.w	r4, r2, r3, lsl #3
 8004bf6:	b91d      	cbnz	r5, 8004c00 <vQueueAddToRegistry+0x18>
 8004bf8:	f842 1033 	str.w	r1, [r2, r3, lsl #3]
 8004bfc:	6060      	str	r0, [r4, #4]
 8004bfe:	bd30      	pop	{r4, r5, pc}
 8004c00:	3301      	adds	r3, #1
 8004c02:	2b08      	cmp	r3, #8
 8004c04:	d1f3      	bne.n	8004bee <vQueueAddToRegistry+0x6>
 8004c06:	e7fa      	b.n	8004bfe <vQueueAddToRegistry+0x16>
 8004c08:	2000382c 	.word	0x2000382c

08004c0c <vQueueWaitForMessageRestricted>:
 8004c0c:	b570      	push	{r4, r5, r6, lr}
 8004c0e:	4604      	mov	r4, r0
 8004c10:	460d      	mov	r5, r1
 8004c12:	4616      	mov	r6, r2
 8004c14:	f001 f80e 	bl	8005c34 <vPortEnterCritical>
 8004c18:	f894 3044 	ldrb.w	r3, [r4, #68]	; 0x44
 8004c1c:	2bff      	cmp	r3, #255	; 0xff
 8004c1e:	bf04      	itt	eq
 8004c20:	2300      	moveq	r3, #0
 8004c22:	f884 3044 	strbeq.w	r3, [r4, #68]	; 0x44
 8004c26:	f894 3045 	ldrb.w	r3, [r4, #69]	; 0x45
 8004c2a:	2bff      	cmp	r3, #255	; 0xff
 8004c2c:	bf04      	itt	eq
 8004c2e:	2300      	moveq	r3, #0
 8004c30:	f884 3045 	strbeq.w	r3, [r4, #69]	; 0x45
 8004c34:	f001 f820 	bl	8005c78 <vPortExitCritical>
 8004c38:	6ba3      	ldr	r3, [r4, #56]	; 0x38
 8004c3a:	b92b      	cbnz	r3, 8004c48 <vQueueWaitForMessageRestricted+0x3c>
 8004c3c:	4632      	mov	r2, r6
 8004c3e:	4629      	mov	r1, r5
 8004c40:	f104 0024 	add.w	r0, r4, #36	; 0x24
 8004c44:	f000 fc3a 	bl	80054bc <vTaskPlaceOnEventListRestricted>
 8004c48:	4620      	mov	r0, r4
 8004c4a:	e8bd 4070 	ldmia.w	sp!, {r4, r5, r6, lr}
 8004c4e:	f7ff bd2b 	b.w	80046a8 <prvUnlockQueue>
	...

08004c54 <prvAddNewTaskToReadyList>:
 8004c54:	e92d 41f0 	stmdb	sp!, {r4, r5, r6, r7, r8, lr}
 8004c58:	4604      	mov	r4, r0
 8004c5a:	f000 ffeb 	bl	8005c34 <vPortEnterCritical>
 8004c5e:	4b2f      	ldr	r3, [pc, #188]	; (8004d1c <prvAddNewTaskToReadyList+0xc8>)
 8004c60:	4d2f      	ldr	r5, [pc, #188]	; (8004d20 <prvAddNewTaskToReadyList+0xcc>)
 8004c62:	681a      	ldr	r2, [r3, #0]
 8004c64:	4f2f      	ldr	r7, [pc, #188]	; (8004d24 <prvAddNewTaskToReadyList+0xd0>)
 8004c66:	3201      	adds	r2, #1
 8004c68:	601a      	str	r2, [r3, #0]
 8004c6a:	682e      	ldr	r6, [r5, #0]
 8004c6c:	2e00      	cmp	r6, #0
 8004c6e:	d149      	bne.n	8004d04 <prvAddNewTaskToReadyList+0xb0>
 8004c70:	602c      	str	r4, [r5, #0]
 8004c72:	681b      	ldr	r3, [r3, #0]
 8004c74:	2b01      	cmp	r3, #1
 8004c76:	d11f      	bne.n	8004cb8 <prvAddNewTaskToReadyList+0x64>
 8004c78:	f04f 0814 	mov.w	r8, #20
 8004c7c:	fb08 7006 	mla	r0, r8, r6, r7
 8004c80:	3601      	adds	r6, #1
 8004c82:	f7ff fc7d 	bl	8004580 <vListInitialise>
 8004c86:	2e38      	cmp	r6, #56	; 0x38
 8004c88:	d1f8      	bne.n	8004c7c <prvAddNewTaskToReadyList+0x28>
 8004c8a:	f8df 80c4 	ldr.w	r8, [pc, #196]	; 8004d50 <prvAddNewTaskToReadyList+0xfc>
 8004c8e:	4e26      	ldr	r6, [pc, #152]	; (8004d28 <prvAddNewTaskToReadyList+0xd4>)
 8004c90:	4640      	mov	r0, r8
 8004c92:	f7ff fc75 	bl	8004580 <vListInitialise>
 8004c96:	4630      	mov	r0, r6
 8004c98:	f7ff fc72 	bl	8004580 <vListInitialise>
 8004c9c:	4823      	ldr	r0, [pc, #140]	; (8004d2c <prvAddNewTaskToReadyList+0xd8>)
 8004c9e:	f7ff fc6f 	bl	8004580 <vListInitialise>
 8004ca2:	4823      	ldr	r0, [pc, #140]	; (8004d30 <prvAddNewTaskToReadyList+0xdc>)
 8004ca4:	f7ff fc6c 	bl	8004580 <vListInitialise>
 8004ca8:	4822      	ldr	r0, [pc, #136]	; (8004d34 <prvAddNewTaskToReadyList+0xe0>)
 8004caa:	f7ff fc69 	bl	8004580 <vListInitialise>
 8004cae:	4b22      	ldr	r3, [pc, #136]	; (8004d38 <prvAddNewTaskToReadyList+0xe4>)
 8004cb0:	f8c3 8000 	str.w	r8, [r3]
 8004cb4:	4b21      	ldr	r3, [pc, #132]	; (8004d3c <prvAddNewTaskToReadyList+0xe8>)
 8004cb6:	601e      	str	r6, [r3, #0]
 8004cb8:	2014      	movs	r0, #20
 8004cba:	4a21      	ldr	r2, [pc, #132]	; (8004d40 <prvAddNewTaskToReadyList+0xec>)
 8004cbc:	6813      	ldr	r3, [r2, #0]
 8004cbe:	3301      	adds	r3, #1
 8004cc0:	6013      	str	r3, [r2, #0]
 8004cc2:	4a20      	ldr	r2, [pc, #128]	; (8004d44 <prvAddNewTaskToReadyList+0xf0>)
 8004cc4:	6463      	str	r3, [r4, #68]	; 0x44
 8004cc6:	6811      	ldr	r1, [r2, #0]
 8004cc8:	6ae3      	ldr	r3, [r4, #44]	; 0x2c
 8004cca:	428b      	cmp	r3, r1
 8004ccc:	fb00 7003 	mla	r0, r0, r3, r7
 8004cd0:	f104 0104 	add.w	r1, r4, #4
 8004cd4:	bf88      	it	hi
 8004cd6:	6013      	strhi	r3, [r2, #0]
 8004cd8:	f7ff fc60 	bl	800459c <vListInsertEnd>
 8004cdc:	f000 ffcc 	bl	8005c78 <vPortExitCritical>
 8004ce0:	4b19      	ldr	r3, [pc, #100]	; (8004d48 <prvAddNewTaskToReadyList+0xf4>)
 8004ce2:	681b      	ldr	r3, [r3, #0]
 8004ce4:	b163      	cbz	r3, 8004d00 <prvAddNewTaskToReadyList+0xac>
 8004ce6:	682b      	ldr	r3, [r5, #0]
 8004ce8:	6ada      	ldr	r2, [r3, #44]	; 0x2c
 8004cea:	6ae3      	ldr	r3, [r4, #44]	; 0x2c
 8004cec:	429a      	cmp	r2, r3
 8004cee:	d207      	bcs.n	8004d00 <prvAddNewTaskToReadyList+0xac>
 8004cf0:	f04f 5280 	mov.w	r2, #268435456	; 0x10000000
 8004cf4:	4b15      	ldr	r3, [pc, #84]	; (8004d4c <prvAddNewTaskToReadyList+0xf8>)
 8004cf6:	601a      	str	r2, [r3, #0]
 8004cf8:	f3bf 8f4f 	dsb	sy
 8004cfc:	f3bf 8f6f 	isb	sy
 8004d00:	e8bd 81f0 	ldmia.w	sp!, {r4, r5, r6, r7, r8, pc}
 8004d04:	4b10      	ldr	r3, [pc, #64]	; (8004d48 <prvAddNewTaskToReadyList+0xf4>)
 8004d06:	681b      	ldr	r3, [r3, #0]
 8004d08:	2b00      	cmp	r3, #0
 8004d0a:	d1d5      	bne.n	8004cb8 <prvAddNewTaskToReadyList+0x64>
 8004d0c:	682b      	ldr	r3, [r5, #0]
 8004d0e:	6ada      	ldr	r2, [r3, #44]	; 0x2c
 8004d10:	6ae3      	ldr	r3, [r4, #44]	; 0x2c
 8004d12:	429a      	cmp	r2, r3
 8004d14:	bf98      	it	ls
 8004d16:	602c      	strls	r4, [r5, #0]
 8004d18:	e7ce      	b.n	8004cb8 <prvAddNewTaskToReadyList+0x64>
 8004d1a:	bf00      	nop
 8004d1c:	20000b60 	.word	0x20000b60
 8004d20:	200006f4 	.word	0x200006f4
 8004d24:	20000700 	.word	0x20000700
 8004d28:	20000b8c 	.word	0x20000b8c
 8004d2c:	20000ba8 	.word	0x20000ba8
 8004d30:	20000bd4 	.word	0x20000bd4
 8004d34:	20000bc0 	.word	0x20000bc0
 8004d38:	200006f8 	.word	0x200006f8
 8004d3c:	200006fc 	.word	0x200006fc
 8004d40:	20000b70 	.word	0x20000b70
 8004d44:	20000b74 	.word	0x20000b74
 8004d48:	20000bbc 	.word	0x20000bbc
 8004d4c:	e000ed04 	.word	0xe000ed04
 8004d50:	20000b78 	.word	0x20000b78

08004d54 <prvDeleteTCB>:
 8004d54:	b510      	push	{r4, lr}
 8004d56:	f890 3059 	ldrb.w	r3, [r0, #89]	; 0x59
 8004d5a:	4604      	mov	r4, r0
 8004d5c:	b93b      	cbnz	r3, 8004d6e <prvDeleteTCB+0x1a>
 8004d5e:	6b00      	ldr	r0, [r0, #48]	; 0x30
 8004d60:	f001 f92e 	bl	8005fc0 <vPortFree>
 8004d64:	4620      	mov	r0, r4
 8004d66:	e8bd 4010 	ldmia.w	sp!, {r4, lr}
 8004d6a:	f001 b929 	b.w	8005fc0 <vPortFree>
 8004d6e:	2b01      	cmp	r3, #1
 8004d70:	d0f9      	beq.n	8004d66 <prvDeleteTCB+0x12>
 8004d72:	2b02      	cmp	r3, #2
 8004d74:	d008      	beq.n	8004d88 <prvDeleteTCB+0x34>
 8004d76:	f04f 0350 	mov.w	r3, #80	; 0x50
 8004d7a:	f383 8811 	msr	BASEPRI, r3
 8004d7e:	f3bf 8f6f 	isb	sy
 8004d82:	f3bf 8f4f 	dsb	sy
 8004d86:	e7fe      	b.n	8004d86 <prvDeleteTCB+0x32>
 8004d88:	bd10      	pop	{r4, pc}
	...

08004d8c <prvIdleTask>:
 8004d8c:	b580      	push	{r7, lr}
 8004d8e:	4e14      	ldr	r6, [pc, #80]	; (8004de0 <prvIdleTask+0x54>)
 8004d90:	4f14      	ldr	r7, [pc, #80]	; (8004de4 <prvIdleTask+0x58>)
 8004d92:	4c15      	ldr	r4, [pc, #84]	; (8004de8 <prvIdleTask+0x5c>)
 8004d94:	4d15      	ldr	r5, [pc, #84]	; (8004dec <prvIdleTask+0x60>)
 8004d96:	6823      	ldr	r3, [r4, #0]
 8004d98:	b96b      	cbnz	r3, 8004db6 <prvIdleTask+0x2a>
 8004d9a:	4b15      	ldr	r3, [pc, #84]	; (8004df0 <prvIdleTask+0x64>)
 8004d9c:	681b      	ldr	r3, [r3, #0]
 8004d9e:	2b01      	cmp	r3, #1
 8004da0:	d906      	bls.n	8004db0 <prvIdleTask+0x24>
 8004da2:	f04f 5380 	mov.w	r3, #268435456	; 0x10000000
 8004da6:	603b      	str	r3, [r7, #0]
 8004da8:	f3bf 8f4f 	dsb	sy
 8004dac:	f3bf 8f6f 	isb	sy
 8004db0:	f7fb fdeb 	bl	800098a <vApplicationIdleHook>
 8004db4:	e7ed      	b.n	8004d92 <prvIdleTask+0x6>
 8004db6:	f000 ff3d 	bl	8005c34 <vPortEnterCritical>
 8004dba:	68f3      	ldr	r3, [r6, #12]
 8004dbc:	f8d3 800c 	ldr.w	r8, [r3, #12]
 8004dc0:	f108 0004 	add.w	r0, r8, #4
 8004dc4:	f7ff fc0d 	bl	80045e2 <uxListRemove>
 8004dc8:	682b      	ldr	r3, [r5, #0]
 8004dca:	3b01      	subs	r3, #1
 8004dcc:	602b      	str	r3, [r5, #0]
 8004dce:	6823      	ldr	r3, [r4, #0]
 8004dd0:	3b01      	subs	r3, #1
 8004dd2:	6023      	str	r3, [r4, #0]
 8004dd4:	f000 ff50 	bl	8005c78 <vPortExitCritical>
 8004dd8:	4640      	mov	r0, r8
 8004dda:	f7ff ffbb 	bl	8004d54 <prvDeleteTCB>
 8004dde:	e7da      	b.n	8004d96 <prvIdleTask+0xa>
 8004de0:	20000bd4 	.word	0x20000bd4
 8004de4:	e000ed04 	.word	0xe000ed04
 8004de8:	20000b64 	.word	0x20000b64
 8004dec:	20000b60 	.word	0x20000b60
 8004df0:	20000700 	.word	0x20000700

08004df4 <prvResetNextTaskUnblockTime>:
 8004df4:	4a06      	ldr	r2, [pc, #24]	; (8004e10 <prvResetNextTaskUnblockTime+0x1c>)
 8004df6:	6813      	ldr	r3, [r2, #0]
 8004df8:	6819      	ldr	r1, [r3, #0]
 8004dfa:	4b06      	ldr	r3, [pc, #24]	; (8004e14 <prvResetNextTaskUnblockTime+0x20>)
 8004dfc:	b919      	cbnz	r1, 8004e06 <prvResetNextTaskUnblockTime+0x12>
 8004dfe:	f04f 32ff 	mov.w	r2, #4294967295
 8004e02:	601a      	str	r2, [r3, #0]
 8004e04:	4770      	bx	lr
 8004e06:	6812      	ldr	r2, [r2, #0]
 8004e08:	68d2      	ldr	r2, [r2, #12]
 8004e0a:	68d2      	ldr	r2, [r2, #12]
 8004e0c:	6852      	ldr	r2, [r2, #4]
 8004e0e:	e7f8      	b.n	8004e02 <prvResetNextTaskUnblockTime+0xe>
 8004e10:	200006f8 	.word	0x200006f8
 8004e14:	20000ba0 	.word	0x20000ba0

08004e18 <prvInitialiseNewTask.isra.2>:
 8004e18:	e92d 47f0 	stmdb	sp!, {r4, r5, r6, r7, r8, r9, sl, lr}
 8004e1c:	460d      	mov	r5, r1
 8004e1e:	e9dd 7409 	ldrd	r7, r4, [sp, #36]	; 0x24
 8004e22:	0096      	lsls	r6, r2, #2
 8004e24:	4632      	mov	r2, r6
 8004e26:	4680      	mov	r8, r0
 8004e28:	21a5      	movs	r1, #165	; 0xa5
 8004e2a:	6b20      	ldr	r0, [r4, #48]	; 0x30
 8004e2c:	4699      	mov	r9, r3
 8004e2e:	f001 f92e 	bl	800608e <memset>
 8004e32:	6b23      	ldr	r3, [r4, #48]	; 0x30
 8004e34:	3e04      	subs	r6, #4
 8004e36:	441e      	add	r6, r3
 8004e38:	f026 0607 	bic.w	r6, r6, #7
 8004e3c:	1e6b      	subs	r3, r5, #1
 8004e3e:	f104 0234 	add.w	r2, r4, #52	; 0x34
 8004e42:	350f      	adds	r5, #15
 8004e44:	f813 1f01 	ldrb.w	r1, [r3, #1]!
 8004e48:	f802 1b01 	strb.w	r1, [r2], #1
 8004e4c:	7819      	ldrb	r1, [r3, #0]
 8004e4e:	b109      	cbz	r1, 8004e54 <prvInitialiseNewTask.isra.2+0x3c>
 8004e50:	42ab      	cmp	r3, r5
 8004e52:	d1f7      	bne.n	8004e44 <prvInitialiseNewTask.isra.2+0x2c>
 8004e54:	9d08      	ldr	r5, [sp, #32]
 8004e56:	f04f 0a00 	mov.w	sl, #0
 8004e5a:	2d37      	cmp	r5, #55	; 0x37
 8004e5c:	bf28      	it	cs
 8004e5e:	2537      	movcs	r5, #55	; 0x37
 8004e60:	1d20      	adds	r0, r4, #4
 8004e62:	62e5      	str	r5, [r4, #44]	; 0x2c
 8004e64:	e9c4 5a13 	strd	r5, sl, [r4, #76]	; 0x4c
 8004e68:	f884 a043 	strb.w	sl, [r4, #67]	; 0x43
 8004e6c:	f7ff fb93 	bl	8004596 <vListInitialiseItem>
 8004e70:	f1c5 0538 	rsb	r5, r5, #56	; 0x38
 8004e74:	f104 0018 	add.w	r0, r4, #24
 8004e78:	f7ff fb8d 	bl	8004596 <vListInitialiseItem>
 8004e7c:	f8c4 a054 	str.w	sl, [r4, #84]	; 0x54
 8004e80:	6124      	str	r4, [r4, #16]
 8004e82:	61a5      	str	r5, [r4, #24]
 8004e84:	6264      	str	r4, [r4, #36]	; 0x24
 8004e86:	f884 a058 	strb.w	sl, [r4, #88]	; 0x58
 8004e8a:	464a      	mov	r2, r9
 8004e8c:	4641      	mov	r1, r8
 8004e8e:	4630      	mov	r0, r6
 8004e90:	f000 fea6 	bl	8005be0 <pxPortInitialiseStack>
 8004e94:	6020      	str	r0, [r4, #0]
 8004e96:	b107      	cbz	r7, 8004e9a <prvInitialiseNewTask.isra.2+0x82>
 8004e98:	603c      	str	r4, [r7, #0]
 8004e9a:	e8bd 87f0 	ldmia.w	sp!, {r4, r5, r6, r7, r8, r9, sl, pc}
	...

08004ea0 <prvAddCurrentTaskToDelayedList>:
 8004ea0:	b5f8      	push	{r3, r4, r5, r6, r7, lr}
 8004ea2:	4605      	mov	r5, r0
 8004ea4:	4b15      	ldr	r3, [pc, #84]	; (8004efc <prvAddCurrentTaskToDelayedList+0x5c>)
 8004ea6:	4e16      	ldr	r6, [pc, #88]	; (8004f00 <prvAddCurrentTaskToDelayedList+0x60>)
 8004ea8:	681c      	ldr	r4, [r3, #0]
 8004eaa:	6830      	ldr	r0, [r6, #0]
 8004eac:	460f      	mov	r7, r1
 8004eae:	3004      	adds	r0, #4
 8004eb0:	f7ff fb97 	bl	80045e2 <uxListRemove>
 8004eb4:	1c6b      	adds	r3, r5, #1
 8004eb6:	4633      	mov	r3, r6
 8004eb8:	d107      	bne.n	8004eca <prvAddCurrentTaskToDelayedList+0x2a>
 8004eba:	b137      	cbz	r7, 8004eca <prvAddCurrentTaskToDelayedList+0x2a>
 8004ebc:	6831      	ldr	r1, [r6, #0]
 8004ebe:	4811      	ldr	r0, [pc, #68]	; (8004f04 <prvAddCurrentTaskToDelayedList+0x64>)
 8004ec0:	3104      	adds	r1, #4
 8004ec2:	e8bd 40f8 	ldmia.w	sp!, {r3, r4, r5, r6, r7, lr}
 8004ec6:	f7ff bb69 	b.w	800459c <vListInsertEnd>
 8004eca:	681a      	ldr	r2, [r3, #0]
 8004ecc:	1964      	adds	r4, r4, r5
 8004ece:	6054      	str	r4, [r2, #4]
 8004ed0:	d307      	bcc.n	8004ee2 <prvAddCurrentTaskToDelayedList+0x42>
 8004ed2:	4a0d      	ldr	r2, [pc, #52]	; (8004f08 <prvAddCurrentTaskToDelayedList+0x68>)
 8004ed4:	6810      	ldr	r0, [r2, #0]
 8004ed6:	6819      	ldr	r1, [r3, #0]
 8004ed8:	e8bd 40f8 	ldmia.w	sp!, {r3, r4, r5, r6, r7, lr}
 8004edc:	3104      	adds	r1, #4
 8004ede:	f7ff bb69 	b.w	80045b4 <vListInsert>
 8004ee2:	4a0a      	ldr	r2, [pc, #40]	; (8004f0c <prvAddCurrentTaskToDelayedList+0x6c>)
 8004ee4:	6810      	ldr	r0, [r2, #0]
 8004ee6:	6819      	ldr	r1, [r3, #0]
 8004ee8:	3104      	adds	r1, #4
 8004eea:	f7ff fb63 	bl	80045b4 <vListInsert>
 8004eee:	4b08      	ldr	r3, [pc, #32]	; (8004f10 <prvAddCurrentTaskToDelayedList+0x70>)
 8004ef0:	681a      	ldr	r2, [r3, #0]
 8004ef2:	42a2      	cmp	r2, r4
 8004ef4:	bf88      	it	hi
 8004ef6:	601c      	strhi	r4, [r3, #0]
 8004ef8:	bdf8      	pop	{r3, r4, r5, r6, r7, pc}
 8004efa:	bf00      	nop
 8004efc:	20000be8 	.word	0x20000be8
 8004f00:	200006f4 	.word	0x200006f4
 8004f04:	20000bc0 	.word	0x20000bc0
 8004f08:	200006fc 	.word	0x200006fc
 8004f0c:	200006f8 	.word	0x200006f8
 8004f10:	20000ba0 	.word	0x20000ba0

08004f14 <xTaskCreateStatic>:
 8004f14:	b570      	push	{r4, r5, r6, lr}
 8004f16:	b086      	sub	sp, #24
 8004f18:	e9dd 540b 	ldrd	r5, r4, [sp, #44]	; 0x2c
 8004f1c:	b945      	cbnz	r5, 8004f30 <xTaskCreateStatic+0x1c>
 8004f1e:	f04f 0350 	mov.w	r3, #80	; 0x50
 8004f22:	f383 8811 	msr	BASEPRI, r3
 8004f26:	f3bf 8f6f 	isb	sy
 8004f2a:	f3bf 8f4f 	dsb	sy
 8004f2e:	e7fe      	b.n	8004f2e <xTaskCreateStatic+0x1a>
 8004f30:	b944      	cbnz	r4, 8004f44 <xTaskCreateStatic+0x30>
 8004f32:	f04f 0350 	mov.w	r3, #80	; 0x50
 8004f36:	f383 8811 	msr	BASEPRI, r3
 8004f3a:	f3bf 8f6f 	isb	sy
 8004f3e:	f3bf 8f4f 	dsb	sy
 8004f42:	e7fe      	b.n	8004f42 <xTaskCreateStatic+0x2e>
 8004f44:	265c      	movs	r6, #92	; 0x5c
 8004f46:	9604      	str	r6, [sp, #16]
 8004f48:	9e04      	ldr	r6, [sp, #16]
 8004f4a:	2e5c      	cmp	r6, #92	; 0x5c
 8004f4c:	d008      	beq.n	8004f60 <xTaskCreateStatic+0x4c>
 8004f4e:	f04f 0350 	mov.w	r3, #80	; 0x50
 8004f52:	f383 8811 	msr	BASEPRI, r3
 8004f56:	f3bf 8f6f 	isb	sy
 8004f5a:	f3bf 8f4f 	dsb	sy
 8004f5e:	e7fe      	b.n	8004f5e <xTaskCreateStatic+0x4a>
 8004f60:	6325      	str	r5, [r4, #48]	; 0x30
 8004f62:	2502      	movs	r5, #2
 8004f64:	f884 5059 	strb.w	r5, [r4, #89]	; 0x59
 8004f68:	ad05      	add	r5, sp, #20
 8004f6a:	9501      	str	r5, [sp, #4]
 8004f6c:	9d0a      	ldr	r5, [sp, #40]	; 0x28
 8004f6e:	9402      	str	r4, [sp, #8]
 8004f70:	9500      	str	r5, [sp, #0]
 8004f72:	f7ff ff51 	bl	8004e18 <prvInitialiseNewTask.isra.2>
 8004f76:	4620      	mov	r0, r4
 8004f78:	f7ff fe6c 	bl	8004c54 <prvAddNewTaskToReadyList>
 8004f7c:	9805      	ldr	r0, [sp, #20]
 8004f7e:	b006      	add	sp, #24
 8004f80:	bd70      	pop	{r4, r5, r6, pc}

08004f82 <xTaskCreate>:
 8004f82:	e92d 43f0 	stmdb	sp!, {r4, r5, r6, r7, r8, r9, lr}
 8004f86:	4607      	mov	r7, r0
 8004f88:	b085      	sub	sp, #20
 8004f8a:	0090      	lsls	r0, r2, #2
 8004f8c:	4688      	mov	r8, r1
 8004f8e:	4616      	mov	r6, r2
 8004f90:	4699      	mov	r9, r3
 8004f92:	f000 ff83 	bl	8005e9c <pvPortMalloc>
 8004f96:	4605      	mov	r5, r0
 8004f98:	b1e8      	cbz	r0, 8004fd6 <xTaskCreate+0x54>
 8004f9a:	205c      	movs	r0, #92	; 0x5c
 8004f9c:	f000 ff7e 	bl	8005e9c <pvPortMalloc>
 8004fa0:	4604      	mov	r4, r0
 8004fa2:	b1a8      	cbz	r0, 8004fd0 <xTaskCreate+0x4e>
 8004fa4:	2300      	movs	r3, #0
 8004fa6:	f880 3059 	strb.w	r3, [r0, #89]	; 0x59
 8004faa:	9b0d      	ldr	r3, [sp, #52]	; 0x34
 8004fac:	6305      	str	r5, [r0, #48]	; 0x30
 8004fae:	9301      	str	r3, [sp, #4]
 8004fb0:	9b0c      	ldr	r3, [sp, #48]	; 0x30
 8004fb2:	9002      	str	r0, [sp, #8]
 8004fb4:	9300      	str	r3, [sp, #0]
 8004fb6:	4632      	mov	r2, r6
 8004fb8:	464b      	mov	r3, r9
 8004fba:	4641      	mov	r1, r8
 8004fbc:	4638      	mov	r0, r7
 8004fbe:	f7ff ff2b 	bl	8004e18 <prvInitialiseNewTask.isra.2>
 8004fc2:	4620      	mov	r0, r4
 8004fc4:	f7ff fe46 	bl	8004c54 <prvAddNewTaskToReadyList>
 8004fc8:	2001      	movs	r0, #1
 8004fca:	b005      	add	sp, #20
 8004fcc:	e8bd 83f0 	ldmia.w	sp!, {r4, r5, r6, r7, r8, r9, pc}
 8004fd0:	4628      	mov	r0, r5
 8004fd2:	f000 fff5 	bl	8005fc0 <vPortFree>
 8004fd6:	f04f 30ff 	mov.w	r0, #4294967295
 8004fda:	e7f6      	b.n	8004fca <xTaskCreate+0x48>

08004fdc <vTaskStartScheduler>:
 8004fdc:	b510      	push	{r4, lr}
 8004fde:	2400      	movs	r4, #0
 8004fe0:	b088      	sub	sp, #32
 8004fe2:	aa07      	add	r2, sp, #28
 8004fe4:	a906      	add	r1, sp, #24
 8004fe6:	a805      	add	r0, sp, #20
 8004fe8:	e9cd 4405 	strd	r4, r4, [sp, #20]
 8004fec:	f7ff f9ca 	bl	8004384 <vApplicationGetIdleTaskMemory>
 8004ff0:	9b05      	ldr	r3, [sp, #20]
 8004ff2:	9a07      	ldr	r2, [sp, #28]
 8004ff4:	9302      	str	r3, [sp, #8]
 8004ff6:	9b06      	ldr	r3, [sp, #24]
 8004ff8:	4915      	ldr	r1, [pc, #84]	; (8005050 <vTaskStartScheduler+0x74>)
 8004ffa:	e9cd 4300 	strd	r4, r3, [sp]
 8004ffe:	4815      	ldr	r0, [pc, #84]	; (8005054 <vTaskStartScheduler+0x78>)
 8005000:	4623      	mov	r3, r4
 8005002:	f7ff ff87 	bl	8004f14 <xTaskCreateStatic>
 8005006:	b1a8      	cbz	r0, 8005034 <vTaskStartScheduler+0x58>
 8005008:	f000 fbf8 	bl	80057fc <xTimerCreateTimerTask>
 800500c:	2801      	cmp	r0, #1
 800500e:	d113      	bne.n	8005038 <vTaskStartScheduler+0x5c>
 8005010:	f04f 0350 	mov.w	r3, #80	; 0x50
 8005014:	f383 8811 	msr	BASEPRI, r3
 8005018:	f3bf 8f6f 	isb	sy
 800501c:	f3bf 8f4f 	dsb	sy
 8005020:	f04f 32ff 	mov.w	r2, #4294967295
 8005024:	4b0c      	ldr	r3, [pc, #48]	; (8005058 <vTaskStartScheduler+0x7c>)
 8005026:	601a      	str	r2, [r3, #0]
 8005028:	4b0c      	ldr	r3, [pc, #48]	; (800505c <vTaskStartScheduler+0x80>)
 800502a:	6018      	str	r0, [r3, #0]
 800502c:	4b0c      	ldr	r3, [pc, #48]	; (8005060 <vTaskStartScheduler+0x84>)
 800502e:	601c      	str	r4, [r3, #0]
 8005030:	f000 fe88 	bl	8005d44 <xPortStartScheduler>
 8005034:	b008      	add	sp, #32
 8005036:	bd10      	pop	{r4, pc}
 8005038:	3001      	adds	r0, #1
 800503a:	d1fb      	bne.n	8005034 <vTaskStartScheduler+0x58>
 800503c:	f04f 0350 	mov.w	r3, #80	; 0x50
 8005040:	f383 8811 	msr	BASEPRI, r3
 8005044:	f3bf 8f6f 	isb	sy
 8005048:	f3bf 8f4f 	dsb	sy
 800504c:	e7fe      	b.n	800504c <vTaskStartScheduler+0x70>
 800504e:	bf00      	nop
 8005050:	08006421 	.word	0x08006421
 8005054:	08004d8d 	.word	0x08004d8d
 8005058:	20000ba0 	.word	0x20000ba0
 800505c:	20000bbc 	.word	0x20000bbc
 8005060:	20000be8 	.word	0x20000be8

08005064 <vTaskSuspendAll>:
 8005064:	4a02      	ldr	r2, [pc, #8]	; (8005070 <vTaskSuspendAll+0xc>)
 8005066:	6813      	ldr	r3, [r2, #0]
 8005068:	3301      	adds	r3, #1
 800506a:	6013      	str	r3, [r2, #0]
 800506c:	4770      	bx	lr
 800506e:	bf00      	nop
 8005070:	20000b6c 	.word	0x20000b6c

08005074 <xTaskGetTickCount>:
 8005074:	4b01      	ldr	r3, [pc, #4]	; (800507c <xTaskGetTickCount+0x8>)
 8005076:	6818      	ldr	r0, [r3, #0]
 8005078:	4770      	bx	lr
 800507a:	bf00      	nop
 800507c:	20000be8 	.word	0x20000be8

08005080 <xTaskGetTickCountFromISR>:
 8005080:	b508      	push	{r3, lr}
 8005082:	f000 feb9 	bl	8005df8 <vPortValidateInterruptPriority>
 8005086:	4b01      	ldr	r3, [pc, #4]	; (800508c <xTaskGetTickCountFromISR+0xc>)
 8005088:	6818      	ldr	r0, [r3, #0]
 800508a:	bd08      	pop	{r3, pc}
 800508c:	20000be8 	.word	0x20000be8

08005090 <xTaskIncrementTick>:
 8005090:	e92d 4ff8 	stmdb	sp!, {r3, r4, r5, r6, r7, r8, r9, sl, fp, lr}
 8005094:	4b3e      	ldr	r3, [pc, #248]	; (8005190 <xTaskIncrementTick+0x100>)
 8005096:	681b      	ldr	r3, [r3, #0]
 8005098:	2b00      	cmp	r3, #0
 800509a:	d170      	bne.n	800517e <xTaskIncrementTick+0xee>
 800509c:	4b3d      	ldr	r3, [pc, #244]	; (8005194 <xTaskIncrementTick+0x104>)
 800509e:	681c      	ldr	r4, [r3, #0]
 80050a0:	3401      	adds	r4, #1
 80050a2:	601c      	str	r4, [r3, #0]
 80050a4:	b9bc      	cbnz	r4, 80050d6 <xTaskIncrementTick+0x46>
 80050a6:	4b3c      	ldr	r3, [pc, #240]	; (8005198 <xTaskIncrementTick+0x108>)
 80050a8:	681a      	ldr	r2, [r3, #0]
 80050aa:	6812      	ldr	r2, [r2, #0]
 80050ac:	b142      	cbz	r2, 80050c0 <xTaskIncrementTick+0x30>
 80050ae:	f04f 0350 	mov.w	r3, #80	; 0x50
 80050b2:	f383 8811 	msr	BASEPRI, r3
 80050b6:	f3bf 8f6f 	isb	sy
 80050ba:	f3bf 8f4f 	dsb	sy
 80050be:	e7fe      	b.n	80050be <xTaskIncrementTick+0x2e>
 80050c0:	4a36      	ldr	r2, [pc, #216]	; (800519c <xTaskIncrementTick+0x10c>)
 80050c2:	6819      	ldr	r1, [r3, #0]
 80050c4:	6810      	ldr	r0, [r2, #0]
 80050c6:	6018      	str	r0, [r3, #0]
 80050c8:	6011      	str	r1, [r2, #0]
 80050ca:	4a35      	ldr	r2, [pc, #212]	; (80051a0 <xTaskIncrementTick+0x110>)
 80050cc:	6813      	ldr	r3, [r2, #0]
 80050ce:	3301      	adds	r3, #1
 80050d0:	6013      	str	r3, [r2, #0]
 80050d2:	f7ff fe8f 	bl	8004df4 <prvResetNextTaskUnblockTime>
 80050d6:	4d33      	ldr	r5, [pc, #204]	; (80051a4 <xTaskIncrementTick+0x114>)
 80050d8:	f04f 0b00 	mov.w	fp, #0
 80050dc:	682b      	ldr	r3, [r5, #0]
 80050de:	4f32      	ldr	r7, [pc, #200]	; (80051a8 <xTaskIncrementTick+0x118>)
 80050e0:	42a3      	cmp	r3, r4
 80050e2:	d916      	bls.n	8005112 <xTaskIncrementTick+0x82>
 80050e4:	683a      	ldr	r2, [r7, #0]
 80050e6:	4b31      	ldr	r3, [pc, #196]	; (80051ac <xTaskIncrementTick+0x11c>)
 80050e8:	6ad1      	ldr	r1, [r2, #44]	; 0x2c
 80050ea:	2214      	movs	r2, #20
 80050ec:	434a      	muls	r2, r1
 80050ee:	589a      	ldr	r2, [r3, r2]
 80050f0:	2a02      	cmp	r2, #2
 80050f2:	4a2f      	ldr	r2, [pc, #188]	; (80051b0 <xTaskIncrementTick+0x120>)
 80050f4:	bf28      	it	cs
 80050f6:	f04f 0b01 	movcs.w	fp, #1
 80050fa:	6812      	ldr	r2, [r2, #0]
 80050fc:	b90a      	cbnz	r2, 8005102 <xTaskIncrementTick+0x72>
 80050fe:	f7fb fc45 	bl	800098c <vApplicationTickHook>
 8005102:	4a2c      	ldr	r2, [pc, #176]	; (80051b4 <xTaskIncrementTick+0x124>)
 8005104:	6812      	ldr	r2, [r2, #0]
 8005106:	2a00      	cmp	r2, #0
 8005108:	bf0c      	ite	eq
 800510a:	4658      	moveq	r0, fp
 800510c:	2001      	movne	r0, #1
 800510e:	e8bd 8ff8 	ldmia.w	sp!, {r3, r4, r5, r6, r7, r8, r9, sl, fp, pc}
 8005112:	f8df 9084 	ldr.w	r9, [pc, #132]	; 8005198 <xTaskIncrementTick+0x108>
 8005116:	f8df a0a0 	ldr.w	sl, [pc, #160]	; 80051b8 <xTaskIncrementTick+0x128>
 800511a:	f8d9 2000 	ldr.w	r2, [r9]
 800511e:	6812      	ldr	r2, [r2, #0]
 8005120:	b91a      	cbnz	r2, 800512a <xTaskIncrementTick+0x9a>
 8005122:	f04f 32ff 	mov.w	r2, #4294967295
 8005126:	602a      	str	r2, [r5, #0]
 8005128:	e7dc      	b.n	80050e4 <xTaskIncrementTick+0x54>
 800512a:	f8d9 2000 	ldr.w	r2, [r9]
 800512e:	68d2      	ldr	r2, [r2, #12]
 8005130:	68d6      	ldr	r6, [r2, #12]
 8005132:	6871      	ldr	r1, [r6, #4]
 8005134:	428c      	cmp	r4, r1
 8005136:	d201      	bcs.n	800513c <xTaskIncrementTick+0xac>
 8005138:	6029      	str	r1, [r5, #0]
 800513a:	e7d3      	b.n	80050e4 <xTaskIncrementTick+0x54>
 800513c:	f106 0804 	add.w	r8, r6, #4
 8005140:	4640      	mov	r0, r8
 8005142:	f7ff fa4e 	bl	80045e2 <uxListRemove>
 8005146:	6ab1      	ldr	r1, [r6, #40]	; 0x28
 8005148:	b119      	cbz	r1, 8005152 <xTaskIncrementTick+0xc2>
 800514a:	f106 0018 	add.w	r0, r6, #24
 800514e:	f7ff fa48 	bl	80045e2 <uxListRemove>
 8005152:	2214      	movs	r2, #20
 8005154:	6af0      	ldr	r0, [r6, #44]	; 0x2c
 8005156:	f8da 1000 	ldr.w	r1, [sl]
 800515a:	4b14      	ldr	r3, [pc, #80]	; (80051ac <xTaskIncrementTick+0x11c>)
 800515c:	4288      	cmp	r0, r1
 800515e:	bf88      	it	hi
 8005160:	f8ca 0000 	strhi.w	r0, [sl]
 8005164:	4641      	mov	r1, r8
 8005166:	fb02 3000 	mla	r0, r2, r0, r3
 800516a:	f7ff fa17 	bl	800459c <vListInsertEnd>
 800516e:	6838      	ldr	r0, [r7, #0]
 8005170:	6af1      	ldr	r1, [r6, #44]	; 0x2c
 8005172:	6ac2      	ldr	r2, [r0, #44]	; 0x2c
 8005174:	4291      	cmp	r1, r2
 8005176:	bf28      	it	cs
 8005178:	f04f 0b01 	movcs.w	fp, #1
 800517c:	e7cd      	b.n	800511a <xTaskIncrementTick+0x8a>
 800517e:	4a0c      	ldr	r2, [pc, #48]	; (80051b0 <xTaskIncrementTick+0x120>)
 8005180:	f04f 0b00 	mov.w	fp, #0
 8005184:	6813      	ldr	r3, [r2, #0]
 8005186:	3301      	adds	r3, #1
 8005188:	6013      	str	r3, [r2, #0]
 800518a:	f7fb fbff 	bl	800098c <vApplicationTickHook>
 800518e:	e7b8      	b.n	8005102 <xTaskIncrementTick+0x72>
 8005190:	20000b6c 	.word	0x20000b6c
 8005194:	20000be8 	.word	0x20000be8
 8005198:	200006f8 	.word	0x200006f8
 800519c:	200006fc 	.word	0x200006fc
 80051a0:	20000ba4 	.word	0x20000ba4
 80051a4:	20000ba0 	.word	0x20000ba0
 80051a8:	200006f4 	.word	0x200006f4
 80051ac:	20000700 	.word	0x20000700
 80051b0:	20000b68 	.word	0x20000b68
 80051b4:	20000bec 	.word	0x20000bec
 80051b8:	20000b74 	.word	0x20000b74

080051bc <xTaskResumeAll>:
 80051bc:	e92d 41f0 	stmdb	sp!, {r4, r5, r6, r7, r8, lr}
 80051c0:	4c2f      	ldr	r4, [pc, #188]	; (8005280 <xTaskResumeAll+0xc4>)
 80051c2:	6823      	ldr	r3, [r4, #0]
 80051c4:	b943      	cbnz	r3, 80051d8 <xTaskResumeAll+0x1c>
 80051c6:	f04f 0350 	mov.w	r3, #80	; 0x50
 80051ca:	f383 8811 	msr	BASEPRI, r3
 80051ce:	f3bf 8f6f 	isb	sy
 80051d2:	f3bf 8f4f 	dsb	sy
 80051d6:	e7fe      	b.n	80051d6 <xTaskResumeAll+0x1a>
 80051d8:	f000 fd2c 	bl	8005c34 <vPortEnterCritical>
 80051dc:	6823      	ldr	r3, [r4, #0]
 80051de:	3b01      	subs	r3, #1
 80051e0:	6023      	str	r3, [r4, #0]
 80051e2:	6824      	ldr	r4, [r4, #0]
 80051e4:	b12c      	cbz	r4, 80051f2 <xTaskResumeAll+0x36>
 80051e6:	2400      	movs	r4, #0
 80051e8:	f000 fd46 	bl	8005c78 <vPortExitCritical>
 80051ec:	4620      	mov	r0, r4
 80051ee:	e8bd 81f0 	ldmia.w	sp!, {r4, r5, r6, r7, r8, pc}
 80051f2:	4b24      	ldr	r3, [pc, #144]	; (8005284 <xTaskResumeAll+0xc8>)
 80051f4:	681b      	ldr	r3, [r3, #0]
 80051f6:	2b00      	cmp	r3, #0
 80051f8:	d0f5      	beq.n	80051e6 <xTaskResumeAll+0x2a>
 80051fa:	4d23      	ldr	r5, [pc, #140]	; (8005288 <xTaskResumeAll+0xcc>)
 80051fc:	4e23      	ldr	r6, [pc, #140]	; (800528c <xTaskResumeAll+0xd0>)
 80051fe:	f8df 80a0 	ldr.w	r8, [pc, #160]	; 80052a0 <xTaskResumeAll+0xe4>
 8005202:	e01d      	b.n	8005240 <xTaskResumeAll+0x84>
 8005204:	68eb      	ldr	r3, [r5, #12]
 8005206:	68dc      	ldr	r4, [r3, #12]
 8005208:	1d27      	adds	r7, r4, #4
 800520a:	f104 0018 	add.w	r0, r4, #24
 800520e:	f7ff f9e8 	bl	80045e2 <uxListRemove>
 8005212:	4638      	mov	r0, r7
 8005214:	f7ff f9e5 	bl	80045e2 <uxListRemove>
 8005218:	2014      	movs	r0, #20
 800521a:	6ae3      	ldr	r3, [r4, #44]	; 0x2c
 800521c:	6832      	ldr	r2, [r6, #0]
 800521e:	fb00 8003 	mla	r0, r0, r3, r8
 8005222:	4293      	cmp	r3, r2
 8005224:	4639      	mov	r1, r7
 8005226:	bf88      	it	hi
 8005228:	6033      	strhi	r3, [r6, #0]
 800522a:	f7ff f9b7 	bl	800459c <vListInsertEnd>
 800522e:	4b18      	ldr	r3, [pc, #96]	; (8005290 <xTaskResumeAll+0xd4>)
 8005230:	6ae2      	ldr	r2, [r4, #44]	; 0x2c
 8005232:	681b      	ldr	r3, [r3, #0]
 8005234:	6adb      	ldr	r3, [r3, #44]	; 0x2c
 8005236:	429a      	cmp	r2, r3
 8005238:	d302      	bcc.n	8005240 <xTaskResumeAll+0x84>
 800523a:	2201      	movs	r2, #1
 800523c:	4b15      	ldr	r3, [pc, #84]	; (8005294 <xTaskResumeAll+0xd8>)
 800523e:	601a      	str	r2, [r3, #0]
 8005240:	682b      	ldr	r3, [r5, #0]
 8005242:	2b00      	cmp	r3, #0
 8005244:	d1de      	bne.n	8005204 <xTaskResumeAll+0x48>
 8005246:	b10c      	cbz	r4, 800524c <xTaskResumeAll+0x90>
 8005248:	f7ff fdd4 	bl	8004df4 <prvResetNextTaskUnblockTime>
 800524c:	4d12      	ldr	r5, [pc, #72]	; (8005298 <xTaskResumeAll+0xdc>)
 800524e:	682c      	ldr	r4, [r5, #0]
 8005250:	b144      	cbz	r4, 8005264 <xTaskResumeAll+0xa8>
 8005252:	2701      	movs	r7, #1
 8005254:	4e0f      	ldr	r6, [pc, #60]	; (8005294 <xTaskResumeAll+0xd8>)
 8005256:	f7ff ff1b 	bl	8005090 <xTaskIncrementTick>
 800525a:	b100      	cbz	r0, 800525e <xTaskResumeAll+0xa2>
 800525c:	6037      	str	r7, [r6, #0]
 800525e:	3c01      	subs	r4, #1
 8005260:	d1f9      	bne.n	8005256 <xTaskResumeAll+0x9a>
 8005262:	602c      	str	r4, [r5, #0]
 8005264:	4b0b      	ldr	r3, [pc, #44]	; (8005294 <xTaskResumeAll+0xd8>)
 8005266:	681b      	ldr	r3, [r3, #0]
 8005268:	2b00      	cmp	r3, #0
 800526a:	d0bc      	beq.n	80051e6 <xTaskResumeAll+0x2a>
 800526c:	f04f 5280 	mov.w	r2, #268435456	; 0x10000000
 8005270:	4b0a      	ldr	r3, [pc, #40]	; (800529c <xTaskResumeAll+0xe0>)
 8005272:	601a      	str	r2, [r3, #0]
 8005274:	f3bf 8f4f 	dsb	sy
 8005278:	f3bf 8f6f 	isb	sy
 800527c:	2401      	movs	r4, #1
 800527e:	e7b3      	b.n	80051e8 <xTaskResumeAll+0x2c>
 8005280:	20000b6c 	.word	0x20000b6c
 8005284:	20000b60 	.word	0x20000b60
 8005288:	20000ba8 	.word	0x20000ba8
 800528c:	20000b74 	.word	0x20000b74
 8005290:	200006f4 	.word	0x200006f4
 8005294:	20000bec 	.word	0x20000bec
 8005298:	20000b68 	.word	0x20000b68
 800529c:	e000ed04 	.word	0xe000ed04
 80052a0:	20000700 	.word	0x20000700

080052a4 <vTaskDelay>:
 80052a4:	b508      	push	{r3, lr}
 80052a6:	b940      	cbnz	r0, 80052ba <vTaskDelay+0x16>
 80052a8:	f04f 5280 	mov.w	r2, #268435456	; 0x10000000
 80052ac:	4b0d      	ldr	r3, [pc, #52]	; (80052e4 <vTaskDelay+0x40>)
 80052ae:	601a      	str	r2, [r3, #0]
 80052b0:	f3bf 8f4f 	dsb	sy
 80052b4:	f3bf 8f6f 	isb	sy
 80052b8:	bd08      	pop	{r3, pc}
 80052ba:	4b0b      	ldr	r3, [pc, #44]	; (80052e8 <vTaskDelay+0x44>)
 80052bc:	6819      	ldr	r1, [r3, #0]
 80052be:	b141      	cbz	r1, 80052d2 <vTaskDelay+0x2e>
 80052c0:	f04f 0350 	mov.w	r3, #80	; 0x50
 80052c4:	f383 8811 	msr	BASEPRI, r3
 80052c8:	f3bf 8f6f 	isb	sy
 80052cc:	f3bf 8f4f 	dsb	sy
 80052d0:	e7fe      	b.n	80052d0 <vTaskDelay+0x2c>
 80052d2:	f7ff fec7 	bl	8005064 <vTaskSuspendAll>
 80052d6:	f7ff fde3 	bl	8004ea0 <prvAddCurrentTaskToDelayedList>
 80052da:	f7ff ff6f 	bl	80051bc <xTaskResumeAll>
 80052de:	2800      	cmp	r0, #0
 80052e0:	d0e2      	beq.n	80052a8 <vTaskDelay+0x4>
 80052e2:	e7e9      	b.n	80052b8 <vTaskDelay+0x14>
 80052e4:	e000ed04 	.word	0xe000ed04
 80052e8:	20000b6c 	.word	0x20000b6c

080052ec <vTaskSwitchContext>:
 80052ec:	b5f8      	push	{r3, r4, r5, r6, r7, lr}
 80052ee:	4b1e      	ldr	r3, [pc, #120]	; (8005368 <vTaskSwitchContext+0x7c>)
 80052f0:	681a      	ldr	r2, [r3, #0]
 80052f2:	4b1e      	ldr	r3, [pc, #120]	; (800536c <vTaskSwitchContext+0x80>)
 80052f4:	b112      	cbz	r2, 80052fc <vTaskSwitchContext+0x10>
 80052f6:	2201      	movs	r2, #1
 80052f8:	601a      	str	r2, [r3, #0]
 80052fa:	bdf8      	pop	{r3, r4, r5, r6, r7, pc}
 80052fc:	4c1c      	ldr	r4, [pc, #112]	; (8005370 <vTaskSwitchContext+0x84>)
 80052fe:	601a      	str	r2, [r3, #0]
 8005300:	6822      	ldr	r2, [r4, #0]
 8005302:	6823      	ldr	r3, [r4, #0]
 8005304:	6812      	ldr	r2, [r2, #0]
 8005306:	6b1b      	ldr	r3, [r3, #48]	; 0x30
 8005308:	429a      	cmp	r2, r3
 800530a:	d804      	bhi.n	8005316 <vTaskSwitchContext+0x2a>
 800530c:	6820      	ldr	r0, [r4, #0]
 800530e:	6821      	ldr	r1, [r4, #0]
 8005310:	3134      	adds	r1, #52	; 0x34
 8005312:	f7fb fb3c 	bl	800098e <vApplicationStackOverflowHook>
 8005316:	4a17      	ldr	r2, [pc, #92]	; (8005374 <vTaskSwitchContext+0x88>)
 8005318:	f04f 0c14 	mov.w	ip, #20
 800531c:	4617      	mov	r7, r2
 800531e:	4e16      	ldr	r6, [pc, #88]	; (8005378 <vTaskSwitchContext+0x8c>)
 8005320:	6833      	ldr	r3, [r6, #0]
 8005322:	fb0c f103 	mul.w	r1, ip, r3
 8005326:	5855      	ldr	r5, [r2, r1]
 8005328:	1850      	adds	r0, r2, r1
 800532a:	b18d      	cbz	r5, 8005350 <vTaskSwitchContext+0x64>
 800532c:	6845      	ldr	r5, [r0, #4]
 800532e:	3108      	adds	r1, #8
 8005330:	686d      	ldr	r5, [r5, #4]
 8005332:	440a      	add	r2, r1
 8005334:	4295      	cmp	r5, r2
 8005336:	bf08      	it	eq
 8005338:	686a      	ldreq	r2, [r5, #4]
 800533a:	6045      	str	r5, [r0, #4]
 800533c:	bf08      	it	eq
 800533e:	6042      	streq	r2, [r0, #4]
 8005340:	2214      	movs	r2, #20
 8005342:	fb02 7203 	mla	r2, r2, r3, r7
 8005346:	6852      	ldr	r2, [r2, #4]
 8005348:	68d2      	ldr	r2, [r2, #12]
 800534a:	6022      	str	r2, [r4, #0]
 800534c:	6033      	str	r3, [r6, #0]
 800534e:	e7d4      	b.n	80052fa <vTaskSwitchContext+0xe>
 8005350:	b943      	cbnz	r3, 8005364 <vTaskSwitchContext+0x78>
 8005352:	f04f 0350 	mov.w	r3, #80	; 0x50
 8005356:	f383 8811 	msr	BASEPRI, r3
 800535a:	f3bf 8f6f 	isb	sy
 800535e:	f3bf 8f4f 	dsb	sy
 8005362:	e7fe      	b.n	8005362 <vTaskSwitchContext+0x76>
 8005364:	3b01      	subs	r3, #1
 8005366:	e7dc      	b.n	8005322 <vTaskSwitchContext+0x36>
 8005368:	20000b6c 	.word	0x20000b6c
 800536c:	20000bec 	.word	0x20000bec
 8005370:	200006f4 	.word	0x200006f4
 8005374:	20000700 	.word	0x20000700
 8005378:	20000b74 	.word	0x20000b74

0800537c <vTaskSuspend>:
 800537c:	b570      	push	{r4, r5, r6, lr}
 800537e:	4604      	mov	r4, r0
 8005380:	4e25      	ldr	r6, [pc, #148]	; (8005418 <vTaskSuspend+0x9c>)
 8005382:	f000 fc57 	bl	8005c34 <vPortEnterCritical>
 8005386:	b904      	cbnz	r4, 800538a <vTaskSuspend+0xe>
 8005388:	6834      	ldr	r4, [r6, #0]
 800538a:	1d25      	adds	r5, r4, #4
 800538c:	4628      	mov	r0, r5
 800538e:	f7ff f928 	bl	80045e2 <uxListRemove>
 8005392:	6aa3      	ldr	r3, [r4, #40]	; 0x28
 8005394:	b11b      	cbz	r3, 800539e <vTaskSuspend+0x22>
 8005396:	f104 0018 	add.w	r0, r4, #24
 800539a:	f7ff f922 	bl	80045e2 <uxListRemove>
 800539e:	4629      	mov	r1, r5
 80053a0:	481e      	ldr	r0, [pc, #120]	; (800541c <vTaskSuspend+0xa0>)
 80053a2:	f7ff f8fb 	bl	800459c <vListInsertEnd>
 80053a6:	f894 3058 	ldrb.w	r3, [r4, #88]	; 0x58
 80053aa:	4d1d      	ldr	r5, [pc, #116]	; (8005420 <vTaskSuspend+0xa4>)
 80053ac:	2b01      	cmp	r3, #1
 80053ae:	bf04      	itt	eq
 80053b0:	2300      	moveq	r3, #0
 80053b2:	f884 3058 	strbeq.w	r3, [r4, #88]	; 0x58
 80053b6:	f000 fc5f 	bl	8005c78 <vPortExitCritical>
 80053ba:	682a      	ldr	r2, [r5, #0]
 80053bc:	b12a      	cbz	r2, 80053ca <vTaskSuspend+0x4e>
 80053be:	f000 fc39 	bl	8005c34 <vPortEnterCritical>
 80053c2:	f7ff fd17 	bl	8004df4 <prvResetNextTaskUnblockTime>
 80053c6:	f000 fc57 	bl	8005c78 <vPortExitCritical>
 80053ca:	6833      	ldr	r3, [r6, #0]
 80053cc:	42a3      	cmp	r3, r4
 80053ce:	d115      	bne.n	80053fc <vTaskSuspend+0x80>
 80053d0:	682b      	ldr	r3, [r5, #0]
 80053d2:	b1a3      	cbz	r3, 80053fe <vTaskSuspend+0x82>
 80053d4:	4b13      	ldr	r3, [pc, #76]	; (8005424 <vTaskSuspend+0xa8>)
 80053d6:	681b      	ldr	r3, [r3, #0]
 80053d8:	b143      	cbz	r3, 80053ec <vTaskSuspend+0x70>
 80053da:	f04f 0350 	mov.w	r3, #80	; 0x50
 80053de:	f383 8811 	msr	BASEPRI, r3
 80053e2:	f3bf 8f6f 	isb	sy
 80053e6:	f3bf 8f4f 	dsb	sy
 80053ea:	e7fe      	b.n	80053ea <vTaskSuspend+0x6e>
 80053ec:	f04f 5280 	mov.w	r2, #268435456	; 0x10000000
 80053f0:	4b0d      	ldr	r3, [pc, #52]	; (8005428 <vTaskSuspend+0xac>)
 80053f2:	601a      	str	r2, [r3, #0]
 80053f4:	f3bf 8f4f 	dsb	sy
 80053f8:	f3bf 8f6f 	isb	sy
 80053fc:	bd70      	pop	{r4, r5, r6, pc}
 80053fe:	4a07      	ldr	r2, [pc, #28]	; (800541c <vTaskSuspend+0xa0>)
 8005400:	6811      	ldr	r1, [r2, #0]
 8005402:	4a0a      	ldr	r2, [pc, #40]	; (800542c <vTaskSuspend+0xb0>)
 8005404:	6812      	ldr	r2, [r2, #0]
 8005406:	4291      	cmp	r1, r2
 8005408:	d101      	bne.n	800540e <vTaskSuspend+0x92>
 800540a:	6033      	str	r3, [r6, #0]
 800540c:	e7f6      	b.n	80053fc <vTaskSuspend+0x80>
 800540e:	e8bd 4070 	ldmia.w	sp!, {r4, r5, r6, lr}
 8005412:	f7ff bf6b 	b.w	80052ec <vTaskSwitchContext>
 8005416:	bf00      	nop
 8005418:	200006f4 	.word	0x200006f4
 800541c:	20000bc0 	.word	0x20000bc0
 8005420:	20000bbc 	.word	0x20000bbc
 8005424:	20000b6c 	.word	0x20000b6c
 8005428:	e000ed04 	.word	0xe000ed04
 800542c:	20000b60 	.word	0x20000b60

08005430 <vTaskPlaceOnEventList>:
 8005430:	b510      	push	{r4, lr}
 8005432:	460c      	mov	r4, r1
 8005434:	b940      	cbnz	r0, 8005448 <vTaskPlaceOnEventList+0x18>
 8005436:	f04f 0350 	mov.w	r3, #80	; 0x50
 800543a:	f383 8811 	msr	BASEPRI, r3
 800543e:	f3bf 8f6f 	isb	sy
 8005442:	f3bf 8f4f 	dsb	sy
 8005446:	e7fe      	b.n	8005446 <vTaskPlaceOnEventList+0x16>
 8005448:	4b05      	ldr	r3, [pc, #20]	; (8005460 <vTaskPlaceOnEventList+0x30>)
 800544a:	6819      	ldr	r1, [r3, #0]
 800544c:	3118      	adds	r1, #24
 800544e:	f7ff f8b1 	bl	80045b4 <vListInsert>
 8005452:	4620      	mov	r0, r4
 8005454:	e8bd 4010 	ldmia.w	sp!, {r4, lr}
 8005458:	2101      	movs	r1, #1
 800545a:	f7ff bd21 	b.w	8004ea0 <prvAddCurrentTaskToDelayedList>
 800545e:	bf00      	nop
 8005460:	200006f4 	.word	0x200006f4

08005464 <vTaskPlaceOnUnorderedEventList>:
 8005464:	b510      	push	{r4, lr}
 8005466:	4614      	mov	r4, r2
 8005468:	b940      	cbnz	r0, 800547c <vTaskPlaceOnUnorderedEventList+0x18>
 800546a:	f04f 0350 	mov.w	r3, #80	; 0x50
 800546e:	f383 8811 	msr	BASEPRI, r3
 8005472:	f3bf 8f6f 	isb	sy
 8005476:	f3bf 8f4f 	dsb	sy
 800547a:	e7fe      	b.n	800547a <vTaskPlaceOnUnorderedEventList+0x16>
 800547c:	4b0d      	ldr	r3, [pc, #52]	; (80054b4 <vTaskPlaceOnUnorderedEventList+0x50>)
 800547e:	681b      	ldr	r3, [r3, #0]
 8005480:	b943      	cbnz	r3, 8005494 <vTaskPlaceOnUnorderedEventList+0x30>
 8005482:	f04f 0350 	mov.w	r3, #80	; 0x50
 8005486:	f383 8811 	msr	BASEPRI, r3
 800548a:	f3bf 8f6f 	isb	sy
 800548e:	f3bf 8f4f 	dsb	sy
 8005492:	e7fe      	b.n	8005492 <vTaskPlaceOnUnorderedEventList+0x2e>
 8005494:	4b08      	ldr	r3, [pc, #32]	; (80054b8 <vTaskPlaceOnUnorderedEventList+0x54>)
 8005496:	f041 4100 	orr.w	r1, r1, #2147483648	; 0x80000000
 800549a:	681a      	ldr	r2, [r3, #0]
 800549c:	6191      	str	r1, [r2, #24]
 800549e:	6819      	ldr	r1, [r3, #0]
 80054a0:	3118      	adds	r1, #24
 80054a2:	f7ff f87b 	bl	800459c <vListInsertEnd>
 80054a6:	4620      	mov	r0, r4
 80054a8:	e8bd 4010 	ldmia.w	sp!, {r4, lr}
 80054ac:	2101      	movs	r1, #1
 80054ae:	f7ff bcf7 	b.w	8004ea0 <prvAddCurrentTaskToDelayedList>
 80054b2:	bf00      	nop
 80054b4:	20000b6c 	.word	0x20000b6c
 80054b8:	200006f4 	.word	0x200006f4

080054bc <vTaskPlaceOnEventListRestricted>:
 80054bc:	b538      	push	{r3, r4, r5, lr}
 80054be:	460d      	mov	r5, r1
 80054c0:	4614      	mov	r4, r2
 80054c2:	b940      	cbnz	r0, 80054d6 <vTaskPlaceOnEventListRestricted+0x1a>
 80054c4:	f04f 0350 	mov.w	r3, #80	; 0x50
 80054c8:	f383 8811 	msr	BASEPRI, r3
 80054cc:	f3bf 8f6f 	isb	sy
 80054d0:	f3bf 8f4f 	dsb	sy
 80054d4:	e7fe      	b.n	80054d4 <vTaskPlaceOnEventListRestricted+0x18>
 80054d6:	4b08      	ldr	r3, [pc, #32]	; (80054f8 <vTaskPlaceOnEventListRestricted+0x3c>)
 80054d8:	6819      	ldr	r1, [r3, #0]
 80054da:	3118      	adds	r1, #24
 80054dc:	f7ff f85e 	bl	800459c <vListInsertEnd>
 80054e0:	2c00      	cmp	r4, #0
 80054e2:	4621      	mov	r1, r4
 80054e4:	bf08      	it	eq
 80054e6:	4628      	moveq	r0, r5
 80054e8:	e8bd 4038 	ldmia.w	sp!, {r3, r4, r5, lr}
 80054ec:	bf18      	it	ne
 80054ee:	f04f 30ff 	movne.w	r0, #4294967295
 80054f2:	f7ff bcd5 	b.w	8004ea0 <prvAddCurrentTaskToDelayedList>
 80054f6:	bf00      	nop
 80054f8:	200006f4 	.word	0x200006f4

080054fc <xTaskRemoveFromEventList>:
 80054fc:	b538      	push	{r3, r4, r5, lr}
 80054fe:	68c3      	ldr	r3, [r0, #12]
 8005500:	68dc      	ldr	r4, [r3, #12]
 8005502:	b944      	cbnz	r4, 8005516 <xTaskRemoveFromEventList+0x1a>
 8005504:	f04f 0350 	mov.w	r3, #80	; 0x50
 8005508:	f383 8811 	msr	BASEPRI, r3
 800550c:	f3bf 8f6f 	isb	sy
 8005510:	f3bf 8f4f 	dsb	sy
 8005514:	e7fe      	b.n	8005514 <xTaskRemoveFromEventList+0x18>
 8005516:	f104 0518 	add.w	r5, r4, #24
 800551a:	4628      	mov	r0, r5
 800551c:	f7ff f861 	bl	80045e2 <uxListRemove>
 8005520:	4b10      	ldr	r3, [pc, #64]	; (8005564 <xTaskRemoveFromEventList+0x68>)
 8005522:	681b      	ldr	r3, [r3, #0]
 8005524:	b9db      	cbnz	r3, 800555e <xTaskRemoveFromEventList+0x62>
 8005526:	1d25      	adds	r5, r4, #4
 8005528:	4628      	mov	r0, r5
 800552a:	f7ff f85a 	bl	80045e2 <uxListRemove>
 800552e:	4a0e      	ldr	r2, [pc, #56]	; (8005568 <xTaskRemoveFromEventList+0x6c>)
 8005530:	2014      	movs	r0, #20
 8005532:	6811      	ldr	r1, [r2, #0]
 8005534:	6ae3      	ldr	r3, [r4, #44]	; 0x2c
 8005536:	428b      	cmp	r3, r1
 8005538:	4629      	mov	r1, r5
 800553a:	bf88      	it	hi
 800553c:	6013      	strhi	r3, [r2, #0]
 800553e:	4a0b      	ldr	r2, [pc, #44]	; (800556c <xTaskRemoveFromEventList+0x70>)
 8005540:	fb00 2003 	mla	r0, r0, r3, r2
 8005544:	f7ff f82a 	bl	800459c <vListInsertEnd>
 8005548:	4b09      	ldr	r3, [pc, #36]	; (8005570 <xTaskRemoveFromEventList+0x74>)
 800554a:	6ae2      	ldr	r2, [r4, #44]	; 0x2c
 800554c:	681b      	ldr	r3, [r3, #0]
 800554e:	6adb      	ldr	r3, [r3, #44]	; 0x2c
 8005550:	429a      	cmp	r2, r3
 8005552:	bf85      	ittet	hi
 8005554:	2001      	movhi	r0, #1
 8005556:	4b07      	ldrhi	r3, [pc, #28]	; (8005574 <xTaskRemoveFromEventList+0x78>)
 8005558:	2000      	movls	r0, #0
 800555a:	6018      	strhi	r0, [r3, #0]
 800555c:	bd38      	pop	{r3, r4, r5, pc}
 800555e:	4629      	mov	r1, r5
 8005560:	4805      	ldr	r0, [pc, #20]	; (8005578 <xTaskRemoveFromEventList+0x7c>)
 8005562:	e7ef      	b.n	8005544 <xTaskRemoveFromEventList+0x48>
 8005564:	20000b6c 	.word	0x20000b6c
 8005568:	20000b74 	.word	0x20000b74
 800556c:	20000700 	.word	0x20000700
 8005570:	200006f4 	.word	0x200006f4
 8005574:	20000bec 	.word	0x20000bec
 8005578:	20000ba8 	.word	0x20000ba8

0800557c <vTaskRemoveFromUnorderedEventList>:
 800557c:	4a1b      	ldr	r2, [pc, #108]	; (80055ec <vTaskRemoveFromUnorderedEventList+0x70>)
 800557e:	b538      	push	{r3, r4, r5, lr}
 8005580:	6812      	ldr	r2, [r2, #0]
 8005582:	b942      	cbnz	r2, 8005596 <vTaskRemoveFromUnorderedEventList+0x1a>
 8005584:	f04f 0350 	mov.w	r3, #80	; 0x50
 8005588:	f383 8811 	msr	BASEPRI, r3
 800558c:	f3bf 8f6f 	isb	sy
 8005590:	f3bf 8f4f 	dsb	sy
 8005594:	e7fe      	b.n	8005594 <vTaskRemoveFromUnorderedEventList+0x18>
 8005596:	68c4      	ldr	r4, [r0, #12]
 8005598:	f041 4100 	orr.w	r1, r1, #2147483648	; 0x80000000
 800559c:	6001      	str	r1, [r0, #0]
 800559e:	b944      	cbnz	r4, 80055b2 <vTaskRemoveFromUnorderedEventList+0x36>
 80055a0:	f04f 0350 	mov.w	r3, #80	; 0x50
 80055a4:	f383 8811 	msr	BASEPRI, r3
 80055a8:	f3bf 8f6f 	isb	sy
 80055ac:	f3bf 8f4f 	dsb	sy
 80055b0:	e7fe      	b.n	80055b0 <vTaskRemoveFromUnorderedEventList+0x34>
 80055b2:	1d25      	adds	r5, r4, #4
 80055b4:	f7ff f815 	bl	80045e2 <uxListRemove>
 80055b8:	4628      	mov	r0, r5
 80055ba:	f7ff f812 	bl	80045e2 <uxListRemove>
 80055be:	2014      	movs	r0, #20
 80055c0:	4a0b      	ldr	r2, [pc, #44]	; (80055f0 <vTaskRemoveFromUnorderedEventList+0x74>)
 80055c2:	6ae3      	ldr	r3, [r4, #44]	; 0x2c
 80055c4:	6811      	ldr	r1, [r2, #0]
 80055c6:	428b      	cmp	r3, r1
 80055c8:	bf88      	it	hi
 80055ca:	6013      	strhi	r3, [r2, #0]
 80055cc:	4a09      	ldr	r2, [pc, #36]	; (80055f4 <vTaskRemoveFromUnorderedEventList+0x78>)
 80055ce:	4629      	mov	r1, r5
 80055d0:	fb00 2003 	mla	r0, r0, r3, r2
 80055d4:	f7fe ffe2 	bl	800459c <vListInsertEnd>
 80055d8:	4b07      	ldr	r3, [pc, #28]	; (80055f8 <vTaskRemoveFromUnorderedEventList+0x7c>)
 80055da:	6ae2      	ldr	r2, [r4, #44]	; 0x2c
 80055dc:	681b      	ldr	r3, [r3, #0]
 80055de:	6adb      	ldr	r3, [r3, #44]	; 0x2c
 80055e0:	429a      	cmp	r2, r3
 80055e2:	bf82      	ittt	hi
 80055e4:	2201      	movhi	r2, #1
 80055e6:	4b05      	ldrhi	r3, [pc, #20]	; (80055fc <vTaskRemoveFromUnorderedEventList+0x80>)
 80055e8:	601a      	strhi	r2, [r3, #0]
 80055ea:	bd38      	pop	{r3, r4, r5, pc}
 80055ec:	20000b6c 	.word	0x20000b6c
 80055f0:	20000b74 	.word	0x20000b74
 80055f4:	20000700 	.word	0x20000700
 80055f8:	200006f4 	.word	0x200006f4
 80055fc:	20000bec 	.word	0x20000bec

08005600 <vTaskInternalSetTimeOutState>:
 8005600:	4b03      	ldr	r3, [pc, #12]	; (8005610 <vTaskInternalSetTimeOutState+0x10>)
 8005602:	681b      	ldr	r3, [r3, #0]
 8005604:	6003      	str	r3, [r0, #0]
 8005606:	4b03      	ldr	r3, [pc, #12]	; (8005614 <vTaskInternalSetTimeOutState+0x14>)
 8005608:	681b      	ldr	r3, [r3, #0]
 800560a:	6043      	str	r3, [r0, #4]
 800560c:	4770      	bx	lr
 800560e:	bf00      	nop
 8005610:	20000ba4 	.word	0x20000ba4
 8005614:	20000be8 	.word	0x20000be8

08005618 <xTaskCheckForTimeOut>:
 8005618:	b5f8      	push	{r3, r4, r5, r6, r7, lr}
 800561a:	460c      	mov	r4, r1
 800561c:	4605      	mov	r5, r0
 800561e:	b940      	cbnz	r0, 8005632 <xTaskCheckForTimeOut+0x1a>
 8005620:	f04f 0350 	mov.w	r3, #80	; 0x50
 8005624:	f383 8811 	msr	BASEPRI, r3
 8005628:	f3bf 8f6f 	isb	sy
 800562c:	f3bf 8f4f 	dsb	sy
 8005630:	e7fe      	b.n	8005630 <xTaskCheckForTimeOut+0x18>
 8005632:	b941      	cbnz	r1, 8005646 <xTaskCheckForTimeOut+0x2e>
 8005634:	f04f 0350 	mov.w	r3, #80	; 0x50
 8005638:	f383 8811 	msr	BASEPRI, r3
 800563c:	f3bf 8f6f 	isb	sy
 8005640:	f3bf 8f4f 	dsb	sy
 8005644:	e7fe      	b.n	8005644 <xTaskCheckForTimeOut+0x2c>
 8005646:	f000 faf5 	bl	8005c34 <vPortEnterCritical>
 800564a:	4b0f      	ldr	r3, [pc, #60]	; (8005688 <xTaskCheckForTimeOut+0x70>)
 800564c:	6868      	ldr	r0, [r5, #4]
 800564e:	6819      	ldr	r1, [r3, #0]
 8005650:	6823      	ldr	r3, [r4, #0]
 8005652:	1a0a      	subs	r2, r1, r0
 8005654:	1c5e      	adds	r6, r3, #1
 8005656:	d00d      	beq.n	8005674 <xTaskCheckForTimeOut+0x5c>
 8005658:	4e0c      	ldr	r6, [pc, #48]	; (800568c <xTaskCheckForTimeOut+0x74>)
 800565a:	682f      	ldr	r7, [r5, #0]
 800565c:	6836      	ldr	r6, [r6, #0]
 800565e:	42b7      	cmp	r7, r6
 8005660:	d001      	beq.n	8005666 <xTaskCheckForTimeOut+0x4e>
 8005662:	4288      	cmp	r0, r1
 8005664:	d90d      	bls.n	8005682 <xTaskCheckForTimeOut+0x6a>
 8005666:	4293      	cmp	r3, r2
 8005668:	d909      	bls.n	800567e <xTaskCheckForTimeOut+0x66>
 800566a:	1a9b      	subs	r3, r3, r2
 800566c:	6023      	str	r3, [r4, #0]
 800566e:	4628      	mov	r0, r5
 8005670:	f7ff ffc6 	bl	8005600 <vTaskInternalSetTimeOutState>
 8005674:	2400      	movs	r4, #0
 8005676:	f000 faff 	bl	8005c78 <vPortExitCritical>
 800567a:	4620      	mov	r0, r4
 800567c:	bdf8      	pop	{r3, r4, r5, r6, r7, pc}
 800567e:	2300      	movs	r3, #0
 8005680:	6023      	str	r3, [r4, #0]
 8005682:	2401      	movs	r4, #1
 8005684:	e7f7      	b.n	8005676 <xTaskCheckForTimeOut+0x5e>
 8005686:	bf00      	nop
 8005688:	20000be8 	.word	0x20000be8
 800568c:	20000ba4 	.word	0x20000ba4

08005690 <vTaskMissedYield>:
 8005690:	2201      	movs	r2, #1
 8005692:	4b01      	ldr	r3, [pc, #4]	; (8005698 <vTaskMissedYield+0x8>)
 8005694:	601a      	str	r2, [r3, #0]
 8005696:	4770      	bx	lr
 8005698:	20000bec 	.word	0x20000bec

0800569c <xTaskGetSchedulerState>:
 800569c:	4b05      	ldr	r3, [pc, #20]	; (80056b4 <xTaskGetSchedulerState+0x18>)
 800569e:	681b      	ldr	r3, [r3, #0]
 80056a0:	b133      	cbz	r3, 80056b0 <xTaskGetSchedulerState+0x14>
 80056a2:	4b05      	ldr	r3, [pc, #20]	; (80056b8 <xTaskGetSchedulerState+0x1c>)
 80056a4:	681b      	ldr	r3, [r3, #0]
 80056a6:	2b00      	cmp	r3, #0
 80056a8:	bf0c      	ite	eq
 80056aa:	2002      	moveq	r0, #2
 80056ac:	2000      	movne	r0, #0
 80056ae:	4770      	bx	lr
 80056b0:	2001      	movs	r0, #1
 80056b2:	4770      	bx	lr
 80056b4:	20000bbc 	.word	0x20000bbc
 80056b8:	20000b6c 	.word	0x20000b6c

080056bc <xTaskPriorityDisinherit>:
 80056bc:	b538      	push	{r3, r4, r5, lr}
 80056be:	b908      	cbnz	r0, 80056c4 <xTaskPriorityDisinherit+0x8>
 80056c0:	2000      	movs	r0, #0
 80056c2:	bd38      	pop	{r3, r4, r5, pc}
 80056c4:	4b1b      	ldr	r3, [pc, #108]	; (8005734 <xTaskPriorityDisinherit+0x78>)
 80056c6:	681c      	ldr	r4, [r3, #0]
 80056c8:	4284      	cmp	r4, r0
 80056ca:	d008      	beq.n	80056de <xTaskPriorityDisinherit+0x22>
 80056cc:	f04f 0350 	mov.w	r3, #80	; 0x50
 80056d0:	f383 8811 	msr	BASEPRI, r3
 80056d4:	f3bf 8f6f 	isb	sy
 80056d8:	f3bf 8f4f 	dsb	sy
 80056dc:	e7fe      	b.n	80056dc <xTaskPriorityDisinherit+0x20>
 80056de:	6d23      	ldr	r3, [r4, #80]	; 0x50
 80056e0:	b943      	cbnz	r3, 80056f4 <xTaskPriorityDisinherit+0x38>
 80056e2:	f04f 0350 	mov.w	r3, #80	; 0x50
 80056e6:	f383 8811 	msr	BASEPRI, r3
 80056ea:	f3bf 8f6f 	isb	sy
 80056ee:	f3bf 8f4f 	dsb	sy
 80056f2:	e7fe      	b.n	80056f2 <xTaskPriorityDisinherit+0x36>
 80056f4:	6ae1      	ldr	r1, [r4, #44]	; 0x2c
 80056f6:	6ce2      	ldr	r2, [r4, #76]	; 0x4c
 80056f8:	3b01      	subs	r3, #1
 80056fa:	4291      	cmp	r1, r2
 80056fc:	6523      	str	r3, [r4, #80]	; 0x50
 80056fe:	d0df      	beq.n	80056c0 <xTaskPriorityDisinherit+0x4>
 8005700:	2b00      	cmp	r3, #0
 8005702:	d1dd      	bne.n	80056c0 <xTaskPriorityDisinherit+0x4>
 8005704:	1d25      	adds	r5, r4, #4
 8005706:	4628      	mov	r0, r5
 8005708:	f7fe ff6b 	bl	80045e2 <uxListRemove>
 800570c:	2014      	movs	r0, #20
 800570e:	6ce3      	ldr	r3, [r4, #76]	; 0x4c
 8005710:	f1c3 0238 	rsb	r2, r3, #56	; 0x38
 8005714:	61a2      	str	r2, [r4, #24]
 8005716:	4a08      	ldr	r2, [pc, #32]	; (8005738 <xTaskPriorityDisinherit+0x7c>)
 8005718:	62e3      	str	r3, [r4, #44]	; 0x2c
 800571a:	6811      	ldr	r1, [r2, #0]
 800571c:	428b      	cmp	r3, r1
 800571e:	bf88      	it	hi
 8005720:	6013      	strhi	r3, [r2, #0]
 8005722:	4a06      	ldr	r2, [pc, #24]	; (800573c <xTaskPriorityDisinherit+0x80>)
 8005724:	4629      	mov	r1, r5
 8005726:	fb00 2003 	mla	r0, r0, r3, r2
 800572a:	f7fe ff37 	bl	800459c <vListInsertEnd>
 800572e:	2001      	movs	r0, #1
 8005730:	e7c7      	b.n	80056c2 <xTaskPriorityDisinherit+0x6>
 8005732:	bf00      	nop
 8005734:	200006f4 	.word	0x200006f4
 8005738:	20000b74 	.word	0x20000b74
 800573c:	20000700 	.word	0x20000700

08005740 <uxTaskResetEventItemValue>:
 8005740:	4b04      	ldr	r3, [pc, #16]	; (8005754 <uxTaskResetEventItemValue+0x14>)
 8005742:	681a      	ldr	r2, [r3, #0]
 8005744:	6819      	ldr	r1, [r3, #0]
 8005746:	6990      	ldr	r0, [r2, #24]
 8005748:	681a      	ldr	r2, [r3, #0]
 800574a:	6acb      	ldr	r3, [r1, #44]	; 0x2c
 800574c:	f1c3 0338 	rsb	r3, r3, #56	; 0x38
 8005750:	6193      	str	r3, [r2, #24]
 8005752:	4770      	bx	lr
 8005754:	200006f4 	.word	0x200006f4

08005758 <prvCheckForValidListAndQueue>:
 8005758:	b5f7      	push	{r0, r1, r2, r4, r5, r6, r7, lr}
 800575a:	4c11      	ldr	r4, [pc, #68]	; (80057a0 <prvCheckForValidListAndQueue+0x48>)
 800575c:	f000 fa6a 	bl	8005c34 <vPortEnterCritical>
 8005760:	6825      	ldr	r5, [r4, #0]
 8005762:	b9bd      	cbnz	r5, 8005794 <prvCheckForValidListAndQueue+0x3c>
 8005764:	4f0f      	ldr	r7, [pc, #60]	; (80057a4 <prvCheckForValidListAndQueue+0x4c>)
 8005766:	4e10      	ldr	r6, [pc, #64]	; (80057a8 <prvCheckForValidListAndQueue+0x50>)
 8005768:	4638      	mov	r0, r7
 800576a:	f7fe ff09 	bl	8004580 <vListInitialise>
 800576e:	4630      	mov	r0, r6
 8005770:	f7fe ff06 	bl	8004580 <vListInitialise>
 8005774:	4b0d      	ldr	r3, [pc, #52]	; (80057ac <prvCheckForValidListAndQueue+0x54>)
 8005776:	4a0e      	ldr	r2, [pc, #56]	; (80057b0 <prvCheckForValidListAndQueue+0x58>)
 8005778:	601f      	str	r7, [r3, #0]
 800577a:	4b0e      	ldr	r3, [pc, #56]	; (80057b4 <prvCheckForValidListAndQueue+0x5c>)
 800577c:	2110      	movs	r1, #16
 800577e:	601e      	str	r6, [r3, #0]
 8005780:	200a      	movs	r0, #10
 8005782:	9500      	str	r5, [sp, #0]
 8005784:	4b0c      	ldr	r3, [pc, #48]	; (80057b8 <prvCheckForValidListAndQueue+0x60>)
 8005786:	f7ff f807 	bl	8004798 <xQueueGenericCreateStatic>
 800578a:	6020      	str	r0, [r4, #0]
 800578c:	b110      	cbz	r0, 8005794 <prvCheckForValidListAndQueue+0x3c>
 800578e:	490b      	ldr	r1, [pc, #44]	; (80057bc <prvCheckForValidListAndQueue+0x64>)
 8005790:	f7ff fa2a 	bl	8004be8 <vQueueAddToRegistry>
 8005794:	b003      	add	sp, #12
 8005796:	e8bd 40f0 	ldmia.w	sp!, {r4, r5, r6, r7, lr}
 800579a:	f000 ba6d 	b.w	8005c78 <vPortExitCritical>
 800579e:	bf00      	nop
 80057a0:	20000d14 	.word	0x20000d14
 80057a4:	20000c98 	.word	0x20000c98
 80057a8:	20000cac 	.word	0x20000cac
 80057ac:	20000bf0 	.word	0x20000bf0
 80057b0:	20000bf8 	.word	0x20000bf8
 80057b4:	20000bf4 	.word	0x20000bf4
 80057b8:	20000cc4 	.word	0x20000cc4
 80057bc:	08006426 	.word	0x08006426

080057c0 <prvInsertTimerInActiveList>:
 80057c0:	4291      	cmp	r1, r2
 80057c2:	b508      	push	{r3, lr}
 80057c4:	6041      	str	r1, [r0, #4]
 80057c6:	6100      	str	r0, [r0, #16]
 80057c8:	d80a      	bhi.n	80057e0 <prvInsertTimerInActiveList+0x20>
 80057ca:	1ad2      	subs	r2, r2, r3
 80057cc:	6983      	ldr	r3, [r0, #24]
 80057ce:	429a      	cmp	r2, r3
 80057d0:	d20d      	bcs.n	80057ee <prvInsertTimerInActiveList+0x2e>
 80057d2:	4b08      	ldr	r3, [pc, #32]	; (80057f4 <prvInsertTimerInActiveList+0x34>)
 80057d4:	1d01      	adds	r1, r0, #4
 80057d6:	6818      	ldr	r0, [r3, #0]
 80057d8:	f7fe feec 	bl	80045b4 <vListInsert>
 80057dc:	2000      	movs	r0, #0
 80057de:	bd08      	pop	{r3, pc}
 80057e0:	429a      	cmp	r2, r3
 80057e2:	d201      	bcs.n	80057e8 <prvInsertTimerInActiveList+0x28>
 80057e4:	4299      	cmp	r1, r3
 80057e6:	d202      	bcs.n	80057ee <prvInsertTimerInActiveList+0x2e>
 80057e8:	1d01      	adds	r1, r0, #4
 80057ea:	4b03      	ldr	r3, [pc, #12]	; (80057f8 <prvInsertTimerInActiveList+0x38>)
 80057ec:	e7f3      	b.n	80057d6 <prvInsertTimerInActiveList+0x16>
 80057ee:	2001      	movs	r0, #1
 80057f0:	e7f5      	b.n	80057de <prvInsertTimerInActiveList+0x1e>
 80057f2:	bf00      	nop
 80057f4:	20000bf4 	.word	0x20000bf4
 80057f8:	20000bf0 	.word	0x20000bf0

080057fc <xTimerCreateTimerTask>:
 80057fc:	b510      	push	{r4, lr}
 80057fe:	b088      	sub	sp, #32
 8005800:	f7ff ffaa 	bl	8005758 <prvCheckForValidListAndQueue>
 8005804:	4b12      	ldr	r3, [pc, #72]	; (8005850 <xTimerCreateTimerTask+0x54>)
 8005806:	681b      	ldr	r3, [r3, #0]
 8005808:	b1b3      	cbz	r3, 8005838 <xTimerCreateTimerTask+0x3c>
 800580a:	2400      	movs	r4, #0
 800580c:	aa07      	add	r2, sp, #28
 800580e:	a906      	add	r1, sp, #24
 8005810:	a805      	add	r0, sp, #20
 8005812:	e9cd 4405 	strd	r4, r4, [sp, #20]
 8005816:	f7fe fdc1 	bl	800439c <vApplicationGetTimerTaskMemory>
 800581a:	9b05      	ldr	r3, [sp, #20]
 800581c:	9a07      	ldr	r2, [sp, #28]
 800581e:	9302      	str	r3, [sp, #8]
 8005820:	9b06      	ldr	r3, [sp, #24]
 8005822:	490c      	ldr	r1, [pc, #48]	; (8005854 <xTimerCreateTimerTask+0x58>)
 8005824:	9301      	str	r3, [sp, #4]
 8005826:	2302      	movs	r3, #2
 8005828:	480b      	ldr	r0, [pc, #44]	; (8005858 <xTimerCreateTimerTask+0x5c>)
 800582a:	9300      	str	r3, [sp, #0]
 800582c:	4623      	mov	r3, r4
 800582e:	f7ff fb71 	bl	8004f14 <xTaskCreateStatic>
 8005832:	4b0a      	ldr	r3, [pc, #40]	; (800585c <xTimerCreateTimerTask+0x60>)
 8005834:	6018      	str	r0, [r3, #0]
 8005836:	b940      	cbnz	r0, 800584a <xTimerCreateTimerTask+0x4e>
 8005838:	f04f 0350 	mov.w	r3, #80	; 0x50
 800583c:	f383 8811 	msr	BASEPRI, r3
 8005840:	f3bf 8f6f 	isb	sy
 8005844:	f3bf 8f4f 	dsb	sy
 8005848:	e7fe      	b.n	8005848 <xTimerCreateTimerTask+0x4c>
 800584a:	2001      	movs	r0, #1
 800584c:	b008      	add	sp, #32
 800584e:	bd10      	pop	{r4, pc}
 8005850:	20000d14 	.word	0x20000d14
 8005854:	0800642b 	.word	0x0800642b
 8005858:	08005985 	.word	0x08005985
 800585c:	20000d18 	.word	0x20000d18

08005860 <xTimerCreate>:
 8005860:	e92d 41f0 	stmdb	sp!, {r4, r5, r6, r7, r8, lr}
 8005864:	4680      	mov	r8, r0
 8005866:	2030      	movs	r0, #48	; 0x30
 8005868:	460d      	mov	r5, r1
 800586a:	4617      	mov	r7, r2
 800586c:	461e      	mov	r6, r3
 800586e:	f000 fb15 	bl	8005e9c <pvPortMalloc>
 8005872:	4604      	mov	r4, r0
 8005874:	b1c0      	cbz	r0, 80058a8 <xTimerCreate+0x48>
 8005876:	b945      	cbnz	r5, 800588a <xTimerCreate+0x2a>
 8005878:	f04f 0350 	mov.w	r3, #80	; 0x50
 800587c:	f383 8811 	msr	BASEPRI, r3
 8005880:	f3bf 8f6f 	isb	sy
 8005884:	f3bf 8f4f 	dsb	sy
 8005888:	e7fe      	b.n	8005888 <xTimerCreate+0x28>
 800588a:	f7ff ff65 	bl	8005758 <prvCheckForValidListAndQueue>
 800588e:	9b06      	ldr	r3, [sp, #24]
 8005890:	f8c4 8000 	str.w	r8, [r4]
 8005894:	6263      	str	r3, [r4, #36]	; 0x24
 8005896:	e9c4 5706 	strd	r5, r7, [r4, #24]
 800589a:	6226      	str	r6, [r4, #32]
 800589c:	1d20      	adds	r0, r4, #4
 800589e:	f7fe fe7a 	bl	8004596 <vListInitialiseItem>
 80058a2:	2300      	movs	r3, #0
 80058a4:	f884 302c 	strb.w	r3, [r4, #44]	; 0x2c
 80058a8:	4620      	mov	r0, r4
 80058aa:	e8bd 81f0 	ldmia.w	sp!, {r4, r5, r6, r7, r8, pc}
	...

080058b0 <xTimerGenericCommand>:
 80058b0:	b530      	push	{r4, r5, lr}
 80058b2:	4615      	mov	r5, r2
 80058b4:	b085      	sub	sp, #20
 80058b6:	461a      	mov	r2, r3
 80058b8:	4603      	mov	r3, r0
 80058ba:	b940      	cbnz	r0, 80058ce <xTimerGenericCommand+0x1e>
 80058bc:	f04f 0350 	mov.w	r3, #80	; 0x50
 80058c0:	f383 8811 	msr	BASEPRI, r3
 80058c4:	f3bf 8f6f 	isb	sy
 80058c8:	f3bf 8f4f 	dsb	sy
 80058cc:	e7fe      	b.n	80058cc <xTimerGenericCommand+0x1c>
 80058ce:	4c0d      	ldr	r4, [pc, #52]	; (8005904 <xTimerGenericCommand+0x54>)
 80058d0:	6820      	ldr	r0, [r4, #0]
 80058d2:	b178      	cbz	r0, 80058f4 <xTimerGenericCommand+0x44>
 80058d4:	2905      	cmp	r1, #5
 80058d6:	e9cd 1500 	strd	r1, r5, [sp]
 80058da:	9302      	str	r3, [sp, #8]
 80058dc:	dc0c      	bgt.n	80058f8 <xTimerGenericCommand+0x48>
 80058de:	f7ff fedd 	bl	800569c <xTaskGetSchedulerState>
 80058e2:	2300      	movs	r3, #0
 80058e4:	2802      	cmp	r0, #2
 80058e6:	bf0c      	ite	eq
 80058e8:	9a08      	ldreq	r2, [sp, #32]
 80058ea:	461a      	movne	r2, r3
 80058ec:	4669      	mov	r1, sp
 80058ee:	6820      	ldr	r0, [r4, #0]
 80058f0:	f7fe ffc6 	bl	8004880 <xQueueGenericSend>
 80058f4:	b005      	add	sp, #20
 80058f6:	bd30      	pop	{r4, r5, pc}
 80058f8:	2300      	movs	r3, #0
 80058fa:	4669      	mov	r1, sp
 80058fc:	f7ff f872 	bl	80049e4 <xQueueGenericSendFromISR>
 8005900:	e7f8      	b.n	80058f4 <xTimerGenericCommand+0x44>
 8005902:	bf00      	nop
 8005904:	20000d14 	.word	0x20000d14

08005908 <prvSwitchTimerLists>:
 8005908:	e92d 41f3 	stmdb	sp!, {r0, r1, r4, r5, r6, r7, r8, lr}
 800590c:	f04f 0800 	mov.w	r8, #0
 8005910:	4d1a      	ldr	r5, [pc, #104]	; (800597c <prvSwitchTimerLists+0x74>)
 8005912:	682b      	ldr	r3, [r5, #0]
 8005914:	681a      	ldr	r2, [r3, #0]
 8005916:	b932      	cbnz	r2, 8005926 <prvSwitchTimerLists+0x1e>
 8005918:	4a19      	ldr	r2, [pc, #100]	; (8005980 <prvSwitchTimerLists+0x78>)
 800591a:	6811      	ldr	r1, [r2, #0]
 800591c:	6013      	str	r3, [r2, #0]
 800591e:	6029      	str	r1, [r5, #0]
 8005920:	b002      	add	sp, #8
 8005922:	e8bd 81f0 	ldmia.w	sp!, {r4, r5, r6, r7, r8, pc}
 8005926:	68db      	ldr	r3, [r3, #12]
 8005928:	68dc      	ldr	r4, [r3, #12]
 800592a:	681e      	ldr	r6, [r3, #0]
 800592c:	1d27      	adds	r7, r4, #4
 800592e:	4638      	mov	r0, r7
 8005930:	f7fe fe57 	bl	80045e2 <uxListRemove>
 8005934:	6a63      	ldr	r3, [r4, #36]	; 0x24
 8005936:	4620      	mov	r0, r4
 8005938:	4798      	blx	r3
 800593a:	69e3      	ldr	r3, [r4, #28]
 800593c:	2b01      	cmp	r3, #1
 800593e:	d1e8      	bne.n	8005912 <prvSwitchTimerLists+0xa>
 8005940:	69a3      	ldr	r3, [r4, #24]
 8005942:	4433      	add	r3, r6
 8005944:	429e      	cmp	r6, r3
 8005946:	d206      	bcs.n	8005956 <prvSwitchTimerLists+0x4e>
 8005948:	6063      	str	r3, [r4, #4]
 800594a:	6124      	str	r4, [r4, #16]
 800594c:	4639      	mov	r1, r7
 800594e:	6828      	ldr	r0, [r5, #0]
 8005950:	f7fe fe30 	bl	80045b4 <vListInsert>
 8005954:	e7dd      	b.n	8005912 <prvSwitchTimerLists+0xa>
 8005956:	2300      	movs	r3, #0
 8005958:	f8cd 8000 	str.w	r8, [sp]
 800595c:	4632      	mov	r2, r6
 800595e:	4619      	mov	r1, r3
 8005960:	4620      	mov	r0, r4
 8005962:	f7ff ffa5 	bl	80058b0 <xTimerGenericCommand>
 8005966:	2800      	cmp	r0, #0
 8005968:	d1d3      	bne.n	8005912 <prvSwitchTimerLists+0xa>
 800596a:	f04f 0350 	mov.w	r3, #80	; 0x50
 800596e:	f383 8811 	msr	BASEPRI, r3
 8005972:	f3bf 8f6f 	isb	sy
 8005976:	f3bf 8f4f 	dsb	sy
 800597a:	e7fe      	b.n	800597a <prvSwitchTimerLists+0x72>
 800597c:	20000bf0 	.word	0x20000bf0
 8005980:	20000bf4 	.word	0x20000bf4

08005984 <prvTimerTask>:
 8005984:	e92d 4ff0 	stmdb	sp!, {r4, r5, r6, r7, r8, r9, sl, fp, lr}
 8005988:	4d6e      	ldr	r5, [pc, #440]	; (8005b44 <prvTimerTask+0x1c0>)
 800598a:	b087      	sub	sp, #28
 800598c:	f7fb f801 	bl	8000992 <vApplicationDaemonTaskStartupHook>
 8005990:	462f      	mov	r7, r5
 8005992:	f8df 81c0 	ldr.w	r8, [pc, #448]	; 8005b54 <prvTimerTask+0x1d0>
 8005996:	682b      	ldr	r3, [r5, #0]
 8005998:	f8d3 b000 	ldr.w	fp, [r3]
 800599c:	f1bb 0f00 	cmp.w	fp, #0
 80059a0:	d04b      	beq.n	8005a3a <prvTimerTask+0xb6>
 80059a2:	68db      	ldr	r3, [r3, #12]
 80059a4:	f8d3 a000 	ldr.w	sl, [r3]
 80059a8:	f7ff fb5c 	bl	8005064 <vTaskSuspendAll>
 80059ac:	f7ff fb62 	bl	8005074 <xTaskGetTickCount>
 80059b0:	4c65      	ldr	r4, [pc, #404]	; (8005b48 <prvTimerTask+0x1c4>)
 80059b2:	4681      	mov	r9, r0
 80059b4:	6823      	ldr	r3, [r4, #0]
 80059b6:	4626      	mov	r6, r4
 80059b8:	4298      	cmp	r0, r3
 80059ba:	d240      	bcs.n	8005a3e <prvTimerTask+0xba>
 80059bc:	f7ff ffa4 	bl	8005908 <prvSwitchTimerLists>
 80059c0:	f8c4 9000 	str.w	r9, [r4]
 80059c4:	f7ff fbfa 	bl	80051bc <xTaskResumeAll>
 80059c8:	f8df 9184 	ldr.w	r9, [pc, #388]	; 8005b50 <prvTimerTask+0x1cc>
 80059cc:	2200      	movs	r2, #0
 80059ce:	a902      	add	r1, sp, #8
 80059d0:	f8d9 0000 	ldr.w	r0, [r9]
 80059d4:	f7ff f868 	bl	8004aa8 <xQueueReceive>
 80059d8:	2800      	cmp	r0, #0
 80059da:	d0dc      	beq.n	8005996 <prvTimerTask+0x12>
 80059dc:	9b02      	ldr	r3, [sp, #8]
 80059de:	2b00      	cmp	r3, #0
 80059e0:	da03      	bge.n	80059ea <prvTimerTask+0x66>
 80059e2:	e9dd 0104 	ldrd	r0, r1, [sp, #16]
 80059e6:	9b03      	ldr	r3, [sp, #12]
 80059e8:	4798      	blx	r3
 80059ea:	9b02      	ldr	r3, [sp, #8]
 80059ec:	2b00      	cmp	r3, #0
 80059ee:	dbed      	blt.n	80059cc <prvTimerTask+0x48>
 80059f0:	9c04      	ldr	r4, [sp, #16]
 80059f2:	6963      	ldr	r3, [r4, #20]
 80059f4:	b113      	cbz	r3, 80059fc <prvTimerTask+0x78>
 80059f6:	1d20      	adds	r0, r4, #4
 80059f8:	f7fe fdf3 	bl	80045e2 <uxListRemove>
 80059fc:	f7ff fb3a 	bl	8005074 <xTaskGetTickCount>
 8005a00:	6833      	ldr	r3, [r6, #0]
 8005a02:	4683      	mov	fp, r0
 8005a04:	4298      	cmp	r0, r3
 8005a06:	d201      	bcs.n	8005a0c <prvTimerTask+0x88>
 8005a08:	f7ff ff7e 	bl	8005908 <prvSwitchTimerLists>
 8005a0c:	9a02      	ldr	r2, [sp, #8]
 8005a0e:	f8c6 b000 	str.w	fp, [r6]
 8005a12:	2a09      	cmp	r2, #9
 8005a14:	d8da      	bhi.n	80059cc <prvTimerTask+0x48>
 8005a16:	2301      	movs	r3, #1
 8005a18:	4093      	lsls	r3, r2
 8005a1a:	f413 7a04 	ands.w	sl, r3, #528	; 0x210
 8005a1e:	d17e      	bne.n	8005b1e <prvTimerTask+0x19a>
 8005a20:	f013 0fc7 	tst.w	r3, #199	; 0xc7
 8005a24:	d154      	bne.n	8005ad0 <prvTimerTask+0x14c>
 8005a26:	069b      	lsls	r3, r3, #26
 8005a28:	d5d0      	bpl.n	80059cc <prvTimerTask+0x48>
 8005a2a:	f894 302c 	ldrb.w	r3, [r4, #44]	; 0x2c
 8005a2e:	2b00      	cmp	r3, #0
 8005a30:	d1cc      	bne.n	80059cc <prvTimerTask+0x48>
 8005a32:	4620      	mov	r0, r4
 8005a34:	f000 fac4 	bl	8005fc0 <vPortFree>
 8005a38:	e7c8      	b.n	80059cc <prvTimerTask+0x48>
 8005a3a:	46da      	mov	sl, fp
 8005a3c:	e7b4      	b.n	80059a8 <prvTimerTask+0x24>
 8005a3e:	6020      	str	r0, [r4, #0]
 8005a40:	f1bb 0f00 	cmp.w	fp, #0
 8005a44:	d029      	beq.n	8005a9a <prvTimerTask+0x116>
 8005a46:	4582      	cmp	sl, r0
 8005a48:	d840      	bhi.n	8005acc <prvTimerTask+0x148>
 8005a4a:	f7ff fbb7 	bl	80051bc <xTaskResumeAll>
 8005a4e:	683b      	ldr	r3, [r7, #0]
 8005a50:	68db      	ldr	r3, [r3, #12]
 8005a52:	68dc      	ldr	r4, [r3, #12]
 8005a54:	1d20      	adds	r0, r4, #4
 8005a56:	f7fe fdc4 	bl	80045e2 <uxListRemove>
 8005a5a:	69e3      	ldr	r3, [r4, #28]
 8005a5c:	2b01      	cmp	r3, #1
 8005a5e:	d118      	bne.n	8005a92 <prvTimerTask+0x10e>
 8005a60:	69a1      	ldr	r1, [r4, #24]
 8005a62:	4653      	mov	r3, sl
 8005a64:	464a      	mov	r2, r9
 8005a66:	4451      	add	r1, sl
 8005a68:	4620      	mov	r0, r4
 8005a6a:	f7ff fea9 	bl	80057c0 <prvInsertTimerInActiveList>
 8005a6e:	b180      	cbz	r0, 8005a92 <prvTimerTask+0x10e>
 8005a70:	2300      	movs	r3, #0
 8005a72:	4652      	mov	r2, sl
 8005a74:	9300      	str	r3, [sp, #0]
 8005a76:	4619      	mov	r1, r3
 8005a78:	4620      	mov	r0, r4
 8005a7a:	f7ff ff19 	bl	80058b0 <xTimerGenericCommand>
 8005a7e:	b940      	cbnz	r0, 8005a92 <prvTimerTask+0x10e>
 8005a80:	f04f 0350 	mov.w	r3, #80	; 0x50
 8005a84:	f383 8811 	msr	BASEPRI, r3
 8005a88:	f3bf 8f6f 	isb	sy
 8005a8c:	f3bf 8f4f 	dsb	sy
 8005a90:	e7fe      	b.n	8005a90 <prvTimerTask+0x10c>
 8005a92:	6a63      	ldr	r3, [r4, #36]	; 0x24
 8005a94:	4620      	mov	r0, r4
 8005a96:	4798      	blx	r3
 8005a98:	e796      	b.n	80059c8 <prvTimerTask+0x44>
 8005a9a:	4b2c      	ldr	r3, [pc, #176]	; (8005b4c <prvTimerTask+0x1c8>)
 8005a9c:	681b      	ldr	r3, [r3, #0]
 8005a9e:	681a      	ldr	r2, [r3, #0]
 8005aa0:	fab2 f282 	clz	r2, r2
 8005aa4:	0952      	lsrs	r2, r2, #5
 8005aa6:	4b2a      	ldr	r3, [pc, #168]	; (8005b50 <prvTimerTask+0x1cc>)
 8005aa8:	ebaa 0109 	sub.w	r1, sl, r9
 8005aac:	6818      	ldr	r0, [r3, #0]
 8005aae:	f7ff f8ad 	bl	8004c0c <vQueueWaitForMessageRestricted>
 8005ab2:	f7ff fb83 	bl	80051bc <xTaskResumeAll>
 8005ab6:	2800      	cmp	r0, #0
 8005ab8:	d186      	bne.n	80059c8 <prvTimerTask+0x44>
 8005aba:	f04f 5380 	mov.w	r3, #268435456	; 0x10000000
 8005abe:	f8c8 3000 	str.w	r3, [r8]
 8005ac2:	f3bf 8f4f 	dsb	sy
 8005ac6:	f3bf 8f6f 	isb	sy
 8005aca:	e77d      	b.n	80059c8 <prvTimerTask+0x44>
 8005acc:	2200      	movs	r2, #0
 8005ace:	e7ea      	b.n	8005aa6 <prvTimerTask+0x122>
 8005ad0:	69a1      	ldr	r1, [r4, #24]
 8005ad2:	9b03      	ldr	r3, [sp, #12]
 8005ad4:	465a      	mov	r2, fp
 8005ad6:	4419      	add	r1, r3
 8005ad8:	4620      	mov	r0, r4
 8005ada:	f7ff fe71 	bl	80057c0 <prvInsertTimerInActiveList>
 8005ade:	2800      	cmp	r0, #0
 8005ae0:	f43f af74 	beq.w	80059cc <prvTimerTask+0x48>
 8005ae4:	6a63      	ldr	r3, [r4, #36]	; 0x24
 8005ae6:	4620      	mov	r0, r4
 8005ae8:	4798      	blx	r3
 8005aea:	69e3      	ldr	r3, [r4, #28]
 8005aec:	2b01      	cmp	r3, #1
 8005aee:	f47f af6d 	bne.w	80059cc <prvTimerTask+0x48>
 8005af2:	69a2      	ldr	r2, [r4, #24]
 8005af4:	9903      	ldr	r1, [sp, #12]
 8005af6:	f8cd a000 	str.w	sl, [sp]
 8005afa:	440a      	add	r2, r1
 8005afc:	4653      	mov	r3, sl
 8005afe:	4651      	mov	r1, sl
 8005b00:	4620      	mov	r0, r4
 8005b02:	f7ff fed5 	bl	80058b0 <xTimerGenericCommand>
 8005b06:	2800      	cmp	r0, #0
 8005b08:	f47f af60 	bne.w	80059cc <prvTimerTask+0x48>
 8005b0c:	f04f 0350 	mov.w	r3, #80	; 0x50
 8005b10:	f383 8811 	msr	BASEPRI, r3
 8005b14:	f3bf 8f6f 	isb	sy
 8005b18:	f3bf 8f4f 	dsb	sy
 8005b1c:	e7fe      	b.n	8005b1c <prvTimerTask+0x198>
 8005b1e:	9903      	ldr	r1, [sp, #12]
 8005b20:	61a1      	str	r1, [r4, #24]
 8005b22:	b941      	cbnz	r1, 8005b36 <prvTimerTask+0x1b2>
 8005b24:	f04f 0350 	mov.w	r3, #80	; 0x50
 8005b28:	f383 8811 	msr	BASEPRI, r3
 8005b2c:	f3bf 8f6f 	isb	sy
 8005b30:	f3bf 8f4f 	dsb	sy
 8005b34:	e7fe      	b.n	8005b34 <prvTimerTask+0x1b0>
 8005b36:	465b      	mov	r3, fp
 8005b38:	465a      	mov	r2, fp
 8005b3a:	4459      	add	r1, fp
 8005b3c:	4620      	mov	r0, r4
 8005b3e:	f7ff fe3f 	bl	80057c0 <prvInsertTimerInActiveList>
 8005b42:	e743      	b.n	80059cc <prvTimerTask+0x48>
 8005b44:	20000bf0 	.word	0x20000bf0
 8005b48:	20000cc0 	.word	0x20000cc0
 8005b4c:	20000bf4 	.word	0x20000bf4
 8005b50:	20000d14 	.word	0x20000d14
 8005b54:	e000ed04 	.word	0xe000ed04

08005b58 <xTimerPendFunctionCallFromISR>:
 8005b58:	b51f      	push	{r0, r1, r2, r3, r4, lr}
 8005b5a:	461c      	mov	r4, r3
 8005b5c:	f06f 0301 	mvn.w	r3, #1
 8005b60:	e9cd 3000 	strd	r3, r0, [sp]
 8005b64:	4805      	ldr	r0, [pc, #20]	; (8005b7c <xTimerPendFunctionCallFromISR+0x24>)
 8005b66:	e9cd 1202 	strd	r1, r2, [sp, #8]
 8005b6a:	2300      	movs	r3, #0
 8005b6c:	4622      	mov	r2, r4
 8005b6e:	4669      	mov	r1, sp
 8005b70:	6800      	ldr	r0, [r0, #0]
 8005b72:	f7fe ff37 	bl	80049e4 <xQueueGenericSendFromISR>
 8005b76:	b004      	add	sp, #16
 8005b78:	bd10      	pop	{r4, pc}
 8005b7a:	bf00      	nop
 8005b7c:	20000d14 	.word	0x20000d14

08005b80 <prvTaskExitError>:
 8005b80:	2300      	movs	r3, #0
 8005b82:	b082      	sub	sp, #8
 8005b84:	9301      	str	r3, [sp, #4]
 8005b86:	4b0d      	ldr	r3, [pc, #52]	; (8005bbc <prvTaskExitError+0x3c>)
 8005b88:	681b      	ldr	r3, [r3, #0]
 8005b8a:	3301      	adds	r3, #1
 8005b8c:	d008      	beq.n	8005ba0 <prvTaskExitError+0x20>
 8005b8e:	f04f 0350 	mov.w	r3, #80	; 0x50
 8005b92:	f383 8811 	msr	BASEPRI, r3
 8005b96:	f3bf 8f6f 	isb	sy
 8005b9a:	f3bf 8f4f 	dsb	sy
 8005b9e:	e7fe      	b.n	8005b9e <prvTaskExitError+0x1e>
 8005ba0:	f04f 0350 	mov.w	r3, #80	; 0x50
 8005ba4:	f383 8811 	msr	BASEPRI, r3
 8005ba8:	f3bf 8f6f 	isb	sy
 8005bac:	f3bf 8f4f 	dsb	sy
 8005bb0:	9b01      	ldr	r3, [sp, #4]
 8005bb2:	2b00      	cmp	r3, #0
 8005bb4:	d0fc      	beq.n	8005bb0 <prvTaskExitError+0x30>
 8005bb6:	b002      	add	sp, #8
 8005bb8:	4770      	bx	lr
 8005bba:	bf00      	nop
 8005bbc:	2000000c 	.word	0x2000000c

08005bc0 <prvPortStartFirstTask>:
 8005bc0:	4806      	ldr	r0, [pc, #24]	; (8005bdc <prvPortStartFirstTask+0x1c>)
 8005bc2:	6800      	ldr	r0, [r0, #0]
 8005bc4:	6800      	ldr	r0, [r0, #0]
 8005bc6:	f380 8808 	msr	MSP, r0
 8005bca:	b662      	cpsie	i
 8005bcc:	b661      	cpsie	f
 8005bce:	f3bf 8f4f 	dsb	sy
 8005bd2:	f3bf 8f6f 	isb	sy
 8005bd6:	df00      	svc	0
 8005bd8:	bf00      	nop
 8005bda:	0000      	.short	0x0000
 8005bdc:	e000ed08 	.word	0xe000ed08

08005be0 <pxPortInitialiseStack>:
 8005be0:	f04f 7380 	mov.w	r3, #16777216	; 0x1000000
 8005be4:	f840 3c04 	str.w	r3, [r0, #-4]
 8005be8:	4b05      	ldr	r3, [pc, #20]	; (8005c00 <pxPortInitialiseStack+0x20>)
 8005bea:	f021 0101 	bic.w	r1, r1, #1
 8005bee:	f840 1c08 	str.w	r1, [r0, #-8]
 8005bf2:	f840 3c0c 	str.w	r3, [r0, #-12]
 8005bf6:	f840 2c20 	str.w	r2, [r0, #-32]
 8005bfa:	3840      	subs	r0, #64	; 0x40
 8005bfc:	4770      	bx	lr
 8005bfe:	bf00      	nop
 8005c00:	08005b81 	.word	0x08005b81
	...

08005c10 <SVC_Handler>:
 8005c10:	4b07      	ldr	r3, [pc, #28]	; (8005c30 <pxCurrentTCBConst2>)
 8005c12:	6819      	ldr	r1, [r3, #0]
 8005c14:	6808      	ldr	r0, [r1, #0]
 8005c16:	e8b0 0ff0 	ldmia.w	r0!, {r4, r5, r6, r7, r8, r9, sl, fp}
 8005c1a:	f380 8809 	msr	PSP, r0
 8005c1e:	f3bf 8f6f 	isb	sy
 8005c22:	f04f 0000 	mov.w	r0, #0
 8005c26:	f380 8811 	msr	BASEPRI, r0
 8005c2a:	f04e 0e0d 	orr.w	lr, lr, #13
 8005c2e:	4770      	bx	lr

08005c30 <pxCurrentTCBConst2>:
 8005c30:	200006f4 	.word	0x200006f4

08005c34 <vPortEnterCritical>:
 8005c34:	f04f 0350 	mov.w	r3, #80	; 0x50
 8005c38:	f383 8811 	msr	BASEPRI, r3
 8005c3c:	f3bf 8f6f 	isb	sy
 8005c40:	f3bf 8f4f 	dsb	sy
 8005c44:	4a0a      	ldr	r2, [pc, #40]	; (8005c70 <vPortEnterCritical+0x3c>)
 8005c46:	6813      	ldr	r3, [r2, #0]
 8005c48:	3301      	adds	r3, #1
 8005c4a:	2b01      	cmp	r3, #1
 8005c4c:	6013      	str	r3, [r2, #0]
 8005c4e:	d10d      	bne.n	8005c6c <vPortEnterCritical+0x38>
 8005c50:	4b08      	ldr	r3, [pc, #32]	; (8005c74 <vPortEnterCritical+0x40>)
 8005c52:	681b      	ldr	r3, [r3, #0]
 8005c54:	f013 0fff 	tst.w	r3, #255	; 0xff
 8005c58:	d008      	beq.n	8005c6c <vPortEnterCritical+0x38>
 8005c5a:	f04f 0350 	mov.w	r3, #80	; 0x50
 8005c5e:	f383 8811 	msr	BASEPRI, r3
 8005c62:	f3bf 8f6f 	isb	sy
 8005c66:	f3bf 8f4f 	dsb	sy
 8005c6a:	e7fe      	b.n	8005c6a <vPortEnterCritical+0x36>
 8005c6c:	4770      	bx	lr
 8005c6e:	bf00      	nop
 8005c70:	2000000c 	.word	0x2000000c
 8005c74:	e000ed04 	.word	0xe000ed04

08005c78 <vPortExitCritical>:
 8005c78:	4a08      	ldr	r2, [pc, #32]	; (8005c9c <vPortExitCritical+0x24>)
 8005c7a:	6813      	ldr	r3, [r2, #0]
 8005c7c:	b943      	cbnz	r3, 8005c90 <vPortExitCritical+0x18>
 8005c7e:	f04f 0350 	mov.w	r3, #80	; 0x50
 8005c82:	f383 8811 	msr	BASEPRI, r3
 8005c86:	f3bf 8f6f 	isb	sy
 8005c8a:	f3bf 8f4f 	dsb	sy
 8005c8e:	e7fe      	b.n	8005c8e <vPortExitCritical+0x16>
 8005c90:	3b01      	subs	r3, #1
 8005c92:	6013      	str	r3, [r2, #0]
 8005c94:	b90b      	cbnz	r3, 8005c9a <vPortExitCritical+0x22>
 8005c96:	f383 8811 	msr	BASEPRI, r3
 8005c9a:	4770      	bx	lr
 8005c9c:	2000000c 	.word	0x2000000c

08005ca0 <PendSV_Handler>:
 8005ca0:	f3ef 8009 	mrs	r0, PSP
 8005ca4:	f3bf 8f6f 	isb	sy
 8005ca8:	4b0d      	ldr	r3, [pc, #52]	; (8005ce0 <pxCurrentTCBConst>)
 8005caa:	681a      	ldr	r2, [r3, #0]
 8005cac:	e920 0ff0 	stmdb	r0!, {r4, r5, r6, r7, r8, r9, sl, fp}
 8005cb0:	6010      	str	r0, [r2, #0]
 8005cb2:	e92d 4008 	stmdb	sp!, {r3, lr}
 8005cb6:	f04f 0050 	mov.w	r0, #80	; 0x50
 8005cba:	f380 8811 	msr	BASEPRI, r0
 8005cbe:	f7ff fb15 	bl	80052ec <vTaskSwitchContext>
 8005cc2:	f04f 0000 	mov.w	r0, #0
 8005cc6:	f380 8811 	msr	BASEPRI, r0
 8005cca:	e8bd 4008 	ldmia.w	sp!, {r3, lr}
 8005cce:	6819      	ldr	r1, [r3, #0]
 8005cd0:	6808      	ldr	r0, [r1, #0]
 8005cd2:	e8b0 0ff0 	ldmia.w	r0!, {r4, r5, r6, r7, r8, r9, sl, fp}
 8005cd6:	f380 8809 	msr	PSP, r0
 8005cda:	f3bf 8f6f 	isb	sy
 8005cde:	4770      	bx	lr

08005ce0 <pxCurrentTCBConst>:
 8005ce0:	200006f4 	.word	0x200006f4

08005ce4 <SysTick_Handler>:
 8005ce4:	b508      	push	{r3, lr}
 8005ce6:	f04f 0350 	mov.w	r3, #80	; 0x50
 8005cea:	f383 8811 	msr	BASEPRI, r3
 8005cee:	f3bf 8f6f 	isb	sy
 8005cf2:	f3bf 8f4f 	dsb	sy
 8005cf6:	f7ff f9cb 	bl	8005090 <xTaskIncrementTick>
 8005cfa:	b118      	cbz	r0, 8005d04 <SysTick_Handler+0x20>
 8005cfc:	f04f 5280 	mov.w	r2, #268435456	; 0x10000000
 8005d00:	4b02      	ldr	r3, [pc, #8]	; (8005d0c <SysTick_Handler+0x28>)
 8005d02:	601a      	str	r2, [r3, #0]
 8005d04:	2300      	movs	r3, #0
 8005d06:	f383 8811 	msr	BASEPRI, r3
 8005d0a:	bd08      	pop	{r3, pc}
 8005d0c:	e000ed04 	.word	0xe000ed04

08005d10 <vPortSetupTimerInterrupt>:
 8005d10:	2300      	movs	r3, #0
 8005d12:	4a08      	ldr	r2, [pc, #32]	; (8005d34 <vPortSetupTimerInterrupt+0x24>)
 8005d14:	4908      	ldr	r1, [pc, #32]	; (8005d38 <vPortSetupTimerInterrupt+0x28>)
 8005d16:	6013      	str	r3, [r2, #0]
 8005d18:	600b      	str	r3, [r1, #0]
 8005d1a:	f44f 717a 	mov.w	r1, #1000	; 0x3e8
 8005d1e:	4b07      	ldr	r3, [pc, #28]	; (8005d3c <vPortSetupTimerInterrupt+0x2c>)
 8005d20:	681b      	ldr	r3, [r3, #0]
 8005d22:	fbb3 f3f1 	udiv	r3, r3, r1
 8005d26:	4906      	ldr	r1, [pc, #24]	; (8005d40 <vPortSetupTimerInterrupt+0x30>)
 8005d28:	3b01      	subs	r3, #1
 8005d2a:	600b      	str	r3, [r1, #0]
 8005d2c:	2307      	movs	r3, #7
 8005d2e:	6013      	str	r3, [r2, #0]
 8005d30:	4770      	bx	lr
 8005d32:	bf00      	nop
 8005d34:	e000e010 	.word	0xe000e010
 8005d38:	e000e018 	.word	0xe000e018
 8005d3c:	20000000 	.word	0x20000000
 8005d40:	e000e014 	.word	0xe000e014

08005d44 <xPortStartScheduler>:
 8005d44:	b513      	push	{r0, r1, r4, lr}
 8005d46:	4b27      	ldr	r3, [pc, #156]	; (8005de4 <xPortStartScheduler+0xa0>)
 8005d48:	2100      	movs	r1, #0
 8005d4a:	781a      	ldrb	r2, [r3, #0]
 8005d4c:	b2d2      	uxtb	r2, r2
 8005d4e:	9201      	str	r2, [sp, #4]
 8005d50:	22ff      	movs	r2, #255	; 0xff
 8005d52:	701a      	strb	r2, [r3, #0]
 8005d54:	781b      	ldrb	r3, [r3, #0]
 8005d56:	4a24      	ldr	r2, [pc, #144]	; (8005de8 <xPortStartScheduler+0xa4>)
 8005d58:	b2db      	uxtb	r3, r3
 8005d5a:	f88d 3003 	strb.w	r3, [sp, #3]
 8005d5e:	f89d 3003 	ldrb.w	r3, [sp, #3]
 8005d62:	f003 0350 	and.w	r3, r3, #80	; 0x50
 8005d66:	7013      	strb	r3, [r2, #0]
 8005d68:	2207      	movs	r2, #7
 8005d6a:	4b20      	ldr	r3, [pc, #128]	; (8005dec <xPortStartScheduler+0xa8>)
 8005d6c:	601a      	str	r2, [r3, #0]
 8005d6e:	f89d 0003 	ldrb.w	r0, [sp, #3]
 8005d72:	1e54      	subs	r4, r2, #1
 8005d74:	0600      	lsls	r0, r0, #24
 8005d76:	d40d      	bmi.n	8005d94 <xPortStartScheduler+0x50>
 8005d78:	b101      	cbz	r1, 8005d7c <xPortStartScheduler+0x38>
 8005d7a:	601a      	str	r2, [r3, #0]
 8005d7c:	681a      	ldr	r2, [r3, #0]
 8005d7e:	2a03      	cmp	r2, #3
 8005d80:	d011      	beq.n	8005da6 <xPortStartScheduler+0x62>
 8005d82:	f04f 0350 	mov.w	r3, #80	; 0x50
 8005d86:	f383 8811 	msr	BASEPRI, r3
 8005d8a:	f3bf 8f6f 	isb	sy
 8005d8e:	f3bf 8f4f 	dsb	sy
 8005d92:	e7fe      	b.n	8005d92 <xPortStartScheduler+0x4e>
 8005d94:	f89d 2003 	ldrb.w	r2, [sp, #3]
 8005d98:	2101      	movs	r1, #1
 8005d9a:	0052      	lsls	r2, r2, #1
 8005d9c:	b2d2      	uxtb	r2, r2
 8005d9e:	f88d 2003 	strb.w	r2, [sp, #3]
 8005da2:	4622      	mov	r2, r4
 8005da4:	e7e3      	b.n	8005d6e <xPortStartScheduler+0x2a>
 8005da6:	2400      	movs	r4, #0
 8005da8:	0212      	lsls	r2, r2, #8
 8005daa:	f402 62e0 	and.w	r2, r2, #1792	; 0x700
 8005dae:	601a      	str	r2, [r3, #0]
 8005db0:	9b01      	ldr	r3, [sp, #4]
 8005db2:	4a0c      	ldr	r2, [pc, #48]	; (8005de4 <xPortStartScheduler+0xa0>)
 8005db4:	b2db      	uxtb	r3, r3
 8005db6:	7013      	strb	r3, [r2, #0]
 8005db8:	4b0d      	ldr	r3, [pc, #52]	; (8005df0 <xPortStartScheduler+0xac>)
 8005dba:	681a      	ldr	r2, [r3, #0]
 8005dbc:	f442 0270 	orr.w	r2, r2, #15728640	; 0xf00000
 8005dc0:	601a      	str	r2, [r3, #0]
 8005dc2:	681a      	ldr	r2, [r3, #0]
 8005dc4:	f042 4270 	orr.w	r2, r2, #4026531840	; 0xf0000000
 8005dc8:	601a      	str	r2, [r3, #0]
 8005dca:	f7ff ffa1 	bl	8005d10 <vPortSetupTimerInterrupt>
 8005dce:	4b09      	ldr	r3, [pc, #36]	; (8005df4 <xPortStartScheduler+0xb0>)
 8005dd0:	601c      	str	r4, [r3, #0]
 8005dd2:	f7ff fef5 	bl	8005bc0 <prvPortStartFirstTask>
 8005dd6:	f7ff fa89 	bl	80052ec <vTaskSwitchContext>
 8005dda:	f7ff fed1 	bl	8005b80 <prvTaskExitError>
 8005dde:	4620      	mov	r0, r4
 8005de0:	b002      	add	sp, #8
 8005de2:	bd10      	pop	{r4, pc}
 8005de4:	e000e400 	.word	0xe000e400
 8005de8:	20000d1c 	.word	0x20000d1c
 8005dec:	20000d20 	.word	0x20000d20
 8005df0:	e000ed20 	.word	0xe000ed20
 8005df4:	2000000c 	.word	0x2000000c

08005df8 <vPortValidateInterruptPriority>:
 8005df8:	f3ef 8305 	mrs	r3, IPSR
 8005dfc:	2b0f      	cmp	r3, #15
 8005dfe:	d90e      	bls.n	8005e1e <vPortValidateInterruptPriority+0x26>
 8005e00:	4a10      	ldr	r2, [pc, #64]	; (8005e44 <vPortValidateInterruptPriority+0x4c>)
 8005e02:	5c9b      	ldrb	r3, [r3, r2]
 8005e04:	4a10      	ldr	r2, [pc, #64]	; (8005e48 <vPortValidateInterruptPriority+0x50>)
 8005e06:	7812      	ldrb	r2, [r2, #0]
 8005e08:	429a      	cmp	r2, r3
 8005e0a:	d908      	bls.n	8005e1e <vPortValidateInterruptPriority+0x26>
 8005e0c:	f04f 0350 	mov.w	r3, #80	; 0x50
 8005e10:	f383 8811 	msr	BASEPRI, r3
 8005e14:	f3bf 8f6f 	isb	sy
 8005e18:	f3bf 8f4f 	dsb	sy
 8005e1c:	e7fe      	b.n	8005e1c <vPortValidateInterruptPriority+0x24>
 8005e1e:	4b0b      	ldr	r3, [pc, #44]	; (8005e4c <vPortValidateInterruptPriority+0x54>)
 8005e20:	4a0b      	ldr	r2, [pc, #44]	; (8005e50 <vPortValidateInterruptPriority+0x58>)
 8005e22:	681b      	ldr	r3, [r3, #0]
 8005e24:	6812      	ldr	r2, [r2, #0]
 8005e26:	f403 63e0 	and.w	r3, r3, #1792	; 0x700
 8005e2a:	4293      	cmp	r3, r2
 8005e2c:	d908      	bls.n	8005e40 <vPortValidateInterruptPriority+0x48>
 8005e2e:	f04f 0350 	mov.w	r3, #80	; 0x50
 8005e32:	f383 8811 	msr	BASEPRI, r3
 8005e36:	f3bf 8f6f 	isb	sy
 8005e3a:	f3bf 8f4f 	dsb	sy
 8005e3e:	e7fe      	b.n	8005e3e <vPortValidateInterruptPriority+0x46>
 8005e40:	4770      	bx	lr
 8005e42:	bf00      	nop
 8005e44:	e000e3f0 	.word	0xe000e3f0
 8005e48:	20000d1c 	.word	0x20000d1c
 8005e4c:	e000ed0c 	.word	0xe000ed0c
 8005e50:	20000d20 	.word	0x20000d20

08005e54 <prvInsertBlockIntoFreeList>:
 8005e54:	b510      	push	{r4, lr}
 8005e56:	4b0f      	ldr	r3, [pc, #60]	; (8005e94 <prvInsertBlockIntoFreeList+0x40>)
 8005e58:	681a      	ldr	r2, [r3, #0]
 8005e5a:	4282      	cmp	r2, r0
 8005e5c:	d318      	bcc.n	8005e90 <prvInsertBlockIntoFreeList+0x3c>
 8005e5e:	685c      	ldr	r4, [r3, #4]
 8005e60:	1919      	adds	r1, r3, r4
 8005e62:	4288      	cmp	r0, r1
 8005e64:	bf01      	itttt	eq
 8005e66:	6841      	ldreq	r1, [r0, #4]
 8005e68:	4618      	moveq	r0, r3
 8005e6a:	1909      	addeq	r1, r1, r4
 8005e6c:	6059      	streq	r1, [r3, #4]
 8005e6e:	6844      	ldr	r4, [r0, #4]
 8005e70:	1901      	adds	r1, r0, r4
 8005e72:	428a      	cmp	r2, r1
 8005e74:	d107      	bne.n	8005e86 <prvInsertBlockIntoFreeList+0x32>
 8005e76:	4908      	ldr	r1, [pc, #32]	; (8005e98 <prvInsertBlockIntoFreeList+0x44>)
 8005e78:	6809      	ldr	r1, [r1, #0]
 8005e7a:	428a      	cmp	r2, r1
 8005e7c:	bf1f      	itttt	ne
 8005e7e:	6851      	ldrne	r1, [r2, #4]
 8005e80:	6812      	ldrne	r2, [r2, #0]
 8005e82:	1909      	addne	r1, r1, r4
 8005e84:	6041      	strne	r1, [r0, #4]
 8005e86:	4298      	cmp	r0, r3
 8005e88:	6002      	str	r2, [r0, #0]
 8005e8a:	bf18      	it	ne
 8005e8c:	6018      	strne	r0, [r3, #0]
 8005e8e:	bd10      	pop	{r4, pc}
 8005e90:	4613      	mov	r3, r2
 8005e92:	e7e1      	b.n	8005e58 <prvInsertBlockIntoFreeList+0x4>
 8005e94:	20003534 	.word	0x20003534
 8005e98:	20000d24 	.word	0x20000d24

08005e9c <pvPortMalloc>:
 8005e9c:	e92d 41f0 	stmdb	sp!, {r4, r5, r6, r7, r8, lr}
 8005ea0:	4d41      	ldr	r5, [pc, #260]	; (8005fa8 <pvPortMalloc+0x10c>)
 8005ea2:	4604      	mov	r4, r0
 8005ea4:	f7ff f8de 	bl	8005064 <vTaskSuspendAll>
 8005ea8:	682b      	ldr	r3, [r5, #0]
 8005eaa:	4840      	ldr	r0, [pc, #256]	; (8005fac <pvPortMalloc+0x110>)
 8005eac:	b9fb      	cbnz	r3, 8005eee <pvPortMalloc+0x52>
 8005eae:	4940      	ldr	r1, [pc, #256]	; (8005fb0 <pvPortMalloc+0x114>)
 8005eb0:	2300      	movs	r3, #0
 8005eb2:	074e      	lsls	r6, r1, #29
 8005eb4:	f501 5220 	add.w	r2, r1, #10240	; 0x2800
 8005eb8:	bf0f      	iteee	eq
 8005eba:	f44f 5220 	moveq.w	r2, #10240	; 0x2800
 8005ebe:	3107      	addne	r1, #7
 8005ec0:	f021 0107 	bicne.w	r1, r1, #7
 8005ec4:	1a52      	subne	r2, r2, r1
 8005ec6:	440a      	add	r2, r1
 8005ec8:	4e3a      	ldr	r6, [pc, #232]	; (8005fb4 <pvPortMalloc+0x118>)
 8005eca:	3a08      	subs	r2, #8
 8005ecc:	f022 0207 	bic.w	r2, r2, #7
 8005ed0:	6073      	str	r3, [r6, #4]
 8005ed2:	6031      	str	r1, [r6, #0]
 8005ed4:	e9c2 3300 	strd	r3, r3, [r2]
 8005ed8:	1a53      	subs	r3, r2, r1
 8005eda:	e9c1 2300 	strd	r2, r3, [r1]
 8005ede:	602a      	str	r2, [r5, #0]
 8005ee0:	4a35      	ldr	r2, [pc, #212]	; (8005fb8 <pvPortMalloc+0x11c>)
 8005ee2:	6013      	str	r3, [r2, #0]
 8005ee4:	4a35      	ldr	r2, [pc, #212]	; (8005fbc <pvPortMalloc+0x120>)
 8005ee6:	6013      	str	r3, [r2, #0]
 8005ee8:	f04f 4300 	mov.w	r3, #2147483648	; 0x80000000
 8005eec:	6003      	str	r3, [r0, #0]
 8005eee:	6807      	ldr	r7, [r0, #0]
 8005ef0:	4227      	tst	r7, r4
 8005ef2:	d005      	beq.n	8005f00 <pvPortMalloc+0x64>
 8005ef4:	f7ff f962 	bl	80051bc <xTaskResumeAll>
 8005ef8:	f7fa fd4a 	bl	8000990 <vApplicationMallocFailedHook>
 8005efc:	2500      	movs	r5, #0
 8005efe:	e045      	b.n	8005f8c <pvPortMalloc+0xf0>
 8005f00:	2c00      	cmp	r4, #0
 8005f02:	d0f7      	beq.n	8005ef4 <pvPortMalloc+0x58>
 8005f04:	f104 0308 	add.w	r3, r4, #8
 8005f08:	0758      	lsls	r0, r3, #29
 8005f0a:	bf1c      	itt	ne
 8005f0c:	f023 0307 	bicne.w	r3, r3, #7
 8005f10:	3308      	addne	r3, #8
 8005f12:	2b00      	cmp	r3, #0
 8005f14:	d0ee      	beq.n	8005ef4 <pvPortMalloc+0x58>
 8005f16:	4a29      	ldr	r2, [pc, #164]	; (8005fbc <pvPortMalloc+0x120>)
 8005f18:	6816      	ldr	r6, [r2, #0]
 8005f1a:	4690      	mov	r8, r2
 8005f1c:	429e      	cmp	r6, r3
 8005f1e:	d3e9      	bcc.n	8005ef4 <pvPortMalloc+0x58>
 8005f20:	4a24      	ldr	r2, [pc, #144]	; (8005fb4 <pvPortMalloc+0x118>)
 8005f22:	6814      	ldr	r4, [r2, #0]
 8005f24:	6860      	ldr	r0, [r4, #4]
 8005f26:	4298      	cmp	r0, r3
 8005f28:	d201      	bcs.n	8005f2e <pvPortMalloc+0x92>
 8005f2a:	6821      	ldr	r1, [r4, #0]
 8005f2c:	b9a1      	cbnz	r1, 8005f58 <pvPortMalloc+0xbc>
 8005f2e:	6829      	ldr	r1, [r5, #0]
 8005f30:	42a1      	cmp	r1, r4
 8005f32:	d0df      	beq.n	8005ef4 <pvPortMalloc+0x58>
 8005f34:	6821      	ldr	r1, [r4, #0]
 8005f36:	6815      	ldr	r5, [r2, #0]
 8005f38:	6011      	str	r1, [r2, #0]
 8005f3a:	1ac2      	subs	r2, r0, r3
 8005f3c:	2a10      	cmp	r2, #16
 8005f3e:	d912      	bls.n	8005f66 <pvPortMalloc+0xca>
 8005f40:	18e0      	adds	r0, r4, r3
 8005f42:	0741      	lsls	r1, r0, #29
 8005f44:	d00b      	beq.n	8005f5e <pvPortMalloc+0xc2>
 8005f46:	f04f 0350 	mov.w	r3, #80	; 0x50
 8005f4a:	f383 8811 	msr	BASEPRI, r3
 8005f4e:	f3bf 8f6f 	isb	sy
 8005f52:	f3bf 8f4f 	dsb	sy
 8005f56:	e7fe      	b.n	8005f56 <pvPortMalloc+0xba>
 8005f58:	4622      	mov	r2, r4
 8005f5a:	460c      	mov	r4, r1
 8005f5c:	e7e2      	b.n	8005f24 <pvPortMalloc+0x88>
 8005f5e:	6042      	str	r2, [r0, #4]
 8005f60:	6063      	str	r3, [r4, #4]
 8005f62:	f7ff ff77 	bl	8005e54 <prvInsertBlockIntoFreeList>
 8005f66:	2300      	movs	r3, #0
 8005f68:	4913      	ldr	r1, [pc, #76]	; (8005fb8 <pvPortMalloc+0x11c>)
 8005f6a:	6862      	ldr	r2, [r4, #4]
 8005f6c:	6808      	ldr	r0, [r1, #0]
 8005f6e:	1ab6      	subs	r6, r6, r2
 8005f70:	4317      	orrs	r7, r2
 8005f72:	4286      	cmp	r6, r0
 8005f74:	f105 0508 	add.w	r5, r5, #8
 8005f78:	6067      	str	r7, [r4, #4]
 8005f7a:	6023      	str	r3, [r4, #0]
 8005f7c:	bf38      	it	cc
 8005f7e:	600e      	strcc	r6, [r1, #0]
 8005f80:	f8c8 6000 	str.w	r6, [r8]
 8005f84:	f7ff f91a 	bl	80051bc <xTaskResumeAll>
 8005f88:	2d00      	cmp	r5, #0
 8005f8a:	d0b5      	beq.n	8005ef8 <pvPortMalloc+0x5c>
 8005f8c:	076b      	lsls	r3, r5, #29
 8005f8e:	d008      	beq.n	8005fa2 <pvPortMalloc+0x106>
 8005f90:	f04f 0350 	mov.w	r3, #80	; 0x50
 8005f94:	f383 8811 	msr	BASEPRI, r3
 8005f98:	f3bf 8f6f 	isb	sy
 8005f9c:	f3bf 8f4f 	dsb	sy
 8005fa0:	e7fe      	b.n	8005fa0 <pvPortMalloc+0x104>
 8005fa2:	4628      	mov	r0, r5
 8005fa4:	e8bd 81f0 	ldmia.w	sp!, {r4, r5, r6, r7, r8, pc}
 8005fa8:	20000d24 	.word	0x20000d24
 8005fac:	20003528 	.word	0x20003528
 8005fb0:	20000d28 	.word	0x20000d28
 8005fb4:	20003534 	.word	0x20003534
 8005fb8:	20003530 	.word	0x20003530
 8005fbc:	2000352c 	.word	0x2000352c

08005fc0 <vPortFree>:
 8005fc0:	b510      	push	{r4, lr}
 8005fc2:	4604      	mov	r4, r0
 8005fc4:	b370      	cbz	r0, 8006024 <vPortFree+0x64>
 8005fc6:	4a18      	ldr	r2, [pc, #96]	; (8006028 <vPortFree+0x68>)
 8005fc8:	f850 3c04 	ldr.w	r3, [r0, #-4]
 8005fcc:	6812      	ldr	r2, [r2, #0]
 8005fce:	4213      	tst	r3, r2
 8005fd0:	d108      	bne.n	8005fe4 <vPortFree+0x24>
 8005fd2:	f04f 0350 	mov.w	r3, #80	; 0x50
 8005fd6:	f383 8811 	msr	BASEPRI, r3
 8005fda:	f3bf 8f6f 	isb	sy
 8005fde:	f3bf 8f4f 	dsb	sy
 8005fe2:	e7fe      	b.n	8005fe2 <vPortFree+0x22>
 8005fe4:	f850 1c08 	ldr.w	r1, [r0, #-8]
 8005fe8:	b141      	cbz	r1, 8005ffc <vPortFree+0x3c>
 8005fea:	f04f 0350 	mov.w	r3, #80	; 0x50
 8005fee:	f383 8811 	msr	BASEPRI, r3
 8005ff2:	f3bf 8f6f 	isb	sy
 8005ff6:	f3bf 8f4f 	dsb	sy
 8005ffa:	e7fe      	b.n	8005ffa <vPortFree+0x3a>
 8005ffc:	ea23 0302 	bic.w	r3, r3, r2
 8006000:	f840 3c04 	str.w	r3, [r0, #-4]
 8006004:	f7ff f82e 	bl	8005064 <vTaskSuspendAll>
 8006008:	4a08      	ldr	r2, [pc, #32]	; (800602c <vPortFree+0x6c>)
 800600a:	f854 3c04 	ldr.w	r3, [r4, #-4]
 800600e:	6811      	ldr	r1, [r2, #0]
 8006010:	f1a4 0008 	sub.w	r0, r4, #8
 8006014:	440b      	add	r3, r1
 8006016:	6013      	str	r3, [r2, #0]
 8006018:	f7ff ff1c 	bl	8005e54 <prvInsertBlockIntoFreeList>
 800601c:	e8bd 4010 	ldmia.w	sp!, {r4, lr}
 8006020:	f7ff b8cc 	b.w	80051bc <xTaskResumeAll>
 8006024:	bd10      	pop	{r4, pc}
 8006026:	bf00      	nop
 8006028:	20003528 	.word	0x20003528
 800602c:	2000352c 	.word	0x2000352c

08006030 <__libc_init_array>:
 8006030:	b570      	push	{r4, r5, r6, lr}
 8006032:	2500      	movs	r5, #0
 8006034:	4e0c      	ldr	r6, [pc, #48]	; (8006068 <__libc_init_array+0x38>)
 8006036:	4c0d      	ldr	r4, [pc, #52]	; (800606c <__libc_init_array+0x3c>)
 8006038:	1ba4      	subs	r4, r4, r6
 800603a:	10a4      	asrs	r4, r4, #2
 800603c:	42a5      	cmp	r5, r4
 800603e:	d109      	bne.n	8006054 <__libc_init_array+0x24>
 8006040:	f000 f82e 	bl	80060a0 <_init>
 8006044:	2500      	movs	r5, #0
 8006046:	4e0a      	ldr	r6, [pc, #40]	; (8006070 <__libc_init_array+0x40>)
 8006048:	4c0a      	ldr	r4, [pc, #40]	; (8006074 <__libc_init_array+0x44>)
 800604a:	1ba4      	subs	r4, r4, r6
 800604c:	10a4      	asrs	r4, r4, #2
 800604e:	42a5      	cmp	r5, r4
 8006050:	d105      	bne.n	800605e <__libc_init_array+0x2e>
 8006052:	bd70      	pop	{r4, r5, r6, pc}
 8006054:	f856 3025 	ldr.w	r3, [r6, r5, lsl #2]
 8006058:	4798      	blx	r3
 800605a:	3501      	adds	r5, #1
 800605c:	e7ee      	b.n	800603c <__libc_init_array+0xc>
 800605e:	f856 3025 	ldr.w	r3, [r6, r5, lsl #2]
 8006062:	4798      	blx	r3
 8006064:	3501      	adds	r5, #1
 8006066:	e7f2      	b.n	800604e <__libc_init_array+0x1e>
 8006068:	08006434 	.word	0x08006434
 800606c:	08006434 	.word	0x08006434
 8006070:	08006434 	.word	0x08006434
 8006074:	08006438 	.word	0x08006438

08006078 <memcpy>:
 8006078:	b510      	push	{r4, lr}
 800607a:	1e43      	subs	r3, r0, #1
 800607c:	440a      	add	r2, r1
 800607e:	4291      	cmp	r1, r2
 8006080:	d100      	bne.n	8006084 <memcpy+0xc>
 8006082:	bd10      	pop	{r4, pc}
 8006084:	f811 4b01 	ldrb.w	r4, [r1], #1
 8006088:	f803 4f01 	strb.w	r4, [r3, #1]!
 800608c:	e7f7      	b.n	800607e <memcpy+0x6>

0800608e <memset>:
 800608e:	4603      	mov	r3, r0
 8006090:	4402      	add	r2, r0
 8006092:	4293      	cmp	r3, r2
 8006094:	d100      	bne.n	8006098 <memset+0xa>
 8006096:	4770      	bx	lr
 8006098:	f803 1b01 	strb.w	r1, [r3], #1
 800609c:	e7f9      	b.n	8006092 <memset+0x4>
	...

080060a0 <_init>:
 80060a0:	b5f8      	push	{r3, r4, r5, r6, r7, lr}
 80060a2:	bf00      	nop
 80060a4:	bcf8      	pop	{r3, r4, r5, r6, r7}
 80060a6:	bc08      	pop	{r3}
 80060a8:	469e      	mov	lr, r3
 80060aa:	4770      	bx	lr

080060ac <_fini>:
 80060ac:	b5f8      	push	{r3, r4, r5, r6, r7, lr}
 80060ae:	bf00      	nop
 80060b0:	bcf8      	pop	{r3, r4, r5, r6, r7}
 80060b2:	bc08      	pop	{r3}
 80060b4:	469e      	mov	lr, r3
 80060b6:	4770      	bx	lr
