
Automotive.elf:     file format elf32-littlearm

Sections:
Idx Name          Size      VMA       LMA       File off  Algn
  0 .isr_vector   0000013c  08000000  08000000  00010000  2**0
                  CONTENTS, ALLOC, LOAD, READONLY, DATA
  1 .text         0000a63c  08000140  08000140  00010140  2**4
                  CONTENTS, ALLOC, LOAD, READONLY, CODE
  2 .rodata       000003c0  0800a77c  0800a77c  0001a77c  2**2
                  CONTENTS, ALLOC, LOAD, READONLY, DATA
  3 .ARM.extab    00000000  0800ab3c  0800ab3c  00020010  2**0
                  CONTENTS
  4 .ARM          00000000  0800ab3c  0800ab3c  00020010  2**0
                  CONTENTS
  5 .preinit_array 00000000  0800ab3c  0800ab3c  00020010  2**0
                  CONTENTS, ALLOC, LOAD, DATA
  6 .init_array   00000004  0800ab3c  0800ab3c  0001ab3c  2**2
                  CONTENTS, ALLOC, LOAD, DATA
  7 .fini_array   00000004  0800ab40  0800ab40  0001ab40  2**2
                  CONTENTS, ALLOC, LOAD, DATA
  8 .data         00000010  20000000  0800ab44  00020000  2**2
                  CONTENTS, ALLOC, LOAD, DATA
  9 .bss          0000388c  20000010  0800ab54  00020010  2**2
                  ALLOC
 10 ._user_heap_stack 00000604  2000389c  0800ab54  0002389c  2**0
                  ALLOC
 11 .ARM.attributes 00000029  00000000  00000000  00020010  2**0
                  CONTENTS, READONLY
 12 .comment      0000007b  00000000  00000000  00020039  2**0
                  CONTENTS, READONLY
 13 .debug_frame  00000074  00000000  00000000  000200b4  2**2
                  CONTENTS, READONLY, DEBUGGING

Disassembly of section .text:

08000140 <__do_global_dtors_aux>:
 8000140:	b510      	push	{r4, lr}
 8000142:	4c05      	ldr	r4, [pc, #20]	; (8000158 <__do_global_dtors_aux+0x18>)
 8000144:	7823      	ldrb	r3, [r4, #0]
 8000146:	b933      	cbnz	r3, 8000156 <__do_global_dtors_aux+0x16>
 8000148:	4b04      	ldr	r3, [pc, #16]	; (800015c <__do_global_dtors_aux+0x1c>)
 800014a:	b113      	cbz	r3, 8000152 <__do_global_dtors_aux+0x12>
 800014c:	4804      	ldr	r0, [pc, #16]	; (8000160 <__do_global_dtors_aux+0x20>)
 800014e:	f3af 8000 	nop.w
 8000152:	2301      	movs	r3, #1
 8000154:	7023      	strb	r3, [r4, #0]
 8000156:	bd10      	pop	{r4, pc}
 8000158:	20000010 	.word	0x20000010
 800015c:	00000000 	.word	0x00000000
 8000160:	0800a764 	.word	0x0800a764

08000164 <frame_dummy>:
 8000164:	b508      	push	{r3, lr}
 8000166:	4b03      	ldr	r3, [pc, #12]	; (8000174 <frame_dummy+0x10>)
 8000168:	b11b      	cbz	r3, 8000172 <frame_dummy+0xe>
 800016a:	4903      	ldr	r1, [pc, #12]	; (8000178 <frame_dummy+0x14>)
 800016c:	4803      	ldr	r0, [pc, #12]	; (800017c <frame_dummy+0x18>)
 800016e:	f3af 8000 	nop.w
 8000172:	bd08      	pop	{r3, pc}
 8000174:	00000000 	.word	0x00000000
 8000178:	20000014 	.word	0x20000014
 800017c:	0800a764 	.word	0x0800a764

08000180 <h_bridge_init>:
 8000180:	b580      	push	{r7, lr}
 8000182:	af00      	add	r7, sp, #0
 8000184:	2108      	movs	r1, #8
 8000186:	4808      	ldr	r0, [pc, #32]	; (80001a8 <h_bridge_init+0x28>)
 8000188:	f005 fbb0 	bl	80058ec <HAL_TIM_PWM_Start>
 800018c:	2100      	movs	r1, #0
 800018e:	4807      	ldr	r0, [pc, #28]	; (80001ac <h_bridge_init+0x2c>)
 8000190:	f005 fbac 	bl	80058ec <HAL_TIM_PWM_Start>
 8000194:	2000      	movs	r0, #0
 8000196:	f000 f80b 	bl	80001b0 <h_bridge_set_left_duty>
 800019a:	2000      	movs	r0, #0
 800019c:	f000 f82e 	bl	80001fc <h_bridge_set_right_duty>
 80001a0:	2301      	movs	r3, #1
 80001a2:	4618      	mov	r0, r3
 80001a4:	bd80      	pop	{r7, pc}
 80001a6:	bf00      	nop
 80001a8:	200036dc 	.word	0x200036dc
 80001ac:	20003754 	.word	0x20003754

080001b0 <h_bridge_set_left_duty>:
 80001b0:	b480      	push	{r7}
 80001b2:	b085      	sub	sp, #20
 80001b4:	af00      	add	r7, sp, #0
 80001b6:	6078      	str	r0, [r7, #4]
 80001b8:	687b      	ldr	r3, [r7, #4]
 80001ba:	2b64      	cmp	r3, #100	; 0x64
 80001bc:	dd01      	ble.n	80001c2 <h_bridge_set_left_duty+0x12>
 80001be:	2364      	movs	r3, #100	; 0x64
 80001c0:	607b      	str	r3, [r7, #4]
 80001c2:	687b      	ldr	r3, [r7, #4]
 80001c4:	2b00      	cmp	r3, #0
 80001c6:	dc01      	bgt.n	80001cc <h_bridge_set_left_duty+0x1c>
 80001c8:	2300      	movs	r3, #0
 80001ca:	607b      	str	r3, [r7, #4]
 80001cc:	4b09      	ldr	r3, [pc, #36]	; (80001f4 <h_bridge_set_left_duty+0x44>)
 80001ce:	68db      	ldr	r3, [r3, #12]
 80001d0:	687a      	ldr	r2, [r7, #4]
 80001d2:	fb02 f303 	mul.w	r3, r2, r3
 80001d6:	4a08      	ldr	r2, [pc, #32]	; (80001f8 <h_bridge_set_left_duty+0x48>)
 80001d8:	fba2 2303 	umull	r2, r3, r2, r3
 80001dc:	095b      	lsrs	r3, r3, #5
 80001de:	60fb      	str	r3, [r7, #12]
 80001e0:	4b04      	ldr	r3, [pc, #16]	; (80001f4 <h_bridge_set_left_duty+0x44>)
 80001e2:	681b      	ldr	r3, [r3, #0]
 80001e4:	68fa      	ldr	r2, [r7, #12]
 80001e6:	635a      	str	r2, [r3, #52]	; 0x34
 80001e8:	bf00      	nop
 80001ea:	3714      	adds	r7, #20
 80001ec:	46bd      	mov	sp, r7
 80001ee:	bc80      	pop	{r7}
 80001f0:	4770      	bx	lr
 80001f2:	bf00      	nop
 80001f4:	20003754 	.word	0x20003754
 80001f8:	51eb851f 	.word	0x51eb851f

080001fc <h_bridge_set_right_duty>:
 80001fc:	b480      	push	{r7}
 80001fe:	b085      	sub	sp, #20
 8000200:	af00      	add	r7, sp, #0
 8000202:	6078      	str	r0, [r7, #4]
 8000204:	687b      	ldr	r3, [r7, #4]
 8000206:	2b64      	cmp	r3, #100	; 0x64
 8000208:	dd01      	ble.n	800020e <h_bridge_set_right_duty+0x12>
 800020a:	2364      	movs	r3, #100	; 0x64
 800020c:	607b      	str	r3, [r7, #4]
 800020e:	687b      	ldr	r3, [r7, #4]
 8000210:	2b00      	cmp	r3, #0
 8000212:	dc01      	bgt.n	8000218 <h_bridge_set_right_duty+0x1c>
 8000214:	2300      	movs	r3, #0
 8000216:	607b      	str	r3, [r7, #4]
 8000218:	4b09      	ldr	r3, [pc, #36]	; (8000240 <h_bridge_set_right_duty+0x44>)
 800021a:	68db      	ldr	r3, [r3, #12]
 800021c:	687a      	ldr	r2, [r7, #4]
 800021e:	fb02 f303 	mul.w	r3, r2, r3
 8000222:	4a08      	ldr	r2, [pc, #32]	; (8000244 <h_bridge_set_right_duty+0x48>)
 8000224:	fba2 2303 	umull	r2, r3, r2, r3
 8000228:	095b      	lsrs	r3, r3, #5
 800022a:	60fb      	str	r3, [r7, #12]
 800022c:	4b04      	ldr	r3, [pc, #16]	; (8000240 <h_bridge_set_right_duty+0x44>)
 800022e:	681b      	ldr	r3, [r3, #0]
 8000230:	68fa      	ldr	r2, [r7, #12]
 8000232:	63da      	str	r2, [r3, #60]	; 0x3c
 8000234:	bf00      	nop
 8000236:	3714      	adds	r7, #20
 8000238:	46bd      	mov	sp, r7
 800023a:	bc80      	pop	{r7}
 800023c:	4770      	bx	lr
 800023e:	bf00      	nop
 8000240:	200036dc 	.word	0x200036dc
 8000244:	51eb851f 	.word	0x51eb851f

08000248 <h_bridge_cw_left>:
 8000248:	b580      	push	{r7, lr}
 800024a:	af00      	add	r7, sp, #0
 800024c:	2201      	movs	r2, #1
 800024e:	2102      	movs	r1, #2
 8000250:	4804      	ldr	r0, [pc, #16]	; (8000264 <h_bridge_cw_left+0x1c>)
 8000252:	f003 f911 	bl	8003478 <HAL_GPIO_WritePin>
 8000256:	2200      	movs	r2, #0
 8000258:	2104      	movs	r1, #4
 800025a:	4802      	ldr	r0, [pc, #8]	; (8000264 <h_bridge_cw_left+0x1c>)
 800025c:	f003 f90c 	bl	8003478 <HAL_GPIO_WritePin>
 8000260:	bf00      	nop
 8000262:	bd80      	pop	{r7, pc}
 8000264:	40020800 	.word	0x40020800

08000268 <h_bridge_cw_right>:
 8000268:	b580      	push	{r7, lr}
 800026a:	af00      	add	r7, sp, #0
 800026c:	2201      	movs	r2, #1
 800026e:	f44f 7180 	mov.w	r1, #256	; 0x100
 8000272:	4805      	ldr	r0, [pc, #20]	; (8000288 <h_bridge_cw_right+0x20>)
 8000274:	f003 f900 	bl	8003478 <HAL_GPIO_WritePin>
 8000278:	2200      	movs	r2, #0
 800027a:	f44f 7100 	mov.w	r1, #512	; 0x200
 800027e:	4803      	ldr	r0, [pc, #12]	; (800028c <h_bridge_cw_right+0x24>)
 8000280:	f003 f8fa 	bl	8003478 <HAL_GPIO_WritePin>
 8000284:	bf00      	nop
 8000286:	bd80      	pop	{r7, pc}
 8000288:	40020000 	.word	0x40020000
 800028c:	40020800 	.word	0x40020800

08000290 <h_bridge_ccw_left>:
 8000290:	b580      	push	{r7, lr}
 8000292:	af00      	add	r7, sp, #0
 8000294:	2200      	movs	r2, #0
 8000296:	2102      	movs	r1, #2
 8000298:	4804      	ldr	r0, [pc, #16]	; (80002ac <h_bridge_ccw_left+0x1c>)
 800029a:	f003 f8ed 	bl	8003478 <HAL_GPIO_WritePin>
 800029e:	2201      	movs	r2, #1
 80002a0:	2104      	movs	r1, #4
 80002a2:	4802      	ldr	r0, [pc, #8]	; (80002ac <h_bridge_ccw_left+0x1c>)
 80002a4:	f003 f8e8 	bl	8003478 <HAL_GPIO_WritePin>
 80002a8:	bf00      	nop
 80002aa:	bd80      	pop	{r7, pc}
 80002ac:	40020800 	.word	0x40020800

080002b0 <h_bridge_ccw_right>:
 80002b0:	b580      	push	{r7, lr}
 80002b2:	af00      	add	r7, sp, #0
 80002b4:	2200      	movs	r2, #0
 80002b6:	f44f 7180 	mov.w	r1, #256	; 0x100
 80002ba:	4805      	ldr	r0, [pc, #20]	; (80002d0 <h_bridge_ccw_right+0x20>)
 80002bc:	f003 f8dc 	bl	8003478 <HAL_GPIO_WritePin>
 80002c0:	2201      	movs	r2, #1
 80002c2:	f44f 7100 	mov.w	r1, #512	; 0x200
 80002c6:	4803      	ldr	r0, [pc, #12]	; (80002d4 <h_bridge_ccw_right+0x24>)
 80002c8:	f003 f8d6 	bl	8003478 <HAL_GPIO_WritePin>
 80002cc:	bf00      	nop
 80002ce:	bd80      	pop	{r7, pc}
 80002d0:	40020000 	.word	0x40020000
 80002d4:	40020800 	.word	0x40020800

080002d8 <h_bridge_coast>:
 80002d8:	b580      	push	{r7, lr}
 80002da:	af00      	add	r7, sp, #0
 80002dc:	2200      	movs	r2, #0
 80002de:	f44f 7180 	mov.w	r1, #256	; 0x100
 80002e2:	480a      	ldr	r0, [pc, #40]	; (800030c <h_bridge_coast+0x34>)
 80002e4:	f003 f8c8 	bl	8003478 <HAL_GPIO_WritePin>
 80002e8:	2200      	movs	r2, #0
 80002ea:	f44f 7100 	mov.w	r1, #512	; 0x200
 80002ee:	4808      	ldr	r0, [pc, #32]	; (8000310 <h_bridge_coast+0x38>)
 80002f0:	f003 f8c2 	bl	8003478 <HAL_GPIO_WritePin>
 80002f4:	2200      	movs	r2, #0
 80002f6:	2102      	movs	r1, #2
 80002f8:	4805      	ldr	r0, [pc, #20]	; (8000310 <h_bridge_coast+0x38>)
 80002fa:	f003 f8bd 	bl	8003478 <HAL_GPIO_WritePin>
 80002fe:	2200      	movs	r2, #0
 8000300:	2104      	movs	r1, #4
 8000302:	4803      	ldr	r0, [pc, #12]	; (8000310 <h_bridge_coast+0x38>)
 8000304:	f003 f8b8 	bl	8003478 <HAL_GPIO_WritePin>
 8000308:	bf00      	nop
 800030a:	bd80      	pop	{r7, pc}
 800030c:	40020000 	.word	0x40020000
 8000310:	40020800 	.word	0x40020800

08000314 <QMC5883L_Read_Reg>:
 8000314:	b580      	push	{r7, lr}
 8000316:	b088      	sub	sp, #32
 8000318:	af04      	add	r7, sp, #16
 800031a:	4603      	mov	r3, r0
 800031c:	71fb      	strb	r3, [r7, #7]
 800031e:	79fb      	ldrb	r3, [r7, #7]
 8000320:	b29a      	uxth	r2, r3
 8000322:	230a      	movs	r3, #10
 8000324:	9302      	str	r3, [sp, #8]
 8000326:	2301      	movs	r3, #1
 8000328:	9301      	str	r3, [sp, #4]
 800032a:	f107 030c 	add.w	r3, r7, #12
 800032e:	9300      	str	r3, [sp, #0]
 8000330:	2301      	movs	r3, #1
 8000332:	213c      	movs	r1, #60	; 0x3c
 8000334:	4803      	ldr	r0, [pc, #12]	; (8000344 <QMC5883L_Read_Reg+0x30>)
 8000336:	f003 fb91 	bl	8003a5c <HAL_I2C_Mem_Read>
 800033a:	7b3b      	ldrb	r3, [r7, #12]
 800033c:	4618      	mov	r0, r3
 800033e:	3710      	adds	r7, #16
 8000340:	46bd      	mov	sp, r7
 8000342:	bd80      	pop	{r7, pc}
 8000344:	200035d4 	.word	0x200035d4

08000348 <QMC5883L_Write_Reg>:
 8000348:	b580      	push	{r7, lr}
 800034a:	b086      	sub	sp, #24
 800034c:	af02      	add	r7, sp, #8
 800034e:	4603      	mov	r3, r0
 8000350:	460a      	mov	r2, r1
 8000352:	71fb      	strb	r3, [r7, #7]
 8000354:	4613      	mov	r3, r2
 8000356:	71bb      	strb	r3, [r7, #6]
 8000358:	79fb      	ldrb	r3, [r7, #7]
 800035a:	733b      	strb	r3, [r7, #12]
 800035c:	79bb      	ldrb	r3, [r7, #6]
 800035e:	737b      	strb	r3, [r7, #13]
 8000360:	f107 020c 	add.w	r2, r7, #12
 8000364:	230a      	movs	r3, #10
 8000366:	9300      	str	r3, [sp, #0]
 8000368:	2302      	movs	r3, #2
 800036a:	213c      	movs	r1, #60	; 0x3c
 800036c:	4803      	ldr	r0, [pc, #12]	; (800037c <QMC5883L_Write_Reg+0x34>)
 800036e:	f003 fa77 	bl	8003860 <HAL_I2C_Master_Transmit>
 8000372:	bf00      	nop
 8000374:	3710      	adds	r7, #16
 8000376:	46bd      	mov	sp, r7
 8000378:	bd80      	pop	{r7, pc}
 800037a:	bf00      	nop
 800037c:	200035d4 	.word	0x200035d4

08000380 <QMC5883L_Read_Data>:
 8000380:	b590      	push	{r4, r7, lr}
 8000382:	b085      	sub	sp, #20
 8000384:	af00      	add	r7, sp, #0
 8000386:	60f8      	str	r0, [r7, #12]
 8000388:	60b9      	str	r1, [r7, #8]
 800038a:	607a      	str	r2, [r7, #4]
 800038c:	2004      	movs	r0, #4
 800038e:	f7ff ffc1 	bl	8000314 <QMC5883L_Read_Reg>
 8000392:	4603      	mov	r3, r0
 8000394:	b21c      	sxth	r4, r3
 8000396:	2003      	movs	r0, #3
 8000398:	f7ff ffbc 	bl	8000314 <QMC5883L_Read_Reg>
 800039c:	4603      	mov	r3, r0
 800039e:	021b      	lsls	r3, r3, #8
 80003a0:	b21b      	sxth	r3, r3
 80003a2:	4323      	orrs	r3, r4
 80003a4:	b21a      	sxth	r2, r3
 80003a6:	68fb      	ldr	r3, [r7, #12]
 80003a8:	801a      	strh	r2, [r3, #0]
 80003aa:	2008      	movs	r0, #8
 80003ac:	f7ff ffb2 	bl	8000314 <QMC5883L_Read_Reg>
 80003b0:	4603      	mov	r3, r0
 80003b2:	b21c      	sxth	r4, r3
 80003b4:	2007      	movs	r0, #7
 80003b6:	f7ff ffad 	bl	8000314 <QMC5883L_Read_Reg>
 80003ba:	4603      	mov	r3, r0
 80003bc:	021b      	lsls	r3, r3, #8
 80003be:	b21b      	sxth	r3, r3
 80003c0:	4323      	orrs	r3, r4
 80003c2:	b21a      	sxth	r2, r3
 80003c4:	68bb      	ldr	r3, [r7, #8]
 80003c6:	801a      	strh	r2, [r3, #0]
 80003c8:	2006      	movs	r0, #6
 80003ca:	f7ff ffa3 	bl	8000314 <QMC5883L_Read_Reg>
 80003ce:	4603      	mov	r3, r0
 80003d0:	b21c      	sxth	r4, r3
 80003d2:	2005      	movs	r0, #5
 80003d4:	f7ff ff9e 	bl	8000314 <QMC5883L_Read_Reg>
 80003d8:	4603      	mov	r3, r0
 80003da:	021b      	lsls	r3, r3, #8
 80003dc:	b21b      	sxth	r3, r3
 80003de:	4323      	orrs	r3, r4
 80003e0:	b21a      	sxth	r2, r3
 80003e2:	687b      	ldr	r3, [r7, #4]
 80003e4:	801a      	strh	r2, [r3, #0]
 80003e6:	bf00      	nop
 80003e8:	3714      	adds	r7, #20
 80003ea:	46bd      	mov	sp, r7
 80003ec:	bd90      	pop	{r4, r7, pc}

080003ee <QMC5883L_Initialize>:
 80003ee:	b590      	push	{r4, r7, lr}
 80003f0:	b083      	sub	sp, #12
 80003f2:	af00      	add	r7, sp, #0
 80003f4:	4604      	mov	r4, r0
 80003f6:	4608      	mov	r0, r1
 80003f8:	4611      	mov	r1, r2
 80003fa:	461a      	mov	r2, r3
 80003fc:	4623      	mov	r3, r4
 80003fe:	71fb      	strb	r3, [r7, #7]
 8000400:	4603      	mov	r3, r0
 8000402:	71bb      	strb	r3, [r7, #6]
 8000404:	460b      	mov	r3, r1
 8000406:	717b      	strb	r3, [r7, #5]
 8000408:	4613      	mov	r3, r2
 800040a:	713b      	strb	r3, [r7, #4]
 800040c:	2101      	movs	r1, #1
 800040e:	200b      	movs	r0, #11
 8000410:	f7ff ff9a 	bl	8000348 <QMC5883L_Write_Reg>
 8000414:	79fa      	ldrb	r2, [r7, #7]
 8000416:	79bb      	ldrb	r3, [r7, #6]
 8000418:	4313      	orrs	r3, r2
 800041a:	b2da      	uxtb	r2, r3
 800041c:	797b      	ldrb	r3, [r7, #5]
 800041e:	4313      	orrs	r3, r2
 8000420:	b2da      	uxtb	r2, r3
 8000422:	793b      	ldrb	r3, [r7, #4]
 8000424:	4313      	orrs	r3, r2
 8000426:	b2db      	uxtb	r3, r3
 8000428:	4619      	mov	r1, r3
 800042a:	2009      	movs	r0, #9
 800042c:	f7ff ff8c 	bl	8000348 <QMC5883L_Write_Reg>
 8000430:	bf00      	nop
 8000432:	370c      	adds	r7, #12
 8000434:	46bd      	mov	sp, r7
 8000436:	bd90      	pop	{r4, r7, pc}

08000438 <QMC5883L_InterruptConfig>:
 8000438:	b580      	push	{r7, lr}
 800043a:	b082      	sub	sp, #8
 800043c:	af00      	add	r7, sp, #0
 800043e:	4603      	mov	r3, r0
 8000440:	71fb      	strb	r3, [r7, #7]
 8000442:	79fb      	ldrb	r3, [r7, #7]
 8000444:	2b01      	cmp	r3, #1
 8000446:	d104      	bne.n	8000452 <QMC5883L_InterruptConfig+0x1a>
 8000448:	2100      	movs	r1, #0
 800044a:	200a      	movs	r0, #10
 800044c:	f7ff ff7c 	bl	8000348 <QMC5883L_Write_Reg>
 8000450:	e003      	b.n	800045a <QMC5883L_InterruptConfig+0x22>
 8000452:	2101      	movs	r1, #1
 8000454:	200a      	movs	r0, #10
 8000456:	f7ff ff77 	bl	8000348 <QMC5883L_Write_Reg>
 800045a:	bf00      	nop
 800045c:	3708      	adds	r7, #8
 800045e:	46bd      	mov	sp, r7
 8000460:	bd80      	pop	{r7, pc}

08000462 <device_init>:
 8000462:	b480      	push	{r7}
 8000464:	b083      	sub	sp, #12
 8000466:	af00      	add	r7, sp, #0
 8000468:	2300      	movs	r3, #0
 800046a:	80fb      	strh	r3, [r7, #6]
 800046c:	2300      	movs	r3, #0
 800046e:	80bb      	strh	r3, [r7, #4]
 8000470:	2300      	movs	r3, #0
 8000472:	807b      	strh	r3, [r7, #2]
 8000474:	bf00      	nop
 8000476:	88ba      	ldrh	r2, [r7, #4]
 8000478:	88fb      	ldrh	r3, [r7, #6]
 800047a:	429a      	cmp	r2, r3
 800047c:	d000      	beq.n	8000480 <device_init+0x1e>
 800047e:	e7fe      	b.n	800047e <device_init+0x1c>
 8000480:	bf00      	nop
 8000482:	370c      	adds	r7, #12
 8000484:	46bd      	mov	sp, r7
 8000486:	bc80      	pop	{r7}
 8000488:	4770      	bx	lr
	...

0800048c <rt_init>:
 800048c:	b5b0      	push	{r4, r5, r7, lr}
 800048e:	b08a      	sub	sp, #40	; 0x28
 8000490:	af02      	add	r7, sp, #8
 8000492:	2300      	movs	r3, #0
 8000494:	77fb      	strb	r3, [r7, #31]
 8000496:	e02c      	b.n	80004f2 <rt_init+0x66>
 8000498:	7ffa      	ldrb	r2, [r7, #31]
 800049a:	4613      	mov	r3, r2
 800049c:	009b      	lsls	r3, r3, #2
 800049e:	4413      	add	r3, r2
 80004a0:	009b      	lsls	r3, r3, #2
 80004a2:	461a      	mov	r2, r3
 80004a4:	4b47      	ldr	r3, [pc, #284]	; (80005c4 <rt_init+0x138>)
 80004a6:	4413      	add	r3, r2
 80004a8:	607b      	str	r3, [r7, #4]
 80004aa:	7ffb      	ldrb	r3, [r7, #31]
 80004ac:	009b      	lsls	r3, r3, #2
 80004ae:	4a46      	ldr	r2, [pc, #280]	; (80005c8 <rt_init+0x13c>)
 80004b0:	4413      	add	r3, r2
 80004b2:	603b      	str	r3, [r7, #0]
 80004b4:	687b      	ldr	r3, [r7, #4]
 80004b6:	7c9b      	ldrb	r3, [r3, #18]
 80004b8:	2b00      	cmp	r3, #0
 80004ba:	d014      	beq.n	80004e6 <rt_init+0x5a>
 80004bc:	687b      	ldr	r3, [r7, #4]
 80004be:	6818      	ldr	r0, [r3, #0]
 80004c0:	687b      	ldr	r3, [r7, #4]
 80004c2:	6859      	ldr	r1, [r3, #4]
 80004c4:	687b      	ldr	r3, [r7, #4]
 80004c6:	8a1c      	ldrh	r4, [r3, #16]
 80004c8:	687b      	ldr	r3, [r7, #4]
 80004ca:	689d      	ldr	r5, [r3, #8]
 80004cc:	687b      	ldr	r3, [r7, #4]
 80004ce:	68db      	ldr	r3, [r3, #12]
 80004d0:	683a      	ldr	r2, [r7, #0]
 80004d2:	9201      	str	r2, [sp, #4]
 80004d4:	9300      	str	r3, [sp, #0]
 80004d6:	462b      	mov	r3, r5
 80004d8:	4622      	mov	r2, r4
 80004da:	f008 f960 	bl	800879e <xTaskCreate>
 80004de:	4603      	mov	r3, r0
 80004e0:	2b01      	cmp	r3, #1
 80004e2:	d003      	beq.n	80004ec <rt_init+0x60>
 80004e4:	e7fe      	b.n	80004e4 <rt_init+0x58>
 80004e6:	683b      	ldr	r3, [r7, #0]
 80004e8:	2200      	movs	r2, #0
 80004ea:	601a      	str	r2, [r3, #0]
 80004ec:	7ffb      	ldrb	r3, [r7, #31]
 80004ee:	3301      	adds	r3, #1
 80004f0:	77fb      	strb	r3, [r7, #31]
 80004f2:	7ffb      	ldrb	r3, [r7, #31]
 80004f4:	2b04      	cmp	r3, #4
 80004f6:	d9cf      	bls.n	8000498 <rt_init+0xc>
 80004f8:	2300      	movs	r3, #0
 80004fa:	77bb      	strb	r3, [r7, #30]
 80004fc:	e01c      	b.n	8000538 <rt_init+0xac>
 80004fe:	7fbb      	ldrb	r3, [r7, #30]
 8000500:	011b      	lsls	r3, r3, #4
 8000502:	4a32      	ldr	r2, [pc, #200]	; (80005cc <rt_init+0x140>)
 8000504:	4413      	add	r3, r2
 8000506:	60fb      	str	r3, [r7, #12]
 8000508:	7fbb      	ldrb	r3, [r7, #30]
 800050a:	009b      	lsls	r3, r3, #2
 800050c:	4a30      	ldr	r2, [pc, #192]	; (80005d0 <rt_init+0x144>)
 800050e:	4413      	add	r3, r2
 8000510:	60bb      	str	r3, [r7, #8]
 8000512:	68fb      	ldr	r3, [r7, #12]
 8000514:	6818      	ldr	r0, [r3, #0]
 8000516:	68fb      	ldr	r3, [r7, #12]
 8000518:	685b      	ldr	r3, [r3, #4]
 800051a:	2200      	movs	r2, #0
 800051c:	4619      	mov	r1, r3
 800051e:	f007 fcaf 	bl	8007e80 <xQueueGenericCreate>
 8000522:	4602      	mov	r2, r0
 8000524:	68bb      	ldr	r3, [r7, #8]
 8000526:	601a      	str	r2, [r3, #0]
 8000528:	68bb      	ldr	r3, [r7, #8]
 800052a:	681b      	ldr	r3, [r3, #0]
 800052c:	2b00      	cmp	r3, #0
 800052e:	d100      	bne.n	8000532 <rt_init+0xa6>
 8000530:	e7fe      	b.n	8000530 <rt_init+0xa4>
 8000532:	7fbb      	ldrb	r3, [r7, #30]
 8000534:	3301      	adds	r3, #1
 8000536:	77bb      	strb	r3, [r7, #30]
 8000538:	7fbb      	ldrb	r3, [r7, #30]
 800053a:	2b01      	cmp	r3, #1
 800053c:	d9df      	bls.n	80004fe <rt_init+0x72>
 800053e:	2300      	movs	r3, #0
 8000540:	777b      	strb	r3, [r7, #29]
 8000542:	e020      	b.n	8000586 <rt_init+0xfa>
 8000544:	7f7b      	ldrb	r3, [r7, #29]
 8000546:	011b      	lsls	r3, r3, #4
 8000548:	4a22      	ldr	r2, [pc, #136]	; (80005d4 <rt_init+0x148>)
 800054a:	4413      	add	r3, r2
 800054c:	617b      	str	r3, [r7, #20]
 800054e:	7f7b      	ldrb	r3, [r7, #29]
 8000550:	009b      	lsls	r3, r3, #2
 8000552:	4a21      	ldr	r2, [pc, #132]	; (80005d8 <rt_init+0x14c>)
 8000554:	4413      	add	r3, r2
 8000556:	613b      	str	r3, [r7, #16]
 8000558:	697b      	ldr	r3, [r7, #20]
 800055a:	6818      	ldr	r0, [r3, #0]
 800055c:	697b      	ldr	r3, [r7, #20]
 800055e:	6859      	ldr	r1, [r3, #4]
 8000560:	697b      	ldr	r3, [r7, #20]
 8000562:	689a      	ldr	r2, [r3, #8]
 8000564:	697b      	ldr	r3, [r7, #20]
 8000566:	68db      	ldr	r3, [r3, #12]
 8000568:	9300      	str	r3, [sp, #0]
 800056a:	2300      	movs	r3, #0
 800056c:	f009 f9d4 	bl	8009918 <xTimerCreate>
 8000570:	4602      	mov	r2, r0
 8000572:	693b      	ldr	r3, [r7, #16]
 8000574:	601a      	str	r2, [r3, #0]
 8000576:	693b      	ldr	r3, [r7, #16]
 8000578:	681b      	ldr	r3, [r3, #0]
 800057a:	2b00      	cmp	r3, #0
 800057c:	d100      	bne.n	8000580 <rt_init+0xf4>
 800057e:	e7fe      	b.n	800057e <rt_init+0xf2>
 8000580:	7f7b      	ldrb	r3, [r7, #29]
 8000582:	3301      	adds	r3, #1
 8000584:	777b      	strb	r3, [r7, #29]
 8000586:	7f7b      	ldrb	r3, [r7, #29]
 8000588:	2b02      	cmp	r3, #2
 800058a:	d9db      	bls.n	8000544 <rt_init+0xb8>
 800058c:	2300      	movs	r3, #0
 800058e:	773b      	strb	r3, [r7, #28]
 8000590:	e011      	b.n	80005b6 <rt_init+0x12a>
 8000592:	7f3b      	ldrb	r3, [r7, #28]
 8000594:	009b      	lsls	r3, r3, #2
 8000596:	4a11      	ldr	r2, [pc, #68]	; (80005dc <rt_init+0x150>)
 8000598:	4413      	add	r3, r2
 800059a:	61bb      	str	r3, [r7, #24]
 800059c:	f007 f8e0 	bl	8007760 <xEventGroupCreate>
 80005a0:	4602      	mov	r2, r0
 80005a2:	69bb      	ldr	r3, [r7, #24]
 80005a4:	601a      	str	r2, [r3, #0]
 80005a6:	69bb      	ldr	r3, [r7, #24]
 80005a8:	681b      	ldr	r3, [r3, #0]
 80005aa:	2b00      	cmp	r3, #0
 80005ac:	d100      	bne.n	80005b0 <rt_init+0x124>
 80005ae:	e7fe      	b.n	80005ae <rt_init+0x122>
 80005b0:	7f3b      	ldrb	r3, [r7, #28]
 80005b2:	3301      	adds	r3, #1
 80005b4:	773b      	strb	r3, [r7, #28]
 80005b6:	7f3b      	ldrb	r3, [r7, #28]
 80005b8:	2b03      	cmp	r3, #3
 80005ba:	d9ea      	bls.n	8000592 <rt_init+0x106>
 80005bc:	bf00      	nop
 80005be:	3720      	adds	r7, #32
 80005c0:	46bd      	mov	sp, r7
 80005c2:	bdb0      	pop	{r4, r5, r7, pc}
 80005c4:	0800aa40 	.word	0x0800aa40
 80005c8:	20003534 	.word	0x20003534
 80005cc:	0800aaa4 	.word	0x0800aaa4
 80005d0:	20003564 	.word	0x20003564
 80005d4:	0800aac4 	.word	0x0800aac4
 80005d8:	20003548 	.word	0x20003548
 80005dc:	20003554 	.word	0x20003554

080005e0 <rt_evbitwait_any>:
 80005e0:	b580      	push	{r7, lr}
 80005e2:	b086      	sub	sp, #24
 80005e4:	af02      	add	r7, sp, #8
 80005e6:	4603      	mov	r3, r0
 80005e8:	71fb      	strb	r3, [r7, #7]
 80005ea:	79fb      	ldrb	r3, [r7, #7]
 80005ec:	4a09      	ldr	r2, [pc, #36]	; (8000614 <rt_evbitwait_any+0x34>)
 80005ee:	f852 3023 	ldr.w	r3, [r2, r3, lsl #2]
 80005f2:	60fb      	str	r3, [r7, #12]
 80005f4:	f04f 33ff 	mov.w	r3, #4294967295
 80005f8:	9300      	str	r3, [sp, #0]
 80005fa:	2300      	movs	r3, #0
 80005fc:	2201      	movs	r2, #1
 80005fe:	f06f 417f 	mvn.w	r1, #4278190080	; 0xff000000
 8000602:	68f8      	ldr	r0, [r7, #12]
 8000604:	f007 f8c6 	bl	8007794 <xEventGroupWaitBits>
 8000608:	4603      	mov	r3, r0
 800060a:	4618      	mov	r0, r3
 800060c:	3710      	adds	r7, #16
 800060e:	46bd      	mov	sp, r7
 8000610:	bd80      	pop	{r7, pc}
 8000612:	bf00      	nop
 8000614:	20003554 	.word	0x20003554

08000618 <rt_evbit_check_any>:
 8000618:	b580      	push	{r7, lr}
 800061a:	b086      	sub	sp, #24
 800061c:	af02      	add	r7, sp, #8
 800061e:	4603      	mov	r3, r0
 8000620:	71fb      	strb	r3, [r7, #7]
 8000622:	79fb      	ldrb	r3, [r7, #7]
 8000624:	4a08      	ldr	r2, [pc, #32]	; (8000648 <rt_evbit_check_any+0x30>)
 8000626:	f852 3023 	ldr.w	r3, [r2, r3, lsl #2]
 800062a:	60fb      	str	r3, [r7, #12]
 800062c:	2300      	movs	r3, #0
 800062e:	9300      	str	r3, [sp, #0]
 8000630:	2300      	movs	r3, #0
 8000632:	2200      	movs	r2, #0
 8000634:	f06f 417f 	mvn.w	r1, #4278190080	; 0xff000000
 8000638:	68f8      	ldr	r0, [r7, #12]
 800063a:	f007 f8ab 	bl	8007794 <xEventGroupWaitBits>
 800063e:	4603      	mov	r3, r0
 8000640:	4618      	mov	r0, r3
 8000642:	3710      	adds	r7, #16
 8000644:	46bd      	mov	sp, r7
 8000646:	bd80      	pop	{r7, pc}
 8000648:	20003554 	.word	0x20003554

0800064c <rt_evbit_clear_ISR>:
 800064c:	b580      	push	{r7, lr}
 800064e:	b084      	sub	sp, #16
 8000650:	af00      	add	r7, sp, #0
 8000652:	4603      	mov	r3, r0
 8000654:	6039      	str	r1, [r7, #0]
 8000656:	71fb      	strb	r3, [r7, #7]
 8000658:	79fb      	ldrb	r3, [r7, #7]
 800065a:	4a09      	ldr	r2, [pc, #36]	; (8000680 <rt_evbit_clear_ISR+0x34>)
 800065c:	f852 3023 	ldr.w	r3, [r2, r3, lsl #2]
 8000660:	60fb      	str	r3, [r7, #12]
 8000662:	2201      	movs	r2, #1
 8000664:	683b      	ldr	r3, [r7, #0]
 8000666:	fa02 f303 	lsl.w	r3, r2, r3
 800066a:	60bb      	str	r3, [r7, #8]
 800066c:	68b9      	ldr	r1, [r7, #8]
 800066e:	68f8      	ldr	r0, [r7, #12]
 8000670:	f007 f990 	bl	8007994 <xEventGroupClearBitsFromISR>
 8000674:	4603      	mov	r3, r0
 8000676:	4618      	mov	r0, r3
 8000678:	3710      	adds	r7, #16
 800067a:	46bd      	mov	sp, r7
 800067c:	bd80      	pop	{r7, pc}
 800067e:	bf00      	nop
 8000680:	20003554 	.word	0x20003554

08000684 <rt_evbit_set>:
 8000684:	b580      	push	{r7, lr}
 8000686:	b084      	sub	sp, #16
 8000688:	af00      	add	r7, sp, #0
 800068a:	4603      	mov	r3, r0
 800068c:	6039      	str	r1, [r7, #0]
 800068e:	71fb      	strb	r3, [r7, #7]
 8000690:	2201      	movs	r2, #1
 8000692:	683b      	ldr	r3, [r7, #0]
 8000694:	fa02 f303 	lsl.w	r3, r2, r3
 8000698:	60fb      	str	r3, [r7, #12]
 800069a:	79fb      	ldrb	r3, [r7, #7]
 800069c:	4a05      	ldr	r2, [pc, #20]	; (80006b4 <rt_evbit_set+0x30>)
 800069e:	f852 3023 	ldr.w	r3, [r2, r3, lsl #2]
 80006a2:	60bb      	str	r3, [r7, #8]
 80006a4:	68f9      	ldr	r1, [r7, #12]
 80006a6:	68b8      	ldr	r0, [r7, #8]
 80006a8:	f007 f988 	bl	80079bc <xEventGroupSetBits>
 80006ac:	bf00      	nop
 80006ae:	3710      	adds	r7, #16
 80006b0:	46bd      	mov	sp, r7
 80006b2:	bd80      	pop	{r7, pc}
 80006b4:	20003554 	.word	0x20003554

080006b8 <rt_evbit_set_ISR>:
 80006b8:	b580      	push	{r7, lr}
 80006ba:	b084      	sub	sp, #16
 80006bc:	af00      	add	r7, sp, #0
 80006be:	4603      	mov	r3, r0
 80006c0:	6039      	str	r1, [r7, #0]
 80006c2:	71fb      	strb	r3, [r7, #7]
 80006c4:	2201      	movs	r2, #1
 80006c6:	683b      	ldr	r3, [r7, #0]
 80006c8:	fa02 f303 	lsl.w	r3, r2, r3
 80006cc:	60fb      	str	r3, [r7, #12]
 80006ce:	79fb      	ldrb	r3, [r7, #7]
 80006d0:	4a06      	ldr	r2, [pc, #24]	; (80006ec <rt_evbit_set_ISR+0x34>)
 80006d2:	f852 3023 	ldr.w	r3, [r2, r3, lsl #2]
 80006d6:	60bb      	str	r3, [r7, #8]
 80006d8:	2200      	movs	r2, #0
 80006da:	68f9      	ldr	r1, [r7, #12]
 80006dc:	68b8      	ldr	r0, [r7, #8]
 80006de:	f007 fa31 	bl	8007b44 <xEventGroupSetBitsFromISR>
 80006e2:	bf00      	nop
 80006e4:	3710      	adds	r7, #16
 80006e6:	46bd      	mov	sp, r7
 80006e8:	bd80      	pop	{r7, pc}
 80006ea:	bf00      	nop
 80006ec:	20003554 	.word	0x20003554

080006f0 <rt_enqueue_ISR>:
 80006f0:	b580      	push	{r7, lr}
 80006f2:	b084      	sub	sp, #16
 80006f4:	af00      	add	r7, sp, #0
 80006f6:	4603      	mov	r3, r0
 80006f8:	6039      	str	r1, [r7, #0]
 80006fa:	71fb      	strb	r3, [r7, #7]
 80006fc:	79fb      	ldrb	r3, [r7, #7]
 80006fe:	4a0b      	ldr	r2, [pc, #44]	; (800072c <rt_enqueue_ISR+0x3c>)
 8000700:	f852 3023 	ldr.w	r3, [r2, r3, lsl #2]
 8000704:	60fb      	str	r3, [r7, #12]
 8000706:	2300      	movs	r3, #0
 8000708:	60bb      	str	r3, [r7, #8]
 800070a:	f107 0208 	add.w	r2, r7, #8
 800070e:	2300      	movs	r3, #0
 8000710:	6839      	ldr	r1, [r7, #0]
 8000712:	68f8      	ldr	r0, [r7, #12]
 8000714:	f007 fd0e 	bl	8008134 <xQueueGenericSendFromISR>
 8000718:	4603      	mov	r3, r0
 800071a:	2b01      	cmp	r3, #1
 800071c:	d101      	bne.n	8000722 <rt_enqueue_ISR+0x32>
 800071e:	2301      	movs	r3, #1
 8000720:	e000      	b.n	8000724 <rt_enqueue_ISR+0x34>
 8000722:	2300      	movs	r3, #0
 8000724:	4618      	mov	r0, r3
 8000726:	3710      	adds	r7, #16
 8000728:	46bd      	mov	sp, r7
 800072a:	bd80      	pop	{r7, pc}
 800072c:	20003564 	.word	0x20003564

08000730 <rt_dequeue>:
 8000730:	b580      	push	{r7, lr}
 8000732:	b084      	sub	sp, #16
 8000734:	af00      	add	r7, sp, #0
 8000736:	4603      	mov	r3, r0
 8000738:	6039      	str	r1, [r7, #0]
 800073a:	71fb      	strb	r3, [r7, #7]
 800073c:	79fb      	ldrb	r3, [r7, #7]
 800073e:	4a0d      	ldr	r2, [pc, #52]	; (8000774 <rt_dequeue+0x44>)
 8000740:	f852 3023 	ldr.w	r3, [r2, r3, lsl #2]
 8000744:	60fb      	str	r3, [r7, #12]
 8000746:	79fb      	ldrb	r3, [r7, #7]
 8000748:	4a0b      	ldr	r2, [pc, #44]	; (8000778 <rt_dequeue+0x48>)
 800074a:	011b      	lsls	r3, r3, #4
 800074c:	4413      	add	r3, r2
 800074e:	330c      	adds	r3, #12
 8000750:	681b      	ldr	r3, [r3, #0]
 8000752:	60bb      	str	r3, [r7, #8]
 8000754:	68ba      	ldr	r2, [r7, #8]
 8000756:	6839      	ldr	r1, [r7, #0]
 8000758:	68f8      	ldr	r0, [r7, #12]
 800075a:	f007 fd7f 	bl	800825c <xQueueReceive>
 800075e:	4603      	mov	r3, r0
 8000760:	2b01      	cmp	r3, #1
 8000762:	d101      	bne.n	8000768 <rt_dequeue+0x38>
 8000764:	2301      	movs	r3, #1
 8000766:	e000      	b.n	800076a <rt_dequeue+0x3a>
 8000768:	2300      	movs	r3, #0
 800076a:	4618      	mov	r0, r3
 800076c:	3710      	adds	r7, #16
 800076e:	46bd      	mov	sp, r7
 8000770:	bd80      	pop	{r7, pc}
 8000772:	bf00      	nop
 8000774:	20003564 	.word	0x20003564
 8000778:	0800aaa4 	.word	0x0800aaa4

0800077c <rt_timer_start>:
 800077c:	b590      	push	{r4, r7, lr}
 800077e:	b085      	sub	sp, #20
 8000780:	af02      	add	r7, sp, #8
 8000782:	4603      	mov	r3, r0
 8000784:	6039      	str	r1, [r7, #0]
 8000786:	71fb      	strb	r3, [r7, #7]
 8000788:	79fb      	ldrb	r3, [r7, #7]
 800078a:	4a0b      	ldr	r2, [pc, #44]	; (80007b8 <rt_timer_start+0x3c>)
 800078c:	f852 4023 	ldr.w	r4, [r2, r3, lsl #2]
 8000790:	f008 fb8e 	bl	8008eb0 <xTaskGetTickCount>
 8000794:	4602      	mov	r2, r0
 8000796:	683b      	ldr	r3, [r7, #0]
 8000798:	9300      	str	r3, [sp, #0]
 800079a:	2300      	movs	r3, #0
 800079c:	2101      	movs	r1, #1
 800079e:	4620      	mov	r0, r4
 80007a0:	f009 f90c 	bl	80099bc <xTimerGenericCommand>
 80007a4:	4603      	mov	r3, r0
 80007a6:	2b00      	cmp	r3, #0
 80007a8:	bf14      	ite	ne
 80007aa:	2301      	movne	r3, #1
 80007ac:	2300      	moveq	r3, #0
 80007ae:	b2db      	uxtb	r3, r3
 80007b0:	4618      	mov	r0, r3
 80007b2:	370c      	adds	r7, #12
 80007b4:	46bd      	mov	sp, r7
 80007b6:	bd90      	pop	{r4, r7, pc}
 80007b8:	20003548 	.word	0x20003548

080007bc <rt_timer_start_ISR>:
 80007bc:	b590      	push	{r4, r7, lr}
 80007be:	b085      	sub	sp, #20
 80007c0:	af02      	add	r7, sp, #8
 80007c2:	4603      	mov	r3, r0
 80007c4:	6039      	str	r1, [r7, #0]
 80007c6:	71fb      	strb	r3, [r7, #7]
 80007c8:	79fb      	ldrb	r3, [r7, #7]
 80007ca:	4a0b      	ldr	r2, [pc, #44]	; (80007f8 <rt_timer_start_ISR+0x3c>)
 80007cc:	f852 4023 	ldr.w	r4, [r2, r3, lsl #2]
 80007d0:	f008 fb7c 	bl	8008ecc <xTaskGetTickCountFromISR>
 80007d4:	4602      	mov	r2, r0
 80007d6:	2300      	movs	r3, #0
 80007d8:	9300      	str	r3, [sp, #0]
 80007da:	683b      	ldr	r3, [r7, #0]
 80007dc:	2106      	movs	r1, #6
 80007de:	4620      	mov	r0, r4
 80007e0:	f009 f8ec 	bl	80099bc <xTimerGenericCommand>
 80007e4:	4603      	mov	r3, r0
 80007e6:	2b00      	cmp	r3, #0
 80007e8:	bf14      	ite	ne
 80007ea:	2301      	movne	r3, #1
 80007ec:	2300      	moveq	r3, #0
 80007ee:	b2db      	uxtb	r3, r3
 80007f0:	4618      	mov	r0, r3
 80007f2:	370c      	adds	r7, #12
 80007f4:	46bd      	mov	sp, r7
 80007f6:	bd90      	pop	{r4, r7, pc}
 80007f8:	20003548 	.word	0x20003548

080007fc <timer_BLE>:
 80007fc:	b580      	push	{r7, lr}
 80007fe:	b082      	sub	sp, #8
 8000800:	af00      	add	r7, sp, #0
 8000802:	6078      	str	r0, [r7, #4]
 8000804:	2203      	movs	r2, #3
 8000806:	4904      	ldr	r1, [pc, #16]	; (8000818 <timer_BLE+0x1c>)
 8000808:	4804      	ldr	r0, [pc, #16]	; (800081c <timer_BLE+0x20>)
 800080a:	f006 fadf 	bl	8006dcc <HAL_UART_Receive_DMA>
 800080e:	bf00      	nop
 8000810:	3708      	adds	r7, #8
 8000812:	46bd      	mov	sp, r7
 8000814:	bd80      	pop	{r7, pc}
 8000816:	bf00      	nop
 8000818:	20003570 	.word	0x20003570
 800081c:	200037d4 	.word	0x200037d4

08000820 <HAL_UART_RxCpltCallback>:
 8000820:	b580      	push	{r7, lr}
 8000822:	b084      	sub	sp, #16
 8000824:	af00      	add	r7, sp, #0
 8000826:	6078      	str	r0, [r7, #4]
 8000828:	2300      	movs	r3, #0
 800082a:	60fb      	str	r3, [r7, #12]
 800082c:	2300      	movs	r3, #0
 800082e:	733b      	strb	r3, [r7, #12]
 8000830:	4b09      	ldr	r3, [pc, #36]	; (8000858 <HAL_UART_RxCpltCallback+0x38>)
 8000832:	781b      	ldrb	r3, [r3, #0]
 8000834:	737b      	strb	r3, [r7, #13]
 8000836:	4b09      	ldr	r3, [pc, #36]	; (800085c <HAL_UART_RxCpltCallback+0x3c>)
 8000838:	781b      	ldrb	r3, [r3, #0]
 800083a:	73bb      	strb	r3, [r7, #14]
 800083c:	4b08      	ldr	r3, [pc, #32]	; (8000860 <HAL_UART_RxCpltCallback+0x40>)
 800083e:	781b      	ldrb	r3, [r3, #0]
 8000840:	73fb      	strb	r3, [r7, #15]
 8000842:	f107 030c 	add.w	r3, r7, #12
 8000846:	4619      	mov	r1, r3
 8000848:	2000      	movs	r0, #0
 800084a:	f7ff ff51 	bl	80006f0 <rt_enqueue_ISR>
 800084e:	bf00      	nop
 8000850:	3710      	adds	r7, #16
 8000852:	46bd      	mov	sp, r7
 8000854:	bd80      	pop	{r7, pc}
 8000856:	bf00      	nop
 8000858:	20003570 	.word	0x20003570
 800085c:	20003571 	.word	0x20003571
 8000860:	20003572 	.word	0x20003572

08000864 <HAL_UART_ErrorCallback>:
 8000864:	b480      	push	{r7}
 8000866:	b083      	sub	sp, #12
 8000868:	af00      	add	r7, sp, #0
 800086a:	6078      	str	r0, [r7, #4]
 800086c:	bf00      	nop
 800086e:	bf00      	nop
 8000870:	370c      	adds	r7, #12
 8000872:	46bd      	mov	sp, r7
 8000874:	bc80      	pop	{r7}
 8000876:	4770      	bx	lr

08000878 <task_ble>:
 8000878:	b580      	push	{r7, lr}
 800087a:	b088      	sub	sp, #32
 800087c:	af00      	add	r7, sp, #0
 800087e:	6078      	str	r0, [r7, #4]
 8000880:	2300      	movs	r3, #0
 8000882:	60bb      	str	r3, [r7, #8]
 8000884:	f107 0308 	add.w	r3, r7, #8
 8000888:	4619      	mov	r1, r3
 800088a:	2000      	movs	r0, #0
 800088c:	f7ff ff50 	bl	8000730 <rt_dequeue>
 8000890:	4603      	mov	r3, r0
 8000892:	77fb      	strb	r3, [r7, #31]
 8000894:	7ffb      	ldrb	r3, [r7, #31]
 8000896:	2b00      	cmp	r3, #0
 8000898:	d0f4      	beq.n	8000884 <task_ble+0xc>
 800089a:	7a3b      	ldrb	r3, [r7, #8]
 800089c:	2b00      	cmp	r3, #0
 800089e:	d160      	bne.n	8000962 <task_ble+0xea>
 80008a0:	7a7b      	ldrb	r3, [r7, #9]
 80008a2:	2b02      	cmp	r3, #2
 80008a4:	d008      	beq.n	80008b8 <task_ble+0x40>
 80008a6:	2b03      	cmp	r3, #3
 80008a8:	d00b      	beq.n	80008c2 <task_ble+0x4a>
 80008aa:	2b01      	cmp	r3, #1
 80008ac:	d152      	bne.n	8000954 <task_ble+0xdc>
 80008ae:	2100      	movs	r1, #0
 80008b0:	2001      	movs	r0, #1
 80008b2:	f7ff fee7 	bl	8000684 <rt_evbit_set>
 80008b6:	e055      	b.n	8000964 <task_ble+0xec>
 80008b8:	2101      	movs	r1, #1
 80008ba:	2001      	movs	r0, #1
 80008bc:	f7ff fee2 	bl	8000684 <rt_evbit_set>
 80008c0:	e050      	b.n	8000964 <task_ble+0xec>
 80008c2:	7abb      	ldrb	r3, [r7, #10]
 80008c4:	77bb      	strb	r3, [r7, #30]
 80008c6:	7afb      	ldrb	r3, [r7, #11]
 80008c8:	777b      	strb	r3, [r7, #29]
 80008ca:	7fbb      	ldrb	r3, [r7, #30]
 80008cc:	4618      	mov	r0, r3
 80008ce:	f000 f9cf 	bl	8000c70 <u2_to_decimal>
 80008d2:	61b8      	str	r0, [r7, #24]
 80008d4:	7f7b      	ldrb	r3, [r7, #29]
 80008d6:	4618      	mov	r0, r3
 80008d8:	f000 f9ca 	bl	8000c70 <u2_to_decimal>
 80008dc:	6178      	str	r0, [r7, #20]
 80008de:	69bb      	ldr	r3, [r7, #24]
 80008e0:	2b00      	cmp	r3, #0
 80008e2:	da07      	bge.n	80008f4 <task_ble+0x7c>
 80008e4:	f7ff fcd4 	bl	8000290 <h_bridge_ccw_left>
 80008e8:	69bb      	ldr	r3, [r7, #24]
 80008ea:	425b      	negs	r3, r3
 80008ec:	4618      	mov	r0, r3
 80008ee:	f7ff fc5f 	bl	80001b0 <h_bridge_set_left_duty>
 80008f2:	e011      	b.n	8000918 <task_ble+0xa0>
 80008f4:	2003      	movs	r0, #3
 80008f6:	f7ff fe8f 	bl	8000618 <rt_evbit_check_any>
 80008fa:	6138      	str	r0, [r7, #16]
 80008fc:	693b      	ldr	r3, [r7, #16]
 80008fe:	f003 0302 	and.w	r3, r3, #2
 8000902:	2b00      	cmp	r3, #0
 8000904:	d005      	beq.n	8000912 <task_ble+0x9a>
 8000906:	f7ff fc9f 	bl	8000248 <h_bridge_cw_left>
 800090a:	69b8      	ldr	r0, [r7, #24]
 800090c:	f7ff fc50 	bl	80001b0 <h_bridge_set_left_duty>
 8000910:	e002      	b.n	8000918 <task_ble+0xa0>
 8000912:	2000      	movs	r0, #0
 8000914:	f7ff fc4c 	bl	80001b0 <h_bridge_set_left_duty>
 8000918:	697b      	ldr	r3, [r7, #20]
 800091a:	2b00      	cmp	r3, #0
 800091c:	da07      	bge.n	800092e <task_ble+0xb6>
 800091e:	f7ff fcc7 	bl	80002b0 <h_bridge_ccw_right>
 8000922:	697b      	ldr	r3, [r7, #20]
 8000924:	425b      	negs	r3, r3
 8000926:	4618      	mov	r0, r3
 8000928:	f7ff fc68 	bl	80001fc <h_bridge_set_right_duty>
 800092c:	e01a      	b.n	8000964 <task_ble+0xec>
 800092e:	2003      	movs	r0, #3
 8000930:	f7ff fe72 	bl	8000618 <rt_evbit_check_any>
 8000934:	60f8      	str	r0, [r7, #12]
 8000936:	68fb      	ldr	r3, [r7, #12]
 8000938:	f003 0302 	and.w	r3, r3, #2
 800093c:	2b00      	cmp	r3, #0
 800093e:	d005      	beq.n	800094c <task_ble+0xd4>
 8000940:	f7ff fc92 	bl	8000268 <h_bridge_cw_right>
 8000944:	6978      	ldr	r0, [r7, #20]
 8000946:	f7ff fc59 	bl	80001fc <h_bridge_set_right_duty>
 800094a:	e00b      	b.n	8000964 <task_ble+0xec>
 800094c:	2000      	movs	r0, #0
 800094e:	f7ff fc55 	bl	80001fc <h_bridge_set_right_duty>
 8000952:	e007      	b.n	8000964 <task_ble+0xec>
 8000954:	f107 0308 	add.w	r3, r7, #8
 8000958:	4619      	mov	r1, r3
 800095a:	2000      	movs	r0, #0
 800095c:	f7ff fee8 	bl	8000730 <rt_dequeue>
 8000960:	e000      	b.n	8000964 <task_ble+0xec>
 8000962:	bf00      	nop
 8000964:	7a3b      	ldrb	r3, [r7, #8]
 8000966:	2b01      	cmp	r3, #1
 8000968:	d18c      	bne.n	8000884 <task_ble+0xc>
 800096a:	7a7a      	ldrb	r2, [r7, #9]
 800096c:	4b07      	ldr	r3, [pc, #28]	; (800098c <task_ble+0x114>)
 800096e:	701a      	strb	r2, [r3, #0]
 8000970:	4b07      	ldr	r3, [pc, #28]	; (8000990 <task_ble+0x118>)
 8000972:	7aba      	ldrb	r2, [r7, #10]
 8000974:	701a      	strb	r2, [r3, #0]
 8000976:	4b07      	ldr	r3, [pc, #28]	; (8000994 <task_ble+0x11c>)
 8000978:	7afa      	ldrb	r2, [r7, #11]
 800097a:	701a      	strb	r2, [r3, #0]
 800097c:	2301      	movs	r3, #1
 800097e:	2203      	movs	r2, #3
 8000980:	4902      	ldr	r1, [pc, #8]	; (800098c <task_ble+0x114>)
 8000982:	4805      	ldr	r0, [pc, #20]	; (8000998 <task_ble+0x120>)
 8000984:	f006 f988 	bl	8006c98 <HAL_UART_Transmit>
 8000988:	e77c      	b.n	8000884 <task_ble+0xc>
 800098a:	bf00      	nop
 800098c:	2000356c 	.word	0x2000356c
 8000990:	2000356d 	.word	0x2000356d
 8000994:	2000356e 	.word	0x2000356e
 8000998:	200037d4 	.word	0x200037d4

0800099c <timer_ultrasound_sensor_tigger>:
 800099c:	b580      	push	{r7, lr}
 800099e:	b082      	sub	sp, #8
 80009a0:	af00      	add	r7, sp, #0
 80009a2:	6078      	str	r0, [r7, #4]
 80009a4:	2201      	movs	r2, #1
 80009a6:	2140      	movs	r1, #64	; 0x40
 80009a8:	4804      	ldr	r0, [pc, #16]	; (80009bc <timer_ultrasound_sensor_tigger+0x20>)
 80009aa:	f002 fd65 	bl	8003478 <HAL_GPIO_WritePin>
 80009ae:	4804      	ldr	r0, [pc, #16]	; (80009c0 <timer_ultrasound_sensor_tigger+0x24>)
 80009b0:	f004 fe84 	bl	80056bc <HAL_TIM_Base_Start_IT>
 80009b4:	bf00      	nop
 80009b6:	3708      	adds	r7, #8
 80009b8:	46bd      	mov	sp, r7
 80009ba:	bd80      	pop	{r7, pc}
 80009bc:	40020800 	.word	0x40020800
 80009c0:	200036a0 	.word	0x200036a0

080009c4 <task_eyes>:
 80009c4:	b580      	push	{r7, lr}
 80009c6:	b082      	sub	sp, #8
 80009c8:	af00      	add	r7, sp, #0
 80009ca:	6078      	str	r0, [r7, #4]
 80009cc:	2164      	movs	r1, #100	; 0x64
 80009ce:	2002      	movs	r0, #2
 80009d0:	f7ff fed4 	bl	800077c <rt_timer_start>
 80009d4:	4b04      	ldr	r3, [pc, #16]	; (80009e8 <task_eyes+0x24>)
 80009d6:	f04f 5280 	mov.w	r2, #268435456	; 0x10000000
 80009da:	601a      	str	r2, [r3, #0]
 80009dc:	f3bf 8f4f 	dsb	sy
 80009e0:	f3bf 8f6f 	isb	sy
 80009e4:	e7f6      	b.n	80009d4 <task_eyes+0x10>
 80009e6:	bf00      	nop
 80009e8:	e000ed04 	.word	0xe000ed04

080009ec <task_memory>:
 80009ec:	b480      	push	{r7}
 80009ee:	b083      	sub	sp, #12
 80009f0:	af00      	add	r7, sp, #0
 80009f2:	6078      	str	r0, [r7, #4]
 80009f4:	4b04      	ldr	r3, [pc, #16]	; (8000a08 <task_memory+0x1c>)
 80009f6:	f04f 5280 	mov.w	r2, #268435456	; 0x10000000
 80009fa:	601a      	str	r2, [r3, #0]
 80009fc:	f3bf 8f4f 	dsb	sy
 8000a00:	f3bf 8f6f 	isb	sy
 8000a04:	e7f6      	b.n	80009f4 <task_memory+0x8>
 8000a06:	bf00      	nop
 8000a08:	e000ed04 	.word	0xe000ed04

08000a0c <HAL_GPIO_EXTI_Callback>:
 8000a0c:	b580      	push	{r7, lr}
 8000a0e:	b084      	sub	sp, #16
 8000a10:	af00      	add	r7, sp, #0
 8000a12:	4603      	mov	r3, r0
 8000a14:	80fb      	strh	r3, [r7, #6]
 8000a16:	88fb      	ldrh	r3, [r7, #6]
 8000a18:	f003 0302 	and.w	r3, r3, #2
 8000a1c:	2b00      	cmp	r3, #0
 8000a1e:	d023      	beq.n	8000a68 <HAL_GPIO_EXTI_Callback+0x5c>
 8000a20:	2102      	movs	r1, #2
 8000a22:	481b      	ldr	r0, [pc, #108]	; (8000a90 <HAL_GPIO_EXTI_Callback+0x84>)
 8000a24:	f002 fd02 	bl	800342c <HAL_GPIO_ReadPin>
 8000a28:	4603      	mov	r3, r0
 8000a2a:	2b00      	cmp	r3, #0
 8000a2c:	d006      	beq.n	8000a3c <HAL_GPIO_EXTI_Callback+0x30>
 8000a2e:	4b19      	ldr	r3, [pc, #100]	; (8000a94 <HAL_GPIO_EXTI_Callback+0x88>)
 8000a30:	2200      	movs	r2, #0
 8000a32:	625a      	str	r2, [r3, #36]	; 0x24
 8000a34:	4818      	ldr	r0, [pc, #96]	; (8000a98 <HAL_GPIO_EXTI_Callback+0x8c>)
 8000a36:	f004 fd75 	bl	8005524 <HAL_TIM_Base_Start>
 8000a3a:	e015      	b.n	8000a68 <HAL_GPIO_EXTI_Callback+0x5c>
 8000a3c:	4816      	ldr	r0, [pc, #88]	; (8000a98 <HAL_GPIO_EXTI_Callback+0x8c>)
 8000a3e:	f004 fdd7 	bl	80055f0 <HAL_TIM_Base_Stop>
 8000a42:	4b14      	ldr	r3, [pc, #80]	; (8000a94 <HAL_GPIO_EXTI_Callback+0x88>)
 8000a44:	6a5b      	ldr	r3, [r3, #36]	; 0x24
 8000a46:	81fb      	strh	r3, [r7, #14]
 8000a48:	f241 232b 	movw	r3, #4651	; 0x122b
 8000a4c:	81bb      	strh	r3, [r7, #12]
 8000a4e:	89fa      	ldrh	r2, [r7, #14]
 8000a50:	89bb      	ldrh	r3, [r7, #12]
 8000a52:	429a      	cmp	r2, r3
 8000a54:	d904      	bls.n	8000a60 <HAL_GPIO_EXTI_Callback+0x54>
 8000a56:	2101      	movs	r1, #1
 8000a58:	2003      	movs	r0, #3
 8000a5a:	f7ff fe2d 	bl	80006b8 <rt_evbit_set_ISR>
 8000a5e:	e003      	b.n	8000a68 <HAL_GPIO_EXTI_Callback+0x5c>
 8000a60:	2101      	movs	r1, #1
 8000a62:	2003      	movs	r0, #3
 8000a64:	f7ff fdf2 	bl	800064c <rt_evbit_clear_ISR>
 8000a68:	88fb      	ldrh	r3, [r7, #6]
 8000a6a:	f003 0301 	and.w	r3, r3, #1
 8000a6e:	2b00      	cmp	r3, #0
 8000a70:	d009      	beq.n	8000a86 <HAL_GPIO_EXTI_Callback+0x7a>
 8000a72:	2300      	movs	r3, #0
 8000a74:	60bb      	str	r3, [r7, #8]
 8000a76:	2301      	movs	r3, #1
 8000a78:	60bb      	str	r3, [r7, #8]
 8000a7a:	f107 0308 	add.w	r3, r7, #8
 8000a7e:	4619      	mov	r1, r3
 8000a80:	2000      	movs	r0, #0
 8000a82:	f7ff fe9b 	bl	80007bc <rt_timer_start_ISR>
 8000a86:	bf00      	nop
 8000a88:	3710      	adds	r7, #16
 8000a8a:	46bd      	mov	sp, r7
 8000a8c:	bd80      	pop	{r7, pc}
 8000a8e:	bf00      	nop
 8000a90:	40020400 	.word	0x40020400
 8000a94:	40000800 	.word	0x40000800
 8000a98:	20003664 	.word	0x20003664

08000a9c <timer_trigger_temperature_measurement>:
 8000a9c:	b480      	push	{r7}
 8000a9e:	b083      	sub	sp, #12
 8000aa0:	af00      	add	r7, sp, #0
 8000aa2:	6078      	str	r0, [r7, #4]
 8000aa4:	bf00      	nop
 8000aa6:	370c      	adds	r7, #12
 8000aa8:	46bd      	mov	sp, r7
 8000aaa:	bc80      	pop	{r7}
 8000aac:	4770      	bx	lr
	...

08000ab0 <task_sensors>:
 8000ab0:	b580      	push	{r7, lr}
 8000ab2:	b086      	sub	sp, #24
 8000ab4:	af00      	add	r7, sp, #0
 8000ab6:	6078      	str	r0, [r7, #4]
 8000ab8:	2380      	movs	r3, #128	; 0x80
 8000aba:	2200      	movs	r2, #0
 8000abc:	210c      	movs	r1, #12
 8000abe:	2000      	movs	r0, #0
 8000ac0:	f7ff fc95 	bl	80003ee <QMC5883L_Initialize>
 8000ac4:	2000      	movs	r0, #0
 8000ac6:	f7ff fcb7 	bl	8000438 <QMC5883L_InterruptConfig>
 8000aca:	2100      	movs	r1, #0
 8000acc:	2002      	movs	r0, #2
 8000ace:	f7ff fc3b 	bl	8000348 <QMC5883L_Write_Reg>
 8000ad2:	2164      	movs	r1, #100	; 0x64
 8000ad4:	2001      	movs	r0, #1
 8000ad6:	f7ff fe51 	bl	800077c <rt_timer_start>
 8000ada:	2300      	movs	r3, #0
 8000adc:	823b      	strh	r3, [r7, #16]
 8000ade:	2300      	movs	r3, #0
 8000ae0:	81fb      	strh	r3, [r7, #14]
 8000ae2:	2300      	movs	r3, #0
 8000ae4:	81bb      	strh	r3, [r7, #12]
 8000ae6:	2009      	movs	r0, #9
 8000ae8:	f7ff fc14 	bl	8000314 <QMC5883L_Read_Reg>
 8000aec:	4603      	mov	r3, r0
 8000aee:	75fb      	strb	r3, [r7, #23]
 8000af0:	2300      	movs	r3, #0
 8000af2:	75bb      	strb	r3, [r7, #22]
 8000af4:	2300      	movs	r3, #0
 8000af6:	757b      	strb	r3, [r7, #21]
 8000af8:	2007      	movs	r0, #7
 8000afa:	f7ff fc0b 	bl	8000314 <QMC5883L_Read_Reg>
 8000afe:	4603      	mov	r3, r0
 8000b00:	75bb      	strb	r3, [r7, #22]
 8000b02:	2008      	movs	r0, #8
 8000b04:	f7ff fc06 	bl	8000314 <QMC5883L_Read_Reg>
 8000b08:	4603      	mov	r3, r0
 8000b0a:	757b      	strb	r3, [r7, #21]
 8000b0c:	7d7b      	ldrb	r3, [r7, #21]
 8000b0e:	021b      	lsls	r3, r3, #8
 8000b10:	b21a      	sxth	r2, r3
 8000b12:	7dbb      	ldrb	r3, [r7, #22]
 8000b14:	b21b      	sxth	r3, r3
 8000b16:	4313      	orrs	r3, r2
 8000b18:	b21b      	sxth	r3, r3
 8000b1a:	b29b      	uxth	r3, r3
 8000b1c:	425b      	negs	r3, r3
 8000b1e:	827b      	strh	r3, [r7, #18]
 8000b20:	8a7b      	ldrh	r3, [r7, #18]
 8000b22:	4a2e      	ldr	r2, [pc, #184]	; (8000bdc <task_sensors+0x12c>)
 8000b24:	fba2 2303 	umull	r2, r3, r2, r3
 8000b28:	095b      	lsrs	r3, r3, #5
 8000b2a:	827b      	strh	r3, [r7, #18]
 8000b2c:	8a7b      	ldrh	r3, [r7, #18]
 8000b2e:	3301      	adds	r3, #1
 8000b30:	827b      	strh	r3, [r7, #18]
 8000b32:	7dfb      	ldrb	r3, [r7, #23]
 8000b34:	f003 0301 	and.w	r3, r3, #1
 8000b38:	2b00      	cmp	r3, #0
 8000b3a:	d040      	beq.n	8000bbe <task_sensors+0x10e>
 8000b3c:	f107 020c 	add.w	r2, r7, #12
 8000b40:	f107 010e 	add.w	r1, r7, #14
 8000b44:	f107 0310 	add.w	r3, r7, #16
 8000b48:	4618      	mov	r0, r3
 8000b4a:	f7ff fc19 	bl	8000380 <QMC5883L_Read_Data>
 8000b4e:	2300      	movs	r3, #0
 8000b50:	60bb      	str	r3, [r7, #8]
 8000b52:	2301      	movs	r3, #1
 8000b54:	723b      	strb	r3, [r7, #8]
 8000b56:	2305      	movs	r3, #5
 8000b58:	727b      	strb	r3, [r7, #9]
 8000b5a:	f9b7 3010 	ldrsh.w	r3, [r7, #16]
 8000b5e:	4618      	mov	r0, r3
 8000b60:	f000 f8a4 	bl	8000cac <int16_to_u2>
 8000b64:	4603      	mov	r3, r0
 8000b66:	461a      	mov	r2, r3
 8000b68:	4b1d      	ldr	r3, [pc, #116]	; (8000be0 <task_sensors+0x130>)
 8000b6a:	801a      	strh	r2, [r3, #0]
 8000b6c:	4b1c      	ldr	r3, [pc, #112]	; (8000be0 <task_sensors+0x130>)
 8000b6e:	785b      	ldrb	r3, [r3, #1]
 8000b70:	72bb      	strb	r3, [r7, #10]
 8000b72:	4b1b      	ldr	r3, [pc, #108]	; (8000be0 <task_sensors+0x130>)
 8000b74:	781b      	ldrb	r3, [r3, #0]
 8000b76:	72fb      	strb	r3, [r7, #11]
 8000b78:	2306      	movs	r3, #6
 8000b7a:	727b      	strb	r3, [r7, #9]
 8000b7c:	f9b7 300e 	ldrsh.w	r3, [r7, #14]
 8000b80:	4618      	mov	r0, r3
 8000b82:	f000 f893 	bl	8000cac <int16_to_u2>
 8000b86:	4603      	mov	r3, r0
 8000b88:	461a      	mov	r2, r3
 8000b8a:	4b15      	ldr	r3, [pc, #84]	; (8000be0 <task_sensors+0x130>)
 8000b8c:	801a      	strh	r2, [r3, #0]
 8000b8e:	4b14      	ldr	r3, [pc, #80]	; (8000be0 <task_sensors+0x130>)
 8000b90:	785b      	ldrb	r3, [r3, #1]
 8000b92:	72bb      	strb	r3, [r7, #10]
 8000b94:	4b12      	ldr	r3, [pc, #72]	; (8000be0 <task_sensors+0x130>)
 8000b96:	781b      	ldrb	r3, [r3, #0]
 8000b98:	72fb      	strb	r3, [r7, #11]
 8000b9a:	2307      	movs	r3, #7
 8000b9c:	727b      	strb	r3, [r7, #9]
 8000b9e:	f9b7 300c 	ldrsh.w	r3, [r7, #12]
 8000ba2:	4618      	mov	r0, r3
 8000ba4:	f000 f882 	bl	8000cac <int16_to_u2>
 8000ba8:	4603      	mov	r3, r0
 8000baa:	461a      	mov	r2, r3
 8000bac:	4b0c      	ldr	r3, [pc, #48]	; (8000be0 <task_sensors+0x130>)
 8000bae:	801a      	strh	r2, [r3, #0]
 8000bb0:	4b0b      	ldr	r3, [pc, #44]	; (8000be0 <task_sensors+0x130>)
 8000bb2:	785b      	ldrb	r3, [r3, #1]
 8000bb4:	72bb      	strb	r3, [r7, #10]
 8000bb6:	4b0a      	ldr	r3, [pc, #40]	; (8000be0 <task_sensors+0x130>)
 8000bb8:	781b      	ldrb	r3, [r3, #0]
 8000bba:	72fb      	strb	r3, [r7, #11]
 8000bbc:	e005      	b.n	8000bca <task_sensors+0x11a>
 8000bbe:	2300      	movs	r3, #0
 8000bc0:	823b      	strh	r3, [r7, #16]
 8000bc2:	2300      	movs	r3, #0
 8000bc4:	81fb      	strh	r3, [r7, #14]
 8000bc6:	2300      	movs	r3, #0
 8000bc8:	81bb      	strh	r3, [r7, #12]
 8000bca:	4b06      	ldr	r3, [pc, #24]	; (8000be4 <task_sensors+0x134>)
 8000bcc:	f04f 5280 	mov.w	r2, #268435456	; 0x10000000
 8000bd0:	601a      	str	r2, [r3, #0]
 8000bd2:	f3bf 8f4f 	dsb	sy
 8000bd6:	f3bf 8f6f 	isb	sy
 8000bda:	e77e      	b.n	8000ada <task_sensors+0x2a>
 8000bdc:	51eb851f 	.word	0x51eb851f
 8000be0:	20003578 	.word	0x20003578
 8000be4:	e000ed04 	.word	0xe000ed04

08000be8 <task_state_machine>:
 8000be8:	b580      	push	{r7, lr}
 8000bea:	b084      	sub	sp, #16
 8000bec:	af00      	add	r7, sp, #0
 8000bee:	6078      	str	r0, [r7, #4]
 8000bf0:	2300      	movs	r3, #0
 8000bf2:	60fb      	str	r3, [r7, #12]
 8000bf4:	2300      	movs	r3, #0
 8000bf6:	72fb      	strb	r3, [r7, #11]
 8000bf8:	2001      	movs	r0, #1
 8000bfa:	f7ff fcf1 	bl	80005e0 <rt_evbitwait_any>
 8000bfe:	60f8      	str	r0, [r7, #12]
 8000c00:	68fb      	ldr	r3, [r7, #12]
 8000c02:	f003 0301 	and.w	r3, r3, #1
 8000c06:	2b00      	cmp	r3, #0
 8000c08:	d007      	beq.n	8000c1a <task_state_machine+0x32>
 8000c0a:	f7ff fb65 	bl	80002d8 <h_bridge_coast>
 8000c0e:	2000      	movs	r0, #0
 8000c10:	f7ff face 	bl	80001b0 <h_bridge_set_left_duty>
 8000c14:	2000      	movs	r0, #0
 8000c16:	f7ff faf1 	bl	80001fc <h_bridge_set_right_duty>
 8000c1a:	68fb      	ldr	r3, [r7, #12]
 8000c1c:	f003 0302 	and.w	r3, r3, #2
 8000c20:	2b00      	cmp	r3, #0
 8000c22:	d0e9      	beq.n	8000bf8 <task_state_machine+0x10>
 8000c24:	7afb      	ldrb	r3, [r7, #11]
 8000c26:	2b00      	cmp	r3, #0
 8000c28:	d00f      	beq.n	8000c4a <task_state_machine+0x62>
 8000c2a:	4b10      	ldr	r3, [pc, #64]	; (8000c6c <task_state_machine+0x84>)
 8000c2c:	685b      	ldr	r3, [r3, #4]
 8000c2e:	4618      	mov	r0, r3
 8000c30:	f007 ffd2 	bl	8008bd8 <vTaskResume>
 8000c34:	4b0d      	ldr	r3, [pc, #52]	; (8000c6c <task_state_machine+0x84>)
 8000c36:	689b      	ldr	r3, [r3, #8]
 8000c38:	4618      	mov	r0, r3
 8000c3a:	f007 ffcd 	bl	8008bd8 <vTaskResume>
 8000c3e:	4b0b      	ldr	r3, [pc, #44]	; (8000c6c <task_state_machine+0x84>)
 8000c40:	68db      	ldr	r3, [r3, #12]
 8000c42:	4618      	mov	r0, r3
 8000c44:	f007 ffc8 	bl	8008bd8 <vTaskResume>
 8000c48:	e7d6      	b.n	8000bf8 <task_state_machine+0x10>
 8000c4a:	4b08      	ldr	r3, [pc, #32]	; (8000c6c <task_state_machine+0x84>)
 8000c4c:	685b      	ldr	r3, [r3, #4]
 8000c4e:	4618      	mov	r0, r3
 8000c50:	f007 ff14 	bl	8008a7c <vTaskSuspend>
 8000c54:	4b05      	ldr	r3, [pc, #20]	; (8000c6c <task_state_machine+0x84>)
 8000c56:	689b      	ldr	r3, [r3, #8]
 8000c58:	4618      	mov	r0, r3
 8000c5a:	f007 ff0f 	bl	8008a7c <vTaskSuspend>
 8000c5e:	4b03      	ldr	r3, [pc, #12]	; (8000c6c <task_state_machine+0x84>)
 8000c60:	68db      	ldr	r3, [r3, #12]
 8000c62:	4618      	mov	r0, r3
 8000c64:	f007 ff0a 	bl	8008a7c <vTaskSuspend>
 8000c68:	e7c6      	b.n	8000bf8 <task_state_machine+0x10>
 8000c6a:	bf00      	nop
 8000c6c:	20003534 	.word	0x20003534

08000c70 <u2_to_decimal>:
 8000c70:	b480      	push	{r7}
 8000c72:	b085      	sub	sp, #20
 8000c74:	af00      	add	r7, sp, #0
 8000c76:	4603      	mov	r3, r0
 8000c78:	71fb      	strb	r3, [r7, #7]
 8000c7a:	2300      	movs	r3, #0
 8000c7c:	73fb      	strb	r3, [r7, #15]
 8000c7e:	f997 3007 	ldrsb.w	r3, [r7, #7]
 8000c82:	2b00      	cmp	r3, #0
 8000c84:	da0a      	bge.n	8000c9c <u2_to_decimal+0x2c>
 8000c86:	79fb      	ldrb	r3, [r7, #7]
 8000c88:	73fb      	strb	r3, [r7, #15]
 8000c8a:	7bfb      	ldrb	r3, [r7, #15]
 8000c8c:	43db      	mvns	r3, r3
 8000c8e:	73fb      	strb	r3, [r7, #15]
 8000c90:	7bfb      	ldrb	r3, [r7, #15]
 8000c92:	3301      	adds	r3, #1
 8000c94:	73fb      	strb	r3, [r7, #15]
 8000c96:	7bfb      	ldrb	r3, [r7, #15]
 8000c98:	425b      	negs	r3, r3
 8000c9a:	e002      	b.n	8000ca2 <u2_to_decimal+0x32>
 8000c9c:	79fb      	ldrb	r3, [r7, #7]
 8000c9e:	73fb      	strb	r3, [r7, #15]
 8000ca0:	7bfb      	ldrb	r3, [r7, #15]
 8000ca2:	4618      	mov	r0, r3
 8000ca4:	3714      	adds	r7, #20
 8000ca6:	46bd      	mov	sp, r7
 8000ca8:	bc80      	pop	{r7}
 8000caa:	4770      	bx	lr

08000cac <int16_to_u2>:
 8000cac:	b480      	push	{r7}
 8000cae:	b085      	sub	sp, #20
 8000cb0:	af00      	add	r7, sp, #0
 8000cb2:	4603      	mov	r3, r0
 8000cb4:	80fb      	strh	r3, [r7, #6]
 8000cb6:	2300      	movs	r3, #0
 8000cb8:	81fb      	strh	r3, [r7, #14]
 8000cba:	f9b7 3006 	ldrsh.w	r3, [r7, #6]
 8000cbe:	2b00      	cmp	r3, #0
 8000cc0:	db02      	blt.n	8000cc8 <int16_to_u2+0x1c>
 8000cc2:	88fb      	ldrh	r3, [r7, #6]
 8000cc4:	81fb      	strh	r3, [r7, #14]
 8000cc6:	e00b      	b.n	8000ce0 <int16_to_u2+0x34>
 8000cc8:	f9b7 3006 	ldrsh.w	r3, [r7, #6]
 8000ccc:	2b00      	cmp	r3, #0
 8000cce:	bfb8      	it	lt
 8000cd0:	425b      	neglt	r3, r3
 8000cd2:	81fb      	strh	r3, [r7, #14]
 8000cd4:	89fb      	ldrh	r3, [r7, #14]
 8000cd6:	43db      	mvns	r3, r3
 8000cd8:	81fb      	strh	r3, [r7, #14]
 8000cda:	89fb      	ldrh	r3, [r7, #14]
 8000cdc:	3301      	adds	r3, #1
 8000cde:	81fb      	strh	r3, [r7, #14]
 8000ce0:	89fb      	ldrh	r3, [r7, #14]
 8000ce2:	4618      	mov	r0, r3
 8000ce4:	3714      	adds	r7, #20
 8000ce6:	46bd      	mov	sp, r7
 8000ce8:	bc80      	pop	{r7}
 8000cea:	4770      	bx	lr

08000cec <MX_ADC_Init>:
 8000cec:	b580      	push	{r7, lr}
 8000cee:	b084      	sub	sp, #16
 8000cf0:	af00      	add	r7, sp, #0
 8000cf2:	1d3b      	adds	r3, r7, #4
 8000cf4:	2200      	movs	r2, #0
 8000cf6:	601a      	str	r2, [r3, #0]
 8000cf8:	605a      	str	r2, [r3, #4]
 8000cfa:	609a      	str	r2, [r3, #8]
 8000cfc:	4b25      	ldr	r3, [pc, #148]	; (8000d94 <MX_ADC_Init+0xa8>)
 8000cfe:	4a26      	ldr	r2, [pc, #152]	; (8000d98 <MX_ADC_Init+0xac>)
 8000d00:	601a      	str	r2, [r3, #0]
 8000d02:	4b24      	ldr	r3, [pc, #144]	; (8000d94 <MX_ADC_Init+0xa8>)
 8000d04:	2200      	movs	r2, #0
 8000d06:	605a      	str	r2, [r3, #4]
 8000d08:	4b22      	ldr	r3, [pc, #136]	; (8000d94 <MX_ADC_Init+0xa8>)
 8000d0a:	2200      	movs	r2, #0
 8000d0c:	609a      	str	r2, [r3, #8]
 8000d0e:	4b21      	ldr	r3, [pc, #132]	; (8000d94 <MX_ADC_Init+0xa8>)
 8000d10:	2200      	movs	r2, #0
 8000d12:	60da      	str	r2, [r3, #12]
 8000d14:	4b1f      	ldr	r3, [pc, #124]	; (8000d94 <MX_ADC_Init+0xa8>)
 8000d16:	2200      	movs	r2, #0
 8000d18:	611a      	str	r2, [r3, #16]
 8000d1a:	4b1e      	ldr	r3, [pc, #120]	; (8000d94 <MX_ADC_Init+0xa8>)
 8000d1c:	2200      	movs	r2, #0
 8000d1e:	615a      	str	r2, [r3, #20]
 8000d20:	4b1c      	ldr	r3, [pc, #112]	; (8000d94 <MX_ADC_Init+0xa8>)
 8000d22:	2200      	movs	r2, #0
 8000d24:	619a      	str	r2, [r3, #24]
 8000d26:	4b1b      	ldr	r3, [pc, #108]	; (8000d94 <MX_ADC_Init+0xa8>)
 8000d28:	2200      	movs	r2, #0
 8000d2a:	61da      	str	r2, [r3, #28]
 8000d2c:	4b19      	ldr	r3, [pc, #100]	; (8000d94 <MX_ADC_Init+0xa8>)
 8000d2e:	2200      	movs	r2, #0
 8000d30:	621a      	str	r2, [r3, #32]
 8000d32:	4b18      	ldr	r3, [pc, #96]	; (8000d94 <MX_ADC_Init+0xa8>)
 8000d34:	2200      	movs	r2, #0
 8000d36:	f883 2024 	strb.w	r2, [r3, #36]	; 0x24
 8000d3a:	4b16      	ldr	r3, [pc, #88]	; (8000d94 <MX_ADC_Init+0xa8>)
 8000d3c:	2201      	movs	r2, #1
 8000d3e:	629a      	str	r2, [r3, #40]	; 0x28
 8000d40:	4b14      	ldr	r3, [pc, #80]	; (8000d94 <MX_ADC_Init+0xa8>)
 8000d42:	2200      	movs	r2, #0
 8000d44:	f883 202c 	strb.w	r2, [r3, #44]	; 0x2c
 8000d48:	4b12      	ldr	r3, [pc, #72]	; (8000d94 <MX_ADC_Init+0xa8>)
 8000d4a:	2210      	movs	r2, #16
 8000d4c:	635a      	str	r2, [r3, #52]	; 0x34
 8000d4e:	4b11      	ldr	r3, [pc, #68]	; (8000d94 <MX_ADC_Init+0xa8>)
 8000d50:	2200      	movs	r2, #0
 8000d52:	639a      	str	r2, [r3, #56]	; 0x38
 8000d54:	4b0f      	ldr	r3, [pc, #60]	; (8000d94 <MX_ADC_Init+0xa8>)
 8000d56:	2200      	movs	r2, #0
 8000d58:	f883 203c 	strb.w	r2, [r3, #60]	; 0x3c
 8000d5c:	480d      	ldr	r0, [pc, #52]	; (8000d94 <MX_ADC_Init+0xa8>)
 8000d5e:	f001 f81d 	bl	8001d9c <HAL_ADC_Init>
 8000d62:	4603      	mov	r3, r0
 8000d64:	2b00      	cmp	r3, #0
 8000d66:	d001      	beq.n	8000d6c <MX_ADC_Init+0x80>
 8000d68:	f000 fb02 	bl	8001370 <Error_Handler>
 8000d6c:	2301      	movs	r3, #1
 8000d6e:	607b      	str	r3, [r7, #4]
 8000d70:	2301      	movs	r3, #1
 8000d72:	60bb      	str	r3, [r7, #8]
 8000d74:	2300      	movs	r3, #0
 8000d76:	60fb      	str	r3, [r7, #12]
 8000d78:	1d3b      	adds	r3, r7, #4
 8000d7a:	4619      	mov	r1, r3
 8000d7c:	4805      	ldr	r0, [pc, #20]	; (8000d94 <MX_ADC_Init+0xa8>)
 8000d7e:	f001 fab1 	bl	80022e4 <HAL_ADC_ConfigChannel>
 8000d82:	4603      	mov	r3, r0
 8000d84:	2b00      	cmp	r3, #0
 8000d86:	d001      	beq.n	8000d8c <MX_ADC_Init+0xa0>
 8000d88:	f000 faf2 	bl	8001370 <Error_Handler>
 8000d8c:	bf00      	nop
 8000d8e:	3710      	adds	r7, #16
 8000d90:	46bd      	mov	sp, r7
 8000d92:	bd80      	pop	{r7, pc}
 8000d94:	2000357c 	.word	0x2000357c
 8000d98:	40012400 	.word	0x40012400

08000d9c <HAL_ADC_MspInit>:
 8000d9c:	b580      	push	{r7, lr}
 8000d9e:	b08c      	sub	sp, #48	; 0x30
 8000da0:	af00      	add	r7, sp, #0
 8000da2:	6078      	str	r0, [r7, #4]
 8000da4:	f107 031c 	add.w	r3, r7, #28
 8000da8:	2200      	movs	r2, #0
 8000daa:	601a      	str	r2, [r3, #0]
 8000dac:	605a      	str	r2, [r3, #4]
 8000dae:	609a      	str	r2, [r3, #8]
 8000db0:	60da      	str	r2, [r3, #12]
 8000db2:	611a      	str	r2, [r3, #16]
 8000db4:	687b      	ldr	r3, [r7, #4]
 8000db6:	681b      	ldr	r3, [r3, #0]
 8000db8:	4a2d      	ldr	r2, [pc, #180]	; (8000e70 <HAL_ADC_MspInit+0xd4>)
 8000dba:	4293      	cmp	r3, r2
 8000dbc:	d154      	bne.n	8000e68 <HAL_ADC_MspInit+0xcc>
 8000dbe:	4b2d      	ldr	r3, [pc, #180]	; (8000e74 <HAL_ADC_MspInit+0xd8>)
 8000dc0:	6a1b      	ldr	r3, [r3, #32]
 8000dc2:	4a2c      	ldr	r2, [pc, #176]	; (8000e74 <HAL_ADC_MspInit+0xd8>)
 8000dc4:	f443 7300 	orr.w	r3, r3, #512	; 0x200
 8000dc8:	6213      	str	r3, [r2, #32]
 8000dca:	4b2a      	ldr	r3, [pc, #168]	; (8000e74 <HAL_ADC_MspInit+0xd8>)
 8000dcc:	6a1b      	ldr	r3, [r3, #32]
 8000dce:	f403 7300 	and.w	r3, r3, #512	; 0x200
 8000dd2:	61bb      	str	r3, [r7, #24]
 8000dd4:	69bb      	ldr	r3, [r7, #24]
 8000dd6:	4b27      	ldr	r3, [pc, #156]	; (8000e74 <HAL_ADC_MspInit+0xd8>)
 8000dd8:	69db      	ldr	r3, [r3, #28]
 8000dda:	4a26      	ldr	r2, [pc, #152]	; (8000e74 <HAL_ADC_MspInit+0xd8>)
 8000ddc:	f043 0304 	orr.w	r3, r3, #4
 8000de0:	61d3      	str	r3, [r2, #28]
 8000de2:	4b24      	ldr	r3, [pc, #144]	; (8000e74 <HAL_ADC_MspInit+0xd8>)
 8000de4:	69db      	ldr	r3, [r3, #28]
 8000de6:	f003 0304 	and.w	r3, r3, #4
 8000dea:	617b      	str	r3, [r7, #20]
 8000dec:	697b      	ldr	r3, [r7, #20]
 8000dee:	4b21      	ldr	r3, [pc, #132]	; (8000e74 <HAL_ADC_MspInit+0xd8>)
 8000df0:	69db      	ldr	r3, [r3, #28]
 8000df2:	4a20      	ldr	r2, [pc, #128]	; (8000e74 <HAL_ADC_MspInit+0xd8>)
 8000df4:	f043 0301 	orr.w	r3, r3, #1
 8000df8:	61d3      	str	r3, [r2, #28]
 8000dfa:	4b1e      	ldr	r3, [pc, #120]	; (8000e74 <HAL_ADC_MspInit+0xd8>)
 8000dfc:	69db      	ldr	r3, [r3, #28]
 8000dfe:	f003 0301 	and.w	r3, r3, #1
 8000e02:	613b      	str	r3, [r7, #16]
 8000e04:	693b      	ldr	r3, [r7, #16]
 8000e06:	4b1b      	ldr	r3, [pc, #108]	; (8000e74 <HAL_ADC_MspInit+0xd8>)
 8000e08:	69db      	ldr	r3, [r3, #28]
 8000e0a:	4a1a      	ldr	r2, [pc, #104]	; (8000e74 <HAL_ADC_MspInit+0xd8>)
 8000e0c:	f043 0302 	orr.w	r3, r3, #2
 8000e10:	61d3      	str	r3, [r2, #28]
 8000e12:	4b18      	ldr	r3, [pc, #96]	; (8000e74 <HAL_ADC_MspInit+0xd8>)
 8000e14:	69db      	ldr	r3, [r3, #28]
 8000e16:	f003 0302 	and.w	r3, r3, #2
 8000e1a:	60fb      	str	r3, [r7, #12]
 8000e1c:	68fb      	ldr	r3, [r7, #12]
 8000e1e:	2301      	movs	r3, #1
 8000e20:	61fb      	str	r3, [r7, #28]
 8000e22:	2303      	movs	r3, #3
 8000e24:	623b      	str	r3, [r7, #32]
 8000e26:	2300      	movs	r3, #0
 8000e28:	627b      	str	r3, [r7, #36]	; 0x24
 8000e2a:	f107 031c 	add.w	r3, r7, #28
 8000e2e:	4619      	mov	r1, r3
 8000e30:	4811      	ldr	r0, [pc, #68]	; (8000e78 <HAL_ADC_MspInit+0xdc>)
 8000e32:	f002 f889 	bl	8002f48 <HAL_GPIO_Init>
 8000e36:	2386      	movs	r3, #134	; 0x86
 8000e38:	61fb      	str	r3, [r7, #28]
 8000e3a:	2303      	movs	r3, #3
 8000e3c:	623b      	str	r3, [r7, #32]
 8000e3e:	2300      	movs	r3, #0
 8000e40:	627b      	str	r3, [r7, #36]	; 0x24
 8000e42:	f107 031c 	add.w	r3, r7, #28
 8000e46:	4619      	mov	r1, r3
 8000e48:	480c      	ldr	r0, [pc, #48]	; (8000e7c <HAL_ADC_MspInit+0xe0>)
 8000e4a:	f002 f87d 	bl	8002f48 <HAL_GPIO_Init>
 8000e4e:	f44f 4300 	mov.w	r3, #32768	; 0x8000
 8000e52:	61fb      	str	r3, [r7, #28]
 8000e54:	2303      	movs	r3, #3
 8000e56:	623b      	str	r3, [r7, #32]
 8000e58:	2300      	movs	r3, #0
 8000e5a:	627b      	str	r3, [r7, #36]	; 0x24
 8000e5c:	f107 031c 	add.w	r3, r7, #28
 8000e60:	4619      	mov	r1, r3
 8000e62:	4807      	ldr	r0, [pc, #28]	; (8000e80 <HAL_ADC_MspInit+0xe4>)
 8000e64:	f002 f870 	bl	8002f48 <HAL_GPIO_Init>
 8000e68:	bf00      	nop
 8000e6a:	3730      	adds	r7, #48	; 0x30
 8000e6c:	46bd      	mov	sp, r7
 8000e6e:	bd80      	pop	{r7, pc}
 8000e70:	40012400 	.word	0x40012400
 8000e74:	40023800 	.word	0x40023800
 8000e78:	40020800 	.word	0x40020800
 8000e7c:	40020000 	.word	0x40020000
 8000e80:	40020400 	.word	0x40020400

08000e84 <MX_DMA_Init>:
 8000e84:	b580      	push	{r7, lr}
 8000e86:	b082      	sub	sp, #8
 8000e88:	af00      	add	r7, sp, #0
 8000e8a:	4b10      	ldr	r3, [pc, #64]	; (8000ecc <MX_DMA_Init+0x48>)
 8000e8c:	69db      	ldr	r3, [r3, #28]
 8000e8e:	4a0f      	ldr	r2, [pc, #60]	; (8000ecc <MX_DMA_Init+0x48>)
 8000e90:	f043 7380 	orr.w	r3, r3, #16777216	; 0x1000000
 8000e94:	61d3      	str	r3, [r2, #28]
 8000e96:	4b0d      	ldr	r3, [pc, #52]	; (8000ecc <MX_DMA_Init+0x48>)
 8000e98:	69db      	ldr	r3, [r3, #28]
 8000e9a:	f003 7380 	and.w	r3, r3, #16777216	; 0x1000000
 8000e9e:	607b      	str	r3, [r7, #4]
 8000ea0:	687b      	ldr	r3, [r7, #4]
 8000ea2:	2200      	movs	r2, #0
 8000ea4:	2106      	movs	r1, #6
 8000ea6:	200c      	movs	r0, #12
 8000ea8:	f001 fd80 	bl	80029ac <HAL_NVIC_SetPriority>
 8000eac:	200c      	movs	r0, #12
 8000eae:	f001 fda9 	bl	8002a04 <HAL_NVIC_EnableIRQ>
 8000eb2:	2200      	movs	r2, #0
 8000eb4:	2105      	movs	r1, #5
 8000eb6:	200d      	movs	r0, #13
 8000eb8:	f001 fd78 	bl	80029ac <HAL_NVIC_SetPriority>
 8000ebc:	200d      	movs	r0, #13
 8000ebe:	f001 fda1 	bl	8002a04 <HAL_NVIC_EnableIRQ>
 8000ec2:	bf00      	nop
 8000ec4:	3708      	adds	r7, #8
 8000ec6:	46bd      	mov	sp, r7
 8000ec8:	bd80      	pop	{r7, pc}
 8000eca:	bf00      	nop
 8000ecc:	40023800 	.word	0x40023800

08000ed0 <vApplicationIdleHook>:
 8000ed0:	b480      	push	{r7}
 8000ed2:	af00      	add	r7, sp, #0
 8000ed4:	bf00      	nop
 8000ed6:	46bd      	mov	sp, r7
 8000ed8:	bc80      	pop	{r7}
 8000eda:	4770      	bx	lr

08000edc <vApplicationTickHook>:
 8000edc:	b480      	push	{r7}
 8000ede:	af00      	add	r7, sp, #0
 8000ee0:	bf00      	nop
 8000ee2:	46bd      	mov	sp, r7
 8000ee4:	bc80      	pop	{r7}
 8000ee6:	4770      	bx	lr

08000ee8 <vApplicationStackOverflowHook>:
 8000ee8:	b480      	push	{r7}
 8000eea:	b083      	sub	sp, #12
 8000eec:	af00      	add	r7, sp, #0
 8000eee:	6078      	str	r0, [r7, #4]
 8000ef0:	6039      	str	r1, [r7, #0]
 8000ef2:	bf00      	nop
 8000ef4:	370c      	adds	r7, #12
 8000ef6:	46bd      	mov	sp, r7
 8000ef8:	bc80      	pop	{r7}
 8000efa:	4770      	bx	lr

08000efc <vApplicationMallocFailedHook>:
 8000efc:	b480      	push	{r7}
 8000efe:	af00      	add	r7, sp, #0
 8000f00:	bf00      	nop
 8000f02:	46bd      	mov	sp, r7
 8000f04:	bc80      	pop	{r7}
 8000f06:	4770      	bx	lr

08000f08 <vApplicationDaemonTaskStartupHook>:
 8000f08:	b480      	push	{r7}
 8000f0a:	af00      	add	r7, sp, #0
 8000f0c:	bf00      	nop
 8000f0e:	46bd      	mov	sp, r7
 8000f10:	bc80      	pop	{r7}
 8000f12:	4770      	bx	lr

08000f14 <MX_FREERTOS_Init>:
 8000f14:	b580      	push	{r7, lr}
 8000f16:	af00      	add	r7, sp, #0
 8000f18:	4a05      	ldr	r2, [pc, #20]	; (8000f30 <MX_FREERTOS_Init+0x1c>)
 8000f1a:	2100      	movs	r1, #0
 8000f1c:	4805      	ldr	r0, [pc, #20]	; (8000f34 <MX_FREERTOS_Init+0x20>)
 8000f1e:	f006 fb15 	bl	800754c <osThreadNew>
 8000f22:	4602      	mov	r2, r0
 8000f24:	4b04      	ldr	r3, [pc, #16]	; (8000f38 <MX_FREERTOS_Init+0x24>)
 8000f26:	601a      	str	r2, [r3, #0]
 8000f28:	f7ff fab0 	bl	800048c <rt_init>
 8000f2c:	bf00      	nop
 8000f2e:	bd80      	pop	{r7, pc}
 8000f30:	0800aaf4 	.word	0x0800aaf4
 8000f34:	08000f3d 	.word	0x08000f3d
 8000f38:	200035d0 	.word	0x200035d0

08000f3c <StartDefaultTask>:
 8000f3c:	b580      	push	{r7, lr}
 8000f3e:	b082      	sub	sp, #8
 8000f40:	af00      	add	r7, sp, #0
 8000f42:	6078      	str	r0, [r7, #4]
 8000f44:	2001      	movs	r0, #1
 8000f46:	f006 fbab 	bl	80076a0 <osDelay>
 8000f4a:	e7fb      	b.n	8000f44 <StartDefaultTask+0x8>

08000f4c <MX_GPIO_Init>:
 8000f4c:	b580      	push	{r7, lr}
 8000f4e:	b08a      	sub	sp, #40	; 0x28
 8000f50:	af00      	add	r7, sp, #0
 8000f52:	f107 0314 	add.w	r3, r7, #20
 8000f56:	2200      	movs	r2, #0
 8000f58:	601a      	str	r2, [r3, #0]
 8000f5a:	605a      	str	r2, [r3, #4]
 8000f5c:	609a      	str	r2, [r3, #8]
 8000f5e:	60da      	str	r2, [r3, #12]
 8000f60:	611a      	str	r2, [r3, #16]
 8000f62:	4b78      	ldr	r3, [pc, #480]	; (8001144 <MX_GPIO_Init+0x1f8>)
 8000f64:	69db      	ldr	r3, [r3, #28]
 8000f66:	4a77      	ldr	r2, [pc, #476]	; (8001144 <MX_GPIO_Init+0x1f8>)
 8000f68:	f043 0304 	orr.w	r3, r3, #4
 8000f6c:	61d3      	str	r3, [r2, #28]
 8000f6e:	4b75      	ldr	r3, [pc, #468]	; (8001144 <MX_GPIO_Init+0x1f8>)
 8000f70:	69db      	ldr	r3, [r3, #28]
 8000f72:	f003 0304 	and.w	r3, r3, #4
 8000f76:	613b      	str	r3, [r7, #16]
 8000f78:	693b      	ldr	r3, [r7, #16]
 8000f7a:	4b72      	ldr	r3, [pc, #456]	; (8001144 <MX_GPIO_Init+0x1f8>)
 8000f7c:	69db      	ldr	r3, [r3, #28]
 8000f7e:	4a71      	ldr	r2, [pc, #452]	; (8001144 <MX_GPIO_Init+0x1f8>)
 8000f80:	f043 0320 	orr.w	r3, r3, #32
 8000f84:	61d3      	str	r3, [r2, #28]
 8000f86:	4b6f      	ldr	r3, [pc, #444]	; (8001144 <MX_GPIO_Init+0x1f8>)
 8000f88:	69db      	ldr	r3, [r3, #28]
 8000f8a:	f003 0320 	and.w	r3, r3, #32
 8000f8e:	60fb      	str	r3, [r7, #12]
 8000f90:	68fb      	ldr	r3, [r7, #12]
 8000f92:	4b6c      	ldr	r3, [pc, #432]	; (8001144 <MX_GPIO_Init+0x1f8>)
 8000f94:	69db      	ldr	r3, [r3, #28]
 8000f96:	4a6b      	ldr	r2, [pc, #428]	; (8001144 <MX_GPIO_Init+0x1f8>)
 8000f98:	f043 0301 	orr.w	r3, r3, #1
 8000f9c:	61d3      	str	r3, [r2, #28]
 8000f9e:	4b69      	ldr	r3, [pc, #420]	; (8001144 <MX_GPIO_Init+0x1f8>)
 8000fa0:	69db      	ldr	r3, [r3, #28]
 8000fa2:	f003 0301 	and.w	r3, r3, #1
 8000fa6:	60bb      	str	r3, [r7, #8]
 8000fa8:	68bb      	ldr	r3, [r7, #8]
 8000faa:	4b66      	ldr	r3, [pc, #408]	; (8001144 <MX_GPIO_Init+0x1f8>)
 8000fac:	69db      	ldr	r3, [r3, #28]
 8000fae:	4a65      	ldr	r2, [pc, #404]	; (8001144 <MX_GPIO_Init+0x1f8>)
 8000fb0:	f043 0302 	orr.w	r3, r3, #2
 8000fb4:	61d3      	str	r3, [r2, #28]
 8000fb6:	4b63      	ldr	r3, [pc, #396]	; (8001144 <MX_GPIO_Init+0x1f8>)
 8000fb8:	69db      	ldr	r3, [r3, #28]
 8000fba:	f003 0302 	and.w	r3, r3, #2
 8000fbe:	607b      	str	r3, [r7, #4]
 8000fc0:	687b      	ldr	r3, [r7, #4]
 8000fc2:	4b60      	ldr	r3, [pc, #384]	; (8001144 <MX_GPIO_Init+0x1f8>)
 8000fc4:	69db      	ldr	r3, [r3, #28]
 8000fc6:	4a5f      	ldr	r2, [pc, #380]	; (8001144 <MX_GPIO_Init+0x1f8>)
 8000fc8:	f043 0308 	orr.w	r3, r3, #8
 8000fcc:	61d3      	str	r3, [r2, #28]
 8000fce:	4b5d      	ldr	r3, [pc, #372]	; (8001144 <MX_GPIO_Init+0x1f8>)
 8000fd0:	69db      	ldr	r3, [r3, #28]
 8000fd2:	f003 0308 	and.w	r3, r3, #8
 8000fd6:	603b      	str	r3, [r7, #0]
 8000fd8:	683b      	ldr	r3, [r7, #0]
 8000fda:	2200      	movs	r2, #0
 8000fdc:	f640 616e 	movw	r1, #3694	; 0xe6e
 8000fe0:	4859      	ldr	r0, [pc, #356]	; (8001148 <MX_GPIO_Init+0x1fc>)
 8000fe2:	f002 fa49 	bl	8003478 <HAL_GPIO_WritePin>
 8000fe6:	2200      	movs	r2, #0
 8000fe8:	f248 7108 	movw	r1, #34568	; 0x8708
 8000fec:	4857      	ldr	r0, [pc, #348]	; (800114c <MX_GPIO_Init+0x200>)
 8000fee:	f002 fa43 	bl	8003478 <HAL_GPIO_WritePin>
 8000ff2:	2201      	movs	r2, #1
 8000ff4:	2110      	movs	r1, #16
 8000ff6:	4854      	ldr	r0, [pc, #336]	; (8001148 <MX_GPIO_Init+0x1fc>)
 8000ff8:	f002 fa3e 	bl	8003478 <HAL_GPIO_WritePin>
 8000ffc:	f44f 4370 	mov.w	r3, #61440	; 0xf000
 8001000:	617b      	str	r3, [r7, #20]
 8001002:	2303      	movs	r3, #3
 8001004:	61bb      	str	r3, [r7, #24]
 8001006:	2300      	movs	r3, #0
 8001008:	61fb      	str	r3, [r7, #28]
 800100a:	f107 0314 	add.w	r3, r7, #20
 800100e:	4619      	mov	r1, r3
 8001010:	484d      	ldr	r0, [pc, #308]	; (8001148 <MX_GPIO_Init+0x1fc>)
 8001012:	f001 ff99 	bl	8002f48 <HAL_GPIO_Init>
 8001016:	f640 637e 	movw	r3, #3710	; 0xe7e
 800101a:	617b      	str	r3, [r7, #20]
 800101c:	2301      	movs	r3, #1
 800101e:	61bb      	str	r3, [r7, #24]
 8001020:	2300      	movs	r3, #0
 8001022:	61fb      	str	r3, [r7, #28]
 8001024:	2300      	movs	r3, #0
 8001026:	623b      	str	r3, [r7, #32]
 8001028:	f107 0314 	add.w	r3, r7, #20
 800102c:	4619      	mov	r1, r3
 800102e:	4846      	ldr	r0, [pc, #280]	; (8001148 <MX_GPIO_Init+0x1fc>)
 8001030:	f001 ff8a 	bl	8002f48 <HAL_GPIO_Init>
 8001034:	f248 7308 	movw	r3, #34568	; 0x8708
 8001038:	617b      	str	r3, [r7, #20]
 800103a:	2301      	movs	r3, #1
 800103c:	61bb      	str	r3, [r7, #24]
 800103e:	2300      	movs	r3, #0
 8001040:	61fb      	str	r3, [r7, #28]
 8001042:	2300      	movs	r3, #0
 8001044:	623b      	str	r3, [r7, #32]
 8001046:	f107 0314 	add.w	r3, r7, #20
 800104a:	4619      	mov	r1, r3
 800104c:	483f      	ldr	r0, [pc, #252]	; (800114c <MX_GPIO_Init+0x200>)
 800104e:	f001 ff7b 	bl	8002f48 <HAL_GPIO_Init>
 8001052:	f241 0370 	movw	r3, #4208	; 0x1070
 8001056:	617b      	str	r3, [r7, #20]
 8001058:	2303      	movs	r3, #3
 800105a:	61bb      	str	r3, [r7, #24]
 800105c:	2300      	movs	r3, #0
 800105e:	61fb      	str	r3, [r7, #28]
 8001060:	f107 0314 	add.w	r3, r7, #20
 8001064:	4619      	mov	r1, r3
 8001066:	4839      	ldr	r0, [pc, #228]	; (800114c <MX_GPIO_Init+0x200>)
 8001068:	f001 ff6e 	bl	8002f48 <HAL_GPIO_Init>
 800106c:	2301      	movs	r3, #1
 800106e:	617b      	str	r3, [r7, #20]
 8001070:	4b37      	ldr	r3, [pc, #220]	; (8001150 <MX_GPIO_Init+0x204>)
 8001072:	61bb      	str	r3, [r7, #24]
 8001074:	2300      	movs	r3, #0
 8001076:	61fb      	str	r3, [r7, #28]
 8001078:	f107 0314 	add.w	r3, r7, #20
 800107c:	4619      	mov	r1, r3
 800107e:	4835      	ldr	r0, [pc, #212]	; (8001154 <MX_GPIO_Init+0x208>)
 8001080:	f001 ff62 	bl	8002f48 <HAL_GPIO_Init>
 8001084:	2302      	movs	r3, #2
 8001086:	617b      	str	r3, [r7, #20]
 8001088:	4b33      	ldr	r3, [pc, #204]	; (8001158 <MX_GPIO_Init+0x20c>)
 800108a:	61bb      	str	r3, [r7, #24]
 800108c:	2300      	movs	r3, #0
 800108e:	61fb      	str	r3, [r7, #28]
 8001090:	f107 0314 	add.w	r3, r7, #20
 8001094:	4619      	mov	r1, r3
 8001096:	482f      	ldr	r0, [pc, #188]	; (8001154 <MX_GPIO_Init+0x208>)
 8001098:	f001 ff56 	bl	8002f48 <HAL_GPIO_Init>
 800109c:	f242 333c 	movw	r3, #9020	; 0x233c
 80010a0:	617b      	str	r3, [r7, #20]
 80010a2:	2303      	movs	r3, #3
 80010a4:	61bb      	str	r3, [r7, #24]
 80010a6:	2300      	movs	r3, #0
 80010a8:	61fb      	str	r3, [r7, #28]
 80010aa:	f107 0314 	add.w	r3, r7, #20
 80010ae:	4619      	mov	r1, r3
 80010b0:	4828      	ldr	r0, [pc, #160]	; (8001154 <MX_GPIO_Init+0x208>)
 80010b2:	f001 ff49 	bl	8002f48 <HAL_GPIO_Init>
 80010b6:	f44f 5380 	mov.w	r3, #4096	; 0x1000
 80010ba:	617b      	str	r3, [r7, #20]
 80010bc:	2300      	movs	r3, #0
 80010be:	61bb      	str	r3, [r7, #24]
 80010c0:	2300      	movs	r3, #0
 80010c2:	61fb      	str	r3, [r7, #28]
 80010c4:	f107 0314 	add.w	r3, r7, #20
 80010c8:	4619      	mov	r1, r3
 80010ca:	4822      	ldr	r0, [pc, #136]	; (8001154 <MX_GPIO_Init+0x208>)
 80010cc:	f001 ff3c 	bl	8002f48 <HAL_GPIO_Init>
 80010d0:	2380      	movs	r3, #128	; 0x80
 80010d2:	617b      	str	r3, [r7, #20]
 80010d4:	2300      	movs	r3, #0
 80010d6:	61bb      	str	r3, [r7, #24]
 80010d8:	2300      	movs	r3, #0
 80010da:	61fb      	str	r3, [r7, #28]
 80010dc:	f107 0314 	add.w	r3, r7, #20
 80010e0:	4619      	mov	r1, r3
 80010e2:	4819      	ldr	r0, [pc, #100]	; (8001148 <MX_GPIO_Init+0x1fc>)
 80010e4:	f001 ff30 	bl	8002f48 <HAL_GPIO_Init>
 80010e8:	f44f 6300 	mov.w	r3, #2048	; 0x800
 80010ec:	617b      	str	r3, [r7, #20]
 80010ee:	2300      	movs	r3, #0
 80010f0:	61bb      	str	r3, [r7, #24]
 80010f2:	2300      	movs	r3, #0
 80010f4:	61fb      	str	r3, [r7, #28]
 80010f6:	f107 0314 	add.w	r3, r7, #20
 80010fa:	4619      	mov	r1, r3
 80010fc:	4813      	ldr	r0, [pc, #76]	; (800114c <MX_GPIO_Init+0x200>)
 80010fe:	f001 ff23 	bl	8002f48 <HAL_GPIO_Init>
 8001102:	2304      	movs	r3, #4
 8001104:	617b      	str	r3, [r7, #20]
 8001106:	2303      	movs	r3, #3
 8001108:	61bb      	str	r3, [r7, #24]
 800110a:	2300      	movs	r3, #0
 800110c:	61fb      	str	r3, [r7, #28]
 800110e:	f107 0314 	add.w	r3, r7, #20
 8001112:	4619      	mov	r1, r3
 8001114:	4811      	ldr	r0, [pc, #68]	; (800115c <MX_GPIO_Init+0x210>)
 8001116:	f001 ff17 	bl	8002f48 <HAL_GPIO_Init>
 800111a:	2200      	movs	r2, #0
 800111c:	2105      	movs	r1, #5
 800111e:	2006      	movs	r0, #6
 8001120:	f001 fc44 	bl	80029ac <HAL_NVIC_SetPriority>
 8001124:	2006      	movs	r0, #6
 8001126:	f001 fc6d 	bl	8002a04 <HAL_NVIC_EnableIRQ>
 800112a:	2200      	movs	r2, #0
 800112c:	2105      	movs	r1, #5
 800112e:	2007      	movs	r0, #7
 8001130:	f001 fc3c 	bl	80029ac <HAL_NVIC_SetPriority>
 8001134:	2007      	movs	r0, #7
 8001136:	f001 fc65 	bl	8002a04 <HAL_NVIC_EnableIRQ>
 800113a:	bf00      	nop
 800113c:	3728      	adds	r7, #40	; 0x28
 800113e:	46bd      	mov	sp, r7
 8001140:	bd80      	pop	{r7, pc}
 8001142:	bf00      	nop
 8001144:	40023800 	.word	0x40023800
 8001148:	40020800 	.word	0x40020800
 800114c:	40020000 	.word	0x40020000
 8001150:	10110000 	.word	0x10110000
 8001154:	40020400 	.word	0x40020400
 8001158:	10310000 	.word	0x10310000
 800115c:	40020c00 	.word	0x40020c00

08001160 <MX_I2C1_Init>:
 8001160:	b580      	push	{r7, lr}
 8001162:	af00      	add	r7, sp, #0
 8001164:	4b12      	ldr	r3, [pc, #72]	; (80011b0 <MX_I2C1_Init+0x50>)
 8001166:	4a13      	ldr	r2, [pc, #76]	; (80011b4 <MX_I2C1_Init+0x54>)
 8001168:	601a      	str	r2, [r3, #0]
 800116a:	4b11      	ldr	r3, [pc, #68]	; (80011b0 <MX_I2C1_Init+0x50>)
 800116c:	4a12      	ldr	r2, [pc, #72]	; (80011b8 <MX_I2C1_Init+0x58>)
 800116e:	605a      	str	r2, [r3, #4]
 8001170:	4b0f      	ldr	r3, [pc, #60]	; (80011b0 <MX_I2C1_Init+0x50>)
 8001172:	2200      	movs	r2, #0
 8001174:	609a      	str	r2, [r3, #8]
 8001176:	4b0e      	ldr	r3, [pc, #56]	; (80011b0 <MX_I2C1_Init+0x50>)
 8001178:	2200      	movs	r2, #0
 800117a:	60da      	str	r2, [r3, #12]
 800117c:	4b0c      	ldr	r3, [pc, #48]	; (80011b0 <MX_I2C1_Init+0x50>)
 800117e:	f44f 4280 	mov.w	r2, #16384	; 0x4000
 8001182:	611a      	str	r2, [r3, #16]
 8001184:	4b0a      	ldr	r3, [pc, #40]	; (80011b0 <MX_I2C1_Init+0x50>)
 8001186:	2200      	movs	r2, #0
 8001188:	615a      	str	r2, [r3, #20]
 800118a:	4b09      	ldr	r3, [pc, #36]	; (80011b0 <MX_I2C1_Init+0x50>)
 800118c:	2200      	movs	r2, #0
 800118e:	619a      	str	r2, [r3, #24]
 8001190:	4b07      	ldr	r3, [pc, #28]	; (80011b0 <MX_I2C1_Init+0x50>)
 8001192:	2200      	movs	r2, #0
 8001194:	61da      	str	r2, [r3, #28]
 8001196:	4b06      	ldr	r3, [pc, #24]	; (80011b0 <MX_I2C1_Init+0x50>)
 8001198:	2200      	movs	r2, #0
 800119a:	621a      	str	r2, [r3, #32]
 800119c:	4804      	ldr	r0, [pc, #16]	; (80011b0 <MX_I2C1_Init+0x50>)
 800119e:	f002 f9b5 	bl	800350c <HAL_I2C_Init>
 80011a2:	4603      	mov	r3, r0
 80011a4:	2b00      	cmp	r3, #0
 80011a6:	d001      	beq.n	80011ac <MX_I2C1_Init+0x4c>
 80011a8:	f000 f8e2 	bl	8001370 <Error_Handler>
 80011ac:	bf00      	nop
 80011ae:	bd80      	pop	{r7, pc}
 80011b0:	200035d4 	.word	0x200035d4
 80011b4:	40005400 	.word	0x40005400
 80011b8:	000186a0 	.word	0x000186a0

080011bc <HAL_I2C_MspInit>:
 80011bc:	b580      	push	{r7, lr}
 80011be:	b08a      	sub	sp, #40	; 0x28
 80011c0:	af00      	add	r7, sp, #0
 80011c2:	6078      	str	r0, [r7, #4]
 80011c4:	f107 0314 	add.w	r3, r7, #20
 80011c8:	2200      	movs	r2, #0
 80011ca:	601a      	str	r2, [r3, #0]
 80011cc:	605a      	str	r2, [r3, #4]
 80011ce:	609a      	str	r2, [r3, #8]
 80011d0:	60da      	str	r2, [r3, #12]
 80011d2:	611a      	str	r2, [r3, #16]
 80011d4:	687b      	ldr	r3, [r7, #4]
 80011d6:	681b      	ldr	r3, [r3, #0]
 80011d8:	4a17      	ldr	r2, [pc, #92]	; (8001238 <HAL_I2C_MspInit+0x7c>)
 80011da:	4293      	cmp	r3, r2
 80011dc:	d127      	bne.n	800122e <HAL_I2C_MspInit+0x72>
 80011de:	4b17      	ldr	r3, [pc, #92]	; (800123c <HAL_I2C_MspInit+0x80>)
 80011e0:	69db      	ldr	r3, [r3, #28]
 80011e2:	4a16      	ldr	r2, [pc, #88]	; (800123c <HAL_I2C_MspInit+0x80>)
 80011e4:	f043 0302 	orr.w	r3, r3, #2
 80011e8:	61d3      	str	r3, [r2, #28]
 80011ea:	4b14      	ldr	r3, [pc, #80]	; (800123c <HAL_I2C_MspInit+0x80>)
 80011ec:	69db      	ldr	r3, [r3, #28]
 80011ee:	f003 0302 	and.w	r3, r3, #2
 80011f2:	613b      	str	r3, [r7, #16]
 80011f4:	693b      	ldr	r3, [r7, #16]
 80011f6:	23c0      	movs	r3, #192	; 0xc0
 80011f8:	617b      	str	r3, [r7, #20]
 80011fa:	2312      	movs	r3, #18
 80011fc:	61bb      	str	r3, [r7, #24]
 80011fe:	2301      	movs	r3, #1
 8001200:	61fb      	str	r3, [r7, #28]
 8001202:	2303      	movs	r3, #3
 8001204:	623b      	str	r3, [r7, #32]
 8001206:	2304      	movs	r3, #4
 8001208:	627b      	str	r3, [r7, #36]	; 0x24
 800120a:	f107 0314 	add.w	r3, r7, #20
 800120e:	4619      	mov	r1, r3
 8001210:	480b      	ldr	r0, [pc, #44]	; (8001240 <HAL_I2C_MspInit+0x84>)
 8001212:	f001 fe99 	bl	8002f48 <HAL_GPIO_Init>
 8001216:	4b09      	ldr	r3, [pc, #36]	; (800123c <HAL_I2C_MspInit+0x80>)
 8001218:	6a5b      	ldr	r3, [r3, #36]	; 0x24
 800121a:	4a08      	ldr	r2, [pc, #32]	; (800123c <HAL_I2C_MspInit+0x80>)
 800121c:	f443 1300 	orr.w	r3, r3, #2097152	; 0x200000
 8001220:	6253      	str	r3, [r2, #36]	; 0x24
 8001222:	4b06      	ldr	r3, [pc, #24]	; (800123c <HAL_I2C_MspInit+0x80>)
 8001224:	6a5b      	ldr	r3, [r3, #36]	; 0x24
 8001226:	f403 1300 	and.w	r3, r3, #2097152	; 0x200000
 800122a:	60fb      	str	r3, [r7, #12]
 800122c:	68fb      	ldr	r3, [r7, #12]
 800122e:	bf00      	nop
 8001230:	3728      	adds	r7, #40	; 0x28
 8001232:	46bd      	mov	sp, r7
 8001234:	bd80      	pop	{r7, pc}
 8001236:	bf00      	nop
 8001238:	40005400 	.word	0x40005400
 800123c:	40023800 	.word	0x40023800
 8001240:	40020400 	.word	0x40020400

08001244 <main>:
 8001244:	b580      	push	{r7, lr}
 8001246:	af00      	add	r7, sp, #0
 8001248:	f000 fd73 	bl	8001d32 <HAL_Init>
 800124c:	f000 f820 	bl	8001290 <SystemClock_Config>
 8001250:	f7ff fe7c 	bl	8000f4c <MX_GPIO_Init>
 8001254:	f7ff fe16 	bl	8000e84 <MX_DMA_Init>
 8001258:	f7ff fd48 	bl	8000cec <MX_ADC_Init>
 800125c:	f7ff ff80 	bl	8001160 <MX_I2C1_Init>
 8001260:	f000 f9a2 	bl	80015a8 <MX_TIM2_Init>
 8001264:	f000 fa14 	bl	8001690 <MX_TIM3_Init>
 8001268:	f000 fad4 	bl	8001814 <MX_TIM9_Init>
 800126c:	f000 fc78 	bl	8001b60 <MX_USART3_UART_Init>
 8001270:	f000 fa82 	bl	8001778 <MX_TIM4_Init>
 8001274:	f000 fb42 	bl	80018fc <MX_TIM10_Init>
 8001278:	f7ff f8f3 	bl	8000462 <device_init>
 800127c:	f7fe ff80 	bl	8000180 <h_bridge_init>
 8001280:	f006 f8fe 	bl	8007480 <osKernelInitialize>
 8001284:	f7ff fe46 	bl	8000f14 <MX_FREERTOS_Init>
 8001288:	f006 f92c 	bl	80074e4 <osKernelStart>
 800128c:	e7fe      	b.n	800128c <main+0x48>
	...

08001290 <SystemClock_Config>:
 8001290:	b580      	push	{r7, lr}
 8001292:	b092      	sub	sp, #72	; 0x48
 8001294:	af00      	add	r7, sp, #0
 8001296:	f107 0314 	add.w	r3, r7, #20
 800129a:	2234      	movs	r2, #52	; 0x34
 800129c:	2100      	movs	r1, #0
 800129e:	4618      	mov	r0, r3
 80012a0:	f009 fa57 	bl	800a752 <memset>
 80012a4:	463b      	mov	r3, r7
 80012a6:	2200      	movs	r2, #0
 80012a8:	601a      	str	r2, [r3, #0]
 80012aa:	605a      	str	r2, [r3, #4]
 80012ac:	609a      	str	r2, [r3, #8]
 80012ae:	60da      	str	r2, [r3, #12]
 80012b0:	611a      	str	r2, [r3, #16]
 80012b2:	4b1e      	ldr	r3, [pc, #120]	; (800132c <SystemClock_Config+0x9c>)
 80012b4:	681b      	ldr	r3, [r3, #0]
 80012b6:	f423 53c0 	bic.w	r3, r3, #6144	; 0x1800
 80012ba:	4a1c      	ldr	r2, [pc, #112]	; (800132c <SystemClock_Config+0x9c>)
 80012bc:	f443 6300 	orr.w	r3, r3, #2048	; 0x800
 80012c0:	6013      	str	r3, [r2, #0]
 80012c2:	2303      	movs	r3, #3
 80012c4:	617b      	str	r3, [r7, #20]
 80012c6:	2301      	movs	r3, #1
 80012c8:	61bb      	str	r3, [r7, #24]
 80012ca:	2301      	movs	r3, #1
 80012cc:	623b      	str	r3, [r7, #32]
 80012ce:	2310      	movs	r3, #16
 80012d0:	627b      	str	r3, [r7, #36]	; 0x24
 80012d2:	2302      	movs	r3, #2
 80012d4:	63bb      	str	r3, [r7, #56]	; 0x38
 80012d6:	f44f 3380 	mov.w	r3, #65536	; 0x10000
 80012da:	63fb      	str	r3, [r7, #60]	; 0x3c
 80012dc:	f44f 2340 	mov.w	r3, #786432	; 0xc0000
 80012e0:	643b      	str	r3, [r7, #64]	; 0x40
 80012e2:	f44f 0380 	mov.w	r3, #4194304	; 0x400000
 80012e6:	647b      	str	r3, [r7, #68]	; 0x44
 80012e8:	f107 0314 	add.w	r3, r7, #20
 80012ec:	4618      	mov	r0, r3
 80012ee:	f003 f909 	bl	8004504 <HAL_RCC_OscConfig>
 80012f2:	4603      	mov	r3, r0
 80012f4:	2b00      	cmp	r3, #0
 80012f6:	d001      	beq.n	80012fc <SystemClock_Config+0x6c>
 80012f8:	f000 f83a 	bl	8001370 <Error_Handler>
 80012fc:	230f      	movs	r3, #15
 80012fe:	603b      	str	r3, [r7, #0]
 8001300:	2303      	movs	r3, #3
 8001302:	607b      	str	r3, [r7, #4]
 8001304:	2300      	movs	r3, #0
 8001306:	60bb      	str	r3, [r7, #8]
 8001308:	2300      	movs	r3, #0
 800130a:	60fb      	str	r3, [r7, #12]
 800130c:	2300      	movs	r3, #0
 800130e:	613b      	str	r3, [r7, #16]
 8001310:	463b      	mov	r3, r7
 8001312:	2101      	movs	r1, #1
 8001314:	4618      	mov	r0, r3
 8001316:	f003 fd73 	bl	8004e00 <HAL_RCC_ClockConfig>
 800131a:	4603      	mov	r3, r0
 800131c:	2b00      	cmp	r3, #0
 800131e:	d001      	beq.n	8001324 <SystemClock_Config+0x94>
 8001320:	f000 f826 	bl	8001370 <Error_Handler>
 8001324:	bf00      	nop
 8001326:	3748      	adds	r7, #72	; 0x48
 8001328:	46bd      	mov	sp, r7
 800132a:	bd80      	pop	{r7, pc}
 800132c:	40007000 	.word	0x40007000

08001330 <HAL_TIM_PeriodElapsedCallback>:
 8001330:	b580      	push	{r7, lr}
 8001332:	b082      	sub	sp, #8
 8001334:	af00      	add	r7, sp, #0
 8001336:	6078      	str	r0, [r7, #4]
 8001338:	687b      	ldr	r3, [r7, #4]
 800133a:	681b      	ldr	r3, [r3, #0]
 800133c:	4a09      	ldr	r2, [pc, #36]	; (8001364 <HAL_TIM_PeriodElapsedCallback+0x34>)
 800133e:	4293      	cmp	r3, r2
 8001340:	d101      	bne.n	8001346 <HAL_TIM_PeriodElapsedCallback+0x16>
 8001342:	f000 fd0f 	bl	8001d64 <HAL_IncTick>
 8001346:	687b      	ldr	r3, [r7, #4]
 8001348:	681b      	ldr	r3, [r3, #0]
 800134a:	4a07      	ldr	r2, [pc, #28]	; (8001368 <HAL_TIM_PeriodElapsedCallback+0x38>)
 800134c:	4293      	cmp	r3, r2
 800134e:	d104      	bne.n	800135a <HAL_TIM_PeriodElapsedCallback+0x2a>
 8001350:	2200      	movs	r2, #0
 8001352:	2140      	movs	r1, #64	; 0x40
 8001354:	4805      	ldr	r0, [pc, #20]	; (800136c <HAL_TIM_PeriodElapsedCallback+0x3c>)
 8001356:	f002 f88f 	bl	8003478 <HAL_GPIO_WritePin>
 800135a:	bf00      	nop
 800135c:	3708      	adds	r7, #8
 800135e:	46bd      	mov	sp, r7
 8001360:	bd80      	pop	{r7, pc}
 8001362:	bf00      	nop
 8001364:	40000c00 	.word	0x40000c00
 8001368:	40010c00 	.word	0x40010c00
 800136c:	40020800 	.word	0x40020800

08001370 <Error_Handler>:
 8001370:	b480      	push	{r7}
 8001372:	af00      	add	r7, sp, #0
 8001374:	bf00      	nop
 8001376:	46bd      	mov	sp, r7
 8001378:	bc80      	pop	{r7}
 800137a:	4770      	bx	lr

0800137c <assert_failed>:
 800137c:	b480      	push	{r7}
 800137e:	b083      	sub	sp, #12
 8001380:	af00      	add	r7, sp, #0
 8001382:	6078      	str	r0, [r7, #4]
 8001384:	6039      	str	r1, [r7, #0]
 8001386:	bf00      	nop
 8001388:	370c      	adds	r7, #12
 800138a:	46bd      	mov	sp, r7
 800138c:	bc80      	pop	{r7}
 800138e:	4770      	bx	lr

08001390 <HAL_MspInit>:
 8001390:	b580      	push	{r7, lr}
 8001392:	b084      	sub	sp, #16
 8001394:	af00      	add	r7, sp, #0
 8001396:	4b17      	ldr	r3, [pc, #92]	; (80013f4 <HAL_MspInit+0x64>)
 8001398:	6a5b      	ldr	r3, [r3, #36]	; 0x24
 800139a:	4a16      	ldr	r2, [pc, #88]	; (80013f4 <HAL_MspInit+0x64>)
 800139c:	f043 4300 	orr.w	r3, r3, #2147483648	; 0x80000000
 80013a0:	6253      	str	r3, [r2, #36]	; 0x24
 80013a2:	4b14      	ldr	r3, [pc, #80]	; (80013f4 <HAL_MspInit+0x64>)
 80013a4:	6a5b      	ldr	r3, [r3, #36]	; 0x24
 80013a6:	f003 4300 	and.w	r3, r3, #2147483648	; 0x80000000
 80013aa:	60fb      	str	r3, [r7, #12]
 80013ac:	68fb      	ldr	r3, [r7, #12]
 80013ae:	4b11      	ldr	r3, [pc, #68]	; (80013f4 <HAL_MspInit+0x64>)
 80013b0:	6a1b      	ldr	r3, [r3, #32]
 80013b2:	4a10      	ldr	r2, [pc, #64]	; (80013f4 <HAL_MspInit+0x64>)
 80013b4:	f043 0301 	orr.w	r3, r3, #1
 80013b8:	6213      	str	r3, [r2, #32]
 80013ba:	4b0e      	ldr	r3, [pc, #56]	; (80013f4 <HAL_MspInit+0x64>)
 80013bc:	6a1b      	ldr	r3, [r3, #32]
 80013be:	f003 0301 	and.w	r3, r3, #1
 80013c2:	60bb      	str	r3, [r7, #8]
 80013c4:	68bb      	ldr	r3, [r7, #8]
 80013c6:	4b0b      	ldr	r3, [pc, #44]	; (80013f4 <HAL_MspInit+0x64>)
 80013c8:	6a5b      	ldr	r3, [r3, #36]	; 0x24
 80013ca:	4a0a      	ldr	r2, [pc, #40]	; (80013f4 <HAL_MspInit+0x64>)
 80013cc:	f043 5380 	orr.w	r3, r3, #268435456	; 0x10000000
 80013d0:	6253      	str	r3, [r2, #36]	; 0x24
 80013d2:	4b08      	ldr	r3, [pc, #32]	; (80013f4 <HAL_MspInit+0x64>)
 80013d4:	6a5b      	ldr	r3, [r3, #36]	; 0x24
 80013d6:	f003 5380 	and.w	r3, r3, #268435456	; 0x10000000
 80013da:	607b      	str	r3, [r7, #4]
 80013dc:	687b      	ldr	r3, [r7, #4]
 80013de:	2200      	movs	r2, #0
 80013e0:	210f      	movs	r1, #15
 80013e2:	f06f 0001 	mvn.w	r0, #1
 80013e6:	f001 fae1 	bl	80029ac <HAL_NVIC_SetPriority>
 80013ea:	bf00      	nop
 80013ec:	3710      	adds	r7, #16
 80013ee:	46bd      	mov	sp, r7
 80013f0:	bd80      	pop	{r7, pc}
 80013f2:	bf00      	nop
 80013f4:	40023800 	.word	0x40023800

080013f8 <HAL_InitTick>:
 80013f8:	b580      	push	{r7, lr}
 80013fa:	b08c      	sub	sp, #48	; 0x30
 80013fc:	af00      	add	r7, sp, #0
 80013fe:	6078      	str	r0, [r7, #4]
 8001400:	2300      	movs	r3, #0
 8001402:	62fb      	str	r3, [r7, #44]	; 0x2c
 8001404:	2300      	movs	r3, #0
 8001406:	62bb      	str	r3, [r7, #40]	; 0x28
 8001408:	2200      	movs	r2, #0
 800140a:	6879      	ldr	r1, [r7, #4]
 800140c:	202e      	movs	r0, #46	; 0x2e
 800140e:	f001 facd 	bl	80029ac <HAL_NVIC_SetPriority>
 8001412:	202e      	movs	r0, #46	; 0x2e
 8001414:	f001 faf6 	bl	8002a04 <HAL_NVIC_EnableIRQ>
 8001418:	4b1e      	ldr	r3, [pc, #120]	; (8001494 <HAL_InitTick+0x9c>)
 800141a:	6a5b      	ldr	r3, [r3, #36]	; 0x24
 800141c:	4a1d      	ldr	r2, [pc, #116]	; (8001494 <HAL_InitTick+0x9c>)
 800141e:	f043 0308 	orr.w	r3, r3, #8
 8001422:	6253      	str	r3, [r2, #36]	; 0x24
 8001424:	4b1b      	ldr	r3, [pc, #108]	; (8001494 <HAL_InitTick+0x9c>)
 8001426:	6a5b      	ldr	r3, [r3, #36]	; 0x24
 8001428:	f003 0308 	and.w	r3, r3, #8
 800142c:	60fb      	str	r3, [r7, #12]
 800142e:	68fb      	ldr	r3, [r7, #12]
 8001430:	f107 0210 	add.w	r2, r7, #16
 8001434:	f107 0314 	add.w	r3, r7, #20
 8001438:	4611      	mov	r1, r2
 800143a:	4618      	mov	r0, r3
 800143c:	f003 ff28 	bl	8005290 <HAL_RCC_GetClockConfig>
 8001440:	f003 fefe 	bl	8005240 <HAL_RCC_GetPCLK1Freq>
 8001444:	62f8      	str	r0, [r7, #44]	; 0x2c
 8001446:	6afb      	ldr	r3, [r7, #44]	; 0x2c
 8001448:	4a13      	ldr	r2, [pc, #76]	; (8001498 <HAL_InitTick+0xa0>)
 800144a:	fba2 2303 	umull	r2, r3, r2, r3
 800144e:	0c9b      	lsrs	r3, r3, #18
 8001450:	3b01      	subs	r3, #1
 8001452:	62bb      	str	r3, [r7, #40]	; 0x28
 8001454:	4b11      	ldr	r3, [pc, #68]	; (800149c <HAL_InitTick+0xa4>)
 8001456:	4a12      	ldr	r2, [pc, #72]	; (80014a0 <HAL_InitTick+0xa8>)
 8001458:	601a      	str	r2, [r3, #0]
 800145a:	4b10      	ldr	r3, [pc, #64]	; (800149c <HAL_InitTick+0xa4>)
 800145c:	f240 32e7 	movw	r2, #999	; 0x3e7
 8001460:	60da      	str	r2, [r3, #12]
 8001462:	4a0e      	ldr	r2, [pc, #56]	; (800149c <HAL_InitTick+0xa4>)
 8001464:	6abb      	ldr	r3, [r7, #40]	; 0x28
 8001466:	6053      	str	r3, [r2, #4]
 8001468:	4b0c      	ldr	r3, [pc, #48]	; (800149c <HAL_InitTick+0xa4>)
 800146a:	2200      	movs	r2, #0
 800146c:	611a      	str	r2, [r3, #16]
 800146e:	4b0b      	ldr	r3, [pc, #44]	; (800149c <HAL_InitTick+0xa4>)
 8001470:	2200      	movs	r2, #0
 8001472:	609a      	str	r2, [r3, #8]
 8001474:	4809      	ldr	r0, [pc, #36]	; (800149c <HAL_InitTick+0xa4>)
 8001476:	f003 ffad 	bl	80053d4 <HAL_TIM_Base_Init>
 800147a:	4603      	mov	r3, r0
 800147c:	2b00      	cmp	r3, #0
 800147e:	d104      	bne.n	800148a <HAL_InitTick+0x92>
 8001480:	4806      	ldr	r0, [pc, #24]	; (800149c <HAL_InitTick+0xa4>)
 8001482:	f004 f91b 	bl	80056bc <HAL_TIM_Base_Start_IT>
 8001486:	4603      	mov	r3, r0
 8001488:	e000      	b.n	800148c <HAL_InitTick+0x94>
 800148a:	2301      	movs	r3, #1
 800148c:	4618      	mov	r0, r3
 800148e:	3730      	adds	r7, #48	; 0x30
 8001490:	46bd      	mov	sp, r7
 8001492:	bd80      	pop	{r7, pc}
 8001494:	40023800 	.word	0x40023800
 8001498:	431bde83 	.word	0x431bde83
 800149c:	20003628 	.word	0x20003628
 80014a0:	40000c00 	.word	0x40000c00

080014a4 <NMI_Handler>:
 80014a4:	b480      	push	{r7}
 80014a6:	af00      	add	r7, sp, #0
 80014a8:	bf00      	nop
 80014aa:	46bd      	mov	sp, r7
 80014ac:	bc80      	pop	{r7}
 80014ae:	4770      	bx	lr

080014b0 <HardFault_Handler>:
 80014b0:	b480      	push	{r7}
 80014b2:	af00      	add	r7, sp, #0
 80014b4:	e7fe      	b.n	80014b4 <HardFault_Handler+0x4>

080014b6 <MemManage_Handler>:
 80014b6:	b480      	push	{r7}
 80014b8:	af00      	add	r7, sp, #0
 80014ba:	e7fe      	b.n	80014ba <MemManage_Handler+0x4>

080014bc <BusFault_Handler>:
 80014bc:	b480      	push	{r7}
 80014be:	af00      	add	r7, sp, #0
 80014c0:	e7fe      	b.n	80014c0 <BusFault_Handler+0x4>

080014c2 <UsageFault_Handler>:
 80014c2:	b480      	push	{r7}
 80014c4:	af00      	add	r7, sp, #0
 80014c6:	e7fe      	b.n	80014c6 <UsageFault_Handler+0x4>

080014c8 <DebugMon_Handler>:
 80014c8:	b480      	push	{r7}
 80014ca:	af00      	add	r7, sp, #0
 80014cc:	bf00      	nop
 80014ce:	46bd      	mov	sp, r7
 80014d0:	bc80      	pop	{r7}
 80014d2:	4770      	bx	lr

080014d4 <EXTI0_IRQHandler>:
 80014d4:	b580      	push	{r7, lr}
 80014d6:	af00      	add	r7, sp, #0
 80014d8:	2001      	movs	r0, #1
 80014da:	f001 ffff 	bl	80034dc <HAL_GPIO_EXTI_IRQHandler>
 80014de:	bf00      	nop
 80014e0:	bd80      	pop	{r7, pc}

080014e2 <EXTI1_IRQHandler>:
 80014e2:	b580      	push	{r7, lr}
 80014e4:	af00      	add	r7, sp, #0
 80014e6:	2002      	movs	r0, #2
 80014e8:	f001 fff8 	bl	80034dc <HAL_GPIO_EXTI_IRQHandler>
 80014ec:	bf00      	nop
 80014ee:	bd80      	pop	{r7, pc}

080014f0 <DMA1_Channel2_IRQHandler>:
 80014f0:	b580      	push	{r7, lr}
 80014f2:	af00      	add	r7, sp, #0
 80014f4:	4802      	ldr	r0, [pc, #8]	; (8001500 <DMA1_Channel2_IRQHandler+0x10>)
 80014f6:	f001 fc49 	bl	8002d8c <HAL_DMA_IRQHandler>
 80014fa:	bf00      	nop
 80014fc:	bd80      	pop	{r7, pc}
 80014fe:	bf00      	nop
 8001500:	20003814 	.word	0x20003814

08001504 <DMA1_Channel3_IRQHandler>:
 8001504:	b580      	push	{r7, lr}
 8001506:	af00      	add	r7, sp, #0
 8001508:	4802      	ldr	r0, [pc, #8]	; (8001514 <DMA1_Channel3_IRQHandler+0x10>)
 800150a:	f001 fc3f 	bl	8002d8c <HAL_DMA_IRQHandler>
 800150e:	bf00      	nop
 8001510:	bd80      	pop	{r7, pc}
 8001512:	bf00      	nop
 8001514:	20003790 	.word	0x20003790

08001518 <TIM10_IRQHandler>:
 8001518:	b580      	push	{r7, lr}
 800151a:	af00      	add	r7, sp, #0
 800151c:	4802      	ldr	r0, [pc, #8]	; (8001528 <TIM10_IRQHandler+0x10>)
 800151e:	f004 fa79 	bl	8005a14 <HAL_TIM_IRQHandler>
 8001522:	bf00      	nop
 8001524:	bd80      	pop	{r7, pc}
 8001526:	bf00      	nop
 8001528:	200036a0 	.word	0x200036a0

0800152c <TIM5_IRQHandler>:
 800152c:	b580      	push	{r7, lr}
 800152e:	af00      	add	r7, sp, #0
 8001530:	4802      	ldr	r0, [pc, #8]	; (800153c <TIM5_IRQHandler+0x10>)
 8001532:	f004 fa6f 	bl	8005a14 <HAL_TIM_IRQHandler>
 8001536:	bf00      	nop
 8001538:	bd80      	pop	{r7, pc}
 800153a:	bf00      	nop
 800153c:	20003628 	.word	0x20003628

08001540 <SystemInit>:
 8001540:	b480      	push	{r7}
 8001542:	af00      	add	r7, sp, #0
 8001544:	4b15      	ldr	r3, [pc, #84]	; (800159c <SystemInit+0x5c>)
 8001546:	681b      	ldr	r3, [r3, #0]
 8001548:	4a14      	ldr	r2, [pc, #80]	; (800159c <SystemInit+0x5c>)
 800154a:	f443 7380 	orr.w	r3, r3, #256	; 0x100
 800154e:	6013      	str	r3, [r2, #0]
 8001550:	4b12      	ldr	r3, [pc, #72]	; (800159c <SystemInit+0x5c>)
 8001552:	689a      	ldr	r2, [r3, #8]
 8001554:	4911      	ldr	r1, [pc, #68]	; (800159c <SystemInit+0x5c>)
 8001556:	4b12      	ldr	r3, [pc, #72]	; (80015a0 <SystemInit+0x60>)
 8001558:	4013      	ands	r3, r2
 800155a:	608b      	str	r3, [r1, #8]
 800155c:	4b0f      	ldr	r3, [pc, #60]	; (800159c <SystemInit+0x5c>)
 800155e:	681b      	ldr	r3, [r3, #0]
 8001560:	4a0e      	ldr	r2, [pc, #56]	; (800159c <SystemInit+0x5c>)
 8001562:	f023 5388 	bic.w	r3, r3, #285212672	; 0x11000000
 8001566:	f023 1301 	bic.w	r3, r3, #65537	; 0x10001
 800156a:	6013      	str	r3, [r2, #0]
 800156c:	4b0b      	ldr	r3, [pc, #44]	; (800159c <SystemInit+0x5c>)
 800156e:	681b      	ldr	r3, [r3, #0]
 8001570:	4a0a      	ldr	r2, [pc, #40]	; (800159c <SystemInit+0x5c>)
 8001572:	f423 2380 	bic.w	r3, r3, #262144	; 0x40000
 8001576:	6013      	str	r3, [r2, #0]
 8001578:	4b08      	ldr	r3, [pc, #32]	; (800159c <SystemInit+0x5c>)
 800157a:	689b      	ldr	r3, [r3, #8]
 800157c:	4a07      	ldr	r2, [pc, #28]	; (800159c <SystemInit+0x5c>)
 800157e:	f423 037d 	bic.w	r3, r3, #16580608	; 0xfd0000
 8001582:	6093      	str	r3, [r2, #8]
 8001584:	4b05      	ldr	r3, [pc, #20]	; (800159c <SystemInit+0x5c>)
 8001586:	2200      	movs	r2, #0
 8001588:	60da      	str	r2, [r3, #12]
 800158a:	4b06      	ldr	r3, [pc, #24]	; (80015a4 <SystemInit+0x64>)
 800158c:	f04f 6200 	mov.w	r2, #134217728	; 0x8000000
 8001590:	609a      	str	r2, [r3, #8]
 8001592:	bf00      	nop
 8001594:	46bd      	mov	sp, r7
 8001596:	bc80      	pop	{r7}
 8001598:	4770      	bx	lr
 800159a:	bf00      	nop
 800159c:	40023800 	.word	0x40023800
 80015a0:	88ffc00c 	.word	0x88ffc00c
 80015a4:	e000ed00 	.word	0xe000ed00

080015a8 <MX_TIM2_Init>:
 80015a8:	b580      	push	{r7, lr}
 80015aa:	b08a      	sub	sp, #40	; 0x28
 80015ac:	af00      	add	r7, sp, #0
 80015ae:	f107 0318 	add.w	r3, r7, #24
 80015b2:	2200      	movs	r2, #0
 80015b4:	601a      	str	r2, [r3, #0]
 80015b6:	605a      	str	r2, [r3, #4]
 80015b8:	609a      	str	r2, [r3, #8]
 80015ba:	60da      	str	r2, [r3, #12]
 80015bc:	f107 0310 	add.w	r3, r7, #16
 80015c0:	2200      	movs	r2, #0
 80015c2:	601a      	str	r2, [r3, #0]
 80015c4:	605a      	str	r2, [r3, #4]
 80015c6:	463b      	mov	r3, r7
 80015c8:	2200      	movs	r2, #0
 80015ca:	601a      	str	r2, [r3, #0]
 80015cc:	605a      	str	r2, [r3, #4]
 80015ce:	609a      	str	r2, [r3, #8]
 80015d0:	60da      	str	r2, [r3, #12]
 80015d2:	4b2e      	ldr	r3, [pc, #184]	; (800168c <MX_TIM2_Init+0xe4>)
 80015d4:	f04f 4280 	mov.w	r2, #1073741824	; 0x40000000
 80015d8:	601a      	str	r2, [r3, #0]
 80015da:	4b2c      	ldr	r3, [pc, #176]	; (800168c <MX_TIM2_Init+0xe4>)
 80015dc:	2200      	movs	r2, #0
 80015de:	605a      	str	r2, [r3, #4]
 80015e0:	4b2a      	ldr	r3, [pc, #168]	; (800168c <MX_TIM2_Init+0xe4>)
 80015e2:	2200      	movs	r2, #0
 80015e4:	609a      	str	r2, [r3, #8]
 80015e6:	4b29      	ldr	r3, [pc, #164]	; (800168c <MX_TIM2_Init+0xe4>)
 80015e8:	f640 427f 	movw	r2, #3199	; 0xc7f
 80015ec:	60da      	str	r2, [r3, #12]
 80015ee:	4b27      	ldr	r3, [pc, #156]	; (800168c <MX_TIM2_Init+0xe4>)
 80015f0:	2200      	movs	r2, #0
 80015f2:	611a      	str	r2, [r3, #16]
 80015f4:	4b25      	ldr	r3, [pc, #148]	; (800168c <MX_TIM2_Init+0xe4>)
 80015f6:	2280      	movs	r2, #128	; 0x80
 80015f8:	615a      	str	r2, [r3, #20]
 80015fa:	4824      	ldr	r0, [pc, #144]	; (800168c <MX_TIM2_Init+0xe4>)
 80015fc:	f003 feea 	bl	80053d4 <HAL_TIM_Base_Init>
 8001600:	4603      	mov	r3, r0
 8001602:	2b00      	cmp	r3, #0
 8001604:	d001      	beq.n	800160a <MX_TIM2_Init+0x62>
 8001606:	f7ff feb3 	bl	8001370 <Error_Handler>
 800160a:	f44f 5380 	mov.w	r3, #4096	; 0x1000
 800160e:	61bb      	str	r3, [r7, #24]
 8001610:	f107 0318 	add.w	r3, r7, #24
 8001614:	4619      	mov	r1, r3
 8001616:	481d      	ldr	r0, [pc, #116]	; (800168c <MX_TIM2_Init+0xe4>)
 8001618:	f004 fc68 	bl	8005eec <HAL_TIM_ConfigClockSource>
 800161c:	4603      	mov	r3, r0
 800161e:	2b00      	cmp	r3, #0
 8001620:	d001      	beq.n	8001626 <MX_TIM2_Init+0x7e>
 8001622:	f7ff fea5 	bl	8001370 <Error_Handler>
 8001626:	4819      	ldr	r0, [pc, #100]	; (800168c <MX_TIM2_Init+0xe4>)
 8001628:	f004 f8ae 	bl	8005788 <HAL_TIM_PWM_Init>
 800162c:	4603      	mov	r3, r0
 800162e:	2b00      	cmp	r3, #0
 8001630:	d001      	beq.n	8001636 <MX_TIM2_Init+0x8e>
 8001632:	f7ff fe9d 	bl	8001370 <Error_Handler>
 8001636:	2300      	movs	r3, #0
 8001638:	613b      	str	r3, [r7, #16]
 800163a:	2300      	movs	r3, #0
 800163c:	617b      	str	r3, [r7, #20]
 800163e:	f107 0310 	add.w	r3, r7, #16
 8001642:	4619      	mov	r1, r3
 8001644:	4811      	ldr	r0, [pc, #68]	; (800168c <MX_TIM2_Init+0xe4>)
 8001646:	f005 f9c9 	bl	80069dc <HAL_TIMEx_MasterConfigSynchronization>
 800164a:	4603      	mov	r3, r0
 800164c:	2b00      	cmp	r3, #0
 800164e:	d001      	beq.n	8001654 <MX_TIM2_Init+0xac>
 8001650:	f7ff fe8e 	bl	8001370 <Error_Handler>
 8001654:	2360      	movs	r3, #96	; 0x60
 8001656:	603b      	str	r3, [r7, #0]
 8001658:	f240 633f 	movw	r3, #1599	; 0x63f
 800165c:	607b      	str	r3, [r7, #4]
 800165e:	2300      	movs	r3, #0
 8001660:	60bb      	str	r3, [r7, #8]
 8001662:	2304      	movs	r3, #4
 8001664:	60fb      	str	r3, [r7, #12]
 8001666:	463b      	mov	r3, r7
 8001668:	2200      	movs	r2, #0
 800166a:	4619      	mov	r1, r3
 800166c:	4807      	ldr	r0, [pc, #28]	; (800168c <MX_TIM2_Init+0xe4>)
 800166e:	f004 faad 	bl	8005bcc <HAL_TIM_PWM_ConfigChannel>
 8001672:	4603      	mov	r3, r0
 8001674:	2b00      	cmp	r3, #0
 8001676:	d001      	beq.n	800167c <MX_TIM2_Init+0xd4>
 8001678:	f7ff fe7a 	bl	8001370 <Error_Handler>
 800167c:	4803      	ldr	r0, [pc, #12]	; (800168c <MX_TIM2_Init+0xe4>)
 800167e:	f000 f9eb 	bl	8001a58 <HAL_TIM_MspPostInit>
 8001682:	bf00      	nop
 8001684:	3728      	adds	r7, #40	; 0x28
 8001686:	46bd      	mov	sp, r7
 8001688:	bd80      	pop	{r7, pc}
 800168a:	bf00      	nop
 800168c:	20003754 	.word	0x20003754

08001690 <MX_TIM3_Init>:
 8001690:	b580      	push	{r7, lr}
 8001692:	b08a      	sub	sp, #40	; 0x28
 8001694:	af00      	add	r7, sp, #0
 8001696:	f107 0318 	add.w	r3, r7, #24
 800169a:	2200      	movs	r2, #0
 800169c:	601a      	str	r2, [r3, #0]
 800169e:	605a      	str	r2, [r3, #4]
 80016a0:	609a      	str	r2, [r3, #8]
 80016a2:	60da      	str	r2, [r3, #12]
 80016a4:	f107 0310 	add.w	r3, r7, #16
 80016a8:	2200      	movs	r2, #0
 80016aa:	601a      	str	r2, [r3, #0]
 80016ac:	605a      	str	r2, [r3, #4]
 80016ae:	463b      	mov	r3, r7
 80016b0:	2200      	movs	r2, #0
 80016b2:	601a      	str	r2, [r3, #0]
 80016b4:	605a      	str	r2, [r3, #4]
 80016b6:	609a      	str	r2, [r3, #8]
 80016b8:	60da      	str	r2, [r3, #12]
 80016ba:	4b2d      	ldr	r3, [pc, #180]	; (8001770 <MX_TIM3_Init+0xe0>)
 80016bc:	4a2d      	ldr	r2, [pc, #180]	; (8001774 <MX_TIM3_Init+0xe4>)
 80016be:	601a      	str	r2, [r3, #0]
 80016c0:	4b2b      	ldr	r3, [pc, #172]	; (8001770 <MX_TIM3_Init+0xe0>)
 80016c2:	2200      	movs	r2, #0
 80016c4:	605a      	str	r2, [r3, #4]
 80016c6:	4b2a      	ldr	r3, [pc, #168]	; (8001770 <MX_TIM3_Init+0xe0>)
 80016c8:	2200      	movs	r2, #0
 80016ca:	609a      	str	r2, [r3, #8]
 80016cc:	4b28      	ldr	r3, [pc, #160]	; (8001770 <MX_TIM3_Init+0xe0>)
 80016ce:	f640 427f 	movw	r2, #3199	; 0xc7f
 80016d2:	60da      	str	r2, [r3, #12]
 80016d4:	4b26      	ldr	r3, [pc, #152]	; (8001770 <MX_TIM3_Init+0xe0>)
 80016d6:	2200      	movs	r2, #0
 80016d8:	611a      	str	r2, [r3, #16]
 80016da:	4b25      	ldr	r3, [pc, #148]	; (8001770 <MX_TIM3_Init+0xe0>)
 80016dc:	2280      	movs	r2, #128	; 0x80
 80016de:	615a      	str	r2, [r3, #20]
 80016e0:	4823      	ldr	r0, [pc, #140]	; (8001770 <MX_TIM3_Init+0xe0>)
 80016e2:	f003 fe77 	bl	80053d4 <HAL_TIM_Base_Init>
 80016e6:	4603      	mov	r3, r0
 80016e8:	2b00      	cmp	r3, #0
 80016ea:	d001      	beq.n	80016f0 <MX_TIM3_Init+0x60>
 80016ec:	f7ff fe40 	bl	8001370 <Error_Handler>
 80016f0:	f44f 5380 	mov.w	r3, #4096	; 0x1000
 80016f4:	61bb      	str	r3, [r7, #24]
 80016f6:	f107 0318 	add.w	r3, r7, #24
 80016fa:	4619      	mov	r1, r3
 80016fc:	481c      	ldr	r0, [pc, #112]	; (8001770 <MX_TIM3_Init+0xe0>)
 80016fe:	f004 fbf5 	bl	8005eec <HAL_TIM_ConfigClockSource>
 8001702:	4603      	mov	r3, r0
 8001704:	2b00      	cmp	r3, #0
 8001706:	d001      	beq.n	800170c <MX_TIM3_Init+0x7c>
 8001708:	f7ff fe32 	bl	8001370 <Error_Handler>
 800170c:	4818      	ldr	r0, [pc, #96]	; (8001770 <MX_TIM3_Init+0xe0>)
 800170e:	f004 f83b 	bl	8005788 <HAL_TIM_PWM_Init>
 8001712:	4603      	mov	r3, r0
 8001714:	2b00      	cmp	r3, #0
 8001716:	d001      	beq.n	800171c <MX_TIM3_Init+0x8c>
 8001718:	f7ff fe2a 	bl	8001370 <Error_Handler>
 800171c:	2300      	movs	r3, #0
 800171e:	613b      	str	r3, [r7, #16]
 8001720:	2300      	movs	r3, #0
 8001722:	617b      	str	r3, [r7, #20]
 8001724:	f107 0310 	add.w	r3, r7, #16
 8001728:	4619      	mov	r1, r3
 800172a:	4811      	ldr	r0, [pc, #68]	; (8001770 <MX_TIM3_Init+0xe0>)
 800172c:	f005 f956 	bl	80069dc <HAL_TIMEx_MasterConfigSynchronization>
 8001730:	4603      	mov	r3, r0
 8001732:	2b00      	cmp	r3, #0
 8001734:	d001      	beq.n	800173a <MX_TIM3_Init+0xaa>
 8001736:	f7ff fe1b 	bl	8001370 <Error_Handler>
 800173a:	2360      	movs	r3, #96	; 0x60
 800173c:	603b      	str	r3, [r7, #0]
 800173e:	f240 53dc 	movw	r3, #1500	; 0x5dc
 8001742:	607b      	str	r3, [r7, #4]
 8001744:	2300      	movs	r3, #0
 8001746:	60bb      	str	r3, [r7, #8]
 8001748:	2304      	movs	r3, #4
 800174a:	60fb      	str	r3, [r7, #12]
 800174c:	463b      	mov	r3, r7
 800174e:	2208      	movs	r2, #8
 8001750:	4619      	mov	r1, r3
 8001752:	4807      	ldr	r0, [pc, #28]	; (8001770 <MX_TIM3_Init+0xe0>)
 8001754:	f004 fa3a 	bl	8005bcc <HAL_TIM_PWM_ConfigChannel>
 8001758:	4603      	mov	r3, r0
 800175a:	2b00      	cmp	r3, #0
 800175c:	d001      	beq.n	8001762 <MX_TIM3_Init+0xd2>
 800175e:	f7ff fe07 	bl	8001370 <Error_Handler>
 8001762:	4803      	ldr	r0, [pc, #12]	; (8001770 <MX_TIM3_Init+0xe0>)
 8001764:	f000 f978 	bl	8001a58 <HAL_TIM_MspPostInit>
 8001768:	bf00      	nop
 800176a:	3728      	adds	r7, #40	; 0x28
 800176c:	46bd      	mov	sp, r7
 800176e:	bd80      	pop	{r7, pc}
 8001770:	200036dc 	.word	0x200036dc
 8001774:	40000400 	.word	0x40000400

08001778 <MX_TIM4_Init>:
 8001778:	b580      	push	{r7, lr}
 800177a:	b086      	sub	sp, #24
 800177c:	af00      	add	r7, sp, #0
 800177e:	f107 0308 	add.w	r3, r7, #8
 8001782:	2200      	movs	r2, #0
 8001784:	601a      	str	r2, [r3, #0]
 8001786:	605a      	str	r2, [r3, #4]
 8001788:	609a      	str	r2, [r3, #8]
 800178a:	60da      	str	r2, [r3, #12]
 800178c:	463b      	mov	r3, r7
 800178e:	2200      	movs	r2, #0
 8001790:	601a      	str	r2, [r3, #0]
 8001792:	605a      	str	r2, [r3, #4]
 8001794:	4b1d      	ldr	r3, [pc, #116]	; (800180c <MX_TIM4_Init+0x94>)
 8001796:	4a1e      	ldr	r2, [pc, #120]	; (8001810 <MX_TIM4_Init+0x98>)
 8001798:	601a      	str	r2, [r3, #0]
 800179a:	4b1c      	ldr	r3, [pc, #112]	; (800180c <MX_TIM4_Init+0x94>)
 800179c:	2203      	movs	r2, #3
 800179e:	605a      	str	r2, [r3, #4]
 80017a0:	4b1a      	ldr	r3, [pc, #104]	; (800180c <MX_TIM4_Init+0x94>)
 80017a2:	2200      	movs	r2, #0
 80017a4:	609a      	str	r2, [r3, #8]
 80017a6:	4b19      	ldr	r3, [pc, #100]	; (800180c <MX_TIM4_Init+0x94>)
 80017a8:	f649 423f 	movw	r2, #39999	; 0x9c3f
 80017ac:	60da      	str	r2, [r3, #12]
 80017ae:	4b17      	ldr	r3, [pc, #92]	; (800180c <MX_TIM4_Init+0x94>)
 80017b0:	2200      	movs	r2, #0
 80017b2:	611a      	str	r2, [r3, #16]
 80017b4:	4b15      	ldr	r3, [pc, #84]	; (800180c <MX_TIM4_Init+0x94>)
 80017b6:	2200      	movs	r2, #0
 80017b8:	615a      	str	r2, [r3, #20]
 80017ba:	4814      	ldr	r0, [pc, #80]	; (800180c <MX_TIM4_Init+0x94>)
 80017bc:	f003 fe0a 	bl	80053d4 <HAL_TIM_Base_Init>
 80017c0:	4603      	mov	r3, r0
 80017c2:	2b00      	cmp	r3, #0
 80017c4:	d001      	beq.n	80017ca <MX_TIM4_Init+0x52>
 80017c6:	f7ff fdd3 	bl	8001370 <Error_Handler>
 80017ca:	f44f 5380 	mov.w	r3, #4096	; 0x1000
 80017ce:	60bb      	str	r3, [r7, #8]
 80017d0:	f107 0308 	add.w	r3, r7, #8
 80017d4:	4619      	mov	r1, r3
 80017d6:	480d      	ldr	r0, [pc, #52]	; (800180c <MX_TIM4_Init+0x94>)
 80017d8:	f004 fb88 	bl	8005eec <HAL_TIM_ConfigClockSource>
 80017dc:	4603      	mov	r3, r0
 80017de:	2b00      	cmp	r3, #0
 80017e0:	d001      	beq.n	80017e6 <MX_TIM4_Init+0x6e>
 80017e2:	f7ff fdc5 	bl	8001370 <Error_Handler>
 80017e6:	2300      	movs	r3, #0
 80017e8:	603b      	str	r3, [r7, #0]
 80017ea:	2300      	movs	r3, #0
 80017ec:	607b      	str	r3, [r7, #4]
 80017ee:	463b      	mov	r3, r7
 80017f0:	4619      	mov	r1, r3
 80017f2:	4806      	ldr	r0, [pc, #24]	; (800180c <MX_TIM4_Init+0x94>)
 80017f4:	f005 f8f2 	bl	80069dc <HAL_TIMEx_MasterConfigSynchronization>
 80017f8:	4603      	mov	r3, r0
 80017fa:	2b00      	cmp	r3, #0
 80017fc:	d001      	beq.n	8001802 <MX_TIM4_Init+0x8a>
 80017fe:	f7ff fdb7 	bl	8001370 <Error_Handler>
 8001802:	bf00      	nop
 8001804:	3718      	adds	r7, #24
 8001806:	46bd      	mov	sp, r7
 8001808:	bd80      	pop	{r7, pc}
 800180a:	bf00      	nop
 800180c:	20003664 	.word	0x20003664
 8001810:	40000800 	.word	0x40000800

08001814 <MX_TIM9_Init>:
 8001814:	b580      	push	{r7, lr}
 8001816:	b08a      	sub	sp, #40	; 0x28
 8001818:	af00      	add	r7, sp, #0
 800181a:	f107 0318 	add.w	r3, r7, #24
 800181e:	2200      	movs	r2, #0
 8001820:	601a      	str	r2, [r3, #0]
 8001822:	605a      	str	r2, [r3, #4]
 8001824:	609a      	str	r2, [r3, #8]
 8001826:	60da      	str	r2, [r3, #12]
 8001828:	f107 0310 	add.w	r3, r7, #16
 800182c:	2200      	movs	r2, #0
 800182e:	601a      	str	r2, [r3, #0]
 8001830:	605a      	str	r2, [r3, #4]
 8001832:	463b      	mov	r3, r7
 8001834:	2200      	movs	r2, #0
 8001836:	601a      	str	r2, [r3, #0]
 8001838:	605a      	str	r2, [r3, #4]
 800183a:	609a      	str	r2, [r3, #8]
 800183c:	60da      	str	r2, [r3, #12]
 800183e:	4b2d      	ldr	r3, [pc, #180]	; (80018f4 <MX_TIM9_Init+0xe0>)
 8001840:	4a2d      	ldr	r2, [pc, #180]	; (80018f8 <MX_TIM9_Init+0xe4>)
 8001842:	601a      	str	r2, [r3, #0]
 8001844:	4b2b      	ldr	r3, [pc, #172]	; (80018f4 <MX_TIM9_Init+0xe0>)
 8001846:	2200      	movs	r2, #0
 8001848:	605a      	str	r2, [r3, #4]
 800184a:	4b2a      	ldr	r3, [pc, #168]	; (80018f4 <MX_TIM9_Init+0xe0>)
 800184c:	2200      	movs	r2, #0
 800184e:	609a      	str	r2, [r3, #8]
 8001850:	4b28      	ldr	r3, [pc, #160]	; (80018f4 <MX_TIM9_Init+0xe0>)
 8001852:	f44f 6248 	mov.w	r2, #3200	; 0xc80
 8001856:	60da      	str	r2, [r3, #12]
 8001858:	4b26      	ldr	r3, [pc, #152]	; (80018f4 <MX_TIM9_Init+0xe0>)
 800185a:	2200      	movs	r2, #0
 800185c:	611a      	str	r2, [r3, #16]
 800185e:	4b25      	ldr	r3, [pc, #148]	; (80018f4 <MX_TIM9_Init+0xe0>)
 8001860:	2280      	movs	r2, #128	; 0x80
 8001862:	615a      	str	r2, [r3, #20]
 8001864:	4823      	ldr	r0, [pc, #140]	; (80018f4 <MX_TIM9_Init+0xe0>)
 8001866:	f003 fdb5 	bl	80053d4 <HAL_TIM_Base_Init>
 800186a:	4603      	mov	r3, r0
 800186c:	2b00      	cmp	r3, #0
 800186e:	d001      	beq.n	8001874 <MX_TIM9_Init+0x60>
 8001870:	f7ff fd7e 	bl	8001370 <Error_Handler>
 8001874:	f44f 5380 	mov.w	r3, #4096	; 0x1000
 8001878:	61bb      	str	r3, [r7, #24]
 800187a:	f107 0318 	add.w	r3, r7, #24
 800187e:	4619      	mov	r1, r3
 8001880:	481c      	ldr	r0, [pc, #112]	; (80018f4 <MX_TIM9_Init+0xe0>)
 8001882:	f004 fb33 	bl	8005eec <HAL_TIM_ConfigClockSource>
 8001886:	4603      	mov	r3, r0
 8001888:	2b00      	cmp	r3, #0
 800188a:	d001      	beq.n	8001890 <MX_TIM9_Init+0x7c>
 800188c:	f7ff fd70 	bl	8001370 <Error_Handler>
 8001890:	4818      	ldr	r0, [pc, #96]	; (80018f4 <MX_TIM9_Init+0xe0>)
 8001892:	f003 ff79 	bl	8005788 <HAL_TIM_PWM_Init>
 8001896:	4603      	mov	r3, r0
 8001898:	2b00      	cmp	r3, #0
 800189a:	d001      	beq.n	80018a0 <MX_TIM9_Init+0x8c>
 800189c:	f7ff fd68 	bl	8001370 <Error_Handler>
 80018a0:	2300      	movs	r3, #0
 80018a2:	613b      	str	r3, [r7, #16]
 80018a4:	2300      	movs	r3, #0
 80018a6:	617b      	str	r3, [r7, #20]
 80018a8:	f107 0310 	add.w	r3, r7, #16
 80018ac:	4619      	mov	r1, r3
 80018ae:	4811      	ldr	r0, [pc, #68]	; (80018f4 <MX_TIM9_Init+0xe0>)
 80018b0:	f005 f894 	bl	80069dc <HAL_TIMEx_MasterConfigSynchronization>
 80018b4:	4603      	mov	r3, r0
 80018b6:	2b00      	cmp	r3, #0
 80018b8:	d001      	beq.n	80018be <MX_TIM9_Init+0xaa>
 80018ba:	f7ff fd59 	bl	8001370 <Error_Handler>
 80018be:	2360      	movs	r3, #96	; 0x60
 80018c0:	603b      	str	r3, [r7, #0]
 80018c2:	f240 53dc 	movw	r3, #1500	; 0x5dc
 80018c6:	607b      	str	r3, [r7, #4]
 80018c8:	2300      	movs	r3, #0
 80018ca:	60bb      	str	r3, [r7, #8]
 80018cc:	2300      	movs	r3, #0
 80018ce:	60fb      	str	r3, [r7, #12]
 80018d0:	463b      	mov	r3, r7
 80018d2:	2204      	movs	r2, #4
 80018d4:	4619      	mov	r1, r3
 80018d6:	4807      	ldr	r0, [pc, #28]	; (80018f4 <MX_TIM9_Init+0xe0>)
 80018d8:	f004 f978 	bl	8005bcc <HAL_TIM_PWM_ConfigChannel>
 80018dc:	4603      	mov	r3, r0
 80018de:	2b00      	cmp	r3, #0
 80018e0:	d001      	beq.n	80018e6 <MX_TIM9_Init+0xd2>
 80018e2:	f7ff fd45 	bl	8001370 <Error_Handler>
 80018e6:	4803      	ldr	r0, [pc, #12]	; (80018f4 <MX_TIM9_Init+0xe0>)
 80018e8:	f000 f8b6 	bl	8001a58 <HAL_TIM_MspPostInit>
 80018ec:	bf00      	nop
 80018ee:	3728      	adds	r7, #40	; 0x28
 80018f0:	46bd      	mov	sp, r7
 80018f2:	bd80      	pop	{r7, pc}
 80018f4:	20003718 	.word	0x20003718
 80018f8:	40010800 	.word	0x40010800

080018fc <MX_TIM10_Init>:
 80018fc:	b580      	push	{r7, lr}
 80018fe:	b084      	sub	sp, #16
 8001900:	af00      	add	r7, sp, #0
 8001902:	463b      	mov	r3, r7
 8001904:	2200      	movs	r2, #0
 8001906:	601a      	str	r2, [r3, #0]
 8001908:	605a      	str	r2, [r3, #4]
 800190a:	609a      	str	r2, [r3, #8]
 800190c:	60da      	str	r2, [r3, #12]
 800190e:	4b16      	ldr	r3, [pc, #88]	; (8001968 <MX_TIM10_Init+0x6c>)
 8001910:	4a16      	ldr	r2, [pc, #88]	; (800196c <MX_TIM10_Init+0x70>)
 8001912:	601a      	str	r2, [r3, #0]
 8001914:	4b14      	ldr	r3, [pc, #80]	; (8001968 <MX_TIM10_Init+0x6c>)
 8001916:	2200      	movs	r2, #0
 8001918:	605a      	str	r2, [r3, #4]
 800191a:	4b13      	ldr	r3, [pc, #76]	; (8001968 <MX_TIM10_Init+0x6c>)
 800191c:	2200      	movs	r2, #0
 800191e:	609a      	str	r2, [r3, #8]
 8001920:	4b11      	ldr	r3, [pc, #68]	; (8001968 <MX_TIM10_Init+0x6c>)
 8001922:	f240 623f 	movw	r2, #1599	; 0x63f
 8001926:	60da      	str	r2, [r3, #12]
 8001928:	4b0f      	ldr	r3, [pc, #60]	; (8001968 <MX_TIM10_Init+0x6c>)
 800192a:	2200      	movs	r2, #0
 800192c:	611a      	str	r2, [r3, #16]
 800192e:	4b0e      	ldr	r3, [pc, #56]	; (8001968 <MX_TIM10_Init+0x6c>)
 8001930:	2200      	movs	r2, #0
 8001932:	615a      	str	r2, [r3, #20]
 8001934:	480c      	ldr	r0, [pc, #48]	; (8001968 <MX_TIM10_Init+0x6c>)
 8001936:	f003 fd4d 	bl	80053d4 <HAL_TIM_Base_Init>
 800193a:	4603      	mov	r3, r0
 800193c:	2b00      	cmp	r3, #0
 800193e:	d001      	beq.n	8001944 <MX_TIM10_Init+0x48>
 8001940:	f7ff fd16 	bl	8001370 <Error_Handler>
 8001944:	f44f 5380 	mov.w	r3, #4096	; 0x1000
 8001948:	603b      	str	r3, [r7, #0]
 800194a:	463b      	mov	r3, r7
 800194c:	4619      	mov	r1, r3
 800194e:	4806      	ldr	r0, [pc, #24]	; (8001968 <MX_TIM10_Init+0x6c>)
 8001950:	f004 facc 	bl	8005eec <HAL_TIM_ConfigClockSource>
 8001954:	4603      	mov	r3, r0
 8001956:	2b00      	cmp	r3, #0
 8001958:	d001      	beq.n	800195e <MX_TIM10_Init+0x62>
 800195a:	f7ff fd09 	bl	8001370 <Error_Handler>
 800195e:	bf00      	nop
 8001960:	3710      	adds	r7, #16
 8001962:	46bd      	mov	sp, r7
 8001964:	bd80      	pop	{r7, pc}
 8001966:	bf00      	nop
 8001968:	200036a0 	.word	0x200036a0
 800196c:	40010c00 	.word	0x40010c00

08001970 <HAL_TIM_Base_MspInit>:
 8001970:	b580      	push	{r7, lr}
 8001972:	b088      	sub	sp, #32
 8001974:	af00      	add	r7, sp, #0
 8001976:	6078      	str	r0, [r7, #4]
 8001978:	687b      	ldr	r3, [r7, #4]
 800197a:	681b      	ldr	r3, [r3, #0]
 800197c:	f1b3 4f80 	cmp.w	r3, #1073741824	; 0x40000000
 8001980:	d10c      	bne.n	800199c <HAL_TIM_Base_MspInit+0x2c>
 8001982:	4b30      	ldr	r3, [pc, #192]	; (8001a44 <HAL_TIM_Base_MspInit+0xd4>)
 8001984:	6a5b      	ldr	r3, [r3, #36]	; 0x24
 8001986:	4a2f      	ldr	r2, [pc, #188]	; (8001a44 <HAL_TIM_Base_MspInit+0xd4>)
 8001988:	f043 0301 	orr.w	r3, r3, #1
 800198c:	6253      	str	r3, [r2, #36]	; 0x24
 800198e:	4b2d      	ldr	r3, [pc, #180]	; (8001a44 <HAL_TIM_Base_MspInit+0xd4>)
 8001990:	6a5b      	ldr	r3, [r3, #36]	; 0x24
 8001992:	f003 0301 	and.w	r3, r3, #1
 8001996:	61fb      	str	r3, [r7, #28]
 8001998:	69fb      	ldr	r3, [r7, #28]
 800199a:	e04e      	b.n	8001a3a <HAL_TIM_Base_MspInit+0xca>
 800199c:	687b      	ldr	r3, [r7, #4]
 800199e:	681b      	ldr	r3, [r3, #0]
 80019a0:	4a29      	ldr	r2, [pc, #164]	; (8001a48 <HAL_TIM_Base_MspInit+0xd8>)
 80019a2:	4293      	cmp	r3, r2
 80019a4:	d10c      	bne.n	80019c0 <HAL_TIM_Base_MspInit+0x50>
 80019a6:	4b27      	ldr	r3, [pc, #156]	; (8001a44 <HAL_TIM_Base_MspInit+0xd4>)
 80019a8:	6a5b      	ldr	r3, [r3, #36]	; 0x24
 80019aa:	4a26      	ldr	r2, [pc, #152]	; (8001a44 <HAL_TIM_Base_MspInit+0xd4>)
 80019ac:	f043 0302 	orr.w	r3, r3, #2
 80019b0:	6253      	str	r3, [r2, #36]	; 0x24
 80019b2:	4b24      	ldr	r3, [pc, #144]	; (8001a44 <HAL_TIM_Base_MspInit+0xd4>)
 80019b4:	6a5b      	ldr	r3, [r3, #36]	; 0x24
 80019b6:	f003 0302 	and.w	r3, r3, #2
 80019ba:	61bb      	str	r3, [r7, #24]
 80019bc:	69bb      	ldr	r3, [r7, #24]
 80019be:	e03c      	b.n	8001a3a <HAL_TIM_Base_MspInit+0xca>
 80019c0:	687b      	ldr	r3, [r7, #4]
 80019c2:	681b      	ldr	r3, [r3, #0]
 80019c4:	4a21      	ldr	r2, [pc, #132]	; (8001a4c <HAL_TIM_Base_MspInit+0xdc>)
 80019c6:	4293      	cmp	r3, r2
 80019c8:	d10c      	bne.n	80019e4 <HAL_TIM_Base_MspInit+0x74>
 80019ca:	4b1e      	ldr	r3, [pc, #120]	; (8001a44 <HAL_TIM_Base_MspInit+0xd4>)
 80019cc:	6a5b      	ldr	r3, [r3, #36]	; 0x24
 80019ce:	4a1d      	ldr	r2, [pc, #116]	; (8001a44 <HAL_TIM_Base_MspInit+0xd4>)
 80019d0:	f043 0304 	orr.w	r3, r3, #4
 80019d4:	6253      	str	r3, [r2, #36]	; 0x24
 80019d6:	4b1b      	ldr	r3, [pc, #108]	; (8001a44 <HAL_TIM_Base_MspInit+0xd4>)
 80019d8:	6a5b      	ldr	r3, [r3, #36]	; 0x24
 80019da:	f003 0304 	and.w	r3, r3, #4
 80019de:	617b      	str	r3, [r7, #20]
 80019e0:	697b      	ldr	r3, [r7, #20]
 80019e2:	e02a      	b.n	8001a3a <HAL_TIM_Base_MspInit+0xca>
 80019e4:	687b      	ldr	r3, [r7, #4]
 80019e6:	681b      	ldr	r3, [r3, #0]
 80019e8:	4a19      	ldr	r2, [pc, #100]	; (8001a50 <HAL_TIM_Base_MspInit+0xe0>)
 80019ea:	4293      	cmp	r3, r2
 80019ec:	d10c      	bne.n	8001a08 <HAL_TIM_Base_MspInit+0x98>
 80019ee:	4b15      	ldr	r3, [pc, #84]	; (8001a44 <HAL_TIM_Base_MspInit+0xd4>)
 80019f0:	6a1b      	ldr	r3, [r3, #32]
 80019f2:	4a14      	ldr	r2, [pc, #80]	; (8001a44 <HAL_TIM_Base_MspInit+0xd4>)
 80019f4:	f043 0304 	orr.w	r3, r3, #4
 80019f8:	6213      	str	r3, [r2, #32]
 80019fa:	4b12      	ldr	r3, [pc, #72]	; (8001a44 <HAL_TIM_Base_MspInit+0xd4>)
 80019fc:	6a1b      	ldr	r3, [r3, #32]
 80019fe:	f003 0304 	and.w	r3, r3, #4
 8001a02:	613b      	str	r3, [r7, #16]
 8001a04:	693b      	ldr	r3, [r7, #16]
 8001a06:	e018      	b.n	8001a3a <HAL_TIM_Base_MspInit+0xca>
 8001a08:	687b      	ldr	r3, [r7, #4]
 8001a0a:	681b      	ldr	r3, [r3, #0]
 8001a0c:	4a11      	ldr	r2, [pc, #68]	; (8001a54 <HAL_TIM_Base_MspInit+0xe4>)
 8001a0e:	4293      	cmp	r3, r2
 8001a10:	d113      	bne.n	8001a3a <HAL_TIM_Base_MspInit+0xca>
 8001a12:	4b0c      	ldr	r3, [pc, #48]	; (8001a44 <HAL_TIM_Base_MspInit+0xd4>)
 8001a14:	6a1b      	ldr	r3, [r3, #32]
 8001a16:	4a0b      	ldr	r2, [pc, #44]	; (8001a44 <HAL_TIM_Base_MspInit+0xd4>)
 8001a18:	f043 0308 	orr.w	r3, r3, #8
 8001a1c:	6213      	str	r3, [r2, #32]
 8001a1e:	4b09      	ldr	r3, [pc, #36]	; (8001a44 <HAL_TIM_Base_MspInit+0xd4>)
 8001a20:	6a1b      	ldr	r3, [r3, #32]
 8001a22:	f003 0308 	and.w	r3, r3, #8
 8001a26:	60fb      	str	r3, [r7, #12]
 8001a28:	68fb      	ldr	r3, [r7, #12]
 8001a2a:	2200      	movs	r2, #0
 8001a2c:	2105      	movs	r1, #5
 8001a2e:	201a      	movs	r0, #26
 8001a30:	f000 ffbc 	bl	80029ac <HAL_NVIC_SetPriority>
 8001a34:	201a      	movs	r0, #26
 8001a36:	f000 ffe5 	bl	8002a04 <HAL_NVIC_EnableIRQ>
 8001a3a:	bf00      	nop
 8001a3c:	3720      	adds	r7, #32
 8001a3e:	46bd      	mov	sp, r7
 8001a40:	bd80      	pop	{r7, pc}
 8001a42:	bf00      	nop
 8001a44:	40023800 	.word	0x40023800
 8001a48:	40000400 	.word	0x40000400
 8001a4c:	40000800 	.word	0x40000800
 8001a50:	40010800 	.word	0x40010800
 8001a54:	40010c00 	.word	0x40010c00

08001a58 <HAL_TIM_MspPostInit>:
 8001a58:	b580      	push	{r7, lr}
 8001a5a:	b08a      	sub	sp, #40	; 0x28
 8001a5c:	af00      	add	r7, sp, #0
 8001a5e:	6078      	str	r0, [r7, #4]
 8001a60:	f107 0314 	add.w	r3, r7, #20
 8001a64:	2200      	movs	r2, #0
 8001a66:	601a      	str	r2, [r3, #0]
 8001a68:	605a      	str	r2, [r3, #4]
 8001a6a:	609a      	str	r2, [r3, #8]
 8001a6c:	60da      	str	r2, [r3, #12]
 8001a6e:	611a      	str	r2, [r3, #16]
 8001a70:	687b      	ldr	r3, [r7, #4]
 8001a72:	681b      	ldr	r3, [r3, #0]
 8001a74:	f1b3 4f80 	cmp.w	r3, #1073741824	; 0x40000000
 8001a78:	d11c      	bne.n	8001ab4 <HAL_TIM_MspPostInit+0x5c>
 8001a7a:	4b33      	ldr	r3, [pc, #204]	; (8001b48 <HAL_TIM_MspPostInit+0xf0>)
 8001a7c:	69db      	ldr	r3, [r3, #28]
 8001a7e:	4a32      	ldr	r2, [pc, #200]	; (8001b48 <HAL_TIM_MspPostInit+0xf0>)
 8001a80:	f043 0301 	orr.w	r3, r3, #1
 8001a84:	61d3      	str	r3, [r2, #28]
 8001a86:	4b30      	ldr	r3, [pc, #192]	; (8001b48 <HAL_TIM_MspPostInit+0xf0>)
 8001a88:	69db      	ldr	r3, [r3, #28]
 8001a8a:	f003 0301 	and.w	r3, r3, #1
 8001a8e:	613b      	str	r3, [r7, #16]
 8001a90:	693b      	ldr	r3, [r7, #16]
 8001a92:	2301      	movs	r3, #1
 8001a94:	617b      	str	r3, [r7, #20]
 8001a96:	2302      	movs	r3, #2
 8001a98:	61bb      	str	r3, [r7, #24]
 8001a9a:	2300      	movs	r3, #0
 8001a9c:	61fb      	str	r3, [r7, #28]
 8001a9e:	2300      	movs	r3, #0
 8001aa0:	623b      	str	r3, [r7, #32]
 8001aa2:	2301      	movs	r3, #1
 8001aa4:	627b      	str	r3, [r7, #36]	; 0x24
 8001aa6:	f107 0314 	add.w	r3, r7, #20
 8001aaa:	4619      	mov	r1, r3
 8001aac:	4827      	ldr	r0, [pc, #156]	; (8001b4c <HAL_TIM_MspPostInit+0xf4>)
 8001aae:	f001 fa4b 	bl	8002f48 <HAL_GPIO_Init>
 8001ab2:	e044      	b.n	8001b3e <HAL_TIM_MspPostInit+0xe6>
 8001ab4:	687b      	ldr	r3, [r7, #4]
 8001ab6:	681b      	ldr	r3, [r3, #0]
 8001ab8:	4a25      	ldr	r2, [pc, #148]	; (8001b50 <HAL_TIM_MspPostInit+0xf8>)
 8001aba:	4293      	cmp	r3, r2
 8001abc:	d11d      	bne.n	8001afa <HAL_TIM_MspPostInit+0xa2>
 8001abe:	4b22      	ldr	r3, [pc, #136]	; (8001b48 <HAL_TIM_MspPostInit+0xf0>)
 8001ac0:	69db      	ldr	r3, [r3, #28]
 8001ac2:	4a21      	ldr	r2, [pc, #132]	; (8001b48 <HAL_TIM_MspPostInit+0xf0>)
 8001ac4:	f043 0304 	orr.w	r3, r3, #4
 8001ac8:	61d3      	str	r3, [r2, #28]
 8001aca:	4b1f      	ldr	r3, [pc, #124]	; (8001b48 <HAL_TIM_MspPostInit+0xf0>)
 8001acc:	69db      	ldr	r3, [r3, #28]
 8001ace:	f003 0304 	and.w	r3, r3, #4
 8001ad2:	60fb      	str	r3, [r7, #12]
 8001ad4:	68fb      	ldr	r3, [r7, #12]
 8001ad6:	f44f 7380 	mov.w	r3, #256	; 0x100
 8001ada:	617b      	str	r3, [r7, #20]
 8001adc:	2302      	movs	r3, #2
 8001ade:	61bb      	str	r3, [r7, #24]
 8001ae0:	2300      	movs	r3, #0
 8001ae2:	61fb      	str	r3, [r7, #28]
 8001ae4:	2300      	movs	r3, #0
 8001ae6:	623b      	str	r3, [r7, #32]
 8001ae8:	2302      	movs	r3, #2
 8001aea:	627b      	str	r3, [r7, #36]	; 0x24
 8001aec:	f107 0314 	add.w	r3, r7, #20
 8001af0:	4619      	mov	r1, r3
 8001af2:	4818      	ldr	r0, [pc, #96]	; (8001b54 <HAL_TIM_MspPostInit+0xfc>)
 8001af4:	f001 fa28 	bl	8002f48 <HAL_GPIO_Init>
 8001af8:	e021      	b.n	8001b3e <HAL_TIM_MspPostInit+0xe6>
 8001afa:	687b      	ldr	r3, [r7, #4]
 8001afc:	681b      	ldr	r3, [r3, #0]
 8001afe:	4a16      	ldr	r2, [pc, #88]	; (8001b58 <HAL_TIM_MspPostInit+0x100>)
 8001b00:	4293      	cmp	r3, r2
 8001b02:	d11c      	bne.n	8001b3e <HAL_TIM_MspPostInit+0xe6>
 8001b04:	4b10      	ldr	r3, [pc, #64]	; (8001b48 <HAL_TIM_MspPostInit+0xf0>)
 8001b06:	69db      	ldr	r3, [r3, #28]
 8001b08:	4a0f      	ldr	r2, [pc, #60]	; (8001b48 <HAL_TIM_MspPostInit+0xf0>)
 8001b0a:	f043 0302 	orr.w	r3, r3, #2
 8001b0e:	61d3      	str	r3, [r2, #28]
 8001b10:	4b0d      	ldr	r3, [pc, #52]	; (8001b48 <HAL_TIM_MspPostInit+0xf0>)
 8001b12:	69db      	ldr	r3, [r3, #28]
 8001b14:	f003 0302 	and.w	r3, r3, #2
 8001b18:	60bb      	str	r3, [r7, #8]
 8001b1a:	68bb      	ldr	r3, [r7, #8]
 8001b1c:	f44f 4380 	mov.w	r3, #16384	; 0x4000
 8001b20:	617b      	str	r3, [r7, #20]
 8001b22:	2302      	movs	r3, #2
 8001b24:	61bb      	str	r3, [r7, #24]
 8001b26:	2300      	movs	r3, #0
 8001b28:	61fb      	str	r3, [r7, #28]
 8001b2a:	2300      	movs	r3, #0
 8001b2c:	623b      	str	r3, [r7, #32]
 8001b2e:	2303      	movs	r3, #3
 8001b30:	627b      	str	r3, [r7, #36]	; 0x24
 8001b32:	f107 0314 	add.w	r3, r7, #20
 8001b36:	4619      	mov	r1, r3
 8001b38:	4808      	ldr	r0, [pc, #32]	; (8001b5c <HAL_TIM_MspPostInit+0x104>)
 8001b3a:	f001 fa05 	bl	8002f48 <HAL_GPIO_Init>
 8001b3e:	bf00      	nop
 8001b40:	3728      	adds	r7, #40	; 0x28
 8001b42:	46bd      	mov	sp, r7
 8001b44:	bd80      	pop	{r7, pc}
 8001b46:	bf00      	nop
 8001b48:	40023800 	.word	0x40023800
 8001b4c:	40020000 	.word	0x40020000
 8001b50:	40000400 	.word	0x40000400
 8001b54:	40020800 	.word	0x40020800
 8001b58:	40010800 	.word	0x40010800
 8001b5c:	40020400 	.word	0x40020400

08001b60 <MX_USART3_UART_Init>:
 8001b60:	b580      	push	{r7, lr}
 8001b62:	af00      	add	r7, sp, #0
 8001b64:	4b11      	ldr	r3, [pc, #68]	; (8001bac <MX_USART3_UART_Init+0x4c>)
 8001b66:	4a12      	ldr	r2, [pc, #72]	; (8001bb0 <MX_USART3_UART_Init+0x50>)
 8001b68:	601a      	str	r2, [r3, #0]
 8001b6a:	4b10      	ldr	r3, [pc, #64]	; (8001bac <MX_USART3_UART_Init+0x4c>)
 8001b6c:	f44f 5216 	mov.w	r2, #9600	; 0x2580
 8001b70:	605a      	str	r2, [r3, #4]
 8001b72:	4b0e      	ldr	r3, [pc, #56]	; (8001bac <MX_USART3_UART_Init+0x4c>)
 8001b74:	2200      	movs	r2, #0
 8001b76:	609a      	str	r2, [r3, #8]
 8001b78:	4b0c      	ldr	r3, [pc, #48]	; (8001bac <MX_USART3_UART_Init+0x4c>)
 8001b7a:	2200      	movs	r2, #0
 8001b7c:	60da      	str	r2, [r3, #12]
 8001b7e:	4b0b      	ldr	r3, [pc, #44]	; (8001bac <MX_USART3_UART_Init+0x4c>)
 8001b80:	2200      	movs	r2, #0
 8001b82:	611a      	str	r2, [r3, #16]
 8001b84:	4b09      	ldr	r3, [pc, #36]	; (8001bac <MX_USART3_UART_Init+0x4c>)
 8001b86:	220c      	movs	r2, #12
 8001b88:	615a      	str	r2, [r3, #20]
 8001b8a:	4b08      	ldr	r3, [pc, #32]	; (8001bac <MX_USART3_UART_Init+0x4c>)
 8001b8c:	2200      	movs	r2, #0
 8001b8e:	619a      	str	r2, [r3, #24]
 8001b90:	4b06      	ldr	r3, [pc, #24]	; (8001bac <MX_USART3_UART_Init+0x4c>)
 8001b92:	2200      	movs	r2, #0
 8001b94:	61da      	str	r2, [r3, #28]
 8001b96:	4805      	ldr	r0, [pc, #20]	; (8001bac <MX_USART3_UART_Init+0x4c>)
 8001b98:	f004 ffba 	bl	8006b10 <HAL_UART_Init>
 8001b9c:	4603      	mov	r3, r0
 8001b9e:	2b00      	cmp	r3, #0
 8001ba0:	d001      	beq.n	8001ba6 <MX_USART3_UART_Init+0x46>
 8001ba2:	f7ff fbe5 	bl	8001370 <Error_Handler>
 8001ba6:	bf00      	nop
 8001ba8:	bd80      	pop	{r7, pc}
 8001baa:	bf00      	nop
 8001bac:	200037d4 	.word	0x200037d4
 8001bb0:	40004800 	.word	0x40004800

08001bb4 <HAL_UART_MspInit>:
 8001bb4:	b580      	push	{r7, lr}
 8001bb6:	b08a      	sub	sp, #40	; 0x28
 8001bb8:	af00      	add	r7, sp, #0
 8001bba:	6078      	str	r0, [r7, #4]
 8001bbc:	f107 0314 	add.w	r3, r7, #20
 8001bc0:	2200      	movs	r2, #0
 8001bc2:	601a      	str	r2, [r3, #0]
 8001bc4:	605a      	str	r2, [r3, #4]
 8001bc6:	609a      	str	r2, [r3, #8]
 8001bc8:	60da      	str	r2, [r3, #12]
 8001bca:	611a      	str	r2, [r3, #16]
 8001bcc:	687b      	ldr	r3, [r7, #4]
 8001bce:	681b      	ldr	r3, [r3, #0]
 8001bd0:	4a3e      	ldr	r2, [pc, #248]	; (8001ccc <HAL_UART_MspInit+0x118>)
 8001bd2:	4293      	cmp	r3, r2
 8001bd4:	d175      	bne.n	8001cc2 <HAL_UART_MspInit+0x10e>
 8001bd6:	4b3e      	ldr	r3, [pc, #248]	; (8001cd0 <HAL_UART_MspInit+0x11c>)
 8001bd8:	6a5b      	ldr	r3, [r3, #36]	; 0x24
 8001bda:	4a3d      	ldr	r2, [pc, #244]	; (8001cd0 <HAL_UART_MspInit+0x11c>)
 8001bdc:	f443 2380 	orr.w	r3, r3, #262144	; 0x40000
 8001be0:	6253      	str	r3, [r2, #36]	; 0x24
 8001be2:	4b3b      	ldr	r3, [pc, #236]	; (8001cd0 <HAL_UART_MspInit+0x11c>)
 8001be4:	6a5b      	ldr	r3, [r3, #36]	; 0x24
 8001be6:	f403 2380 	and.w	r3, r3, #262144	; 0x40000
 8001bea:	613b      	str	r3, [r7, #16]
 8001bec:	693b      	ldr	r3, [r7, #16]
 8001bee:	4b38      	ldr	r3, [pc, #224]	; (8001cd0 <HAL_UART_MspInit+0x11c>)
 8001bf0:	69db      	ldr	r3, [r3, #28]
 8001bf2:	4a37      	ldr	r2, [pc, #220]	; (8001cd0 <HAL_UART_MspInit+0x11c>)
 8001bf4:	f043 0302 	orr.w	r3, r3, #2
 8001bf8:	61d3      	str	r3, [r2, #28]
 8001bfa:	4b35      	ldr	r3, [pc, #212]	; (8001cd0 <HAL_UART_MspInit+0x11c>)
 8001bfc:	69db      	ldr	r3, [r3, #28]
 8001bfe:	f003 0302 	and.w	r3, r3, #2
 8001c02:	60fb      	str	r3, [r7, #12]
 8001c04:	68fb      	ldr	r3, [r7, #12]
 8001c06:	f44f 6340 	mov.w	r3, #3072	; 0xc00
 8001c0a:	617b      	str	r3, [r7, #20]
 8001c0c:	2302      	movs	r3, #2
 8001c0e:	61bb      	str	r3, [r7, #24]
 8001c10:	2300      	movs	r3, #0
 8001c12:	61fb      	str	r3, [r7, #28]
 8001c14:	2303      	movs	r3, #3
 8001c16:	623b      	str	r3, [r7, #32]
 8001c18:	2307      	movs	r3, #7
 8001c1a:	627b      	str	r3, [r7, #36]	; 0x24
 8001c1c:	f107 0314 	add.w	r3, r7, #20
 8001c20:	4619      	mov	r1, r3
 8001c22:	482c      	ldr	r0, [pc, #176]	; (8001cd4 <HAL_UART_MspInit+0x120>)
 8001c24:	f001 f990 	bl	8002f48 <HAL_GPIO_Init>
 8001c28:	4b2b      	ldr	r3, [pc, #172]	; (8001cd8 <HAL_UART_MspInit+0x124>)
 8001c2a:	4a2c      	ldr	r2, [pc, #176]	; (8001cdc <HAL_UART_MspInit+0x128>)
 8001c2c:	601a      	str	r2, [r3, #0]
 8001c2e:	4b2a      	ldr	r3, [pc, #168]	; (8001cd8 <HAL_UART_MspInit+0x124>)
 8001c30:	2200      	movs	r2, #0
 8001c32:	605a      	str	r2, [r3, #4]
 8001c34:	4b28      	ldr	r3, [pc, #160]	; (8001cd8 <HAL_UART_MspInit+0x124>)
 8001c36:	2200      	movs	r2, #0
 8001c38:	609a      	str	r2, [r3, #8]
 8001c3a:	4b27      	ldr	r3, [pc, #156]	; (8001cd8 <HAL_UART_MspInit+0x124>)
 8001c3c:	2280      	movs	r2, #128	; 0x80
 8001c3e:	60da      	str	r2, [r3, #12]
 8001c40:	4b25      	ldr	r3, [pc, #148]	; (8001cd8 <HAL_UART_MspInit+0x124>)
 8001c42:	2200      	movs	r2, #0
 8001c44:	611a      	str	r2, [r3, #16]
 8001c46:	4b24      	ldr	r3, [pc, #144]	; (8001cd8 <HAL_UART_MspInit+0x124>)
 8001c48:	2200      	movs	r2, #0
 8001c4a:	615a      	str	r2, [r3, #20]
 8001c4c:	4b22      	ldr	r3, [pc, #136]	; (8001cd8 <HAL_UART_MspInit+0x124>)
 8001c4e:	2200      	movs	r2, #0
 8001c50:	619a      	str	r2, [r3, #24]
 8001c52:	4b21      	ldr	r3, [pc, #132]	; (8001cd8 <HAL_UART_MspInit+0x124>)
 8001c54:	f44f 5240 	mov.w	r2, #12288	; 0x3000
 8001c58:	61da      	str	r2, [r3, #28]
 8001c5a:	481f      	ldr	r0, [pc, #124]	; (8001cd8 <HAL_UART_MspInit+0x124>)
 8001c5c:	f000 feea 	bl	8002a34 <HAL_DMA_Init>
 8001c60:	4603      	mov	r3, r0
 8001c62:	2b00      	cmp	r3, #0
 8001c64:	d001      	beq.n	8001c6a <HAL_UART_MspInit+0xb6>
 8001c66:	f7ff fb83 	bl	8001370 <Error_Handler>
 8001c6a:	687b      	ldr	r3, [r7, #4]
 8001c6c:	4a1a      	ldr	r2, [pc, #104]	; (8001cd8 <HAL_UART_MspInit+0x124>)
 8001c6e:	635a      	str	r2, [r3, #52]	; 0x34
 8001c70:	4a19      	ldr	r2, [pc, #100]	; (8001cd8 <HAL_UART_MspInit+0x124>)
 8001c72:	687b      	ldr	r3, [r7, #4]
 8001c74:	6253      	str	r3, [r2, #36]	; 0x24
 8001c76:	4b1a      	ldr	r3, [pc, #104]	; (8001ce0 <HAL_UART_MspInit+0x12c>)
 8001c78:	4a1a      	ldr	r2, [pc, #104]	; (8001ce4 <HAL_UART_MspInit+0x130>)
 8001c7a:	601a      	str	r2, [r3, #0]
 8001c7c:	4b18      	ldr	r3, [pc, #96]	; (8001ce0 <HAL_UART_MspInit+0x12c>)
 8001c7e:	2210      	movs	r2, #16
 8001c80:	605a      	str	r2, [r3, #4]
 8001c82:	4b17      	ldr	r3, [pc, #92]	; (8001ce0 <HAL_UART_MspInit+0x12c>)
 8001c84:	2200      	movs	r2, #0
 8001c86:	609a      	str	r2, [r3, #8]
 8001c88:	4b15      	ldr	r3, [pc, #84]	; (8001ce0 <HAL_UART_MspInit+0x12c>)
 8001c8a:	2280      	movs	r2, #128	; 0x80
 8001c8c:	60da      	str	r2, [r3, #12]
 8001c8e:	4b14      	ldr	r3, [pc, #80]	; (8001ce0 <HAL_UART_MspInit+0x12c>)
 8001c90:	2200      	movs	r2, #0
 8001c92:	611a      	str	r2, [r3, #16]
 8001c94:	4b12      	ldr	r3, [pc, #72]	; (8001ce0 <HAL_UART_MspInit+0x12c>)
 8001c96:	2200      	movs	r2, #0
 8001c98:	615a      	str	r2, [r3, #20]
 8001c9a:	4b11      	ldr	r3, [pc, #68]	; (8001ce0 <HAL_UART_MspInit+0x12c>)
 8001c9c:	2200      	movs	r2, #0
 8001c9e:	619a      	str	r2, [r3, #24]
 8001ca0:	4b0f      	ldr	r3, [pc, #60]	; (8001ce0 <HAL_UART_MspInit+0x12c>)
 8001ca2:	2200      	movs	r2, #0
 8001ca4:	61da      	str	r2, [r3, #28]
 8001ca6:	480e      	ldr	r0, [pc, #56]	; (8001ce0 <HAL_UART_MspInit+0x12c>)
 8001ca8:	f000 fec4 	bl	8002a34 <HAL_DMA_Init>
 8001cac:	4603      	mov	r3, r0
 8001cae:	2b00      	cmp	r3, #0
 8001cb0:	d001      	beq.n	8001cb6 <HAL_UART_MspInit+0x102>
 8001cb2:	f7ff fb5d 	bl	8001370 <Error_Handler>
 8001cb6:	687b      	ldr	r3, [r7, #4]
 8001cb8:	4a09      	ldr	r2, [pc, #36]	; (8001ce0 <HAL_UART_MspInit+0x12c>)
 8001cba:	631a      	str	r2, [r3, #48]	; 0x30
 8001cbc:	4a08      	ldr	r2, [pc, #32]	; (8001ce0 <HAL_UART_MspInit+0x12c>)
 8001cbe:	687b      	ldr	r3, [r7, #4]
 8001cc0:	6253      	str	r3, [r2, #36]	; 0x24
 8001cc2:	bf00      	nop
 8001cc4:	3728      	adds	r7, #40	; 0x28
 8001cc6:	46bd      	mov	sp, r7
 8001cc8:	bd80      	pop	{r7, pc}
 8001cca:	bf00      	nop
 8001ccc:	40004800 	.word	0x40004800
 8001cd0:	40023800 	.word	0x40023800
 8001cd4:	40020400 	.word	0x40020400
 8001cd8:	20003790 	.word	0x20003790
 8001cdc:	40026030 	.word	0x40026030
 8001ce0:	20003814 	.word	0x20003814
 8001ce4:	4002601c 	.word	0x4002601c

08001ce8 <Reset_Handler>:
 8001ce8:	2100      	movs	r1, #0
 8001cea:	e003      	b.n	8001cf4 <LoopCopyDataInit>

08001cec <CopyDataInit>:
 8001cec:	4b0b      	ldr	r3, [pc, #44]	; (8001d1c <LoopFillZerobss+0x14>)
 8001cee:	585b      	ldr	r3, [r3, r1]
 8001cf0:	5043      	str	r3, [r0, r1]
 8001cf2:	3104      	adds	r1, #4

08001cf4 <LoopCopyDataInit>:
 8001cf4:	480a      	ldr	r0, [pc, #40]	; (8001d20 <LoopFillZerobss+0x18>)
 8001cf6:	4b0b      	ldr	r3, [pc, #44]	; (8001d24 <LoopFillZerobss+0x1c>)
 8001cf8:	1842      	adds	r2, r0, r1
 8001cfa:	429a      	cmp	r2, r3
 8001cfc:	d3f6      	bcc.n	8001cec <CopyDataInit>
 8001cfe:	4a0a      	ldr	r2, [pc, #40]	; (8001d28 <LoopFillZerobss+0x20>)
 8001d00:	e002      	b.n	8001d08 <LoopFillZerobss>

08001d02 <FillZerobss>:
 8001d02:	2300      	movs	r3, #0
 8001d04:	f842 3b04 	str.w	r3, [r2], #4

08001d08 <LoopFillZerobss>:
 8001d08:	4b08      	ldr	r3, [pc, #32]	; (8001d2c <LoopFillZerobss+0x24>)
 8001d0a:	429a      	cmp	r2, r3
 8001d0c:	d3f9      	bcc.n	8001d02 <FillZerobss>
 8001d0e:	f7ff fc17 	bl	8001540 <SystemInit>
 8001d12:	f008 fcef 	bl	800a6f4 <__libc_init_array>
 8001d16:	f7ff fa95 	bl	8001244 <main>
 8001d1a:	4770      	bx	lr
 8001d1c:	0800ab44 	.word	0x0800ab44
 8001d20:	20000000 	.word	0x20000000
 8001d24:	20000010 	.word	0x20000010
 8001d28:	20000010 	.word	0x20000010
 8001d2c:	2000389c 	.word	0x2000389c

08001d30 <ADC1_IRQHandler>:
 8001d30:	e7fe      	b.n	8001d30 <ADC1_IRQHandler>

08001d32 <HAL_Init>:
 8001d32:	b580      	push	{r7, lr}
 8001d34:	b082      	sub	sp, #8
 8001d36:	af00      	add	r7, sp, #0
 8001d38:	2300      	movs	r3, #0
 8001d3a:	71fb      	strb	r3, [r7, #7]
 8001d3c:	2003      	movs	r0, #3
 8001d3e:	f000 fe15 	bl	800296c <HAL_NVIC_SetPriorityGrouping>
 8001d42:	2000      	movs	r0, #0
 8001d44:	f7ff fb58 	bl	80013f8 <HAL_InitTick>
 8001d48:	4603      	mov	r3, r0
 8001d4a:	2b00      	cmp	r3, #0
 8001d4c:	d002      	beq.n	8001d54 <HAL_Init+0x22>
 8001d4e:	2301      	movs	r3, #1
 8001d50:	71fb      	strb	r3, [r7, #7]
 8001d52:	e001      	b.n	8001d58 <HAL_Init+0x26>
 8001d54:	f7ff fb1c 	bl	8001390 <HAL_MspInit>
 8001d58:	79fb      	ldrb	r3, [r7, #7]
 8001d5a:	4618      	mov	r0, r3
 8001d5c:	3708      	adds	r7, #8
 8001d5e:	46bd      	mov	sp, r7
 8001d60:	bd80      	pop	{r7, pc}
	...

08001d64 <HAL_IncTick>:
 8001d64:	b480      	push	{r7}
 8001d66:	af00      	add	r7, sp, #0
 8001d68:	4b05      	ldr	r3, [pc, #20]	; (8001d80 <HAL_IncTick+0x1c>)
 8001d6a:	681a      	ldr	r2, [r3, #0]
 8001d6c:	4b05      	ldr	r3, [pc, #20]	; (8001d84 <HAL_IncTick+0x20>)
 8001d6e:	681b      	ldr	r3, [r3, #0]
 8001d70:	4413      	add	r3, r2
 8001d72:	4a03      	ldr	r2, [pc, #12]	; (8001d80 <HAL_IncTick+0x1c>)
 8001d74:	6013      	str	r3, [r2, #0]
 8001d76:	bf00      	nop
 8001d78:	46bd      	mov	sp, r7
 8001d7a:	bc80      	pop	{r7}
 8001d7c:	4770      	bx	lr
 8001d7e:	bf00      	nop
 8001d80:	20003858 	.word	0x20003858
 8001d84:	20000008 	.word	0x20000008

08001d88 <HAL_GetTick>:
 8001d88:	b480      	push	{r7}
 8001d8a:	af00      	add	r7, sp, #0
 8001d8c:	4b02      	ldr	r3, [pc, #8]	; (8001d98 <HAL_GetTick+0x10>)
 8001d8e:	681b      	ldr	r3, [r3, #0]
 8001d90:	4618      	mov	r0, r3
 8001d92:	46bd      	mov	sp, r7
 8001d94:	bc80      	pop	{r7}
 8001d96:	4770      	bx	lr
 8001d98:	20003858 	.word	0x20003858

08001d9c <HAL_ADC_Init>:
 8001d9c:	b580      	push	{r7, lr}
 8001d9e:	b08e      	sub	sp, #56	; 0x38
 8001da0:	af00      	add	r7, sp, #0
 8001da2:	6078      	str	r0, [r7, #4]
 8001da4:	2300      	movs	r3, #0
 8001da6:	f887 3037 	strb.w	r3, [r7, #55]	; 0x37
 8001daa:	2300      	movs	r3, #0
 8001dac:	633b      	str	r3, [r7, #48]	; 0x30
 8001dae:	2300      	movs	r3, #0
 8001db0:	62fb      	str	r3, [r7, #44]	; 0x2c
 8001db2:	687b      	ldr	r3, [r7, #4]
 8001db4:	2b00      	cmp	r3, #0
 8001db6:	d101      	bne.n	8001dbc <HAL_ADC_Init+0x20>
 8001db8:	2301      	movs	r3, #1
 8001dba:	e282      	b.n	80022c2 <HAL_ADC_Init+0x526>
 8001dbc:	687b      	ldr	r3, [r7, #4]
 8001dbe:	681b      	ldr	r3, [r3, #0]
 8001dc0:	4a9d      	ldr	r2, [pc, #628]	; (8002038 <HAL_ADC_Init+0x29c>)
 8001dc2:	4293      	cmp	r3, r2
 8001dc4:	d004      	beq.n	8001dd0 <HAL_ADC_Init+0x34>
 8001dc6:	f240 11bd 	movw	r1, #445	; 0x1bd
 8001dca:	489c      	ldr	r0, [pc, #624]	; (800203c <HAL_ADC_Init+0x2a0>)
 8001dcc:	f7ff fad6 	bl	800137c <assert_failed>
 8001dd0:	687b      	ldr	r3, [r7, #4]
 8001dd2:	685b      	ldr	r3, [r3, #4]
 8001dd4:	2b00      	cmp	r3, #0
 8001dd6:	d00e      	beq.n	8001df6 <HAL_ADC_Init+0x5a>
 8001dd8:	687b      	ldr	r3, [r7, #4]
 8001dda:	685b      	ldr	r3, [r3, #4]
 8001ddc:	f5b3 3f80 	cmp.w	r3, #65536	; 0x10000
 8001de0:	d009      	beq.n	8001df6 <HAL_ADC_Init+0x5a>
 8001de2:	687b      	ldr	r3, [r7, #4]
 8001de4:	685b      	ldr	r3, [r3, #4]
 8001de6:	f5b3 3f00 	cmp.w	r3, #131072	; 0x20000
 8001dea:	d004      	beq.n	8001df6 <HAL_ADC_Init+0x5a>
 8001dec:	f44f 71df 	mov.w	r1, #446	; 0x1be
 8001df0:	4892      	ldr	r0, [pc, #584]	; (800203c <HAL_ADC_Init+0x2a0>)
 8001df2:	f7ff fac3 	bl	800137c <assert_failed>
 8001df6:	687b      	ldr	r3, [r7, #4]
 8001df8:	689b      	ldr	r3, [r3, #8]
 8001dfa:	2b00      	cmp	r3, #0
 8001dfc:	d013      	beq.n	8001e26 <HAL_ADC_Init+0x8a>
 8001dfe:	687b      	ldr	r3, [r7, #4]
 8001e00:	689b      	ldr	r3, [r3, #8]
 8001e02:	f1b3 7f80 	cmp.w	r3, #16777216	; 0x1000000
 8001e06:	d00e      	beq.n	8001e26 <HAL_ADC_Init+0x8a>
 8001e08:	687b      	ldr	r3, [r7, #4]
 8001e0a:	689b      	ldr	r3, [r3, #8]
 8001e0c:	f1b3 7f00 	cmp.w	r3, #33554432	; 0x2000000
 8001e10:	d009      	beq.n	8001e26 <HAL_ADC_Init+0x8a>
 8001e12:	687b      	ldr	r3, [r7, #4]
 8001e14:	689b      	ldr	r3, [r3, #8]
 8001e16:	f1b3 7f40 	cmp.w	r3, #50331648	; 0x3000000
 8001e1a:	d004      	beq.n	8001e26 <HAL_ADC_Init+0x8a>
 8001e1c:	f240 11bf 	movw	r1, #447	; 0x1bf
 8001e20:	4886      	ldr	r0, [pc, #536]	; (800203c <HAL_ADC_Init+0x2a0>)
 8001e22:	f7ff faab 	bl	800137c <assert_failed>
 8001e26:	687b      	ldr	r3, [r7, #4]
 8001e28:	68db      	ldr	r3, [r3, #12]
 8001e2a:	2b00      	cmp	r3, #0
 8001e2c:	d009      	beq.n	8001e42 <HAL_ADC_Init+0xa6>
 8001e2e:	687b      	ldr	r3, [r7, #4]
 8001e30:	68db      	ldr	r3, [r3, #12]
 8001e32:	f5b3 6f00 	cmp.w	r3, #2048	; 0x800
 8001e36:	d004      	beq.n	8001e42 <HAL_ADC_Init+0xa6>
 8001e38:	f44f 71e0 	mov.w	r1, #448	; 0x1c0
 8001e3c:	487f      	ldr	r0, [pc, #508]	; (800203c <HAL_ADC_Init+0x2a0>)
 8001e3e:	f7ff fa9d 	bl	800137c <assert_failed>
 8001e42:	687b      	ldr	r3, [r7, #4]
 8001e44:	691b      	ldr	r3, [r3, #16]
 8001e46:	2b00      	cmp	r3, #0
 8001e48:	d009      	beq.n	8001e5e <HAL_ADC_Init+0xc2>
 8001e4a:	687b      	ldr	r3, [r7, #4]
 8001e4c:	691b      	ldr	r3, [r3, #16]
 8001e4e:	f5b3 7f80 	cmp.w	r3, #256	; 0x100
 8001e52:	d004      	beq.n	8001e5e <HAL_ADC_Init+0xc2>
 8001e54:	f240 11c1 	movw	r1, #449	; 0x1c1
 8001e58:	4878      	ldr	r0, [pc, #480]	; (800203c <HAL_ADC_Init+0x2a0>)
 8001e5a:	f7ff fa8f 	bl	800137c <assert_failed>
 8001e5e:	687b      	ldr	r3, [r7, #4]
 8001e60:	695b      	ldr	r3, [r3, #20]
 8001e62:	f5b3 6f80 	cmp.w	r3, #1024	; 0x400
 8001e66:	d008      	beq.n	8001e7a <HAL_ADC_Init+0xde>
 8001e68:	687b      	ldr	r3, [r7, #4]
 8001e6a:	695b      	ldr	r3, [r3, #20]
 8001e6c:	2b00      	cmp	r3, #0
 8001e6e:	d004      	beq.n	8001e7a <HAL_ADC_Init+0xde>
 8001e70:	f44f 71e1 	mov.w	r1, #450	; 0x1c2
 8001e74:	4871      	ldr	r0, [pc, #452]	; (800203c <HAL_ADC_Init+0x2a0>)
 8001e76:	f7ff fa81 	bl	800137c <assert_failed>
 8001e7a:	687b      	ldr	r3, [r7, #4]
 8001e7c:	699b      	ldr	r3, [r3, #24]
 8001e7e:	2b00      	cmp	r3, #0
 8001e80:	d020      	beq.n	8001ec4 <HAL_ADC_Init+0x128>
 8001e82:	687b      	ldr	r3, [r7, #4]
 8001e84:	699b      	ldr	r3, [r3, #24]
 8001e86:	2b10      	cmp	r3, #16
 8001e88:	d01c      	beq.n	8001ec4 <HAL_ADC_Init+0x128>
 8001e8a:	687b      	ldr	r3, [r7, #4]
 8001e8c:	699b      	ldr	r3, [r3, #24]
 8001e8e:	2b20      	cmp	r3, #32
 8001e90:	d018      	beq.n	8001ec4 <HAL_ADC_Init+0x128>
 8001e92:	687b      	ldr	r3, [r7, #4]
 8001e94:	699b      	ldr	r3, [r3, #24]
 8001e96:	2b30      	cmp	r3, #48	; 0x30
 8001e98:	d014      	beq.n	8001ec4 <HAL_ADC_Init+0x128>
 8001e9a:	687b      	ldr	r3, [r7, #4]
 8001e9c:	699b      	ldr	r3, [r3, #24]
 8001e9e:	2b40      	cmp	r3, #64	; 0x40
 8001ea0:	d010      	beq.n	8001ec4 <HAL_ADC_Init+0x128>
 8001ea2:	687b      	ldr	r3, [r7, #4]
 8001ea4:	699b      	ldr	r3, [r3, #24]
 8001ea6:	2b50      	cmp	r3, #80	; 0x50
 8001ea8:	d00c      	beq.n	8001ec4 <HAL_ADC_Init+0x128>
 8001eaa:	687b      	ldr	r3, [r7, #4]
 8001eac:	699b      	ldr	r3, [r3, #24]
 8001eae:	2b60      	cmp	r3, #96	; 0x60
 8001eb0:	d008      	beq.n	8001ec4 <HAL_ADC_Init+0x128>
 8001eb2:	687b      	ldr	r3, [r7, #4]
 8001eb4:	699b      	ldr	r3, [r3, #24]
 8001eb6:	2b70      	cmp	r3, #112	; 0x70
 8001eb8:	d004      	beq.n	8001ec4 <HAL_ADC_Init+0x128>
 8001eba:	f240 11c3 	movw	r1, #451	; 0x1c3
 8001ebe:	485f      	ldr	r0, [pc, #380]	; (800203c <HAL_ADC_Init+0x2a0>)
 8001ec0:	f7ff fa5c 	bl	800137c <assert_failed>
 8001ec4:	687b      	ldr	r3, [r7, #4]
 8001ec6:	69db      	ldr	r3, [r3, #28]
 8001ec8:	2b00      	cmp	r3, #0
 8001eca:	d013      	beq.n	8001ef4 <HAL_ADC_Init+0x158>
 8001ecc:	687b      	ldr	r3, [r7, #4]
 8001ece:	69db      	ldr	r3, [r3, #28]
 8001ed0:	f5b3 3f00 	cmp.w	r3, #131072	; 0x20000
 8001ed4:	d00e      	beq.n	8001ef4 <HAL_ADC_Init+0x158>
 8001ed6:	687b      	ldr	r3, [r7, #4]
 8001ed8:	69db      	ldr	r3, [r3, #28]
 8001eda:	f5b3 3f80 	cmp.w	r3, #65536	; 0x10000
 8001ede:	d009      	beq.n	8001ef4 <HAL_ADC_Init+0x158>
 8001ee0:	687b      	ldr	r3, [r7, #4]
 8001ee2:	69db      	ldr	r3, [r3, #28]
 8001ee4:	f5b3 3f40 	cmp.w	r3, #196608	; 0x30000
 8001ee8:	d004      	beq.n	8001ef4 <HAL_ADC_Init+0x158>
 8001eea:	f44f 71e2 	mov.w	r1, #452	; 0x1c4
 8001eee:	4853      	ldr	r0, [pc, #332]	; (800203c <HAL_ADC_Init+0x2a0>)
 8001ef0:	f7ff fa44 	bl	800137c <assert_failed>
 8001ef4:	687b      	ldr	r3, [r7, #4]
 8001ef6:	6a1b      	ldr	r3, [r3, #32]
 8001ef8:	2b00      	cmp	r3, #0
 8001efa:	d008      	beq.n	8001f0e <HAL_ADC_Init+0x172>
 8001efc:	687b      	ldr	r3, [r7, #4]
 8001efe:	6a1b      	ldr	r3, [r3, #32]
 8001f00:	2b04      	cmp	r3, #4
 8001f02:	d004      	beq.n	8001f0e <HAL_ADC_Init+0x172>
 8001f04:	f240 11c5 	movw	r1, #453	; 0x1c5
 8001f08:	484c      	ldr	r0, [pc, #304]	; (800203c <HAL_ADC_Init+0x2a0>)
 8001f0a:	f7ff fa37 	bl	800137c <assert_failed>
 8001f0e:	687b      	ldr	r3, [r7, #4]
 8001f10:	f893 3024 	ldrb.w	r3, [r3, #36]	; 0x24
 8001f14:	2b00      	cmp	r3, #0
 8001f16:	d009      	beq.n	8001f2c <HAL_ADC_Init+0x190>
 8001f18:	687b      	ldr	r3, [r7, #4]
 8001f1a:	f893 3024 	ldrb.w	r3, [r3, #36]	; 0x24
 8001f1e:	2b01      	cmp	r3, #1
 8001f20:	d004      	beq.n	8001f2c <HAL_ADC_Init+0x190>
 8001f22:	f44f 71e3 	mov.w	r1, #454	; 0x1c6
 8001f26:	4845      	ldr	r0, [pc, #276]	; (800203c <HAL_ADC_Init+0x2a0>)
 8001f28:	f7ff fa28 	bl	800137c <assert_failed>
 8001f2c:	687b      	ldr	r3, [r7, #4]
 8001f2e:	6b5b      	ldr	r3, [r3, #52]	; 0x34
 8001f30:	f1b3 7f00 	cmp.w	r3, #33554432	; 0x2000000
 8001f34:	d03e      	beq.n	8001fb4 <HAL_ADC_Init+0x218>
 8001f36:	687b      	ldr	r3, [r7, #4]
 8001f38:	6b5b      	ldr	r3, [r3, #52]	; 0x34
 8001f3a:	f1b3 7f40 	cmp.w	r3, #50331648	; 0x3000000
 8001f3e:	d039      	beq.n	8001fb4 <HAL_ADC_Init+0x218>
 8001f40:	687b      	ldr	r3, [r7, #4]
 8001f42:	6b5b      	ldr	r3, [r3, #52]	; 0x34
 8001f44:	f1b3 6fc0 	cmp.w	r3, #100663296	; 0x6000000
 8001f48:	d034      	beq.n	8001fb4 <HAL_ADC_Init+0x218>
 8001f4a:	687b      	ldr	r3, [r7, #4]
 8001f4c:	6b5b      	ldr	r3, [r3, #52]	; 0x34
 8001f4e:	f1b3 6fe0 	cmp.w	r3, #117440512	; 0x7000000
 8001f52:	d02f      	beq.n	8001fb4 <HAL_ADC_Init+0x218>
 8001f54:	687b      	ldr	r3, [r7, #4]
 8001f56:	6b5b      	ldr	r3, [r3, #52]	; 0x34
 8001f58:	f1b3 6f00 	cmp.w	r3, #134217728	; 0x8000000
 8001f5c:	d02a      	beq.n	8001fb4 <HAL_ADC_Init+0x218>
 8001f5e:	687b      	ldr	r3, [r7, #4]
 8001f60:	6b5b      	ldr	r3, [r3, #52]	; 0x34
 8001f62:	f1b3 6f80 	cmp.w	r3, #67108864	; 0x4000000
 8001f66:	d025      	beq.n	8001fb4 <HAL_ADC_Init+0x218>
 8001f68:	687b      	ldr	r3, [r7, #4]
 8001f6a:	6b5b      	ldr	r3, [r3, #52]	; 0x34
 8001f6c:	f1b3 6fa0 	cmp.w	r3, #83886080	; 0x5000000
 8001f70:	d020      	beq.n	8001fb4 <HAL_ADC_Init+0x218>
 8001f72:	687b      	ldr	r3, [r7, #4]
 8001f74:	6b5b      	ldr	r3, [r3, #52]	; 0x34
 8001f76:	f1b3 6f10 	cmp.w	r3, #150994944	; 0x9000000
 8001f7a:	d01b      	beq.n	8001fb4 <HAL_ADC_Init+0x218>
 8001f7c:	687b      	ldr	r3, [r7, #4]
 8001f7e:	6b5b      	ldr	r3, [r3, #52]	; 0x34
 8001f80:	f1b3 6f20 	cmp.w	r3, #167772160	; 0xa000000
 8001f84:	d016      	beq.n	8001fb4 <HAL_ADC_Init+0x218>
 8001f86:	687b      	ldr	r3, [r7, #4]
 8001f88:	6b5b      	ldr	r3, [r3, #52]	; 0x34
 8001f8a:	2b00      	cmp	r3, #0
 8001f8c:	d012      	beq.n	8001fb4 <HAL_ADC_Init+0x218>
 8001f8e:	687b      	ldr	r3, [r7, #4]
 8001f90:	6b5b      	ldr	r3, [r3, #52]	; 0x34
 8001f92:	f1b3 7f80 	cmp.w	r3, #16777216	; 0x1000000
 8001f96:	d00d      	beq.n	8001fb4 <HAL_ADC_Init+0x218>
 8001f98:	687b      	ldr	r3, [r7, #4]
 8001f9a:	6b5b      	ldr	r3, [r3, #52]	; 0x34
 8001f9c:	f1b3 6f70 	cmp.w	r3, #251658240	; 0xf000000
 8001fa0:	d008      	beq.n	8001fb4 <HAL_ADC_Init+0x218>
 8001fa2:	687b      	ldr	r3, [r7, #4]
 8001fa4:	6b5b      	ldr	r3, [r3, #52]	; 0x34
 8001fa6:	2b10      	cmp	r3, #16
 8001fa8:	d004      	beq.n	8001fb4 <HAL_ADC_Init+0x218>
 8001faa:	f240 11c7 	movw	r1, #455	; 0x1c7
 8001fae:	4823      	ldr	r0, [pc, #140]	; (800203c <HAL_ADC_Init+0x2a0>)
 8001fb0:	f7ff f9e4 	bl	800137c <assert_failed>
 8001fb4:	687b      	ldr	r3, [r7, #4]
 8001fb6:	f893 303c 	ldrb.w	r3, [r3, #60]	; 0x3c
 8001fba:	2b00      	cmp	r3, #0
 8001fbc:	d009      	beq.n	8001fd2 <HAL_ADC_Init+0x236>
 8001fbe:	687b      	ldr	r3, [r7, #4]
 8001fc0:	f893 303c 	ldrb.w	r3, [r3, #60]	; 0x3c
 8001fc4:	2b01      	cmp	r3, #1
 8001fc6:	d004      	beq.n	8001fd2 <HAL_ADC_Init+0x236>
 8001fc8:	f44f 71e4 	mov.w	r1, #456	; 0x1c8
 8001fcc:	481b      	ldr	r0, [pc, #108]	; (800203c <HAL_ADC_Init+0x2a0>)
 8001fce:	f7ff f9d5 	bl	800137c <assert_failed>
 8001fd2:	687b      	ldr	r3, [r7, #4]
 8001fd4:	691b      	ldr	r3, [r3, #16]
 8001fd6:	2b00      	cmp	r3, #0
 8001fd8:	d032      	beq.n	8002040 <HAL_ADC_Init+0x2a4>
 8001fda:	687b      	ldr	r3, [r7, #4]
 8001fdc:	6a9b      	ldr	r3, [r3, #40]	; 0x28
 8001fde:	2b00      	cmp	r3, #0
 8001fe0:	d003      	beq.n	8001fea <HAL_ADC_Init+0x24e>
 8001fe2:	687b      	ldr	r3, [r7, #4]
 8001fe4:	6a9b      	ldr	r3, [r3, #40]	; 0x28
 8001fe6:	2b1c      	cmp	r3, #28
 8001fe8:	d904      	bls.n	8001ff4 <HAL_ADC_Init+0x258>
 8001fea:	f44f 71e6 	mov.w	r1, #460	; 0x1cc
 8001fee:	4813      	ldr	r0, [pc, #76]	; (800203c <HAL_ADC_Init+0x2a0>)
 8001ff0:	f7ff f9c4 	bl	800137c <assert_failed>
 8001ff4:	687b      	ldr	r3, [r7, #4]
 8001ff6:	f893 302c 	ldrb.w	r3, [r3, #44]	; 0x2c
 8001ffa:	2b00      	cmp	r3, #0
 8001ffc:	d009      	beq.n	8002012 <HAL_ADC_Init+0x276>
 8001ffe:	687b      	ldr	r3, [r7, #4]
 8002000:	f893 302c 	ldrb.w	r3, [r3, #44]	; 0x2c
 8002004:	2b01      	cmp	r3, #1
 8002006:	d004      	beq.n	8002012 <HAL_ADC_Init+0x276>
 8002008:	f240 11cd 	movw	r1, #461	; 0x1cd
 800200c:	480b      	ldr	r0, [pc, #44]	; (800203c <HAL_ADC_Init+0x2a0>)
 800200e:	f7ff f9b5 	bl	800137c <assert_failed>
 8002012:	687b      	ldr	r3, [r7, #4]
 8002014:	f893 302c 	ldrb.w	r3, [r3, #44]	; 0x2c
 8002018:	2b00      	cmp	r3, #0
 800201a:	d011      	beq.n	8002040 <HAL_ADC_Init+0x2a4>
 800201c:	687b      	ldr	r3, [r7, #4]
 800201e:	6b1b      	ldr	r3, [r3, #48]	; 0x30
 8002020:	2b00      	cmp	r3, #0
 8002022:	d003      	beq.n	800202c <HAL_ADC_Init+0x290>
 8002024:	687b      	ldr	r3, [r7, #4]
 8002026:	6b1b      	ldr	r3, [r3, #48]	; 0x30
 8002028:	2b08      	cmp	r3, #8
 800202a:	d909      	bls.n	8002040 <HAL_ADC_Init+0x2a4>
 800202c:	f44f 71e8 	mov.w	r1, #464	; 0x1d0
 8002030:	4802      	ldr	r0, [pc, #8]	; (800203c <HAL_ADC_Init+0x2a0>)
 8002032:	f7ff f9a3 	bl	800137c <assert_failed>
 8002036:	e003      	b.n	8002040 <HAL_ADC_Init+0x2a4>
 8002038:	40012400 	.word	0x40012400
 800203c:	0800a820 	.word	0x0800a820
 8002040:	687b      	ldr	r3, [r7, #4]
 8002042:	6b5b      	ldr	r3, [r3, #52]	; 0x34
 8002044:	2b10      	cmp	r3, #16
 8002046:	d017      	beq.n	8002078 <HAL_ADC_Init+0x2dc>
 8002048:	687b      	ldr	r3, [r7, #4]
 800204a:	6b9b      	ldr	r3, [r3, #56]	; 0x38
 800204c:	2b00      	cmp	r3, #0
 800204e:	d013      	beq.n	8002078 <HAL_ADC_Init+0x2dc>
 8002050:	687b      	ldr	r3, [r7, #4]
 8002052:	6b9b      	ldr	r3, [r3, #56]	; 0x38
 8002054:	f1b3 5f80 	cmp.w	r3, #268435456	; 0x10000000
 8002058:	d00e      	beq.n	8002078 <HAL_ADC_Init+0x2dc>
 800205a:	687b      	ldr	r3, [r7, #4]
 800205c:	6b9b      	ldr	r3, [r3, #56]	; 0x38
 800205e:	f1b3 5f00 	cmp.w	r3, #536870912	; 0x20000000
 8002062:	d009      	beq.n	8002078 <HAL_ADC_Init+0x2dc>
 8002064:	687b      	ldr	r3, [r7, #4]
 8002066:	6b9b      	ldr	r3, [r3, #56]	; 0x38
 8002068:	f1b3 5f40 	cmp.w	r3, #805306368	; 0x30000000
 800206c:	d004      	beq.n	8002078 <HAL_ADC_Init+0x2dc>
 800206e:	f44f 71eb 	mov.w	r1, #470	; 0x1d6
 8002072:	4896      	ldr	r0, [pc, #600]	; (80022cc <HAL_ADC_Init+0x530>)
 8002074:	f7ff f982 	bl	800137c <assert_failed>
 8002078:	687b      	ldr	r3, [r7, #4]
 800207a:	6cdb      	ldr	r3, [r3, #76]	; 0x4c
 800207c:	2b00      	cmp	r3, #0
 800207e:	d115      	bne.n	80020ac <HAL_ADC_Init+0x310>
 8002080:	687b      	ldr	r3, [r7, #4]
 8002082:	2200      	movs	r2, #0
 8002084:	651a      	str	r2, [r3, #80]	; 0x50
 8002086:	687b      	ldr	r3, [r7, #4]
 8002088:	2200      	movs	r2, #0
 800208a:	f883 2048 	strb.w	r2, [r3, #72]	; 0x48
 800208e:	4b90      	ldr	r3, [pc, #576]	; (80022d0 <HAL_ADC_Init+0x534>)
 8002090:	6a1b      	ldr	r3, [r3, #32]
 8002092:	4a8f      	ldr	r2, [pc, #572]	; (80022d0 <HAL_ADC_Init+0x534>)
 8002094:	f043 0301 	orr.w	r3, r3, #1
 8002098:	6213      	str	r3, [r2, #32]
 800209a:	4b8d      	ldr	r3, [pc, #564]	; (80022d0 <HAL_ADC_Init+0x534>)
 800209c:	6a1b      	ldr	r3, [r3, #32]
 800209e:	f003 0301 	and.w	r3, r3, #1
 80020a2:	60bb      	str	r3, [r7, #8]
 80020a4:	68bb      	ldr	r3, [r7, #8]
 80020a6:	6878      	ldr	r0, [r7, #4]
 80020a8:	f7fe fe78 	bl	8000d9c <HAL_ADC_MspInit>
 80020ac:	687b      	ldr	r3, [r7, #4]
 80020ae:	6cdb      	ldr	r3, [r3, #76]	; 0x4c
 80020b0:	f003 0310 	and.w	r3, r3, #16
 80020b4:	2b00      	cmp	r3, #0
 80020b6:	f040 80ff 	bne.w	80022b8 <HAL_ADC_Init+0x51c>
 80020ba:	687b      	ldr	r3, [r7, #4]
 80020bc:	6cdb      	ldr	r3, [r3, #76]	; 0x4c
 80020be:	f423 5388 	bic.w	r3, r3, #4352	; 0x1100
 80020c2:	f023 0302 	bic.w	r3, r3, #2
 80020c6:	f043 0202 	orr.w	r2, r3, #2
 80020ca:	687b      	ldr	r3, [r7, #4]
 80020cc:	64da      	str	r2, [r3, #76]	; 0x4c
 80020ce:	4b81      	ldr	r3, [pc, #516]	; (80022d4 <HAL_ADC_Init+0x538>)
 80020d0:	685b      	ldr	r3, [r3, #4]
 80020d2:	f423 3240 	bic.w	r2, r3, #196608	; 0x30000
 80020d6:	687b      	ldr	r3, [r7, #4]
 80020d8:	685b      	ldr	r3, [r3, #4]
 80020da:	497e      	ldr	r1, [pc, #504]	; (80022d4 <HAL_ADC_Init+0x538>)
 80020dc:	4313      	orrs	r3, r2
 80020de:	604b      	str	r3, [r1, #4]
 80020e0:	687b      	ldr	r3, [r7, #4]
 80020e2:	68da      	ldr	r2, [r3, #12]
 80020e4:	687b      	ldr	r3, [r7, #4]
 80020e6:	695b      	ldr	r3, [r3, #20]
 80020e8:	431a      	orrs	r2, r3
 80020ea:	687b      	ldr	r3, [r7, #4]
 80020ec:	f893 303c 	ldrb.w	r3, [r3, #60]	; 0x3c
 80020f0:	4619      	mov	r1, r3
 80020f2:	f44f 7300 	mov.w	r3, #512	; 0x200
 80020f6:	623b      	str	r3, [r7, #32]
 80020f8:	6a3b      	ldr	r3, [r7, #32]
 80020fa:	fa93 f3a3 	rbit	r3, r3
 80020fe:	61fb      	str	r3, [r7, #28]
 8002100:	69fb      	ldr	r3, [r7, #28]
 8002102:	fab3 f383 	clz	r3, r3
 8002106:	b2db      	uxtb	r3, r3
 8002108:	fa01 f303 	lsl.w	r3, r1, r3
 800210c:	431a      	orrs	r2, r3
 800210e:	687b      	ldr	r3, [r7, #4]
 8002110:	6a1b      	ldr	r3, [r3, #32]
 8002112:	431a      	orrs	r2, r3
 8002114:	687b      	ldr	r3, [r7, #4]
 8002116:	f893 3024 	ldrb.w	r3, [r3, #36]	; 0x24
 800211a:	4619      	mov	r1, r3
 800211c:	2302      	movs	r3, #2
 800211e:	62bb      	str	r3, [r7, #40]	; 0x28
 8002120:	6abb      	ldr	r3, [r7, #40]	; 0x28
 8002122:	fa93 f3a3 	rbit	r3, r3
 8002126:	627b      	str	r3, [r7, #36]	; 0x24
 8002128:	6a7b      	ldr	r3, [r7, #36]	; 0x24
 800212a:	fab3 f383 	clz	r3, r3
 800212e:	b2db      	uxtb	r3, r3
 8002130:	fa01 f303 	lsl.w	r3, r1, r3
 8002134:	4313      	orrs	r3, r2
 8002136:	6afa      	ldr	r2, [r7, #44]	; 0x2c
 8002138:	4313      	orrs	r3, r2
 800213a:	62fb      	str	r3, [r7, #44]	; 0x2c
 800213c:	687b      	ldr	r3, [r7, #4]
 800213e:	6b5b      	ldr	r3, [r3, #52]	; 0x34
 8002140:	2b10      	cmp	r3, #16
 8002142:	d007      	beq.n	8002154 <HAL_ADC_Init+0x3b8>
 8002144:	687b      	ldr	r3, [r7, #4]
 8002146:	6b5a      	ldr	r2, [r3, #52]	; 0x34
 8002148:	687b      	ldr	r3, [r7, #4]
 800214a:	6b9b      	ldr	r3, [r3, #56]	; 0x38
 800214c:	4313      	orrs	r3, r2
 800214e:	6afa      	ldr	r2, [r7, #44]	; 0x2c
 8002150:	4313      	orrs	r3, r2
 8002152:	62fb      	str	r3, [r7, #44]	; 0x2c
 8002154:	687b      	ldr	r3, [r7, #4]
 8002156:	681b      	ldr	r3, [r3, #0]
 8002158:	681b      	ldr	r3, [r3, #0]
 800215a:	f003 0340 	and.w	r3, r3, #64	; 0x40
 800215e:	2b40      	cmp	r3, #64	; 0x40
 8002160:	d04f      	beq.n	8002202 <HAL_ADC_Init+0x466>
 8002162:	687b      	ldr	r3, [r7, #4]
 8002164:	699b      	ldr	r3, [r3, #24]
 8002166:	6afa      	ldr	r2, [r7, #44]	; 0x2c
 8002168:	4313      	orrs	r3, r2
 800216a:	62fb      	str	r3, [r7, #44]	; 0x2c
 800216c:	687b      	ldr	r3, [r7, #4]
 800216e:	689a      	ldr	r2, [r3, #8]
 8002170:	687b      	ldr	r3, [r7, #4]
 8002172:	69db      	ldr	r3, [r3, #28]
 8002174:	4313      	orrs	r3, r2
 8002176:	687a      	ldr	r2, [r7, #4]
 8002178:	6912      	ldr	r2, [r2, #16]
 800217a:	f5b2 7f80 	cmp.w	r2, #256	; 0x100
 800217e:	d003      	beq.n	8002188 <HAL_ADC_Init+0x3ec>
 8002180:	687a      	ldr	r2, [r7, #4]
 8002182:	6912      	ldr	r2, [r2, #16]
 8002184:	2a01      	cmp	r2, #1
 8002186:	d102      	bne.n	800218e <HAL_ADC_Init+0x3f2>
 8002188:	f44f 7280 	mov.w	r2, #256	; 0x100
 800218c:	e000      	b.n	8002190 <HAL_ADC_Init+0x3f4>
 800218e:	2200      	movs	r2, #0
 8002190:	4313      	orrs	r3, r2
 8002192:	6b3a      	ldr	r2, [r7, #48]	; 0x30
 8002194:	4313      	orrs	r3, r2
 8002196:	633b      	str	r3, [r7, #48]	; 0x30
 8002198:	687b      	ldr	r3, [r7, #4]
 800219a:	f893 302c 	ldrb.w	r3, [r3, #44]	; 0x2c
 800219e:	2b01      	cmp	r3, #1
 80021a0:	d125      	bne.n	80021ee <HAL_ADC_Init+0x452>
 80021a2:	687b      	ldr	r3, [r7, #4]
 80021a4:	f893 3024 	ldrb.w	r3, [r3, #36]	; 0x24
 80021a8:	2b00      	cmp	r3, #0
 80021aa:	d114      	bne.n	80021d6 <HAL_ADC_Init+0x43a>
 80021ac:	687b      	ldr	r3, [r7, #4]
 80021ae:	6b1b      	ldr	r3, [r3, #48]	; 0x30
 80021b0:	3b01      	subs	r3, #1
 80021b2:	f44f 4260 	mov.w	r2, #57344	; 0xe000
 80021b6:	61ba      	str	r2, [r7, #24]
 80021b8:	69ba      	ldr	r2, [r7, #24]
 80021ba:	fa92 f2a2 	rbit	r2, r2
 80021be:	617a      	str	r2, [r7, #20]
 80021c0:	697a      	ldr	r2, [r7, #20]
 80021c2:	fab2 f282 	clz	r2, r2
 80021c6:	b2d2      	uxtb	r2, r2
 80021c8:	4093      	lsls	r3, r2
 80021ca:	f443 6300 	orr.w	r3, r3, #2048	; 0x800
 80021ce:	6b3a      	ldr	r2, [r7, #48]	; 0x30
 80021d0:	4313      	orrs	r3, r2
 80021d2:	633b      	str	r3, [r7, #48]	; 0x30
 80021d4:	e00b      	b.n	80021ee <HAL_ADC_Init+0x452>
 80021d6:	687b      	ldr	r3, [r7, #4]
 80021d8:	6cdb      	ldr	r3, [r3, #76]	; 0x4c
 80021da:	f043 0220 	orr.w	r2, r3, #32
 80021de:	687b      	ldr	r3, [r7, #4]
 80021e0:	64da      	str	r2, [r3, #76]	; 0x4c
 80021e2:	687b      	ldr	r3, [r7, #4]
 80021e4:	6d1b      	ldr	r3, [r3, #80]	; 0x50
 80021e6:	f043 0201 	orr.w	r2, r3, #1
 80021ea:	687b      	ldr	r3, [r7, #4]
 80021ec:	651a      	str	r2, [r3, #80]	; 0x50
 80021ee:	687b      	ldr	r3, [r7, #4]
 80021f0:	681b      	ldr	r3, [r3, #0]
 80021f2:	685a      	ldr	r2, [r3, #4]
 80021f4:	4b38      	ldr	r3, [pc, #224]	; (80022d8 <HAL_ADC_Init+0x53c>)
 80021f6:	4013      	ands	r3, r2
 80021f8:	687a      	ldr	r2, [r7, #4]
 80021fa:	6812      	ldr	r2, [r2, #0]
 80021fc:	6b39      	ldr	r1, [r7, #48]	; 0x30
 80021fe:	430b      	orrs	r3, r1
 8002200:	6053      	str	r3, [r2, #4]
 8002202:	687b      	ldr	r3, [r7, #4]
 8002204:	681b      	ldr	r3, [r3, #0]
 8002206:	689a      	ldr	r2, [r3, #8]
 8002208:	4b34      	ldr	r3, [pc, #208]	; (80022dc <HAL_ADC_Init+0x540>)
 800220a:	4013      	ands	r3, r2
 800220c:	687a      	ldr	r2, [r7, #4]
 800220e:	6812      	ldr	r2, [r2, #0]
 8002210:	6af9      	ldr	r1, [r7, #44]	; 0x2c
 8002212:	430b      	orrs	r3, r1
 8002214:	6093      	str	r3, [r2, #8]
 8002216:	687b      	ldr	r3, [r7, #4]
 8002218:	691b      	ldr	r3, [r3, #16]
 800221a:	f5b3 7f80 	cmp.w	r3, #256	; 0x100
 800221e:	d003      	beq.n	8002228 <HAL_ADC_Init+0x48c>
 8002220:	687b      	ldr	r3, [r7, #4]
 8002222:	691b      	ldr	r3, [r3, #16]
 8002224:	2b01      	cmp	r3, #1
 8002226:	d119      	bne.n	800225c <HAL_ADC_Init+0x4c0>
 8002228:	687b      	ldr	r3, [r7, #4]
 800222a:	681b      	ldr	r3, [r3, #0]
 800222c:	6b1b      	ldr	r3, [r3, #48]	; 0x30
 800222e:	f023 71f8 	bic.w	r1, r3, #32505856	; 0x1f00000
 8002232:	687b      	ldr	r3, [r7, #4]
 8002234:	6a9b      	ldr	r3, [r3, #40]	; 0x28
 8002236:	3b01      	subs	r3, #1
 8002238:	f04f 72f8 	mov.w	r2, #32505856	; 0x1f00000
 800223c:	613a      	str	r2, [r7, #16]
 800223e:	693a      	ldr	r2, [r7, #16]
 8002240:	fa92 f2a2 	rbit	r2, r2
 8002244:	60fa      	str	r2, [r7, #12]
 8002246:	68fa      	ldr	r2, [r7, #12]
 8002248:	fab2 f282 	clz	r2, r2
 800224c:	b2d2      	uxtb	r2, r2
 800224e:	fa03 f202 	lsl.w	r2, r3, r2
 8002252:	687b      	ldr	r3, [r7, #4]
 8002254:	681b      	ldr	r3, [r3, #0]
 8002256:	430a      	orrs	r2, r1
 8002258:	631a      	str	r2, [r3, #48]	; 0x30
 800225a:	e007      	b.n	800226c <HAL_ADC_Init+0x4d0>
 800225c:	687b      	ldr	r3, [r7, #4]
 800225e:	681b      	ldr	r3, [r3, #0]
 8002260:	6b1a      	ldr	r2, [r3, #48]	; 0x30
 8002262:	687b      	ldr	r3, [r7, #4]
 8002264:	681b      	ldr	r3, [r3, #0]
 8002266:	f022 72f8 	bic.w	r2, r2, #32505856	; 0x1f00000
 800226a:	631a      	str	r2, [r3, #48]	; 0x30
 800226c:	687b      	ldr	r3, [r7, #4]
 800226e:	681b      	ldr	r3, [r3, #0]
 8002270:	689a      	ldr	r2, [r3, #8]
 8002272:	4b1b      	ldr	r3, [pc, #108]	; (80022e0 <HAL_ADC_Init+0x544>)
 8002274:	4013      	ands	r3, r2
 8002276:	6afa      	ldr	r2, [r7, #44]	; 0x2c
 8002278:	429a      	cmp	r2, r3
 800227a:	d10b      	bne.n	8002294 <HAL_ADC_Init+0x4f8>
 800227c:	687b      	ldr	r3, [r7, #4]
 800227e:	2200      	movs	r2, #0
 8002280:	651a      	str	r2, [r3, #80]	; 0x50
 8002282:	687b      	ldr	r3, [r7, #4]
 8002284:	6cdb      	ldr	r3, [r3, #76]	; 0x4c
 8002286:	f023 0303 	bic.w	r3, r3, #3
 800228a:	f043 0201 	orr.w	r2, r3, #1
 800228e:	687b      	ldr	r3, [r7, #4]
 8002290:	64da      	str	r2, [r3, #76]	; 0x4c
 8002292:	e014      	b.n	80022be <HAL_ADC_Init+0x522>
 8002294:	687b      	ldr	r3, [r7, #4]
 8002296:	6cdb      	ldr	r3, [r3, #76]	; 0x4c
 8002298:	f023 0312 	bic.w	r3, r3, #18
 800229c:	f043 0210 	orr.w	r2, r3, #16
 80022a0:	687b      	ldr	r3, [r7, #4]
 80022a2:	64da      	str	r2, [r3, #76]	; 0x4c
 80022a4:	687b      	ldr	r3, [r7, #4]
 80022a6:	6d1b      	ldr	r3, [r3, #80]	; 0x50
 80022a8:	f043 0201 	orr.w	r2, r3, #1
 80022ac:	687b      	ldr	r3, [r7, #4]
 80022ae:	651a      	str	r2, [r3, #80]	; 0x50
 80022b0:	2301      	movs	r3, #1
 80022b2:	f887 3037 	strb.w	r3, [r7, #55]	; 0x37
 80022b6:	e002      	b.n	80022be <HAL_ADC_Init+0x522>
 80022b8:	2301      	movs	r3, #1
 80022ba:	f887 3037 	strb.w	r3, [r7, #55]	; 0x37
 80022be:	f897 3037 	ldrb.w	r3, [r7, #55]	; 0x37
 80022c2:	4618      	mov	r0, r3
 80022c4:	3738      	adds	r7, #56	; 0x38
 80022c6:	46bd      	mov	sp, r7
 80022c8:	bd80      	pop	{r7, pc}
 80022ca:	bf00      	nop
 80022cc:	0800a820 	.word	0x0800a820
 80022d0:	40023800 	.word	0x40023800
 80022d4:	40012700 	.word	0x40012700
 80022d8:	fcfc16ff 	.word	0xfcfc16ff
 80022dc:	c0fff189 	.word	0xc0fff189
 80022e0:	bf80fffe 	.word	0xbf80fffe

080022e4 <HAL_ADC_ConfigChannel>:
 80022e4:	b580      	push	{r7, lr}
 80022e6:	b084      	sub	sp, #16
 80022e8:	af00      	add	r7, sp, #0
 80022ea:	6078      	str	r0, [r7, #4]
 80022ec:	6039      	str	r1, [r7, #0]
 80022ee:	2300      	movs	r3, #0
 80022f0:	73fb      	strb	r3, [r7, #15]
 80022f2:	2300      	movs	r3, #0
 80022f4:	60bb      	str	r3, [r7, #8]
 80022f6:	687b      	ldr	r3, [r7, #4]
 80022f8:	681b      	ldr	r3, [r3, #0]
 80022fa:	4a94      	ldr	r2, [pc, #592]	; (800254c <HAL_ADC_ConfigChannel+0x268>)
 80022fc:	4293      	cmp	r3, r2
 80022fe:	d004      	beq.n	800230a <HAL_ADC_ConfigChannel+0x26>
 8002300:	f240 7191 	movw	r1, #1937	; 0x791
 8002304:	4892      	ldr	r0, [pc, #584]	; (8002550 <HAL_ADC_ConfigChannel+0x26c>)
 8002306:	f7ff f839 	bl	800137c <assert_failed>
 800230a:	683b      	ldr	r3, [r7, #0]
 800230c:	681b      	ldr	r3, [r3, #0]
 800230e:	2b00      	cmp	r3, #0
 8002310:	f000 8081 	beq.w	8002416 <HAL_ADC_ConfigChannel+0x132>
 8002314:	683b      	ldr	r3, [r7, #0]
 8002316:	681b      	ldr	r3, [r3, #0]
 8002318:	2b01      	cmp	r3, #1
 800231a:	d07c      	beq.n	8002416 <HAL_ADC_ConfigChannel+0x132>
 800231c:	683b      	ldr	r3, [r7, #0]
 800231e:	681b      	ldr	r3, [r3, #0]
 8002320:	2b02      	cmp	r3, #2
 8002322:	d078      	beq.n	8002416 <HAL_ADC_ConfigChannel+0x132>
 8002324:	683b      	ldr	r3, [r7, #0]
 8002326:	681b      	ldr	r3, [r3, #0]
 8002328:	2b03      	cmp	r3, #3
 800232a:	d074      	beq.n	8002416 <HAL_ADC_ConfigChannel+0x132>
 800232c:	683b      	ldr	r3, [r7, #0]
 800232e:	681b      	ldr	r3, [r3, #0]
 8002330:	2b04      	cmp	r3, #4
 8002332:	d070      	beq.n	8002416 <HAL_ADC_ConfigChannel+0x132>
 8002334:	683b      	ldr	r3, [r7, #0]
 8002336:	681b      	ldr	r3, [r3, #0]
 8002338:	2b05      	cmp	r3, #5
 800233a:	d06c      	beq.n	8002416 <HAL_ADC_ConfigChannel+0x132>
 800233c:	683b      	ldr	r3, [r7, #0]
 800233e:	681b      	ldr	r3, [r3, #0]
 8002340:	2b06      	cmp	r3, #6
 8002342:	d068      	beq.n	8002416 <HAL_ADC_ConfigChannel+0x132>
 8002344:	683b      	ldr	r3, [r7, #0]
 8002346:	681b      	ldr	r3, [r3, #0]
 8002348:	2b07      	cmp	r3, #7
 800234a:	d064      	beq.n	8002416 <HAL_ADC_ConfigChannel+0x132>
 800234c:	683b      	ldr	r3, [r7, #0]
 800234e:	681b      	ldr	r3, [r3, #0]
 8002350:	2b08      	cmp	r3, #8
 8002352:	d060      	beq.n	8002416 <HAL_ADC_ConfigChannel+0x132>
 8002354:	683b      	ldr	r3, [r7, #0]
 8002356:	681b      	ldr	r3, [r3, #0]
 8002358:	2b09      	cmp	r3, #9
 800235a:	d05c      	beq.n	8002416 <HAL_ADC_ConfigChannel+0x132>
 800235c:	683b      	ldr	r3, [r7, #0]
 800235e:	681b      	ldr	r3, [r3, #0]
 8002360:	2b0a      	cmp	r3, #10
 8002362:	d058      	beq.n	8002416 <HAL_ADC_ConfigChannel+0x132>
 8002364:	683b      	ldr	r3, [r7, #0]
 8002366:	681b      	ldr	r3, [r3, #0]
 8002368:	2b0b      	cmp	r3, #11
 800236a:	d054      	beq.n	8002416 <HAL_ADC_ConfigChannel+0x132>
 800236c:	683b      	ldr	r3, [r7, #0]
 800236e:	681b      	ldr	r3, [r3, #0]
 8002370:	2b0c      	cmp	r3, #12
 8002372:	d050      	beq.n	8002416 <HAL_ADC_ConfigChannel+0x132>
 8002374:	683b      	ldr	r3, [r7, #0]
 8002376:	681b      	ldr	r3, [r3, #0]
 8002378:	2b0d      	cmp	r3, #13
 800237a:	d04c      	beq.n	8002416 <HAL_ADC_ConfigChannel+0x132>
 800237c:	683b      	ldr	r3, [r7, #0]
 800237e:	681b      	ldr	r3, [r3, #0]
 8002380:	2b0e      	cmp	r3, #14
 8002382:	d048      	beq.n	8002416 <HAL_ADC_ConfigChannel+0x132>
 8002384:	683b      	ldr	r3, [r7, #0]
 8002386:	681b      	ldr	r3, [r3, #0]
 8002388:	2b0f      	cmp	r3, #15
 800238a:	d044      	beq.n	8002416 <HAL_ADC_ConfigChannel+0x132>
 800238c:	683b      	ldr	r3, [r7, #0]
 800238e:	681b      	ldr	r3, [r3, #0]
 8002390:	2b10      	cmp	r3, #16
 8002392:	d040      	beq.n	8002416 <HAL_ADC_ConfigChannel+0x132>
 8002394:	683b      	ldr	r3, [r7, #0]
 8002396:	681b      	ldr	r3, [r3, #0]
 8002398:	2b11      	cmp	r3, #17
 800239a:	d03c      	beq.n	8002416 <HAL_ADC_ConfigChannel+0x132>
 800239c:	683b      	ldr	r3, [r7, #0]
 800239e:	681b      	ldr	r3, [r3, #0]
 80023a0:	2b12      	cmp	r3, #18
 80023a2:	d038      	beq.n	8002416 <HAL_ADC_ConfigChannel+0x132>
 80023a4:	683b      	ldr	r3, [r7, #0]
 80023a6:	681b      	ldr	r3, [r3, #0]
 80023a8:	2b13      	cmp	r3, #19
 80023aa:	d034      	beq.n	8002416 <HAL_ADC_ConfigChannel+0x132>
 80023ac:	683b      	ldr	r3, [r7, #0]
 80023ae:	681b      	ldr	r3, [r3, #0]
 80023b0:	2b14      	cmp	r3, #20
 80023b2:	d030      	beq.n	8002416 <HAL_ADC_ConfigChannel+0x132>
 80023b4:	683b      	ldr	r3, [r7, #0]
 80023b6:	681b      	ldr	r3, [r3, #0]
 80023b8:	2b15      	cmp	r3, #21
 80023ba:	d02c      	beq.n	8002416 <HAL_ADC_ConfigChannel+0x132>
 80023bc:	683b      	ldr	r3, [r7, #0]
 80023be:	681b      	ldr	r3, [r3, #0]
 80023c0:	2b16      	cmp	r3, #22
 80023c2:	d028      	beq.n	8002416 <HAL_ADC_ConfigChannel+0x132>
 80023c4:	683b      	ldr	r3, [r7, #0]
 80023c6:	681b      	ldr	r3, [r3, #0]
 80023c8:	2b17      	cmp	r3, #23
 80023ca:	d024      	beq.n	8002416 <HAL_ADC_ConfigChannel+0x132>
 80023cc:	683b      	ldr	r3, [r7, #0]
 80023ce:	681b      	ldr	r3, [r3, #0]
 80023d0:	2b18      	cmp	r3, #24
 80023d2:	d020      	beq.n	8002416 <HAL_ADC_ConfigChannel+0x132>
 80023d4:	683b      	ldr	r3, [r7, #0]
 80023d6:	681b      	ldr	r3, [r3, #0]
 80023d8:	2b19      	cmp	r3, #25
 80023da:	d01c      	beq.n	8002416 <HAL_ADC_ConfigChannel+0x132>
 80023dc:	683b      	ldr	r3, [r7, #0]
 80023de:	681b      	ldr	r3, [r3, #0]
 80023e0:	2b1a      	cmp	r3, #26
 80023e2:	d018      	beq.n	8002416 <HAL_ADC_ConfigChannel+0x132>
 80023e4:	683b      	ldr	r3, [r7, #0]
 80023e6:	681b      	ldr	r3, [r3, #0]
 80023e8:	2b1b      	cmp	r3, #27
 80023ea:	d014      	beq.n	8002416 <HAL_ADC_ConfigChannel+0x132>
 80023ec:	683b      	ldr	r3, [r7, #0]
 80023ee:	681b      	ldr	r3, [r3, #0]
 80023f0:	2b1c      	cmp	r3, #28
 80023f2:	d010      	beq.n	8002416 <HAL_ADC_ConfigChannel+0x132>
 80023f4:	683b      	ldr	r3, [r7, #0]
 80023f6:	681b      	ldr	r3, [r3, #0]
 80023f8:	2b1d      	cmp	r3, #29
 80023fa:	d00c      	beq.n	8002416 <HAL_ADC_ConfigChannel+0x132>
 80023fc:	683b      	ldr	r3, [r7, #0]
 80023fe:	681b      	ldr	r3, [r3, #0]
 8002400:	2b1e      	cmp	r3, #30
 8002402:	d008      	beq.n	8002416 <HAL_ADC_ConfigChannel+0x132>
 8002404:	683b      	ldr	r3, [r7, #0]
 8002406:	681b      	ldr	r3, [r3, #0]
 8002408:	2b1f      	cmp	r3, #31
 800240a:	d004      	beq.n	8002416 <HAL_ADC_ConfigChannel+0x132>
 800240c:	f240 7192 	movw	r1, #1938	; 0x792
 8002410:	484f      	ldr	r0, [pc, #316]	; (8002550 <HAL_ADC_ConfigChannel+0x26c>)
 8002412:	f7fe ffb3 	bl	800137c <assert_failed>
 8002416:	683b      	ldr	r3, [r7, #0]
 8002418:	685b      	ldr	r3, [r3, #4]
 800241a:	2b01      	cmp	r3, #1
 800241c:	d070      	beq.n	8002500 <HAL_ADC_ConfigChannel+0x21c>
 800241e:	683b      	ldr	r3, [r7, #0]
 8002420:	685b      	ldr	r3, [r3, #4]
 8002422:	2b02      	cmp	r3, #2
 8002424:	d06c      	beq.n	8002500 <HAL_ADC_ConfigChannel+0x21c>
 8002426:	683b      	ldr	r3, [r7, #0]
 8002428:	685b      	ldr	r3, [r3, #4]
 800242a:	2b03      	cmp	r3, #3
 800242c:	d068      	beq.n	8002500 <HAL_ADC_ConfigChannel+0x21c>
 800242e:	683b      	ldr	r3, [r7, #0]
 8002430:	685b      	ldr	r3, [r3, #4]
 8002432:	2b04      	cmp	r3, #4
 8002434:	d064      	beq.n	8002500 <HAL_ADC_ConfigChannel+0x21c>
 8002436:	683b      	ldr	r3, [r7, #0]
 8002438:	685b      	ldr	r3, [r3, #4]
 800243a:	2b05      	cmp	r3, #5
 800243c:	d060      	beq.n	8002500 <HAL_ADC_ConfigChannel+0x21c>
 800243e:	683b      	ldr	r3, [r7, #0]
 8002440:	685b      	ldr	r3, [r3, #4]
 8002442:	2b06      	cmp	r3, #6
 8002444:	d05c      	beq.n	8002500 <HAL_ADC_ConfigChannel+0x21c>
 8002446:	683b      	ldr	r3, [r7, #0]
 8002448:	685b      	ldr	r3, [r3, #4]
 800244a:	2b07      	cmp	r3, #7
 800244c:	d058      	beq.n	8002500 <HAL_ADC_ConfigChannel+0x21c>
 800244e:	683b      	ldr	r3, [r7, #0]
 8002450:	685b      	ldr	r3, [r3, #4]
 8002452:	2b08      	cmp	r3, #8
 8002454:	d054      	beq.n	8002500 <HAL_ADC_ConfigChannel+0x21c>
 8002456:	683b      	ldr	r3, [r7, #0]
 8002458:	685b      	ldr	r3, [r3, #4]
 800245a:	2b09      	cmp	r3, #9
 800245c:	d050      	beq.n	8002500 <HAL_ADC_ConfigChannel+0x21c>
 800245e:	683b      	ldr	r3, [r7, #0]
 8002460:	685b      	ldr	r3, [r3, #4]
 8002462:	2b0a      	cmp	r3, #10
 8002464:	d04c      	beq.n	8002500 <HAL_ADC_ConfigChannel+0x21c>
 8002466:	683b      	ldr	r3, [r7, #0]
 8002468:	685b      	ldr	r3, [r3, #4]
 800246a:	2b0b      	cmp	r3, #11
 800246c:	d048      	beq.n	8002500 <HAL_ADC_ConfigChannel+0x21c>
 800246e:	683b      	ldr	r3, [r7, #0]
 8002470:	685b      	ldr	r3, [r3, #4]
 8002472:	2b0c      	cmp	r3, #12
 8002474:	d044      	beq.n	8002500 <HAL_ADC_ConfigChannel+0x21c>
 8002476:	683b      	ldr	r3, [r7, #0]
 8002478:	685b      	ldr	r3, [r3, #4]
 800247a:	2b0d      	cmp	r3, #13
 800247c:	d040      	beq.n	8002500 <HAL_ADC_ConfigChannel+0x21c>
 800247e:	683b      	ldr	r3, [r7, #0]
 8002480:	685b      	ldr	r3, [r3, #4]
 8002482:	2b0e      	cmp	r3, #14
 8002484:	d03c      	beq.n	8002500 <HAL_ADC_ConfigChannel+0x21c>
 8002486:	683b      	ldr	r3, [r7, #0]
 8002488:	685b      	ldr	r3, [r3, #4]
 800248a:	2b0f      	cmp	r3, #15
 800248c:	d038      	beq.n	8002500 <HAL_ADC_ConfigChannel+0x21c>
 800248e:	683b      	ldr	r3, [r7, #0]
 8002490:	685b      	ldr	r3, [r3, #4]
 8002492:	2b10      	cmp	r3, #16
 8002494:	d034      	beq.n	8002500 <HAL_ADC_ConfigChannel+0x21c>
 8002496:	683b      	ldr	r3, [r7, #0]
 8002498:	685b      	ldr	r3, [r3, #4]
 800249a:	2b11      	cmp	r3, #17
 800249c:	d030      	beq.n	8002500 <HAL_ADC_ConfigChannel+0x21c>
 800249e:	683b      	ldr	r3, [r7, #0]
 80024a0:	685b      	ldr	r3, [r3, #4]
 80024a2:	2b12      	cmp	r3, #18
 80024a4:	d02c      	beq.n	8002500 <HAL_ADC_ConfigChannel+0x21c>
 80024a6:	683b      	ldr	r3, [r7, #0]
 80024a8:	685b      	ldr	r3, [r3, #4]
 80024aa:	2b13      	cmp	r3, #19
 80024ac:	d028      	beq.n	8002500 <HAL_ADC_ConfigChannel+0x21c>
 80024ae:	683b      	ldr	r3, [r7, #0]
 80024b0:	685b      	ldr	r3, [r3, #4]
 80024b2:	2b14      	cmp	r3, #20
 80024b4:	d024      	beq.n	8002500 <HAL_ADC_ConfigChannel+0x21c>
 80024b6:	683b      	ldr	r3, [r7, #0]
 80024b8:	685b      	ldr	r3, [r3, #4]
 80024ba:	2b15      	cmp	r3, #21
 80024bc:	d020      	beq.n	8002500 <HAL_ADC_ConfigChannel+0x21c>
 80024be:	683b      	ldr	r3, [r7, #0]
 80024c0:	685b      	ldr	r3, [r3, #4]
 80024c2:	2b16      	cmp	r3, #22
 80024c4:	d01c      	beq.n	8002500 <HAL_ADC_ConfigChannel+0x21c>
 80024c6:	683b      	ldr	r3, [r7, #0]
 80024c8:	685b      	ldr	r3, [r3, #4]
 80024ca:	2b17      	cmp	r3, #23
 80024cc:	d018      	beq.n	8002500 <HAL_ADC_ConfigChannel+0x21c>
 80024ce:	683b      	ldr	r3, [r7, #0]
 80024d0:	685b      	ldr	r3, [r3, #4]
 80024d2:	2b18      	cmp	r3, #24
 80024d4:	d014      	beq.n	8002500 <HAL_ADC_ConfigChannel+0x21c>
 80024d6:	683b      	ldr	r3, [r7, #0]
 80024d8:	685b      	ldr	r3, [r3, #4]
 80024da:	2b19      	cmp	r3, #25
 80024dc:	d010      	beq.n	8002500 <HAL_ADC_ConfigChannel+0x21c>
 80024de:	683b      	ldr	r3, [r7, #0]
 80024e0:	685b      	ldr	r3, [r3, #4]
 80024e2:	2b1a      	cmp	r3, #26
 80024e4:	d00c      	beq.n	8002500 <HAL_ADC_ConfigChannel+0x21c>
 80024e6:	683b      	ldr	r3, [r7, #0]
 80024e8:	685b      	ldr	r3, [r3, #4]
 80024ea:	2b1b      	cmp	r3, #27
 80024ec:	d008      	beq.n	8002500 <HAL_ADC_ConfigChannel+0x21c>
 80024ee:	683b      	ldr	r3, [r7, #0]
 80024f0:	685b      	ldr	r3, [r3, #4]
 80024f2:	2b1c      	cmp	r3, #28
 80024f4:	d004      	beq.n	8002500 <HAL_ADC_ConfigChannel+0x21c>
 80024f6:	f240 7193 	movw	r1, #1939	; 0x793
 80024fa:	4815      	ldr	r0, [pc, #84]	; (8002550 <HAL_ADC_ConfigChannel+0x26c>)
 80024fc:	f7fe ff3e 	bl	800137c <assert_failed>
 8002500:	683b      	ldr	r3, [r7, #0]
 8002502:	689b      	ldr	r3, [r3, #8]
 8002504:	2b00      	cmp	r3, #0
 8002506:	d025      	beq.n	8002554 <HAL_ADC_ConfigChannel+0x270>
 8002508:	683b      	ldr	r3, [r7, #0]
 800250a:	689b      	ldr	r3, [r3, #8]
 800250c:	2b01      	cmp	r3, #1
 800250e:	d021      	beq.n	8002554 <HAL_ADC_ConfigChannel+0x270>
 8002510:	683b      	ldr	r3, [r7, #0]
 8002512:	689b      	ldr	r3, [r3, #8]
 8002514:	2b02      	cmp	r3, #2
 8002516:	d01d      	beq.n	8002554 <HAL_ADC_ConfigChannel+0x270>
 8002518:	683b      	ldr	r3, [r7, #0]
 800251a:	689b      	ldr	r3, [r3, #8]
 800251c:	2b03      	cmp	r3, #3
 800251e:	d019      	beq.n	8002554 <HAL_ADC_ConfigChannel+0x270>
 8002520:	683b      	ldr	r3, [r7, #0]
 8002522:	689b      	ldr	r3, [r3, #8]
 8002524:	2b04      	cmp	r3, #4
 8002526:	d015      	beq.n	8002554 <HAL_ADC_ConfigChannel+0x270>
 8002528:	683b      	ldr	r3, [r7, #0]
 800252a:	689b      	ldr	r3, [r3, #8]
 800252c:	2b05      	cmp	r3, #5
 800252e:	d011      	beq.n	8002554 <HAL_ADC_ConfigChannel+0x270>
 8002530:	683b      	ldr	r3, [r7, #0]
 8002532:	689b      	ldr	r3, [r3, #8]
 8002534:	2b06      	cmp	r3, #6
 8002536:	d00d      	beq.n	8002554 <HAL_ADC_ConfigChannel+0x270>
 8002538:	683b      	ldr	r3, [r7, #0]
 800253a:	689b      	ldr	r3, [r3, #8]
 800253c:	2b07      	cmp	r3, #7
 800253e:	d009      	beq.n	8002554 <HAL_ADC_ConfigChannel+0x270>
 8002540:	f240 7194 	movw	r1, #1940	; 0x794
 8002544:	4802      	ldr	r0, [pc, #8]	; (8002550 <HAL_ADC_ConfigChannel+0x26c>)
 8002546:	f7fe ff19 	bl	800137c <assert_failed>
 800254a:	e003      	b.n	8002554 <HAL_ADC_ConfigChannel+0x270>
 800254c:	40012400 	.word	0x40012400
 8002550:	0800a820 	.word	0x0800a820
 8002554:	687b      	ldr	r3, [r7, #4]
 8002556:	f893 3048 	ldrb.w	r3, [r3, #72]	; 0x48
 800255a:	2b01      	cmp	r3, #1
 800255c:	d101      	bne.n	8002562 <HAL_ADC_ConfigChannel+0x27e>
 800255e:	2302      	movs	r3, #2
 8002560:	e14f      	b.n	8002802 <HAL_ADC_ConfigChannel+0x51e>
 8002562:	687b      	ldr	r3, [r7, #4]
 8002564:	2201      	movs	r2, #1
 8002566:	f883 2048 	strb.w	r2, [r3, #72]	; 0x48
 800256a:	683b      	ldr	r3, [r7, #0]
 800256c:	685b      	ldr	r3, [r3, #4]
 800256e:	2b06      	cmp	r3, #6
 8002570:	d81c      	bhi.n	80025ac <HAL_ADC_ConfigChannel+0x2c8>
 8002572:	687b      	ldr	r3, [r7, #4]
 8002574:	681b      	ldr	r3, [r3, #0]
 8002576:	6c19      	ldr	r1, [r3, #64]	; 0x40
 8002578:	683b      	ldr	r3, [r7, #0]
 800257a:	685a      	ldr	r2, [r3, #4]
 800257c:	4613      	mov	r3, r2
 800257e:	009b      	lsls	r3, r3, #2
 8002580:	4413      	add	r3, r2
 8002582:	3b05      	subs	r3, #5
 8002584:	221f      	movs	r2, #31
 8002586:	fa02 f303 	lsl.w	r3, r2, r3
 800258a:	43db      	mvns	r3, r3
 800258c:	4019      	ands	r1, r3
 800258e:	683b      	ldr	r3, [r7, #0]
 8002590:	6818      	ldr	r0, [r3, #0]
 8002592:	683b      	ldr	r3, [r7, #0]
 8002594:	685a      	ldr	r2, [r3, #4]
 8002596:	4613      	mov	r3, r2
 8002598:	009b      	lsls	r3, r3, #2
 800259a:	4413      	add	r3, r2
 800259c:	3b05      	subs	r3, #5
 800259e:	fa00 f203 	lsl.w	r2, r0, r3
 80025a2:	687b      	ldr	r3, [r7, #4]
 80025a4:	681b      	ldr	r3, [r3, #0]
 80025a6:	430a      	orrs	r2, r1
 80025a8:	641a      	str	r2, [r3, #64]	; 0x40
 80025aa:	e07e      	b.n	80026aa <HAL_ADC_ConfigChannel+0x3c6>
 80025ac:	683b      	ldr	r3, [r7, #0]
 80025ae:	685b      	ldr	r3, [r3, #4]
 80025b0:	2b0c      	cmp	r3, #12
 80025b2:	d81c      	bhi.n	80025ee <HAL_ADC_ConfigChannel+0x30a>
 80025b4:	687b      	ldr	r3, [r7, #4]
 80025b6:	681b      	ldr	r3, [r3, #0]
 80025b8:	6bd9      	ldr	r1, [r3, #60]	; 0x3c
 80025ba:	683b      	ldr	r3, [r7, #0]
 80025bc:	685a      	ldr	r2, [r3, #4]
 80025be:	4613      	mov	r3, r2
 80025c0:	009b      	lsls	r3, r3, #2
 80025c2:	4413      	add	r3, r2
 80025c4:	3b23      	subs	r3, #35	; 0x23
 80025c6:	221f      	movs	r2, #31
 80025c8:	fa02 f303 	lsl.w	r3, r2, r3
 80025cc:	43db      	mvns	r3, r3
 80025ce:	4019      	ands	r1, r3
 80025d0:	683b      	ldr	r3, [r7, #0]
 80025d2:	6818      	ldr	r0, [r3, #0]
 80025d4:	683b      	ldr	r3, [r7, #0]
 80025d6:	685a      	ldr	r2, [r3, #4]
 80025d8:	4613      	mov	r3, r2
 80025da:	009b      	lsls	r3, r3, #2
 80025dc:	4413      	add	r3, r2
 80025de:	3b23      	subs	r3, #35	; 0x23
 80025e0:	fa00 f203 	lsl.w	r2, r0, r3
 80025e4:	687b      	ldr	r3, [r7, #4]
 80025e6:	681b      	ldr	r3, [r3, #0]
 80025e8:	430a      	orrs	r2, r1
 80025ea:	63da      	str	r2, [r3, #60]	; 0x3c
 80025ec:	e05d      	b.n	80026aa <HAL_ADC_ConfigChannel+0x3c6>
 80025ee:	683b      	ldr	r3, [r7, #0]
 80025f0:	685b      	ldr	r3, [r3, #4]
 80025f2:	2b12      	cmp	r3, #18
 80025f4:	d81c      	bhi.n	8002630 <HAL_ADC_ConfigChannel+0x34c>
 80025f6:	687b      	ldr	r3, [r7, #4]
 80025f8:	681b      	ldr	r3, [r3, #0]
 80025fa:	6b99      	ldr	r1, [r3, #56]	; 0x38
 80025fc:	683b      	ldr	r3, [r7, #0]
 80025fe:	685a      	ldr	r2, [r3, #4]
 8002600:	4613      	mov	r3, r2
 8002602:	009b      	lsls	r3, r3, #2
 8002604:	4413      	add	r3, r2
 8002606:	3b41      	subs	r3, #65	; 0x41
 8002608:	221f      	movs	r2, #31
 800260a:	fa02 f303 	lsl.w	r3, r2, r3
 800260e:	43db      	mvns	r3, r3
 8002610:	4019      	ands	r1, r3
 8002612:	683b      	ldr	r3, [r7, #0]
 8002614:	6818      	ldr	r0, [r3, #0]
 8002616:	683b      	ldr	r3, [r7, #0]
 8002618:	685a      	ldr	r2, [r3, #4]
 800261a:	4613      	mov	r3, r2
 800261c:	009b      	lsls	r3, r3, #2
 800261e:	4413      	add	r3, r2
 8002620:	3b41      	subs	r3, #65	; 0x41
 8002622:	fa00 f203 	lsl.w	r2, r0, r3
 8002626:	687b      	ldr	r3, [r7, #4]
 8002628:	681b      	ldr	r3, [r3, #0]
 800262a:	430a      	orrs	r2, r1
 800262c:	639a      	str	r2, [r3, #56]	; 0x38
 800262e:	e03c      	b.n	80026aa <HAL_ADC_ConfigChannel+0x3c6>
 8002630:	683b      	ldr	r3, [r7, #0]
 8002632:	685b      	ldr	r3, [r3, #4]
 8002634:	2b18      	cmp	r3, #24
 8002636:	d81c      	bhi.n	8002672 <HAL_ADC_ConfigChannel+0x38e>
 8002638:	687b      	ldr	r3, [r7, #4]
 800263a:	681b      	ldr	r3, [r3, #0]
 800263c:	6b59      	ldr	r1, [r3, #52]	; 0x34
 800263e:	683b      	ldr	r3, [r7, #0]
 8002640:	685a      	ldr	r2, [r3, #4]
 8002642:	4613      	mov	r3, r2
 8002644:	009b      	lsls	r3, r3, #2
 8002646:	4413      	add	r3, r2
 8002648:	3b5f      	subs	r3, #95	; 0x5f
 800264a:	221f      	movs	r2, #31
 800264c:	fa02 f303 	lsl.w	r3, r2, r3
 8002650:	43db      	mvns	r3, r3
 8002652:	4019      	ands	r1, r3
 8002654:	683b      	ldr	r3, [r7, #0]
 8002656:	6818      	ldr	r0, [r3, #0]
 8002658:	683b      	ldr	r3, [r7, #0]
 800265a:	685a      	ldr	r2, [r3, #4]
 800265c:	4613      	mov	r3, r2
 800265e:	009b      	lsls	r3, r3, #2
 8002660:	4413      	add	r3, r2
 8002662:	3b5f      	subs	r3, #95	; 0x5f
 8002664:	fa00 f203 	lsl.w	r2, r0, r3
 8002668:	687b      	ldr	r3, [r7, #4]
 800266a:	681b      	ldr	r3, [r3, #0]
 800266c:	430a      	orrs	r2, r1
 800266e:	635a      	str	r2, [r3, #52]	; 0x34
 8002670:	e01b      	b.n	80026aa <HAL_ADC_ConfigChannel+0x3c6>
 8002672:	687b      	ldr	r3, [r7, #4]
 8002674:	681b      	ldr	r3, [r3, #0]
 8002676:	6b19      	ldr	r1, [r3, #48]	; 0x30
 8002678:	683b      	ldr	r3, [r7, #0]
 800267a:	685a      	ldr	r2, [r3, #4]
 800267c:	4613      	mov	r3, r2
 800267e:	009b      	lsls	r3, r3, #2
 8002680:	4413      	add	r3, r2
 8002682:	3b7d      	subs	r3, #125	; 0x7d
 8002684:	221f      	movs	r2, #31
 8002686:	fa02 f303 	lsl.w	r3, r2, r3
 800268a:	43db      	mvns	r3, r3
 800268c:	4019      	ands	r1, r3
 800268e:	683b      	ldr	r3, [r7, #0]
 8002690:	6818      	ldr	r0, [r3, #0]
 8002692:	683b      	ldr	r3, [r7, #0]
 8002694:	685a      	ldr	r2, [r3, #4]
 8002696:	4613      	mov	r3, r2
 8002698:	009b      	lsls	r3, r3, #2
 800269a:	4413      	add	r3, r2
 800269c:	3b7d      	subs	r3, #125	; 0x7d
 800269e:	fa00 f203 	lsl.w	r2, r0, r3
 80026a2:	687b      	ldr	r3, [r7, #4]
 80026a4:	681b      	ldr	r3, [r3, #0]
 80026a6:	430a      	orrs	r2, r1
 80026a8:	631a      	str	r2, [r3, #48]	; 0x30
 80026aa:	683b      	ldr	r3, [r7, #0]
 80026ac:	681b      	ldr	r3, [r3, #0]
 80026ae:	2b09      	cmp	r3, #9
 80026b0:	d81a      	bhi.n	80026e8 <HAL_ADC_ConfigChannel+0x404>
 80026b2:	687b      	ldr	r3, [r7, #4]
 80026b4:	681b      	ldr	r3, [r3, #0]
 80026b6:	6959      	ldr	r1, [r3, #20]
 80026b8:	683b      	ldr	r3, [r7, #0]
 80026ba:	681a      	ldr	r2, [r3, #0]
 80026bc:	4613      	mov	r3, r2
 80026be:	005b      	lsls	r3, r3, #1
 80026c0:	4413      	add	r3, r2
 80026c2:	2207      	movs	r2, #7
 80026c4:	fa02 f303 	lsl.w	r3, r2, r3
 80026c8:	43db      	mvns	r3, r3
 80026ca:	4019      	ands	r1, r3
 80026cc:	683b      	ldr	r3, [r7, #0]
 80026ce:	6898      	ldr	r0, [r3, #8]
 80026d0:	683b      	ldr	r3, [r7, #0]
 80026d2:	681a      	ldr	r2, [r3, #0]
 80026d4:	4613      	mov	r3, r2
 80026d6:	005b      	lsls	r3, r3, #1
 80026d8:	4413      	add	r3, r2
 80026da:	fa00 f203 	lsl.w	r2, r0, r3
 80026de:	687b      	ldr	r3, [r7, #4]
 80026e0:	681b      	ldr	r3, [r3, #0]
 80026e2:	430a      	orrs	r2, r1
 80026e4:	615a      	str	r2, [r3, #20]
 80026e6:	e05d      	b.n	80027a4 <HAL_ADC_ConfigChannel+0x4c0>
 80026e8:	683b      	ldr	r3, [r7, #0]
 80026ea:	681b      	ldr	r3, [r3, #0]
 80026ec:	2b13      	cmp	r3, #19
 80026ee:	d81c      	bhi.n	800272a <HAL_ADC_ConfigChannel+0x446>
 80026f0:	687b      	ldr	r3, [r7, #4]
 80026f2:	681b      	ldr	r3, [r3, #0]
 80026f4:	6919      	ldr	r1, [r3, #16]
 80026f6:	683b      	ldr	r3, [r7, #0]
 80026f8:	681a      	ldr	r2, [r3, #0]
 80026fa:	4613      	mov	r3, r2
 80026fc:	005b      	lsls	r3, r3, #1
 80026fe:	4413      	add	r3, r2
 8002700:	3b1e      	subs	r3, #30
 8002702:	2207      	movs	r2, #7
 8002704:	fa02 f303 	lsl.w	r3, r2, r3
 8002708:	43db      	mvns	r3, r3
 800270a:	4019      	ands	r1, r3
 800270c:	683b      	ldr	r3, [r7, #0]
 800270e:	6898      	ldr	r0, [r3, #8]
 8002710:	683b      	ldr	r3, [r7, #0]
 8002712:	681a      	ldr	r2, [r3, #0]
 8002714:	4613      	mov	r3, r2
 8002716:	005b      	lsls	r3, r3, #1
 8002718:	4413      	add	r3, r2
 800271a:	3b1e      	subs	r3, #30
 800271c:	fa00 f203 	lsl.w	r2, r0, r3
 8002720:	687b      	ldr	r3, [r7, #4]
 8002722:	681b      	ldr	r3, [r3, #0]
 8002724:	430a      	orrs	r2, r1
 8002726:	611a      	str	r2, [r3, #16]
 8002728:	e03c      	b.n	80027a4 <HAL_ADC_ConfigChannel+0x4c0>
 800272a:	683b      	ldr	r3, [r7, #0]
 800272c:	681b      	ldr	r3, [r3, #0]
 800272e:	2b1d      	cmp	r3, #29
 8002730:	d81c      	bhi.n	800276c <HAL_ADC_ConfigChannel+0x488>
 8002732:	687b      	ldr	r3, [r7, #4]
 8002734:	681b      	ldr	r3, [r3, #0]
 8002736:	68d9      	ldr	r1, [r3, #12]
 8002738:	683b      	ldr	r3, [r7, #0]
 800273a:	681a      	ldr	r2, [r3, #0]
 800273c:	4613      	mov	r3, r2
 800273e:	005b      	lsls	r3, r3, #1
 8002740:	4413      	add	r3, r2
 8002742:	3b3c      	subs	r3, #60	; 0x3c
 8002744:	2207      	movs	r2, #7
 8002746:	fa02 f303 	lsl.w	r3, r2, r3
 800274a:	43db      	mvns	r3, r3
 800274c:	4019      	ands	r1, r3
 800274e:	683b      	ldr	r3, [r7, #0]
 8002750:	6898      	ldr	r0, [r3, #8]
 8002752:	683b      	ldr	r3, [r7, #0]
 8002754:	681a      	ldr	r2, [r3, #0]
 8002756:	4613      	mov	r3, r2
 8002758:	005b      	lsls	r3, r3, #1
 800275a:	4413      	add	r3, r2
 800275c:	3b3c      	subs	r3, #60	; 0x3c
 800275e:	fa00 f203 	lsl.w	r2, r0, r3
 8002762:	687b      	ldr	r3, [r7, #4]
 8002764:	681b      	ldr	r3, [r3, #0]
 8002766:	430a      	orrs	r2, r1
 8002768:	60da      	str	r2, [r3, #12]
 800276a:	e01b      	b.n	80027a4 <HAL_ADC_ConfigChannel+0x4c0>
 800276c:	687b      	ldr	r3, [r7, #4]
 800276e:	681b      	ldr	r3, [r3, #0]
 8002770:	6dd9      	ldr	r1, [r3, #92]	; 0x5c
 8002772:	683b      	ldr	r3, [r7, #0]
 8002774:	681a      	ldr	r2, [r3, #0]
 8002776:	4613      	mov	r3, r2
 8002778:	005b      	lsls	r3, r3, #1
 800277a:	4413      	add	r3, r2
 800277c:	3b5a      	subs	r3, #90	; 0x5a
 800277e:	2207      	movs	r2, #7
 8002780:	fa02 f303 	lsl.w	r3, r2, r3
 8002784:	43db      	mvns	r3, r3
 8002786:	4019      	ands	r1, r3
 8002788:	683b      	ldr	r3, [r7, #0]
 800278a:	6898      	ldr	r0, [r3, #8]
 800278c:	683b      	ldr	r3, [r7, #0]
 800278e:	681a      	ldr	r2, [r3, #0]
 8002790:	4613      	mov	r3, r2
 8002792:	005b      	lsls	r3, r3, #1
 8002794:	4413      	add	r3, r2
 8002796:	3b5a      	subs	r3, #90	; 0x5a
 8002798:	fa00 f203 	lsl.w	r2, r0, r3
 800279c:	687b      	ldr	r3, [r7, #4]
 800279e:	681b      	ldr	r3, [r3, #0]
 80027a0:	430a      	orrs	r2, r1
 80027a2:	65da      	str	r2, [r3, #92]	; 0x5c
 80027a4:	683b      	ldr	r3, [r7, #0]
 80027a6:	681b      	ldr	r3, [r3, #0]
 80027a8:	2b10      	cmp	r3, #16
 80027aa:	d003      	beq.n	80027b4 <HAL_ADC_ConfigChannel+0x4d0>
 80027ac:	683b      	ldr	r3, [r7, #0]
 80027ae:	681b      	ldr	r3, [r3, #0]
 80027b0:	2b11      	cmp	r3, #17
 80027b2:	d121      	bne.n	80027f8 <HAL_ADC_ConfigChannel+0x514>
 80027b4:	4b15      	ldr	r3, [pc, #84]	; (800280c <HAL_ADC_ConfigChannel+0x528>)
 80027b6:	685b      	ldr	r3, [r3, #4]
 80027b8:	f403 0300 	and.w	r3, r3, #8388608	; 0x800000
 80027bc:	2b00      	cmp	r3, #0
 80027be:	d11b      	bne.n	80027f8 <HAL_ADC_ConfigChannel+0x514>
 80027c0:	4b12      	ldr	r3, [pc, #72]	; (800280c <HAL_ADC_ConfigChannel+0x528>)
 80027c2:	685b      	ldr	r3, [r3, #4]
 80027c4:	4a11      	ldr	r2, [pc, #68]	; (800280c <HAL_ADC_ConfigChannel+0x528>)
 80027c6:	f443 0300 	orr.w	r3, r3, #8388608	; 0x800000
 80027ca:	6053      	str	r3, [r2, #4]
 80027cc:	683b      	ldr	r3, [r7, #0]
 80027ce:	681b      	ldr	r3, [r3, #0]
 80027d0:	2b10      	cmp	r3, #16
 80027d2:	d111      	bne.n	80027f8 <HAL_ADC_ConfigChannel+0x514>
 80027d4:	4b0e      	ldr	r3, [pc, #56]	; (8002810 <HAL_ADC_ConfigChannel+0x52c>)
 80027d6:	681b      	ldr	r3, [r3, #0]
 80027d8:	4a0e      	ldr	r2, [pc, #56]	; (8002814 <HAL_ADC_ConfigChannel+0x530>)
 80027da:	fba2 2303 	umull	r2, r3, r2, r3
 80027de:	0c9a      	lsrs	r2, r3, #18
 80027e0:	4613      	mov	r3, r2
 80027e2:	009b      	lsls	r3, r3, #2
 80027e4:	4413      	add	r3, r2
 80027e6:	005b      	lsls	r3, r3, #1
 80027e8:	60bb      	str	r3, [r7, #8]
 80027ea:	e002      	b.n	80027f2 <HAL_ADC_ConfigChannel+0x50e>
 80027ec:	68bb      	ldr	r3, [r7, #8]
 80027ee:	3b01      	subs	r3, #1
 80027f0:	60bb      	str	r3, [r7, #8]
 80027f2:	68bb      	ldr	r3, [r7, #8]
 80027f4:	2b00      	cmp	r3, #0
 80027f6:	d1f9      	bne.n	80027ec <HAL_ADC_ConfigChannel+0x508>
 80027f8:	687b      	ldr	r3, [r7, #4]
 80027fa:	2200      	movs	r2, #0
 80027fc:	f883 2048 	strb.w	r2, [r3, #72]	; 0x48
 8002800:	7bfb      	ldrb	r3, [r7, #15]
 8002802:	4618      	mov	r0, r3
 8002804:	3710      	adds	r7, #16
 8002806:	46bd      	mov	sp, r7
 8002808:	bd80      	pop	{r7, pc}
 800280a:	bf00      	nop
 800280c:	40012700 	.word	0x40012700
 8002810:	20000000 	.word	0x20000000
 8002814:	431bde83 	.word	0x431bde83

08002818 <__NVIC_SetPriorityGrouping>:
 8002818:	b480      	push	{r7}
 800281a:	b085      	sub	sp, #20
 800281c:	af00      	add	r7, sp, #0
 800281e:	6078      	str	r0, [r7, #4]
 8002820:	687b      	ldr	r3, [r7, #4]
 8002822:	f003 0307 	and.w	r3, r3, #7
 8002826:	60fb      	str	r3, [r7, #12]
 8002828:	4b0c      	ldr	r3, [pc, #48]	; (800285c <__NVIC_SetPriorityGrouping+0x44>)
 800282a:	68db      	ldr	r3, [r3, #12]
 800282c:	60bb      	str	r3, [r7, #8]
 800282e:	68ba      	ldr	r2, [r7, #8]
 8002830:	f64f 03ff 	movw	r3, #63743	; 0xf8ff
 8002834:	4013      	ands	r3, r2
 8002836:	60bb      	str	r3, [r7, #8]
 8002838:	68fb      	ldr	r3, [r7, #12]
 800283a:	021a      	lsls	r2, r3, #8
 800283c:	68bb      	ldr	r3, [r7, #8]
 800283e:	4313      	orrs	r3, r2
 8002840:	f043 63bf 	orr.w	r3, r3, #100139008	; 0x5f80000
 8002844:	f443 3300 	orr.w	r3, r3, #131072	; 0x20000
 8002848:	60bb      	str	r3, [r7, #8]
 800284a:	4a04      	ldr	r2, [pc, #16]	; (800285c <__NVIC_SetPriorityGrouping+0x44>)
 800284c:	68bb      	ldr	r3, [r7, #8]
 800284e:	60d3      	str	r3, [r2, #12]
 8002850:	bf00      	nop
 8002852:	3714      	adds	r7, #20
 8002854:	46bd      	mov	sp, r7
 8002856:	bc80      	pop	{r7}
 8002858:	4770      	bx	lr
 800285a:	bf00      	nop
 800285c:	e000ed00 	.word	0xe000ed00

08002860 <__NVIC_GetPriorityGrouping>:
 8002860:	b480      	push	{r7}
 8002862:	af00      	add	r7, sp, #0
 8002864:	4b04      	ldr	r3, [pc, #16]	; (8002878 <__NVIC_GetPriorityGrouping+0x18>)
 8002866:	68db      	ldr	r3, [r3, #12]
 8002868:	0a1b      	lsrs	r3, r3, #8
 800286a:	f003 0307 	and.w	r3, r3, #7
 800286e:	4618      	mov	r0, r3
 8002870:	46bd      	mov	sp, r7
 8002872:	bc80      	pop	{r7}
 8002874:	4770      	bx	lr
 8002876:	bf00      	nop
 8002878:	e000ed00 	.word	0xe000ed00

0800287c <__NVIC_EnableIRQ>:
 800287c:	b480      	push	{r7}
 800287e:	b083      	sub	sp, #12
 8002880:	af00      	add	r7, sp, #0
 8002882:	4603      	mov	r3, r0
 8002884:	71fb      	strb	r3, [r7, #7]
 8002886:	f997 3007 	ldrsb.w	r3, [r7, #7]
 800288a:	2b00      	cmp	r3, #0
 800288c:	db0b      	blt.n	80028a6 <__NVIC_EnableIRQ+0x2a>
 800288e:	79fb      	ldrb	r3, [r7, #7]
 8002890:	f003 021f 	and.w	r2, r3, #31
 8002894:	4906      	ldr	r1, [pc, #24]	; (80028b0 <__NVIC_EnableIRQ+0x34>)
 8002896:	f997 3007 	ldrsb.w	r3, [r7, #7]
 800289a:	095b      	lsrs	r3, r3, #5
 800289c:	2001      	movs	r0, #1
 800289e:	fa00 f202 	lsl.w	r2, r0, r2
 80028a2:	f841 2023 	str.w	r2, [r1, r3, lsl #2]
 80028a6:	bf00      	nop
 80028a8:	370c      	adds	r7, #12
 80028aa:	46bd      	mov	sp, r7
 80028ac:	bc80      	pop	{r7}
 80028ae:	4770      	bx	lr
 80028b0:	e000e100 	.word	0xe000e100

080028b4 <__NVIC_SetPriority>:
 80028b4:	b480      	push	{r7}
 80028b6:	b083      	sub	sp, #12
 80028b8:	af00      	add	r7, sp, #0
 80028ba:	4603      	mov	r3, r0
 80028bc:	6039      	str	r1, [r7, #0]
 80028be:	71fb      	strb	r3, [r7, #7]
 80028c0:	f997 3007 	ldrsb.w	r3, [r7, #7]
 80028c4:	2b00      	cmp	r3, #0
 80028c6:	db0a      	blt.n	80028de <__NVIC_SetPriority+0x2a>
 80028c8:	683b      	ldr	r3, [r7, #0]
 80028ca:	b2da      	uxtb	r2, r3
 80028cc:	490c      	ldr	r1, [pc, #48]	; (8002900 <__NVIC_SetPriority+0x4c>)
 80028ce:	f997 3007 	ldrsb.w	r3, [r7, #7]
 80028d2:	0112      	lsls	r2, r2, #4
 80028d4:	b2d2      	uxtb	r2, r2
 80028d6:	440b      	add	r3, r1
 80028d8:	f883 2300 	strb.w	r2, [r3, #768]	; 0x300
 80028dc:	e00a      	b.n	80028f4 <__NVIC_SetPriority+0x40>
 80028de:	683b      	ldr	r3, [r7, #0]
 80028e0:	b2da      	uxtb	r2, r3
 80028e2:	4908      	ldr	r1, [pc, #32]	; (8002904 <__NVIC_SetPriority+0x50>)
 80028e4:	79fb      	ldrb	r3, [r7, #7]
 80028e6:	f003 030f 	and.w	r3, r3, #15
 80028ea:	3b04      	subs	r3, #4
 80028ec:	0112      	lsls	r2, r2, #4
 80028ee:	b2d2      	uxtb	r2, r2
 80028f0:	440b      	add	r3, r1
 80028f2:	761a      	strb	r2, [r3, #24]
 80028f4:	bf00      	nop
 80028f6:	370c      	adds	r7, #12
 80028f8:	46bd      	mov	sp, r7
 80028fa:	bc80      	pop	{r7}
 80028fc:	4770      	bx	lr
 80028fe:	bf00      	nop
 8002900:	e000e100 	.word	0xe000e100
 8002904:	e000ed00 	.word	0xe000ed00

08002908 <NVIC_EncodePriority>:
 8002908:	b480      	push	{r7}
 800290a:	b089      	sub	sp, #36	; 0x24
 800290c:	af00      	add	r7, sp, #0
 800290e:	60f8      	str	r0, [r7, #12]
 8002910:	60b9      	str	r1, [r7, #8]
 8002912:	607a      	str	r2, [r7, #4]
 8002914:	68fb      	ldr	r3, [r7, #12]
 8002916:	f003 0307 	and.w	r3, r3, #7
 800291a:	61fb      	str	r3, [r7, #28]
 800291c:	69fb      	ldr	r3, [r7, #28]
 800291e:	f1c3 0307 	rsb	r3, r3, #7
 8002922:	2b04      	cmp	r3, #4
 8002924:	bf28      	it	cs
 8002926:	2304      	movcs	r3, #4
 8002928:	61bb      	str	r3, [r7, #24]
 800292a:	69fb      	ldr	r3, [r7, #28]
 800292c:	3304      	adds	r3, #4
 800292e:	2b06      	cmp	r3, #6
 8002930:	d902      	bls.n	8002938 <NVIC_EncodePriority+0x30>
 8002932:	69fb      	ldr	r3, [r7, #28]
 8002934:	3b03      	subs	r3, #3
 8002936:	e000      	b.n	800293a <NVIC_EncodePriority+0x32>
 8002938:	2300      	movs	r3, #0
 800293a:	617b      	str	r3, [r7, #20]
 800293c:	f04f 32ff 	mov.w	r2, #4294967295
 8002940:	69bb      	ldr	r3, [r7, #24]
 8002942:	fa02 f303 	lsl.w	r3, r2, r3
 8002946:	43da      	mvns	r2, r3
 8002948:	68bb      	ldr	r3, [r7, #8]
 800294a:	401a      	ands	r2, r3
 800294c:	697b      	ldr	r3, [r7, #20]
 800294e:	409a      	lsls	r2, r3
 8002950:	f04f 31ff 	mov.w	r1, #4294967295
 8002954:	697b      	ldr	r3, [r7, #20]
 8002956:	fa01 f303 	lsl.w	r3, r1, r3
 800295a:	43d9      	mvns	r1, r3
 800295c:	687b      	ldr	r3, [r7, #4]
 800295e:	400b      	ands	r3, r1
 8002960:	4313      	orrs	r3, r2
 8002962:	4618      	mov	r0, r3
 8002964:	3724      	adds	r7, #36	; 0x24
 8002966:	46bd      	mov	sp, r7
 8002968:	bc80      	pop	{r7}
 800296a:	4770      	bx	lr

0800296c <HAL_NVIC_SetPriorityGrouping>:
 800296c:	b580      	push	{r7, lr}
 800296e:	b082      	sub	sp, #8
 8002970:	af00      	add	r7, sp, #0
 8002972:	6078      	str	r0, [r7, #4]
 8002974:	687b      	ldr	r3, [r7, #4]
 8002976:	2b07      	cmp	r3, #7
 8002978:	d00f      	beq.n	800299a <HAL_NVIC_SetPriorityGrouping+0x2e>
 800297a:	687b      	ldr	r3, [r7, #4]
 800297c:	2b06      	cmp	r3, #6
 800297e:	d00c      	beq.n	800299a <HAL_NVIC_SetPriorityGrouping+0x2e>
 8002980:	687b      	ldr	r3, [r7, #4]
 8002982:	2b05      	cmp	r3, #5
 8002984:	d009      	beq.n	800299a <HAL_NVIC_SetPriorityGrouping+0x2e>
 8002986:	687b      	ldr	r3, [r7, #4]
 8002988:	2b04      	cmp	r3, #4
 800298a:	d006      	beq.n	800299a <HAL_NVIC_SetPriorityGrouping+0x2e>
 800298c:	687b      	ldr	r3, [r7, #4]
 800298e:	2b03      	cmp	r3, #3
 8002990:	d003      	beq.n	800299a <HAL_NVIC_SetPriorityGrouping+0x2e>
 8002992:	21ac      	movs	r1, #172	; 0xac
 8002994:	4804      	ldr	r0, [pc, #16]	; (80029a8 <HAL_NVIC_SetPriorityGrouping+0x3c>)
 8002996:	f7fe fcf1 	bl	800137c <assert_failed>
 800299a:	6878      	ldr	r0, [r7, #4]
 800299c:	f7ff ff3c 	bl	8002818 <__NVIC_SetPriorityGrouping>
 80029a0:	bf00      	nop
 80029a2:	3708      	adds	r7, #8
 80029a4:	46bd      	mov	sp, r7
 80029a6:	bd80      	pop	{r7, pc}
 80029a8:	0800a858 	.word	0x0800a858

080029ac <HAL_NVIC_SetPriority>:
 80029ac:	b580      	push	{r7, lr}
 80029ae:	b086      	sub	sp, #24
 80029b0:	af00      	add	r7, sp, #0
 80029b2:	4603      	mov	r3, r0
 80029b4:	60b9      	str	r1, [r7, #8]
 80029b6:	607a      	str	r2, [r7, #4]
 80029b8:	73fb      	strb	r3, [r7, #15]
 80029ba:	2300      	movs	r3, #0
 80029bc:	617b      	str	r3, [r7, #20]
 80029be:	687b      	ldr	r3, [r7, #4]
 80029c0:	2b0f      	cmp	r3, #15
 80029c2:	d903      	bls.n	80029cc <HAL_NVIC_SetPriority+0x20>
 80029c4:	21c4      	movs	r1, #196	; 0xc4
 80029c6:	480e      	ldr	r0, [pc, #56]	; (8002a00 <HAL_NVIC_SetPriority+0x54>)
 80029c8:	f7fe fcd8 	bl	800137c <assert_failed>
 80029cc:	68bb      	ldr	r3, [r7, #8]
 80029ce:	2b0f      	cmp	r3, #15
 80029d0:	d903      	bls.n	80029da <HAL_NVIC_SetPriority+0x2e>
 80029d2:	21c5      	movs	r1, #197	; 0xc5
 80029d4:	480a      	ldr	r0, [pc, #40]	; (8002a00 <HAL_NVIC_SetPriority+0x54>)
 80029d6:	f7fe fcd1 	bl	800137c <assert_failed>
 80029da:	f7ff ff41 	bl	8002860 <__NVIC_GetPriorityGrouping>
 80029de:	6178      	str	r0, [r7, #20]
 80029e0:	687a      	ldr	r2, [r7, #4]
 80029e2:	68b9      	ldr	r1, [r7, #8]
 80029e4:	6978      	ldr	r0, [r7, #20]
 80029e6:	f7ff ff8f 	bl	8002908 <NVIC_EncodePriority>
 80029ea:	4602      	mov	r2, r0
 80029ec:	f997 300f 	ldrsb.w	r3, [r7, #15]
 80029f0:	4611      	mov	r1, r2
 80029f2:	4618      	mov	r0, r3
 80029f4:	f7ff ff5e 	bl	80028b4 <__NVIC_SetPriority>
 80029f8:	bf00      	nop
 80029fa:	3718      	adds	r7, #24
 80029fc:	46bd      	mov	sp, r7
 80029fe:	bd80      	pop	{r7, pc}
 8002a00:	0800a858 	.word	0x0800a858

08002a04 <HAL_NVIC_EnableIRQ>:
 8002a04:	b580      	push	{r7, lr}
 8002a06:	b082      	sub	sp, #8
 8002a08:	af00      	add	r7, sp, #0
 8002a0a:	4603      	mov	r3, r0
 8002a0c:	71fb      	strb	r3, [r7, #7]
 8002a0e:	f997 3007 	ldrsb.w	r3, [r7, #7]
 8002a12:	2b00      	cmp	r3, #0
 8002a14:	da03      	bge.n	8002a1e <HAL_NVIC_EnableIRQ+0x1a>
 8002a16:	21d8      	movs	r1, #216	; 0xd8
 8002a18:	4805      	ldr	r0, [pc, #20]	; (8002a30 <HAL_NVIC_EnableIRQ+0x2c>)
 8002a1a:	f7fe fcaf 	bl	800137c <assert_failed>
 8002a1e:	f997 3007 	ldrsb.w	r3, [r7, #7]
 8002a22:	4618      	mov	r0, r3
 8002a24:	f7ff ff2a 	bl	800287c <__NVIC_EnableIRQ>
 8002a28:	bf00      	nop
 8002a2a:	3708      	adds	r7, #8
 8002a2c:	46bd      	mov	sp, r7
 8002a2e:	bd80      	pop	{r7, pc}
 8002a30:	0800a858 	.word	0x0800a858

08002a34 <HAL_DMA_Init>:
 8002a34:	b580      	push	{r7, lr}
 8002a36:	b084      	sub	sp, #16
 8002a38:	af00      	add	r7, sp, #0
 8002a3a:	6078      	str	r0, [r7, #4]
 8002a3c:	687b      	ldr	r3, [r7, #4]
 8002a3e:	2b00      	cmp	r3, #0
 8002a40:	d101      	bne.n	8002a46 <HAL_DMA_Init+0x12>
 8002a42:	2301      	movs	r3, #1
 8002a44:	e109      	b.n	8002c5a <HAL_DMA_Init+0x226>
 8002a46:	687b      	ldr	r3, [r7, #4]
 8002a48:	681b      	ldr	r3, [r3, #0]
 8002a4a:	4a86      	ldr	r2, [pc, #536]	; (8002c64 <HAL_DMA_Init+0x230>)
 8002a4c:	4293      	cmp	r3, r2
 8002a4e:	d03a      	beq.n	8002ac6 <HAL_DMA_Init+0x92>
 8002a50:	687b      	ldr	r3, [r7, #4]
 8002a52:	681b      	ldr	r3, [r3, #0]
 8002a54:	4a84      	ldr	r2, [pc, #528]	; (8002c68 <HAL_DMA_Init+0x234>)
 8002a56:	4293      	cmp	r3, r2
 8002a58:	d035      	beq.n	8002ac6 <HAL_DMA_Init+0x92>
 8002a5a:	687b      	ldr	r3, [r7, #4]
 8002a5c:	681b      	ldr	r3, [r3, #0]
 8002a5e:	4a83      	ldr	r2, [pc, #524]	; (8002c6c <HAL_DMA_Init+0x238>)
 8002a60:	4293      	cmp	r3, r2
 8002a62:	d030      	beq.n	8002ac6 <HAL_DMA_Init+0x92>
 8002a64:	687b      	ldr	r3, [r7, #4]
 8002a66:	681b      	ldr	r3, [r3, #0]
 8002a68:	4a81      	ldr	r2, [pc, #516]	; (8002c70 <HAL_DMA_Init+0x23c>)
 8002a6a:	4293      	cmp	r3, r2
 8002a6c:	d02b      	beq.n	8002ac6 <HAL_DMA_Init+0x92>
 8002a6e:	687b      	ldr	r3, [r7, #4]
 8002a70:	681b      	ldr	r3, [r3, #0]
 8002a72:	4a80      	ldr	r2, [pc, #512]	; (8002c74 <HAL_DMA_Init+0x240>)
 8002a74:	4293      	cmp	r3, r2
 8002a76:	d026      	beq.n	8002ac6 <HAL_DMA_Init+0x92>
 8002a78:	687b      	ldr	r3, [r7, #4]
 8002a7a:	681b      	ldr	r3, [r3, #0]
 8002a7c:	4a7e      	ldr	r2, [pc, #504]	; (8002c78 <HAL_DMA_Init+0x244>)
 8002a7e:	4293      	cmp	r3, r2
 8002a80:	d021      	beq.n	8002ac6 <HAL_DMA_Init+0x92>
 8002a82:	687b      	ldr	r3, [r7, #4]
 8002a84:	681b      	ldr	r3, [r3, #0]
 8002a86:	4a7d      	ldr	r2, [pc, #500]	; (8002c7c <HAL_DMA_Init+0x248>)
 8002a88:	4293      	cmp	r3, r2
 8002a8a:	d01c      	beq.n	8002ac6 <HAL_DMA_Init+0x92>
 8002a8c:	687b      	ldr	r3, [r7, #4]
 8002a8e:	681b      	ldr	r3, [r3, #0]
 8002a90:	4a7b      	ldr	r2, [pc, #492]	; (8002c80 <HAL_DMA_Init+0x24c>)
 8002a92:	4293      	cmp	r3, r2
 8002a94:	d017      	beq.n	8002ac6 <HAL_DMA_Init+0x92>
 8002a96:	687b      	ldr	r3, [r7, #4]
 8002a98:	681b      	ldr	r3, [r3, #0]
 8002a9a:	4a7a      	ldr	r2, [pc, #488]	; (8002c84 <HAL_DMA_Init+0x250>)
 8002a9c:	4293      	cmp	r3, r2
 8002a9e:	d012      	beq.n	8002ac6 <HAL_DMA_Init+0x92>
 8002aa0:	687b      	ldr	r3, [r7, #4]
 8002aa2:	681b      	ldr	r3, [r3, #0]
 8002aa4:	4a78      	ldr	r2, [pc, #480]	; (8002c88 <HAL_DMA_Init+0x254>)
 8002aa6:	4293      	cmp	r3, r2
 8002aa8:	d00d      	beq.n	8002ac6 <HAL_DMA_Init+0x92>
 8002aaa:	687b      	ldr	r3, [r7, #4]
 8002aac:	681b      	ldr	r3, [r3, #0]
 8002aae:	4a77      	ldr	r2, [pc, #476]	; (8002c8c <HAL_DMA_Init+0x258>)
 8002ab0:	4293      	cmp	r3, r2
 8002ab2:	d008      	beq.n	8002ac6 <HAL_DMA_Init+0x92>
 8002ab4:	687b      	ldr	r3, [r7, #4]
 8002ab6:	681b      	ldr	r3, [r3, #0]
 8002ab8:	4a75      	ldr	r2, [pc, #468]	; (8002c90 <HAL_DMA_Init+0x25c>)
 8002aba:	4293      	cmp	r3, r2
 8002abc:	d003      	beq.n	8002ac6 <HAL_DMA_Init+0x92>
 8002abe:	219a      	movs	r1, #154	; 0x9a
 8002ac0:	4874      	ldr	r0, [pc, #464]	; (8002c94 <HAL_DMA_Init+0x260>)
 8002ac2:	f7fe fc5b 	bl	800137c <assert_failed>
 8002ac6:	687b      	ldr	r3, [r7, #4]
 8002ac8:	685b      	ldr	r3, [r3, #4]
 8002aca:	2b00      	cmp	r3, #0
 8002acc:	d00c      	beq.n	8002ae8 <HAL_DMA_Init+0xb4>
 8002ace:	687b      	ldr	r3, [r7, #4]
 8002ad0:	685b      	ldr	r3, [r3, #4]
 8002ad2:	2b10      	cmp	r3, #16
 8002ad4:	d008      	beq.n	8002ae8 <HAL_DMA_Init+0xb4>
 8002ad6:	687b      	ldr	r3, [r7, #4]
 8002ad8:	685b      	ldr	r3, [r3, #4]
 8002ada:	f5b3 4f80 	cmp.w	r3, #16384	; 0x4000
 8002ade:	d003      	beq.n	8002ae8 <HAL_DMA_Init+0xb4>
 8002ae0:	219b      	movs	r1, #155	; 0x9b
 8002ae2:	486c      	ldr	r0, [pc, #432]	; (8002c94 <HAL_DMA_Init+0x260>)
 8002ae4:	f7fe fc4a 	bl	800137c <assert_failed>
 8002ae8:	687b      	ldr	r3, [r7, #4]
 8002aea:	689b      	ldr	r3, [r3, #8]
 8002aec:	2b40      	cmp	r3, #64	; 0x40
 8002aee:	d007      	beq.n	8002b00 <HAL_DMA_Init+0xcc>
 8002af0:	687b      	ldr	r3, [r7, #4]
 8002af2:	689b      	ldr	r3, [r3, #8]
 8002af4:	2b00      	cmp	r3, #0
 8002af6:	d003      	beq.n	8002b00 <HAL_DMA_Init+0xcc>
 8002af8:	219c      	movs	r1, #156	; 0x9c
 8002afa:	4866      	ldr	r0, [pc, #408]	; (8002c94 <HAL_DMA_Init+0x260>)
 8002afc:	f7fe fc3e 	bl	800137c <assert_failed>
 8002b00:	687b      	ldr	r3, [r7, #4]
 8002b02:	68db      	ldr	r3, [r3, #12]
 8002b04:	2b80      	cmp	r3, #128	; 0x80
 8002b06:	d007      	beq.n	8002b18 <HAL_DMA_Init+0xe4>
 8002b08:	687b      	ldr	r3, [r7, #4]
 8002b0a:	68db      	ldr	r3, [r3, #12]
 8002b0c:	2b00      	cmp	r3, #0
 8002b0e:	d003      	beq.n	8002b18 <HAL_DMA_Init+0xe4>
 8002b10:	219d      	movs	r1, #157	; 0x9d
 8002b12:	4860      	ldr	r0, [pc, #384]	; (8002c94 <HAL_DMA_Init+0x260>)
 8002b14:	f7fe fc32 	bl	800137c <assert_failed>
 8002b18:	687b      	ldr	r3, [r7, #4]
 8002b1a:	691b      	ldr	r3, [r3, #16]
 8002b1c:	2b00      	cmp	r3, #0
 8002b1e:	d00d      	beq.n	8002b3c <HAL_DMA_Init+0x108>
 8002b20:	687b      	ldr	r3, [r7, #4]
 8002b22:	691b      	ldr	r3, [r3, #16]
 8002b24:	f5b3 7f80 	cmp.w	r3, #256	; 0x100
 8002b28:	d008      	beq.n	8002b3c <HAL_DMA_Init+0x108>
 8002b2a:	687b      	ldr	r3, [r7, #4]
 8002b2c:	691b      	ldr	r3, [r3, #16]
 8002b2e:	f5b3 7f00 	cmp.w	r3, #512	; 0x200
 8002b32:	d003      	beq.n	8002b3c <HAL_DMA_Init+0x108>
 8002b34:	219e      	movs	r1, #158	; 0x9e
 8002b36:	4857      	ldr	r0, [pc, #348]	; (8002c94 <HAL_DMA_Init+0x260>)
 8002b38:	f7fe fc20 	bl	800137c <assert_failed>
 8002b3c:	687b      	ldr	r3, [r7, #4]
 8002b3e:	695b      	ldr	r3, [r3, #20]
 8002b40:	2b00      	cmp	r3, #0
 8002b42:	d00d      	beq.n	8002b60 <HAL_DMA_Init+0x12c>
 8002b44:	687b      	ldr	r3, [r7, #4]
 8002b46:	695b      	ldr	r3, [r3, #20]
 8002b48:	f5b3 6f80 	cmp.w	r3, #1024	; 0x400
 8002b4c:	d008      	beq.n	8002b60 <HAL_DMA_Init+0x12c>
 8002b4e:	687b      	ldr	r3, [r7, #4]
 8002b50:	695b      	ldr	r3, [r3, #20]
 8002b52:	f5b3 6f00 	cmp.w	r3, #2048	; 0x800
 8002b56:	d003      	beq.n	8002b60 <HAL_DMA_Init+0x12c>
 8002b58:	219f      	movs	r1, #159	; 0x9f
 8002b5a:	484e      	ldr	r0, [pc, #312]	; (8002c94 <HAL_DMA_Init+0x260>)
 8002b5c:	f7fe fc0e 	bl	800137c <assert_failed>
 8002b60:	687b      	ldr	r3, [r7, #4]
 8002b62:	699b      	ldr	r3, [r3, #24]
 8002b64:	2b00      	cmp	r3, #0
 8002b66:	d007      	beq.n	8002b78 <HAL_DMA_Init+0x144>
 8002b68:	687b      	ldr	r3, [r7, #4]
 8002b6a:	699b      	ldr	r3, [r3, #24]
 8002b6c:	2b20      	cmp	r3, #32
 8002b6e:	d003      	beq.n	8002b78 <HAL_DMA_Init+0x144>
 8002b70:	21a0      	movs	r1, #160	; 0xa0
 8002b72:	4848      	ldr	r0, [pc, #288]	; (8002c94 <HAL_DMA_Init+0x260>)
 8002b74:	f7fe fc02 	bl	800137c <assert_failed>
 8002b78:	687b      	ldr	r3, [r7, #4]
 8002b7a:	69db      	ldr	r3, [r3, #28]
 8002b7c:	2b00      	cmp	r3, #0
 8002b7e:	d012      	beq.n	8002ba6 <HAL_DMA_Init+0x172>
 8002b80:	687b      	ldr	r3, [r7, #4]
 8002b82:	69db      	ldr	r3, [r3, #28]
 8002b84:	f5b3 5f80 	cmp.w	r3, #4096	; 0x1000
 8002b88:	d00d      	beq.n	8002ba6 <HAL_DMA_Init+0x172>
 8002b8a:	687b      	ldr	r3, [r7, #4]
 8002b8c:	69db      	ldr	r3, [r3, #28]
 8002b8e:	f5b3 5f00 	cmp.w	r3, #8192	; 0x2000
 8002b92:	d008      	beq.n	8002ba6 <HAL_DMA_Init+0x172>
 8002b94:	687b      	ldr	r3, [r7, #4]
 8002b96:	69db      	ldr	r3, [r3, #28]
 8002b98:	f5b3 5f40 	cmp.w	r3, #12288	; 0x3000
 8002b9c:	d003      	beq.n	8002ba6 <HAL_DMA_Init+0x172>
 8002b9e:	21a1      	movs	r1, #161	; 0xa1
 8002ba0:	483c      	ldr	r0, [pc, #240]	; (8002c94 <HAL_DMA_Init+0x260>)
 8002ba2:	f7fe fbeb 	bl	800137c <assert_failed>
 8002ba6:	687b      	ldr	r3, [r7, #4]
 8002ba8:	681b      	ldr	r3, [r3, #0]
 8002baa:	461a      	mov	r2, r3
 8002bac:	4b3a      	ldr	r3, [pc, #232]	; (8002c98 <HAL_DMA_Init+0x264>)
 8002bae:	429a      	cmp	r2, r3
 8002bb0:	d80f      	bhi.n	8002bd2 <HAL_DMA_Init+0x19e>
 8002bb2:	687b      	ldr	r3, [r7, #4]
 8002bb4:	681b      	ldr	r3, [r3, #0]
 8002bb6:	461a      	mov	r2, r3
 8002bb8:	4b38      	ldr	r3, [pc, #224]	; (8002c9c <HAL_DMA_Init+0x268>)
 8002bba:	4413      	add	r3, r2
 8002bbc:	4a38      	ldr	r2, [pc, #224]	; (8002ca0 <HAL_DMA_Init+0x26c>)
 8002bbe:	fba2 2303 	umull	r2, r3, r2, r3
 8002bc2:	091b      	lsrs	r3, r3, #4
 8002bc4:	009a      	lsls	r2, r3, #2
 8002bc6:	687b      	ldr	r3, [r7, #4]
 8002bc8:	641a      	str	r2, [r3, #64]	; 0x40
 8002bca:	687b      	ldr	r3, [r7, #4]
 8002bcc:	4a35      	ldr	r2, [pc, #212]	; (8002ca4 <HAL_DMA_Init+0x270>)
 8002bce:	63da      	str	r2, [r3, #60]	; 0x3c
 8002bd0:	e00e      	b.n	8002bf0 <HAL_DMA_Init+0x1bc>
 8002bd2:	687b      	ldr	r3, [r7, #4]
 8002bd4:	681b      	ldr	r3, [r3, #0]
 8002bd6:	461a      	mov	r2, r3
 8002bd8:	4b33      	ldr	r3, [pc, #204]	; (8002ca8 <HAL_DMA_Init+0x274>)
 8002bda:	4413      	add	r3, r2
 8002bdc:	4a30      	ldr	r2, [pc, #192]	; (8002ca0 <HAL_DMA_Init+0x26c>)
 8002bde:	fba2 2303 	umull	r2, r3, r2, r3
 8002be2:	091b      	lsrs	r3, r3, #4
 8002be4:	009a      	lsls	r2, r3, #2
 8002be6:	687b      	ldr	r3, [r7, #4]
 8002be8:	641a      	str	r2, [r3, #64]	; 0x40
 8002bea:	687b      	ldr	r3, [r7, #4]
 8002bec:	4a2f      	ldr	r2, [pc, #188]	; (8002cac <HAL_DMA_Init+0x278>)
 8002bee:	63da      	str	r2, [r3, #60]	; 0x3c
 8002bf0:	687b      	ldr	r3, [r7, #4]
 8002bf2:	2202      	movs	r2, #2
 8002bf4:	f883 2021 	strb.w	r2, [r3, #33]	; 0x21
 8002bf8:	687b      	ldr	r3, [r7, #4]
 8002bfa:	681b      	ldr	r3, [r3, #0]
 8002bfc:	681b      	ldr	r3, [r3, #0]
 8002bfe:	60fb      	str	r3, [r7, #12]
 8002c00:	68fb      	ldr	r3, [r7, #12]
 8002c02:	f423 43ff 	bic.w	r3, r3, #32640	; 0x7f80
 8002c06:	f023 0370 	bic.w	r3, r3, #112	; 0x70
 8002c0a:	60fb      	str	r3, [r7, #12]
 8002c0c:	687b      	ldr	r3, [r7, #4]
 8002c0e:	685a      	ldr	r2, [r3, #4]
 8002c10:	687b      	ldr	r3, [r7, #4]
 8002c12:	689b      	ldr	r3, [r3, #8]
 8002c14:	431a      	orrs	r2, r3
 8002c16:	687b      	ldr	r3, [r7, #4]
 8002c18:	68db      	ldr	r3, [r3, #12]
 8002c1a:	431a      	orrs	r2, r3
 8002c1c:	687b      	ldr	r3, [r7, #4]
 8002c1e:	691b      	ldr	r3, [r3, #16]
 8002c20:	431a      	orrs	r2, r3
 8002c22:	687b      	ldr	r3, [r7, #4]
 8002c24:	695b      	ldr	r3, [r3, #20]
 8002c26:	431a      	orrs	r2, r3
 8002c28:	687b      	ldr	r3, [r7, #4]
 8002c2a:	699b      	ldr	r3, [r3, #24]
 8002c2c:	431a      	orrs	r2, r3
 8002c2e:	687b      	ldr	r3, [r7, #4]
 8002c30:	69db      	ldr	r3, [r3, #28]
 8002c32:	4313      	orrs	r3, r2
 8002c34:	68fa      	ldr	r2, [r7, #12]
 8002c36:	4313      	orrs	r3, r2
 8002c38:	60fb      	str	r3, [r7, #12]
 8002c3a:	687b      	ldr	r3, [r7, #4]
 8002c3c:	681b      	ldr	r3, [r3, #0]
 8002c3e:	68fa      	ldr	r2, [r7, #12]
 8002c40:	601a      	str	r2, [r3, #0]
 8002c42:	687b      	ldr	r3, [r7, #4]
 8002c44:	2200      	movs	r2, #0
 8002c46:	639a      	str	r2, [r3, #56]	; 0x38
 8002c48:	687b      	ldr	r3, [r7, #4]
 8002c4a:	2201      	movs	r2, #1
 8002c4c:	f883 2021 	strb.w	r2, [r3, #33]	; 0x21
 8002c50:	687b      	ldr	r3, [r7, #4]
 8002c52:	2200      	movs	r2, #0
 8002c54:	f883 2020 	strb.w	r2, [r3, #32]
 8002c58:	2300      	movs	r3, #0
 8002c5a:	4618      	mov	r0, r3
 8002c5c:	3710      	adds	r7, #16
 8002c5e:	46bd      	mov	sp, r7
 8002c60:	bd80      	pop	{r7, pc}
 8002c62:	bf00      	nop
 8002c64:	40026008 	.word	0x40026008
 8002c68:	4002601c 	.word	0x4002601c
 8002c6c:	40026030 	.word	0x40026030
 8002c70:	40026044 	.word	0x40026044
 8002c74:	40026058 	.word	0x40026058
 8002c78:	4002606c 	.word	0x4002606c
 8002c7c:	40026080 	.word	0x40026080
 8002c80:	40026408 	.word	0x40026408
 8002c84:	4002641c 	.word	0x4002641c
 8002c88:	40026430 	.word	0x40026430
 8002c8c:	40026444 	.word	0x40026444
 8002c90:	40026458 	.word	0x40026458
 8002c94:	0800a894 	.word	0x0800a894
 8002c98:	40026407 	.word	0x40026407
 8002c9c:	bffd9ff8 	.word	0xbffd9ff8
 8002ca0:	cccccccd 	.word	0xcccccccd
 8002ca4:	40026000 	.word	0x40026000
 8002ca8:	bffd9bf8 	.word	0xbffd9bf8
 8002cac:	40026400 	.word	0x40026400

08002cb0 <HAL_DMA_Start_IT>:
 8002cb0:	b580      	push	{r7, lr}
 8002cb2:	b086      	sub	sp, #24
 8002cb4:	af00      	add	r7, sp, #0
 8002cb6:	60f8      	str	r0, [r7, #12]
 8002cb8:	60b9      	str	r1, [r7, #8]
 8002cba:	607a      	str	r2, [r7, #4]
 8002cbc:	603b      	str	r3, [r7, #0]
 8002cbe:	2300      	movs	r3, #0
 8002cc0:	75fb      	strb	r3, [r7, #23]
 8002cc2:	683b      	ldr	r3, [r7, #0]
 8002cc4:	2b00      	cmp	r3, #0
 8002cc6:	d003      	beq.n	8002cd0 <HAL_DMA_Start_IT+0x20>
 8002cc8:	683b      	ldr	r3, [r7, #0]
 8002cca:	f5b3 3f80 	cmp.w	r3, #65536	; 0x10000
 8002cce:	d304      	bcc.n	8002cda <HAL_DMA_Start_IT+0x2a>
 8002cd0:	f44f 71b5 	mov.w	r1, #362	; 0x16a
 8002cd4:	482c      	ldr	r0, [pc, #176]	; (8002d88 <HAL_DMA_Start_IT+0xd8>)
 8002cd6:	f7fe fb51 	bl	800137c <assert_failed>
 8002cda:	68fb      	ldr	r3, [r7, #12]
 8002cdc:	f893 3020 	ldrb.w	r3, [r3, #32]
 8002ce0:	2b01      	cmp	r3, #1
 8002ce2:	d101      	bne.n	8002ce8 <HAL_DMA_Start_IT+0x38>
 8002ce4:	2302      	movs	r3, #2
 8002ce6:	e04b      	b.n	8002d80 <HAL_DMA_Start_IT+0xd0>
 8002ce8:	68fb      	ldr	r3, [r7, #12]
 8002cea:	2201      	movs	r2, #1
 8002cec:	f883 2020 	strb.w	r2, [r3, #32]
 8002cf0:	68fb      	ldr	r3, [r7, #12]
 8002cf2:	f893 3021 	ldrb.w	r3, [r3, #33]	; 0x21
 8002cf6:	b2db      	uxtb	r3, r3
 8002cf8:	2b01      	cmp	r3, #1
 8002cfa:	d13a      	bne.n	8002d72 <HAL_DMA_Start_IT+0xc2>
 8002cfc:	68fb      	ldr	r3, [r7, #12]
 8002cfe:	2202      	movs	r2, #2
 8002d00:	f883 2021 	strb.w	r2, [r3, #33]	; 0x21
 8002d04:	68fb      	ldr	r3, [r7, #12]
 8002d06:	2200      	movs	r2, #0
 8002d08:	639a      	str	r2, [r3, #56]	; 0x38
 8002d0a:	68fb      	ldr	r3, [r7, #12]
 8002d0c:	681b      	ldr	r3, [r3, #0]
 8002d0e:	681a      	ldr	r2, [r3, #0]
 8002d10:	68fb      	ldr	r3, [r7, #12]
 8002d12:	681b      	ldr	r3, [r3, #0]
 8002d14:	f022 0201 	bic.w	r2, r2, #1
 8002d18:	601a      	str	r2, [r3, #0]
 8002d1a:	683b      	ldr	r3, [r7, #0]
 8002d1c:	687a      	ldr	r2, [r7, #4]
 8002d1e:	68b9      	ldr	r1, [r7, #8]
 8002d20:	68f8      	ldr	r0, [r7, #12]
 8002d22:	f000 f8e2 	bl	8002eea <DMA_SetConfig>
 8002d26:	68fb      	ldr	r3, [r7, #12]
 8002d28:	6adb      	ldr	r3, [r3, #44]	; 0x2c
 8002d2a:	2b00      	cmp	r3, #0
 8002d2c:	d008      	beq.n	8002d40 <HAL_DMA_Start_IT+0x90>
 8002d2e:	68fb      	ldr	r3, [r7, #12]
 8002d30:	681b      	ldr	r3, [r3, #0]
 8002d32:	681a      	ldr	r2, [r3, #0]
 8002d34:	68fb      	ldr	r3, [r7, #12]
 8002d36:	681b      	ldr	r3, [r3, #0]
 8002d38:	f042 020e 	orr.w	r2, r2, #14
 8002d3c:	601a      	str	r2, [r3, #0]
 8002d3e:	e00f      	b.n	8002d60 <HAL_DMA_Start_IT+0xb0>
 8002d40:	68fb      	ldr	r3, [r7, #12]
 8002d42:	681b      	ldr	r3, [r3, #0]
 8002d44:	681a      	ldr	r2, [r3, #0]
 8002d46:	68fb      	ldr	r3, [r7, #12]
 8002d48:	681b      	ldr	r3, [r3, #0]
 8002d4a:	f022 0204 	bic.w	r2, r2, #4
 8002d4e:	601a      	str	r2, [r3, #0]
 8002d50:	68fb      	ldr	r3, [r7, #12]
 8002d52:	681b      	ldr	r3, [r3, #0]
 8002d54:	681a      	ldr	r2, [r3, #0]
 8002d56:	68fb      	ldr	r3, [r7, #12]
 8002d58:	681b      	ldr	r3, [r3, #0]
 8002d5a:	f042 020a 	orr.w	r2, r2, #10
 8002d5e:	601a      	str	r2, [r3, #0]
 8002d60:	68fb      	ldr	r3, [r7, #12]
 8002d62:	681b      	ldr	r3, [r3, #0]
 8002d64:	681a      	ldr	r2, [r3, #0]
 8002d66:	68fb      	ldr	r3, [r7, #12]
 8002d68:	681b      	ldr	r3, [r3, #0]
 8002d6a:	f042 0201 	orr.w	r2, r2, #1
 8002d6e:	601a      	str	r2, [r3, #0]
 8002d70:	e005      	b.n	8002d7e <HAL_DMA_Start_IT+0xce>
 8002d72:	68fb      	ldr	r3, [r7, #12]
 8002d74:	2200      	movs	r2, #0
 8002d76:	f883 2020 	strb.w	r2, [r3, #32]
 8002d7a:	2302      	movs	r3, #2
 8002d7c:	75fb      	strb	r3, [r7, #23]
 8002d7e:	7dfb      	ldrb	r3, [r7, #23]
 8002d80:	4618      	mov	r0, r3
 8002d82:	3718      	adds	r7, #24
 8002d84:	46bd      	mov	sp, r7
 8002d86:	bd80      	pop	{r7, pc}
 8002d88:	0800a894 	.word	0x0800a894

08002d8c <HAL_DMA_IRQHandler>:
 8002d8c:	b580      	push	{r7, lr}
 8002d8e:	b084      	sub	sp, #16
 8002d90:	af00      	add	r7, sp, #0
 8002d92:	6078      	str	r0, [r7, #4]
 8002d94:	687b      	ldr	r3, [r7, #4]
 8002d96:	6bdb      	ldr	r3, [r3, #60]	; 0x3c
 8002d98:	681b      	ldr	r3, [r3, #0]
 8002d9a:	60fb      	str	r3, [r7, #12]
 8002d9c:	687b      	ldr	r3, [r7, #4]
 8002d9e:	681b      	ldr	r3, [r3, #0]
 8002da0:	681b      	ldr	r3, [r3, #0]
 8002da2:	60bb      	str	r3, [r7, #8]
 8002da4:	687b      	ldr	r3, [r7, #4]
 8002da6:	6c1b      	ldr	r3, [r3, #64]	; 0x40
 8002da8:	f003 031c 	and.w	r3, r3, #28
 8002dac:	2204      	movs	r2, #4
 8002dae:	409a      	lsls	r2, r3
 8002db0:	68fb      	ldr	r3, [r7, #12]
 8002db2:	4013      	ands	r3, r2
 8002db4:	2b00      	cmp	r3, #0
 8002db6:	d026      	beq.n	8002e06 <HAL_DMA_IRQHandler+0x7a>
 8002db8:	68bb      	ldr	r3, [r7, #8]
 8002dba:	f003 0304 	and.w	r3, r3, #4
 8002dbe:	2b00      	cmp	r3, #0
 8002dc0:	d021      	beq.n	8002e06 <HAL_DMA_IRQHandler+0x7a>
 8002dc2:	687b      	ldr	r3, [r7, #4]
 8002dc4:	681b      	ldr	r3, [r3, #0]
 8002dc6:	681b      	ldr	r3, [r3, #0]
 8002dc8:	f003 0320 	and.w	r3, r3, #32
 8002dcc:	2b00      	cmp	r3, #0
 8002dce:	d107      	bne.n	8002de0 <HAL_DMA_IRQHandler+0x54>
 8002dd0:	687b      	ldr	r3, [r7, #4]
 8002dd2:	681b      	ldr	r3, [r3, #0]
 8002dd4:	681a      	ldr	r2, [r3, #0]
 8002dd6:	687b      	ldr	r3, [r7, #4]
 8002dd8:	681b      	ldr	r3, [r3, #0]
 8002dda:	f022 0204 	bic.w	r2, r2, #4
 8002dde:	601a      	str	r2, [r3, #0]
 8002de0:	687b      	ldr	r3, [r7, #4]
 8002de2:	6c1b      	ldr	r3, [r3, #64]	; 0x40
 8002de4:	f003 021c 	and.w	r2, r3, #28
 8002de8:	687b      	ldr	r3, [r7, #4]
 8002dea:	6bdb      	ldr	r3, [r3, #60]	; 0x3c
 8002dec:	2104      	movs	r1, #4
 8002dee:	fa01 f202 	lsl.w	r2, r1, r2
 8002df2:	605a      	str	r2, [r3, #4]
 8002df4:	687b      	ldr	r3, [r7, #4]
 8002df6:	6adb      	ldr	r3, [r3, #44]	; 0x2c
 8002df8:	2b00      	cmp	r3, #0
 8002dfa:	d071      	beq.n	8002ee0 <HAL_DMA_IRQHandler+0x154>
 8002dfc:	687b      	ldr	r3, [r7, #4]
 8002dfe:	6adb      	ldr	r3, [r3, #44]	; 0x2c
 8002e00:	6878      	ldr	r0, [r7, #4]
 8002e02:	4798      	blx	r3
 8002e04:	e06c      	b.n	8002ee0 <HAL_DMA_IRQHandler+0x154>
 8002e06:	687b      	ldr	r3, [r7, #4]
 8002e08:	6c1b      	ldr	r3, [r3, #64]	; 0x40
 8002e0a:	f003 031c 	and.w	r3, r3, #28
 8002e0e:	2202      	movs	r2, #2
 8002e10:	409a      	lsls	r2, r3
 8002e12:	68fb      	ldr	r3, [r7, #12]
 8002e14:	4013      	ands	r3, r2
 8002e16:	2b00      	cmp	r3, #0
 8002e18:	d02e      	beq.n	8002e78 <HAL_DMA_IRQHandler+0xec>
 8002e1a:	68bb      	ldr	r3, [r7, #8]
 8002e1c:	f003 0302 	and.w	r3, r3, #2
 8002e20:	2b00      	cmp	r3, #0
 8002e22:	d029      	beq.n	8002e78 <HAL_DMA_IRQHandler+0xec>
 8002e24:	687b      	ldr	r3, [r7, #4]
 8002e26:	681b      	ldr	r3, [r3, #0]
 8002e28:	681b      	ldr	r3, [r3, #0]
 8002e2a:	f003 0320 	and.w	r3, r3, #32
 8002e2e:	2b00      	cmp	r3, #0
 8002e30:	d10b      	bne.n	8002e4a <HAL_DMA_IRQHandler+0xbe>
 8002e32:	687b      	ldr	r3, [r7, #4]
 8002e34:	681b      	ldr	r3, [r3, #0]
 8002e36:	681a      	ldr	r2, [r3, #0]
 8002e38:	687b      	ldr	r3, [r7, #4]
 8002e3a:	681b      	ldr	r3, [r3, #0]
 8002e3c:	f022 020a 	bic.w	r2, r2, #10
 8002e40:	601a      	str	r2, [r3, #0]
 8002e42:	687b      	ldr	r3, [r7, #4]
 8002e44:	2201      	movs	r2, #1
 8002e46:	f883 2021 	strb.w	r2, [r3, #33]	; 0x21
 8002e4a:	687b      	ldr	r3, [r7, #4]
 8002e4c:	6c1b      	ldr	r3, [r3, #64]	; 0x40
 8002e4e:	f003 021c 	and.w	r2, r3, #28
 8002e52:	687b      	ldr	r3, [r7, #4]
 8002e54:	6bdb      	ldr	r3, [r3, #60]	; 0x3c
 8002e56:	2102      	movs	r1, #2
 8002e58:	fa01 f202 	lsl.w	r2, r1, r2
 8002e5c:	605a      	str	r2, [r3, #4]
 8002e5e:	687b      	ldr	r3, [r7, #4]
 8002e60:	2200      	movs	r2, #0
 8002e62:	f883 2020 	strb.w	r2, [r3, #32]
 8002e66:	687b      	ldr	r3, [r7, #4]
 8002e68:	6a9b      	ldr	r3, [r3, #40]	; 0x28
 8002e6a:	2b00      	cmp	r3, #0
 8002e6c:	d038      	beq.n	8002ee0 <HAL_DMA_IRQHandler+0x154>
 8002e6e:	687b      	ldr	r3, [r7, #4]
 8002e70:	6a9b      	ldr	r3, [r3, #40]	; 0x28
 8002e72:	6878      	ldr	r0, [r7, #4]
 8002e74:	4798      	blx	r3
 8002e76:	e033      	b.n	8002ee0 <HAL_DMA_IRQHandler+0x154>
 8002e78:	687b      	ldr	r3, [r7, #4]
 8002e7a:	6c1b      	ldr	r3, [r3, #64]	; 0x40
 8002e7c:	f003 031c 	and.w	r3, r3, #28
 8002e80:	2208      	movs	r2, #8
 8002e82:	409a      	lsls	r2, r3
 8002e84:	68fb      	ldr	r3, [r7, #12]
 8002e86:	4013      	ands	r3, r2
 8002e88:	2b00      	cmp	r3, #0
 8002e8a:	d02a      	beq.n	8002ee2 <HAL_DMA_IRQHandler+0x156>
 8002e8c:	68bb      	ldr	r3, [r7, #8]
 8002e8e:	f003 0308 	and.w	r3, r3, #8
 8002e92:	2b00      	cmp	r3, #0
 8002e94:	d025      	beq.n	8002ee2 <HAL_DMA_IRQHandler+0x156>
 8002e96:	687b      	ldr	r3, [r7, #4]
 8002e98:	681b      	ldr	r3, [r3, #0]
 8002e9a:	681a      	ldr	r2, [r3, #0]
 8002e9c:	687b      	ldr	r3, [r7, #4]
 8002e9e:	681b      	ldr	r3, [r3, #0]
 8002ea0:	f022 020e 	bic.w	r2, r2, #14
 8002ea4:	601a      	str	r2, [r3, #0]
 8002ea6:	687b      	ldr	r3, [r7, #4]
 8002ea8:	6c1b      	ldr	r3, [r3, #64]	; 0x40
 8002eaa:	f003 021c 	and.w	r2, r3, #28
 8002eae:	687b      	ldr	r3, [r7, #4]
 8002eb0:	6bdb      	ldr	r3, [r3, #60]	; 0x3c
 8002eb2:	2101      	movs	r1, #1
 8002eb4:	fa01 f202 	lsl.w	r2, r1, r2
 8002eb8:	605a      	str	r2, [r3, #4]
 8002eba:	687b      	ldr	r3, [r7, #4]
 8002ebc:	2201      	movs	r2, #1
 8002ebe:	639a      	str	r2, [r3, #56]	; 0x38
 8002ec0:	687b      	ldr	r3, [r7, #4]
 8002ec2:	2201      	movs	r2, #1
 8002ec4:	f883 2021 	strb.w	r2, [r3, #33]	; 0x21
 8002ec8:	687b      	ldr	r3, [r7, #4]
 8002eca:	2200      	movs	r2, #0
 8002ecc:	f883 2020 	strb.w	r2, [r3, #32]
 8002ed0:	687b      	ldr	r3, [r7, #4]
 8002ed2:	6b1b      	ldr	r3, [r3, #48]	; 0x30
 8002ed4:	2b00      	cmp	r3, #0
 8002ed6:	d004      	beq.n	8002ee2 <HAL_DMA_IRQHandler+0x156>
 8002ed8:	687b      	ldr	r3, [r7, #4]
 8002eda:	6b1b      	ldr	r3, [r3, #48]	; 0x30
 8002edc:	6878      	ldr	r0, [r7, #4]
 8002ede:	4798      	blx	r3
 8002ee0:	bf00      	nop
 8002ee2:	bf00      	nop
 8002ee4:	3710      	adds	r7, #16
 8002ee6:	46bd      	mov	sp, r7
 8002ee8:	bd80      	pop	{r7, pc}

08002eea <DMA_SetConfig>:
 8002eea:	b480      	push	{r7}
 8002eec:	b085      	sub	sp, #20
 8002eee:	af00      	add	r7, sp, #0
 8002ef0:	60f8      	str	r0, [r7, #12]
 8002ef2:	60b9      	str	r1, [r7, #8]
 8002ef4:	607a      	str	r2, [r7, #4]
 8002ef6:	603b      	str	r3, [r7, #0]
 8002ef8:	68fb      	ldr	r3, [r7, #12]
 8002efa:	6c1b      	ldr	r3, [r3, #64]	; 0x40
 8002efc:	f003 021c 	and.w	r2, r3, #28
 8002f00:	68fb      	ldr	r3, [r7, #12]
 8002f02:	6bdb      	ldr	r3, [r3, #60]	; 0x3c
 8002f04:	2101      	movs	r1, #1
 8002f06:	fa01 f202 	lsl.w	r2, r1, r2
 8002f0a:	605a      	str	r2, [r3, #4]
 8002f0c:	68fb      	ldr	r3, [r7, #12]
 8002f0e:	681b      	ldr	r3, [r3, #0]
 8002f10:	683a      	ldr	r2, [r7, #0]
 8002f12:	605a      	str	r2, [r3, #4]
 8002f14:	68fb      	ldr	r3, [r7, #12]
 8002f16:	685b      	ldr	r3, [r3, #4]
 8002f18:	2b10      	cmp	r3, #16
 8002f1a:	d108      	bne.n	8002f2e <DMA_SetConfig+0x44>
 8002f1c:	68fb      	ldr	r3, [r7, #12]
 8002f1e:	681b      	ldr	r3, [r3, #0]
 8002f20:	687a      	ldr	r2, [r7, #4]
 8002f22:	609a      	str	r2, [r3, #8]
 8002f24:	68fb      	ldr	r3, [r7, #12]
 8002f26:	681b      	ldr	r3, [r3, #0]
 8002f28:	68ba      	ldr	r2, [r7, #8]
 8002f2a:	60da      	str	r2, [r3, #12]
 8002f2c:	e007      	b.n	8002f3e <DMA_SetConfig+0x54>
 8002f2e:	68fb      	ldr	r3, [r7, #12]
 8002f30:	681b      	ldr	r3, [r3, #0]
 8002f32:	68ba      	ldr	r2, [r7, #8]
 8002f34:	609a      	str	r2, [r3, #8]
 8002f36:	68fb      	ldr	r3, [r7, #12]
 8002f38:	681b      	ldr	r3, [r3, #0]
 8002f3a:	687a      	ldr	r2, [r7, #4]
 8002f3c:	60da      	str	r2, [r3, #12]
 8002f3e:	bf00      	nop
 8002f40:	3714      	adds	r7, #20
 8002f42:	46bd      	mov	sp, r7
 8002f44:	bc80      	pop	{r7}
 8002f46:	4770      	bx	lr

08002f48 <HAL_GPIO_Init>:
 8002f48:	b580      	push	{r7, lr}
 8002f4a:	b086      	sub	sp, #24
 8002f4c:	af00      	add	r7, sp, #0
 8002f4e:	6078      	str	r0, [r7, #4]
 8002f50:	6039      	str	r1, [r7, #0]
 8002f52:	2300      	movs	r3, #0
 8002f54:	617b      	str	r3, [r7, #20]
 8002f56:	2300      	movs	r3, #0
 8002f58:	60fb      	str	r3, [r7, #12]
 8002f5a:	2300      	movs	r3, #0
 8002f5c:	613b      	str	r3, [r7, #16]
 8002f5e:	687b      	ldr	r3, [r7, #4]
 8002f60:	4a3f      	ldr	r2, [pc, #252]	; (8003060 <HAL_GPIO_Init+0x118>)
 8002f62:	4293      	cmp	r3, r2
 8002f64:	d01f      	beq.n	8002fa6 <HAL_GPIO_Init+0x5e>
 8002f66:	687b      	ldr	r3, [r7, #4]
 8002f68:	4a3e      	ldr	r2, [pc, #248]	; (8003064 <HAL_GPIO_Init+0x11c>)
 8002f6a:	4293      	cmp	r3, r2
 8002f6c:	d01b      	beq.n	8002fa6 <HAL_GPIO_Init+0x5e>
 8002f6e:	687b      	ldr	r3, [r7, #4]
 8002f70:	4a3d      	ldr	r2, [pc, #244]	; (8003068 <HAL_GPIO_Init+0x120>)
 8002f72:	4293      	cmp	r3, r2
 8002f74:	d017      	beq.n	8002fa6 <HAL_GPIO_Init+0x5e>
 8002f76:	687b      	ldr	r3, [r7, #4]
 8002f78:	4a3c      	ldr	r2, [pc, #240]	; (800306c <HAL_GPIO_Init+0x124>)
 8002f7a:	4293      	cmp	r3, r2
 8002f7c:	d013      	beq.n	8002fa6 <HAL_GPIO_Init+0x5e>
 8002f7e:	687b      	ldr	r3, [r7, #4]
 8002f80:	4a3b      	ldr	r2, [pc, #236]	; (8003070 <HAL_GPIO_Init+0x128>)
 8002f82:	4293      	cmp	r3, r2
 8002f84:	d00f      	beq.n	8002fa6 <HAL_GPIO_Init+0x5e>
 8002f86:	687b      	ldr	r3, [r7, #4]
 8002f88:	4a3a      	ldr	r2, [pc, #232]	; (8003074 <HAL_GPIO_Init+0x12c>)
 8002f8a:	4293      	cmp	r3, r2
 8002f8c:	d00b      	beq.n	8002fa6 <HAL_GPIO_Init+0x5e>
 8002f8e:	687b      	ldr	r3, [r7, #4]
 8002f90:	4a39      	ldr	r2, [pc, #228]	; (8003078 <HAL_GPIO_Init+0x130>)
 8002f92:	4293      	cmp	r3, r2
 8002f94:	d007      	beq.n	8002fa6 <HAL_GPIO_Init+0x5e>
 8002f96:	687b      	ldr	r3, [r7, #4]
 8002f98:	4a38      	ldr	r2, [pc, #224]	; (800307c <HAL_GPIO_Init+0x134>)
 8002f9a:	4293      	cmp	r3, r2
 8002f9c:	d003      	beq.n	8002fa6 <HAL_GPIO_Init+0x5e>
 8002f9e:	21b9      	movs	r1, #185	; 0xb9
 8002fa0:	4837      	ldr	r0, [pc, #220]	; (8003080 <HAL_GPIO_Init+0x138>)
 8002fa2:	f7fe f9eb 	bl	800137c <assert_failed>
 8002fa6:	683b      	ldr	r3, [r7, #0]
 8002fa8:	681b      	ldr	r3, [r3, #0]
 8002faa:	b29b      	uxth	r3, r3
 8002fac:	2b00      	cmp	r3, #0
 8002fae:	d005      	beq.n	8002fbc <HAL_GPIO_Init+0x74>
 8002fb0:	683b      	ldr	r3, [r7, #0]
 8002fb2:	681b      	ldr	r3, [r3, #0]
 8002fb4:	0c1b      	lsrs	r3, r3, #16
 8002fb6:	041b      	lsls	r3, r3, #16
 8002fb8:	2b00      	cmp	r3, #0
 8002fba:	d003      	beq.n	8002fc4 <HAL_GPIO_Init+0x7c>
 8002fbc:	21ba      	movs	r1, #186	; 0xba
 8002fbe:	4830      	ldr	r0, [pc, #192]	; (8003080 <HAL_GPIO_Init+0x138>)
 8002fc0:	f7fe f9dc 	bl	800137c <assert_failed>
 8002fc4:	683b      	ldr	r3, [r7, #0]
 8002fc6:	685b      	ldr	r3, [r3, #4]
 8002fc8:	2b00      	cmp	r3, #0
 8002fca:	d035      	beq.n	8003038 <HAL_GPIO_Init+0xf0>
 8002fcc:	683b      	ldr	r3, [r7, #0]
 8002fce:	685b      	ldr	r3, [r3, #4]
 8002fd0:	2b01      	cmp	r3, #1
 8002fd2:	d031      	beq.n	8003038 <HAL_GPIO_Init+0xf0>
 8002fd4:	683b      	ldr	r3, [r7, #0]
 8002fd6:	685b      	ldr	r3, [r3, #4]
 8002fd8:	2b11      	cmp	r3, #17
 8002fda:	d02d      	beq.n	8003038 <HAL_GPIO_Init+0xf0>
 8002fdc:	683b      	ldr	r3, [r7, #0]
 8002fde:	685b      	ldr	r3, [r3, #4]
 8002fe0:	2b02      	cmp	r3, #2
 8002fe2:	d029      	beq.n	8003038 <HAL_GPIO_Init+0xf0>
 8002fe4:	683b      	ldr	r3, [r7, #0]
 8002fe6:	685b      	ldr	r3, [r3, #4]
 8002fe8:	2b12      	cmp	r3, #18
 8002fea:	d025      	beq.n	8003038 <HAL_GPIO_Init+0xf0>
 8002fec:	683b      	ldr	r3, [r7, #0]
 8002fee:	685b      	ldr	r3, [r3, #4]
 8002ff0:	4a24      	ldr	r2, [pc, #144]	; (8003084 <HAL_GPIO_Init+0x13c>)
 8002ff2:	4293      	cmp	r3, r2
 8002ff4:	d020      	beq.n	8003038 <HAL_GPIO_Init+0xf0>
 8002ff6:	683b      	ldr	r3, [r7, #0]
 8002ff8:	685b      	ldr	r3, [r3, #4]
 8002ffa:	4a23      	ldr	r2, [pc, #140]	; (8003088 <HAL_GPIO_Init+0x140>)
 8002ffc:	4293      	cmp	r3, r2
 8002ffe:	d01b      	beq.n	8003038 <HAL_GPIO_Init+0xf0>
 8003000:	683b      	ldr	r3, [r7, #0]
 8003002:	685b      	ldr	r3, [r3, #4]
 8003004:	4a21      	ldr	r2, [pc, #132]	; (800308c <HAL_GPIO_Init+0x144>)
 8003006:	4293      	cmp	r3, r2
 8003008:	d016      	beq.n	8003038 <HAL_GPIO_Init+0xf0>
 800300a:	683b      	ldr	r3, [r7, #0]
 800300c:	685b      	ldr	r3, [r3, #4]
 800300e:	4a20      	ldr	r2, [pc, #128]	; (8003090 <HAL_GPIO_Init+0x148>)
 8003010:	4293      	cmp	r3, r2
 8003012:	d011      	beq.n	8003038 <HAL_GPIO_Init+0xf0>
 8003014:	683b      	ldr	r3, [r7, #0]
 8003016:	685b      	ldr	r3, [r3, #4]
 8003018:	4a1e      	ldr	r2, [pc, #120]	; (8003094 <HAL_GPIO_Init+0x14c>)
 800301a:	4293      	cmp	r3, r2
 800301c:	d00c      	beq.n	8003038 <HAL_GPIO_Init+0xf0>
 800301e:	683b      	ldr	r3, [r7, #0]
 8003020:	685b      	ldr	r3, [r3, #4]
 8003022:	4a1d      	ldr	r2, [pc, #116]	; (8003098 <HAL_GPIO_Init+0x150>)
 8003024:	4293      	cmp	r3, r2
 8003026:	d007      	beq.n	8003038 <HAL_GPIO_Init+0xf0>
 8003028:	683b      	ldr	r3, [r7, #0]
 800302a:	685b      	ldr	r3, [r3, #4]
 800302c:	2b03      	cmp	r3, #3
 800302e:	d003      	beq.n	8003038 <HAL_GPIO_Init+0xf0>
 8003030:	21bb      	movs	r1, #187	; 0xbb
 8003032:	4813      	ldr	r0, [pc, #76]	; (8003080 <HAL_GPIO_Init+0x138>)
 8003034:	f7fe f9a2 	bl	800137c <assert_failed>
 8003038:	683b      	ldr	r3, [r7, #0]
 800303a:	689b      	ldr	r3, [r3, #8]
 800303c:	2b00      	cmp	r3, #0
 800303e:	f000 81e4 	beq.w	800340a <HAL_GPIO_Init+0x4c2>
 8003042:	683b      	ldr	r3, [r7, #0]
 8003044:	689b      	ldr	r3, [r3, #8]
 8003046:	2b01      	cmp	r3, #1
 8003048:	f000 81df 	beq.w	800340a <HAL_GPIO_Init+0x4c2>
 800304c:	683b      	ldr	r3, [r7, #0]
 800304e:	689b      	ldr	r3, [r3, #8]
 8003050:	2b02      	cmp	r3, #2
 8003052:	f000 81da 	beq.w	800340a <HAL_GPIO_Init+0x4c2>
 8003056:	21bc      	movs	r1, #188	; 0xbc
 8003058:	4809      	ldr	r0, [pc, #36]	; (8003080 <HAL_GPIO_Init+0x138>)
 800305a:	f7fe f98f 	bl	800137c <assert_failed>
 800305e:	e1d4      	b.n	800340a <HAL_GPIO_Init+0x4c2>
 8003060:	40020000 	.word	0x40020000
 8003064:	40020400 	.word	0x40020400
 8003068:	40020800 	.word	0x40020800
 800306c:	40020c00 	.word	0x40020c00
 8003070:	40021000 	.word	0x40021000
 8003074:	40021800 	.word	0x40021800
 8003078:	40021c00 	.word	0x40021c00
 800307c:	40021400 	.word	0x40021400
 8003080:	0800a8cc 	.word	0x0800a8cc
 8003084:	10110000 	.word	0x10110000
 8003088:	10210000 	.word	0x10210000
 800308c:	10310000 	.word	0x10310000
 8003090:	10120000 	.word	0x10120000
 8003094:	10220000 	.word	0x10220000
 8003098:	10320000 	.word	0x10320000
 800309c:	683b      	ldr	r3, [r7, #0]
 800309e:	681a      	ldr	r2, [r3, #0]
 80030a0:	2101      	movs	r1, #1
 80030a2:	697b      	ldr	r3, [r7, #20]
 80030a4:	fa01 f303 	lsl.w	r3, r1, r3
 80030a8:	4013      	ands	r3, r2
 80030aa:	60fb      	str	r3, [r7, #12]
 80030ac:	68fb      	ldr	r3, [r7, #12]
 80030ae:	2b00      	cmp	r3, #0
 80030b0:	f000 81a8 	beq.w	8003404 <HAL_GPIO_Init+0x4bc>
 80030b4:	683b      	ldr	r3, [r7, #0]
 80030b6:	685b      	ldr	r3, [r3, #4]
 80030b8:	2b02      	cmp	r3, #2
 80030ba:	d003      	beq.n	80030c4 <HAL_GPIO_Init+0x17c>
 80030bc:	683b      	ldr	r3, [r7, #0]
 80030be:	685b      	ldr	r3, [r3, #4]
 80030c0:	2b12      	cmp	r3, #18
 80030c2:	d14f      	bne.n	8003164 <HAL_GPIO_Init+0x21c>
 80030c4:	687b      	ldr	r3, [r7, #4]
 80030c6:	4a92      	ldr	r2, [pc, #584]	; (8003310 <HAL_GPIO_Init+0x3c8>)
 80030c8:	4293      	cmp	r3, r2
 80030ca:	d01f      	beq.n	800310c <HAL_GPIO_Init+0x1c4>
 80030cc:	687b      	ldr	r3, [r7, #4]
 80030ce:	4a91      	ldr	r2, [pc, #580]	; (8003314 <HAL_GPIO_Init+0x3cc>)
 80030d0:	4293      	cmp	r3, r2
 80030d2:	d01b      	beq.n	800310c <HAL_GPIO_Init+0x1c4>
 80030d4:	687b      	ldr	r3, [r7, #4]
 80030d6:	4a90      	ldr	r2, [pc, #576]	; (8003318 <HAL_GPIO_Init+0x3d0>)
 80030d8:	4293      	cmp	r3, r2
 80030da:	d017      	beq.n	800310c <HAL_GPIO_Init+0x1c4>
 80030dc:	687b      	ldr	r3, [r7, #4]
 80030de:	4a8f      	ldr	r2, [pc, #572]	; (800331c <HAL_GPIO_Init+0x3d4>)
 80030e0:	4293      	cmp	r3, r2
 80030e2:	d013      	beq.n	800310c <HAL_GPIO_Init+0x1c4>
 80030e4:	687b      	ldr	r3, [r7, #4]
 80030e6:	4a8e      	ldr	r2, [pc, #568]	; (8003320 <HAL_GPIO_Init+0x3d8>)
 80030e8:	4293      	cmp	r3, r2
 80030ea:	d00f      	beq.n	800310c <HAL_GPIO_Init+0x1c4>
 80030ec:	687b      	ldr	r3, [r7, #4]
 80030ee:	4a8d      	ldr	r2, [pc, #564]	; (8003324 <HAL_GPIO_Init+0x3dc>)
 80030f0:	4293      	cmp	r3, r2
 80030f2:	d00b      	beq.n	800310c <HAL_GPIO_Init+0x1c4>
 80030f4:	687b      	ldr	r3, [r7, #4]
 80030f6:	4a8c      	ldr	r2, [pc, #560]	; (8003328 <HAL_GPIO_Init+0x3e0>)
 80030f8:	4293      	cmp	r3, r2
 80030fa:	d007      	beq.n	800310c <HAL_GPIO_Init+0x1c4>
 80030fc:	687b      	ldr	r3, [r7, #4]
 80030fe:	4a8b      	ldr	r2, [pc, #556]	; (800332c <HAL_GPIO_Init+0x3e4>)
 8003100:	4293      	cmp	r3, r2
 8003102:	d003      	beq.n	800310c <HAL_GPIO_Init+0x1c4>
 8003104:	21cb      	movs	r1, #203	; 0xcb
 8003106:	488a      	ldr	r0, [pc, #552]	; (8003330 <HAL_GPIO_Init+0x3e8>)
 8003108:	f7fe f938 	bl	800137c <assert_failed>
 800310c:	683b      	ldr	r3, [r7, #0]
 800310e:	691b      	ldr	r3, [r3, #16]
 8003110:	2b0f      	cmp	r3, #15
 8003112:	d903      	bls.n	800311c <HAL_GPIO_Init+0x1d4>
 8003114:	21cc      	movs	r1, #204	; 0xcc
 8003116:	4886      	ldr	r0, [pc, #536]	; (8003330 <HAL_GPIO_Init+0x3e8>)
 8003118:	f7fe f930 	bl	800137c <assert_failed>
 800311c:	697b      	ldr	r3, [r7, #20]
 800311e:	08da      	lsrs	r2, r3, #3
 8003120:	687b      	ldr	r3, [r7, #4]
 8003122:	3208      	adds	r2, #8
 8003124:	f853 3022 	ldr.w	r3, [r3, r2, lsl #2]
 8003128:	613b      	str	r3, [r7, #16]
 800312a:	697b      	ldr	r3, [r7, #20]
 800312c:	f003 0307 	and.w	r3, r3, #7
 8003130:	009b      	lsls	r3, r3, #2
 8003132:	220f      	movs	r2, #15
 8003134:	fa02 f303 	lsl.w	r3, r2, r3
 8003138:	43db      	mvns	r3, r3
 800313a:	693a      	ldr	r2, [r7, #16]
 800313c:	4013      	ands	r3, r2
 800313e:	613b      	str	r3, [r7, #16]
 8003140:	683b      	ldr	r3, [r7, #0]
 8003142:	691a      	ldr	r2, [r3, #16]
 8003144:	697b      	ldr	r3, [r7, #20]
 8003146:	f003 0307 	and.w	r3, r3, #7
 800314a:	009b      	lsls	r3, r3, #2
 800314c:	fa02 f303 	lsl.w	r3, r2, r3
 8003150:	693a      	ldr	r2, [r7, #16]
 8003152:	4313      	orrs	r3, r2
 8003154:	613b      	str	r3, [r7, #16]
 8003156:	697b      	ldr	r3, [r7, #20]
 8003158:	08da      	lsrs	r2, r3, #3
 800315a:	687b      	ldr	r3, [r7, #4]
 800315c:	3208      	adds	r2, #8
 800315e:	6939      	ldr	r1, [r7, #16]
 8003160:	f843 1022 	str.w	r1, [r3, r2, lsl #2]
 8003164:	687b      	ldr	r3, [r7, #4]
 8003166:	681b      	ldr	r3, [r3, #0]
 8003168:	613b      	str	r3, [r7, #16]
 800316a:	697b      	ldr	r3, [r7, #20]
 800316c:	005b      	lsls	r3, r3, #1
 800316e:	2203      	movs	r2, #3
 8003170:	fa02 f303 	lsl.w	r3, r2, r3
 8003174:	43db      	mvns	r3, r3
 8003176:	693a      	ldr	r2, [r7, #16]
 8003178:	4013      	ands	r3, r2
 800317a:	613b      	str	r3, [r7, #16]
 800317c:	683b      	ldr	r3, [r7, #0]
 800317e:	685b      	ldr	r3, [r3, #4]
 8003180:	f003 0203 	and.w	r2, r3, #3
 8003184:	697b      	ldr	r3, [r7, #20]
 8003186:	005b      	lsls	r3, r3, #1
 8003188:	fa02 f303 	lsl.w	r3, r2, r3
 800318c:	693a      	ldr	r2, [r7, #16]
 800318e:	4313      	orrs	r3, r2
 8003190:	613b      	str	r3, [r7, #16]
 8003192:	687b      	ldr	r3, [r7, #4]
 8003194:	693a      	ldr	r2, [r7, #16]
 8003196:	601a      	str	r2, [r3, #0]
 8003198:	683b      	ldr	r3, [r7, #0]
 800319a:	685b      	ldr	r3, [r3, #4]
 800319c:	2b01      	cmp	r3, #1
 800319e:	d00b      	beq.n	80031b8 <HAL_GPIO_Init+0x270>
 80031a0:	683b      	ldr	r3, [r7, #0]
 80031a2:	685b      	ldr	r3, [r3, #4]
 80031a4:	2b02      	cmp	r3, #2
 80031a6:	d007      	beq.n	80031b8 <HAL_GPIO_Init+0x270>
 80031a8:	683b      	ldr	r3, [r7, #0]
 80031aa:	685b      	ldr	r3, [r3, #4]
 80031ac:	2b11      	cmp	r3, #17
 80031ae:	d003      	beq.n	80031b8 <HAL_GPIO_Init+0x270>
 80031b0:	683b      	ldr	r3, [r7, #0]
 80031b2:	685b      	ldr	r3, [r3, #4]
 80031b4:	2b12      	cmp	r3, #18
 80031b6:	d144      	bne.n	8003242 <HAL_GPIO_Init+0x2fa>
 80031b8:	683b      	ldr	r3, [r7, #0]
 80031ba:	68db      	ldr	r3, [r3, #12]
 80031bc:	2b00      	cmp	r3, #0
 80031be:	d00f      	beq.n	80031e0 <HAL_GPIO_Init+0x298>
 80031c0:	683b      	ldr	r3, [r7, #0]
 80031c2:	68db      	ldr	r3, [r3, #12]
 80031c4:	2b01      	cmp	r3, #1
 80031c6:	d00b      	beq.n	80031e0 <HAL_GPIO_Init+0x298>
 80031c8:	683b      	ldr	r3, [r7, #0]
 80031ca:	68db      	ldr	r3, [r3, #12]
 80031cc:	2b02      	cmp	r3, #2
 80031ce:	d007      	beq.n	80031e0 <HAL_GPIO_Init+0x298>
 80031d0:	683b      	ldr	r3, [r7, #0]
 80031d2:	68db      	ldr	r3, [r3, #12]
 80031d4:	2b03      	cmp	r3, #3
 80031d6:	d003      	beq.n	80031e0 <HAL_GPIO_Init+0x298>
 80031d8:	21e1      	movs	r1, #225	; 0xe1
 80031da:	4855      	ldr	r0, [pc, #340]	; (8003330 <HAL_GPIO_Init+0x3e8>)
 80031dc:	f7fe f8ce 	bl	800137c <assert_failed>
 80031e0:	687b      	ldr	r3, [r7, #4]
 80031e2:	689b      	ldr	r3, [r3, #8]
 80031e4:	613b      	str	r3, [r7, #16]
 80031e6:	697b      	ldr	r3, [r7, #20]
 80031e8:	005b      	lsls	r3, r3, #1
 80031ea:	2203      	movs	r2, #3
 80031ec:	fa02 f303 	lsl.w	r3, r2, r3
 80031f0:	43db      	mvns	r3, r3
 80031f2:	693a      	ldr	r2, [r7, #16]
 80031f4:	4013      	ands	r3, r2
 80031f6:	613b      	str	r3, [r7, #16]
 80031f8:	683b      	ldr	r3, [r7, #0]
 80031fa:	68da      	ldr	r2, [r3, #12]
 80031fc:	697b      	ldr	r3, [r7, #20]
 80031fe:	005b      	lsls	r3, r3, #1
 8003200:	fa02 f303 	lsl.w	r3, r2, r3
 8003204:	693a      	ldr	r2, [r7, #16]
 8003206:	4313      	orrs	r3, r2
 8003208:	613b      	str	r3, [r7, #16]
 800320a:	687b      	ldr	r3, [r7, #4]
 800320c:	693a      	ldr	r2, [r7, #16]
 800320e:	609a      	str	r2, [r3, #8]
 8003210:	687b      	ldr	r3, [r7, #4]
 8003212:	685b      	ldr	r3, [r3, #4]
 8003214:	613b      	str	r3, [r7, #16]
 8003216:	2201      	movs	r2, #1
 8003218:	697b      	ldr	r3, [r7, #20]
 800321a:	fa02 f303 	lsl.w	r3, r2, r3
 800321e:	43db      	mvns	r3, r3
 8003220:	693a      	ldr	r2, [r7, #16]
 8003222:	4013      	ands	r3, r2
 8003224:	613b      	str	r3, [r7, #16]
 8003226:	683b      	ldr	r3, [r7, #0]
 8003228:	685b      	ldr	r3, [r3, #4]
 800322a:	091b      	lsrs	r3, r3, #4
 800322c:	f003 0201 	and.w	r2, r3, #1
 8003230:	697b      	ldr	r3, [r7, #20]
 8003232:	fa02 f303 	lsl.w	r3, r2, r3
 8003236:	693a      	ldr	r2, [r7, #16]
 8003238:	4313      	orrs	r3, r2
 800323a:	613b      	str	r3, [r7, #16]
 800323c:	687b      	ldr	r3, [r7, #4]
 800323e:	693a      	ldr	r2, [r7, #16]
 8003240:	605a      	str	r2, [r3, #4]
 8003242:	687b      	ldr	r3, [r7, #4]
 8003244:	68db      	ldr	r3, [r3, #12]
 8003246:	613b      	str	r3, [r7, #16]
 8003248:	697b      	ldr	r3, [r7, #20]
 800324a:	005b      	lsls	r3, r3, #1
 800324c:	2203      	movs	r2, #3
 800324e:	fa02 f303 	lsl.w	r3, r2, r3
 8003252:	43db      	mvns	r3, r3
 8003254:	693a      	ldr	r2, [r7, #16]
 8003256:	4013      	ands	r3, r2
 8003258:	613b      	str	r3, [r7, #16]
 800325a:	683b      	ldr	r3, [r7, #0]
 800325c:	689a      	ldr	r2, [r3, #8]
 800325e:	697b      	ldr	r3, [r7, #20]
 8003260:	005b      	lsls	r3, r3, #1
 8003262:	fa02 f303 	lsl.w	r3, r2, r3
 8003266:	693a      	ldr	r2, [r7, #16]
 8003268:	4313      	orrs	r3, r2
 800326a:	613b      	str	r3, [r7, #16]
 800326c:	687b      	ldr	r3, [r7, #4]
 800326e:	693a      	ldr	r2, [r7, #16]
 8003270:	60da      	str	r2, [r3, #12]
 8003272:	683b      	ldr	r3, [r7, #0]
 8003274:	685b      	ldr	r3, [r3, #4]
 8003276:	f003 5380 	and.w	r3, r3, #268435456	; 0x10000000
 800327a:	2b00      	cmp	r3, #0
 800327c:	f000 80c2 	beq.w	8003404 <HAL_GPIO_Init+0x4bc>
 8003280:	4b2c      	ldr	r3, [pc, #176]	; (8003334 <HAL_GPIO_Init+0x3ec>)
 8003282:	6a1b      	ldr	r3, [r3, #32]
 8003284:	4a2b      	ldr	r2, [pc, #172]	; (8003334 <HAL_GPIO_Init+0x3ec>)
 8003286:	f043 0301 	orr.w	r3, r3, #1
 800328a:	6213      	str	r3, [r2, #32]
 800328c:	4b29      	ldr	r3, [pc, #164]	; (8003334 <HAL_GPIO_Init+0x3ec>)
 800328e:	6a1b      	ldr	r3, [r3, #32]
 8003290:	f003 0301 	and.w	r3, r3, #1
 8003294:	60bb      	str	r3, [r7, #8]
 8003296:	68bb      	ldr	r3, [r7, #8]
 8003298:	4a27      	ldr	r2, [pc, #156]	; (8003338 <HAL_GPIO_Init+0x3f0>)
 800329a:	697b      	ldr	r3, [r7, #20]
 800329c:	089b      	lsrs	r3, r3, #2
 800329e:	3302      	adds	r3, #2
 80032a0:	f852 3023 	ldr.w	r3, [r2, r3, lsl #2]
 80032a4:	613b      	str	r3, [r7, #16]
 80032a6:	697b      	ldr	r3, [r7, #20]
 80032a8:	f003 0303 	and.w	r3, r3, #3
 80032ac:	009b      	lsls	r3, r3, #2
 80032ae:	220f      	movs	r2, #15
 80032b0:	fa02 f303 	lsl.w	r3, r2, r3
 80032b4:	43db      	mvns	r3, r3
 80032b6:	693a      	ldr	r2, [r7, #16]
 80032b8:	4013      	ands	r3, r2
 80032ba:	613b      	str	r3, [r7, #16]
 80032bc:	687b      	ldr	r3, [r7, #4]
 80032be:	4a14      	ldr	r2, [pc, #80]	; (8003310 <HAL_GPIO_Init+0x3c8>)
 80032c0:	4293      	cmp	r3, r2
 80032c2:	d03b      	beq.n	800333c <HAL_GPIO_Init+0x3f4>
 80032c4:	687b      	ldr	r3, [r7, #4]
 80032c6:	4a13      	ldr	r2, [pc, #76]	; (8003314 <HAL_GPIO_Init+0x3cc>)
 80032c8:	4293      	cmp	r3, r2
 80032ca:	d01f      	beq.n	800330c <HAL_GPIO_Init+0x3c4>
 80032cc:	687b      	ldr	r3, [r7, #4]
 80032ce:	4a12      	ldr	r2, [pc, #72]	; (8003318 <HAL_GPIO_Init+0x3d0>)
 80032d0:	4293      	cmp	r3, r2
 80032d2:	d019      	beq.n	8003308 <HAL_GPIO_Init+0x3c0>
 80032d4:	687b      	ldr	r3, [r7, #4]
 80032d6:	4a11      	ldr	r2, [pc, #68]	; (800331c <HAL_GPIO_Init+0x3d4>)
 80032d8:	4293      	cmp	r3, r2
 80032da:	d013      	beq.n	8003304 <HAL_GPIO_Init+0x3bc>
 80032dc:	687b      	ldr	r3, [r7, #4]
 80032de:	4a10      	ldr	r2, [pc, #64]	; (8003320 <HAL_GPIO_Init+0x3d8>)
 80032e0:	4293      	cmp	r3, r2
 80032e2:	d00d      	beq.n	8003300 <HAL_GPIO_Init+0x3b8>
 80032e4:	687b      	ldr	r3, [r7, #4]
 80032e6:	4a11      	ldr	r2, [pc, #68]	; (800332c <HAL_GPIO_Init+0x3e4>)
 80032e8:	4293      	cmp	r3, r2
 80032ea:	d007      	beq.n	80032fc <HAL_GPIO_Init+0x3b4>
 80032ec:	687b      	ldr	r3, [r7, #4]
 80032ee:	4a0d      	ldr	r2, [pc, #52]	; (8003324 <HAL_GPIO_Init+0x3dc>)
 80032f0:	4293      	cmp	r3, r2
 80032f2:	d101      	bne.n	80032f8 <HAL_GPIO_Init+0x3b0>
 80032f4:	2306      	movs	r3, #6
 80032f6:	e022      	b.n	800333e <HAL_GPIO_Init+0x3f6>
 80032f8:	2307      	movs	r3, #7
 80032fa:	e020      	b.n	800333e <HAL_GPIO_Init+0x3f6>
 80032fc:	2305      	movs	r3, #5
 80032fe:	e01e      	b.n	800333e <HAL_GPIO_Init+0x3f6>
 8003300:	2304      	movs	r3, #4
 8003302:	e01c      	b.n	800333e <HAL_GPIO_Init+0x3f6>
 8003304:	2303      	movs	r3, #3
 8003306:	e01a      	b.n	800333e <HAL_GPIO_Init+0x3f6>
 8003308:	2302      	movs	r3, #2
 800330a:	e018      	b.n	800333e <HAL_GPIO_Init+0x3f6>
 800330c:	2301      	movs	r3, #1
 800330e:	e016      	b.n	800333e <HAL_GPIO_Init+0x3f6>
 8003310:	40020000 	.word	0x40020000
 8003314:	40020400 	.word	0x40020400
 8003318:	40020800 	.word	0x40020800
 800331c:	40020c00 	.word	0x40020c00
 8003320:	40021000 	.word	0x40021000
 8003324:	40021800 	.word	0x40021800
 8003328:	40021c00 	.word	0x40021c00
 800332c:	40021400 	.word	0x40021400
 8003330:	0800a8cc 	.word	0x0800a8cc
 8003334:	40023800 	.word	0x40023800
 8003338:	40010000 	.word	0x40010000
 800333c:	2300      	movs	r3, #0
 800333e:	697a      	ldr	r2, [r7, #20]
 8003340:	f002 0203 	and.w	r2, r2, #3
 8003344:	0092      	lsls	r2, r2, #2
 8003346:	4093      	lsls	r3, r2
 8003348:	693a      	ldr	r2, [r7, #16]
 800334a:	4313      	orrs	r3, r2
 800334c:	613b      	str	r3, [r7, #16]
 800334e:	4935      	ldr	r1, [pc, #212]	; (8003424 <HAL_GPIO_Init+0x4dc>)
 8003350:	697b      	ldr	r3, [r7, #20]
 8003352:	089b      	lsrs	r3, r3, #2
 8003354:	3302      	adds	r3, #2
 8003356:	693a      	ldr	r2, [r7, #16]
 8003358:	f841 2023 	str.w	r2, [r1, r3, lsl #2]
 800335c:	4b32      	ldr	r3, [pc, #200]	; (8003428 <HAL_GPIO_Init+0x4e0>)
 800335e:	681b      	ldr	r3, [r3, #0]
 8003360:	613b      	str	r3, [r7, #16]
 8003362:	68fb      	ldr	r3, [r7, #12]
 8003364:	43db      	mvns	r3, r3
 8003366:	693a      	ldr	r2, [r7, #16]
 8003368:	4013      	ands	r3, r2
 800336a:	613b      	str	r3, [r7, #16]
 800336c:	683b      	ldr	r3, [r7, #0]
 800336e:	685b      	ldr	r3, [r3, #4]
 8003370:	f403 3380 	and.w	r3, r3, #65536	; 0x10000
 8003374:	2b00      	cmp	r3, #0
 8003376:	d003      	beq.n	8003380 <HAL_GPIO_Init+0x438>
 8003378:	693a      	ldr	r2, [r7, #16]
 800337a:	68fb      	ldr	r3, [r7, #12]
 800337c:	4313      	orrs	r3, r2
 800337e:	613b      	str	r3, [r7, #16]
 8003380:	4a29      	ldr	r2, [pc, #164]	; (8003428 <HAL_GPIO_Init+0x4e0>)
 8003382:	693b      	ldr	r3, [r7, #16]
 8003384:	6013      	str	r3, [r2, #0]
 8003386:	4b28      	ldr	r3, [pc, #160]	; (8003428 <HAL_GPIO_Init+0x4e0>)
 8003388:	685b      	ldr	r3, [r3, #4]
 800338a:	613b      	str	r3, [r7, #16]
 800338c:	68fb      	ldr	r3, [r7, #12]
 800338e:	43db      	mvns	r3, r3
 8003390:	693a      	ldr	r2, [r7, #16]
 8003392:	4013      	ands	r3, r2
 8003394:	613b      	str	r3, [r7, #16]
 8003396:	683b      	ldr	r3, [r7, #0]
 8003398:	685b      	ldr	r3, [r3, #4]
 800339a:	f403 3300 	and.w	r3, r3, #131072	; 0x20000
 800339e:	2b00      	cmp	r3, #0
 80033a0:	d003      	beq.n	80033aa <HAL_GPIO_Init+0x462>
 80033a2:	693a      	ldr	r2, [r7, #16]
 80033a4:	68fb      	ldr	r3, [r7, #12]
 80033a6:	4313      	orrs	r3, r2
 80033a8:	613b      	str	r3, [r7, #16]
 80033aa:	4a1f      	ldr	r2, [pc, #124]	; (8003428 <HAL_GPIO_Init+0x4e0>)
 80033ac:	693b      	ldr	r3, [r7, #16]
 80033ae:	6053      	str	r3, [r2, #4]
 80033b0:	4b1d      	ldr	r3, [pc, #116]	; (8003428 <HAL_GPIO_Init+0x4e0>)
 80033b2:	689b      	ldr	r3, [r3, #8]
 80033b4:	613b      	str	r3, [r7, #16]
 80033b6:	68fb      	ldr	r3, [r7, #12]
 80033b8:	43db      	mvns	r3, r3
 80033ba:	693a      	ldr	r2, [r7, #16]
 80033bc:	4013      	ands	r3, r2
 80033be:	613b      	str	r3, [r7, #16]
 80033c0:	683b      	ldr	r3, [r7, #0]
 80033c2:	685b      	ldr	r3, [r3, #4]
 80033c4:	f403 1380 	and.w	r3, r3, #1048576	; 0x100000
 80033c8:	2b00      	cmp	r3, #0
 80033ca:	d003      	beq.n	80033d4 <HAL_GPIO_Init+0x48c>
 80033cc:	693a      	ldr	r2, [r7, #16]
 80033ce:	68fb      	ldr	r3, [r7, #12]
 80033d0:	4313      	orrs	r3, r2
 80033d2:	613b      	str	r3, [r7, #16]
 80033d4:	4a14      	ldr	r2, [pc, #80]	; (8003428 <HAL_GPIO_Init+0x4e0>)
 80033d6:	693b      	ldr	r3, [r7, #16]
 80033d8:	6093      	str	r3, [r2, #8]
 80033da:	4b13      	ldr	r3, [pc, #76]	; (8003428 <HAL_GPIO_Init+0x4e0>)
 80033dc:	68db      	ldr	r3, [r3, #12]
 80033de:	613b      	str	r3, [r7, #16]
 80033e0:	68fb      	ldr	r3, [r7, #12]
 80033e2:	43db      	mvns	r3, r3
 80033e4:	693a      	ldr	r2, [r7, #16]
 80033e6:	4013      	ands	r3, r2
 80033e8:	613b      	str	r3, [r7, #16]
 80033ea:	683b      	ldr	r3, [r7, #0]
 80033ec:	685b      	ldr	r3, [r3, #4]
 80033ee:	f403 1300 	and.w	r3, r3, #2097152	; 0x200000
 80033f2:	2b00      	cmp	r3, #0
 80033f4:	d003      	beq.n	80033fe <HAL_GPIO_Init+0x4b6>
 80033f6:	693a      	ldr	r2, [r7, #16]
 80033f8:	68fb      	ldr	r3, [r7, #12]
 80033fa:	4313      	orrs	r3, r2
 80033fc:	613b      	str	r3, [r7, #16]
 80033fe:	4a0a      	ldr	r2, [pc, #40]	; (8003428 <HAL_GPIO_Init+0x4e0>)
 8003400:	693b      	ldr	r3, [r7, #16]
 8003402:	60d3      	str	r3, [r2, #12]
 8003404:	697b      	ldr	r3, [r7, #20]
 8003406:	3301      	adds	r3, #1
 8003408:	617b      	str	r3, [r7, #20]
 800340a:	683b      	ldr	r3, [r7, #0]
 800340c:	681a      	ldr	r2, [r3, #0]
 800340e:	697b      	ldr	r3, [r7, #20]
 8003410:	fa22 f303 	lsr.w	r3, r2, r3
 8003414:	2b00      	cmp	r3, #0
 8003416:	f47f ae41 	bne.w	800309c <HAL_GPIO_Init+0x154>
 800341a:	bf00      	nop
 800341c:	3718      	adds	r7, #24
 800341e:	46bd      	mov	sp, r7
 8003420:	bd80      	pop	{r7, pc}
 8003422:	bf00      	nop
 8003424:	40010000 	.word	0x40010000
 8003428:	40010400 	.word	0x40010400

0800342c <HAL_GPIO_ReadPin>:
 800342c:	b580      	push	{r7, lr}
 800342e:	b084      	sub	sp, #16
 8003430:	af00      	add	r7, sp, #0
 8003432:	6078      	str	r0, [r7, #4]
 8003434:	460b      	mov	r3, r1
 8003436:	807b      	strh	r3, [r7, #2]
 8003438:	887b      	ldrh	r3, [r7, #2]
 800343a:	2b00      	cmp	r3, #0
 800343c:	d004      	beq.n	8003448 <HAL_GPIO_ReadPin+0x1c>
 800343e:	887b      	ldrh	r3, [r7, #2]
 8003440:	0c1b      	lsrs	r3, r3, #16
 8003442:	041b      	lsls	r3, r3, #16
 8003444:	2b00      	cmp	r3, #0
 8003446:	d004      	beq.n	8003452 <HAL_GPIO_ReadPin+0x26>
 8003448:	f44f 71c3 	mov.w	r1, #390	; 0x186
 800344c:	4809      	ldr	r0, [pc, #36]	; (8003474 <HAL_GPIO_ReadPin+0x48>)
 800344e:	f7fd ff95 	bl	800137c <assert_failed>
 8003452:	687b      	ldr	r3, [r7, #4]
 8003454:	691a      	ldr	r2, [r3, #16]
 8003456:	887b      	ldrh	r3, [r7, #2]
 8003458:	4013      	ands	r3, r2
 800345a:	2b00      	cmp	r3, #0
 800345c:	d002      	beq.n	8003464 <HAL_GPIO_ReadPin+0x38>
 800345e:	2301      	movs	r3, #1
 8003460:	73fb      	strb	r3, [r7, #15]
 8003462:	e001      	b.n	8003468 <HAL_GPIO_ReadPin+0x3c>
 8003464:	2300      	movs	r3, #0
 8003466:	73fb      	strb	r3, [r7, #15]
 8003468:	7bfb      	ldrb	r3, [r7, #15]
 800346a:	4618      	mov	r0, r3
 800346c:	3710      	adds	r7, #16
 800346e:	46bd      	mov	sp, r7
 8003470:	bd80      	pop	{r7, pc}
 8003472:	bf00      	nop
 8003474:	0800a8cc 	.word	0x0800a8cc

08003478 <HAL_GPIO_WritePin>:
 8003478:	b580      	push	{r7, lr}
 800347a:	b082      	sub	sp, #8
 800347c:	af00      	add	r7, sp, #0
 800347e:	6078      	str	r0, [r7, #4]
 8003480:	460b      	mov	r3, r1
 8003482:	807b      	strh	r3, [r7, #2]
 8003484:	4613      	mov	r3, r2
 8003486:	707b      	strb	r3, [r7, #1]
 8003488:	887b      	ldrh	r3, [r7, #2]
 800348a:	2b00      	cmp	r3, #0
 800348c:	d004      	beq.n	8003498 <HAL_GPIO_WritePin+0x20>
 800348e:	887b      	ldrh	r3, [r7, #2]
 8003490:	0c1b      	lsrs	r3, r3, #16
 8003492:	041b      	lsls	r3, r3, #16
 8003494:	2b00      	cmp	r3, #0
 8003496:	d004      	beq.n	80034a2 <HAL_GPIO_WritePin+0x2a>
 8003498:	f44f 71d2 	mov.w	r1, #420	; 0x1a4
 800349c:	480e      	ldr	r0, [pc, #56]	; (80034d8 <HAL_GPIO_WritePin+0x60>)
 800349e:	f7fd ff6d 	bl	800137c <assert_failed>
 80034a2:	787b      	ldrb	r3, [r7, #1]
 80034a4:	2b00      	cmp	r3, #0
 80034a6:	d007      	beq.n	80034b8 <HAL_GPIO_WritePin+0x40>
 80034a8:	787b      	ldrb	r3, [r7, #1]
 80034aa:	2b01      	cmp	r3, #1
 80034ac:	d004      	beq.n	80034b8 <HAL_GPIO_WritePin+0x40>
 80034ae:	f240 11a5 	movw	r1, #421	; 0x1a5
 80034b2:	4809      	ldr	r0, [pc, #36]	; (80034d8 <HAL_GPIO_WritePin+0x60>)
 80034b4:	f7fd ff62 	bl	800137c <assert_failed>
 80034b8:	787b      	ldrb	r3, [r7, #1]
 80034ba:	2b00      	cmp	r3, #0
 80034bc:	d003      	beq.n	80034c6 <HAL_GPIO_WritePin+0x4e>
 80034be:	887a      	ldrh	r2, [r7, #2]
 80034c0:	687b      	ldr	r3, [r7, #4]
 80034c2:	619a      	str	r2, [r3, #24]
 80034c4:	e003      	b.n	80034ce <HAL_GPIO_WritePin+0x56>
 80034c6:	887b      	ldrh	r3, [r7, #2]
 80034c8:	041a      	lsls	r2, r3, #16
 80034ca:	687b      	ldr	r3, [r7, #4]
 80034cc:	619a      	str	r2, [r3, #24]
 80034ce:	bf00      	nop
 80034d0:	3708      	adds	r7, #8
 80034d2:	46bd      	mov	sp, r7
 80034d4:	bd80      	pop	{r7, pc}
 80034d6:	bf00      	nop
 80034d8:	0800a8cc 	.word	0x0800a8cc

080034dc <HAL_GPIO_EXTI_IRQHandler>:
 80034dc:	b580      	push	{r7, lr}
 80034de:	b082      	sub	sp, #8
 80034e0:	af00      	add	r7, sp, #0
 80034e2:	4603      	mov	r3, r0
 80034e4:	80fb      	strh	r3, [r7, #6]
 80034e6:	4b08      	ldr	r3, [pc, #32]	; (8003508 <HAL_GPIO_EXTI_IRQHandler+0x2c>)
 80034e8:	695a      	ldr	r2, [r3, #20]
 80034ea:	88fb      	ldrh	r3, [r7, #6]
 80034ec:	4013      	ands	r3, r2
 80034ee:	2b00      	cmp	r3, #0
 80034f0:	d006      	beq.n	8003500 <HAL_GPIO_EXTI_IRQHandler+0x24>
 80034f2:	4a05      	ldr	r2, [pc, #20]	; (8003508 <HAL_GPIO_EXTI_IRQHandler+0x2c>)
 80034f4:	88fb      	ldrh	r3, [r7, #6]
 80034f6:	6153      	str	r3, [r2, #20]
 80034f8:	88fb      	ldrh	r3, [r7, #6]
 80034fa:	4618      	mov	r0, r3
 80034fc:	f7fd fa86 	bl	8000a0c <HAL_GPIO_EXTI_Callback>
 8003500:	bf00      	nop
 8003502:	3708      	adds	r7, #8
 8003504:	46bd      	mov	sp, r7
 8003506:	bd80      	pop	{r7, pc}
 8003508:	40010400 	.word	0x40010400

0800350c <HAL_I2C_Init>:
 800350c:	b580      	push	{r7, lr}
 800350e:	b084      	sub	sp, #16
 8003510:	af00      	add	r7, sp, #0
 8003512:	6078      	str	r0, [r7, #4]
 8003514:	687b      	ldr	r3, [r7, #4]
 8003516:	2b00      	cmp	r3, #0
 8003518:	d101      	bne.n	800351e <HAL_I2C_Init+0x12>
 800351a:	2301      	movs	r3, #1
 800351c:	e19b      	b.n	8003856 <HAL_I2C_Init+0x34a>
 800351e:	687b      	ldr	r3, [r7, #4]
 8003520:	681b      	ldr	r3, [r3, #0]
 8003522:	4a98      	ldr	r2, [pc, #608]	; (8003784 <HAL_I2C_Init+0x278>)
 8003524:	4293      	cmp	r3, r2
 8003526:	d009      	beq.n	800353c <HAL_I2C_Init+0x30>
 8003528:	687b      	ldr	r3, [r7, #4]
 800352a:	681b      	ldr	r3, [r3, #0]
 800352c:	4a96      	ldr	r2, [pc, #600]	; (8003788 <HAL_I2C_Init+0x27c>)
 800352e:	4293      	cmp	r3, r2
 8003530:	d004      	beq.n	800353c <HAL_I2C_Init+0x30>
 8003532:	f240 11bb 	movw	r1, #443	; 0x1bb
 8003536:	4895      	ldr	r0, [pc, #596]	; (800378c <HAL_I2C_Init+0x280>)
 8003538:	f7fd ff20 	bl	800137c <assert_failed>
 800353c:	687b      	ldr	r3, [r7, #4]
 800353e:	685b      	ldr	r3, [r3, #4]
 8003540:	2b00      	cmp	r3, #0
 8003542:	d004      	beq.n	800354e <HAL_I2C_Init+0x42>
 8003544:	687b      	ldr	r3, [r7, #4]
 8003546:	685b      	ldr	r3, [r3, #4]
 8003548:	4a91      	ldr	r2, [pc, #580]	; (8003790 <HAL_I2C_Init+0x284>)
 800354a:	4293      	cmp	r3, r2
 800354c:	d904      	bls.n	8003558 <HAL_I2C_Init+0x4c>
 800354e:	f44f 71de 	mov.w	r1, #444	; 0x1bc
 8003552:	488e      	ldr	r0, [pc, #568]	; (800378c <HAL_I2C_Init+0x280>)
 8003554:	f7fd ff12 	bl	800137c <assert_failed>
 8003558:	687b      	ldr	r3, [r7, #4]
 800355a:	689b      	ldr	r3, [r3, #8]
 800355c:	2b00      	cmp	r3, #0
 800355e:	d009      	beq.n	8003574 <HAL_I2C_Init+0x68>
 8003560:	687b      	ldr	r3, [r7, #4]
 8003562:	689b      	ldr	r3, [r3, #8]
 8003564:	f5b3 4f80 	cmp.w	r3, #16384	; 0x4000
 8003568:	d004      	beq.n	8003574 <HAL_I2C_Init+0x68>
 800356a:	f240 11bd 	movw	r1, #445	; 0x1bd
 800356e:	4887      	ldr	r0, [pc, #540]	; (800378c <HAL_I2C_Init+0x280>)
 8003570:	f7fd ff04 	bl	800137c <assert_failed>
 8003574:	687b      	ldr	r3, [r7, #4]
 8003576:	68db      	ldr	r3, [r3, #12]
 8003578:	f423 737f 	bic.w	r3, r3, #1020	; 0x3fc
 800357c:	f023 0303 	bic.w	r3, r3, #3
 8003580:	2b00      	cmp	r3, #0
 8003582:	d004      	beq.n	800358e <HAL_I2C_Init+0x82>
 8003584:	f44f 71df 	mov.w	r1, #446	; 0x1be
 8003588:	4880      	ldr	r0, [pc, #512]	; (800378c <HAL_I2C_Init+0x280>)
 800358a:	f7fd fef7 	bl	800137c <assert_failed>
 800358e:	687b      	ldr	r3, [r7, #4]
 8003590:	691b      	ldr	r3, [r3, #16]
 8003592:	f5b3 4f80 	cmp.w	r3, #16384	; 0x4000
 8003596:	d009      	beq.n	80035ac <HAL_I2C_Init+0xa0>
 8003598:	687b      	ldr	r3, [r7, #4]
 800359a:	691b      	ldr	r3, [r3, #16]
 800359c:	f5b3 4f40 	cmp.w	r3, #49152	; 0xc000
 80035a0:	d004      	beq.n	80035ac <HAL_I2C_Init+0xa0>
 80035a2:	f240 11bf 	movw	r1, #447	; 0x1bf
 80035a6:	4879      	ldr	r0, [pc, #484]	; (800378c <HAL_I2C_Init+0x280>)
 80035a8:	f7fd fee8 	bl	800137c <assert_failed>
 80035ac:	687b      	ldr	r3, [r7, #4]
 80035ae:	695b      	ldr	r3, [r3, #20]
 80035b0:	2b00      	cmp	r3, #0
 80035b2:	d008      	beq.n	80035c6 <HAL_I2C_Init+0xba>
 80035b4:	687b      	ldr	r3, [r7, #4]
 80035b6:	695b      	ldr	r3, [r3, #20]
 80035b8:	2b01      	cmp	r3, #1
 80035ba:	d004      	beq.n	80035c6 <HAL_I2C_Init+0xba>
 80035bc:	f44f 71e0 	mov.w	r1, #448	; 0x1c0
 80035c0:	4872      	ldr	r0, [pc, #456]	; (800378c <HAL_I2C_Init+0x280>)
 80035c2:	f7fd fedb 	bl	800137c <assert_failed>
 80035c6:	687b      	ldr	r3, [r7, #4]
 80035c8:	699b      	ldr	r3, [r3, #24]
 80035ca:	f023 03fe 	bic.w	r3, r3, #254	; 0xfe
 80035ce:	2b00      	cmp	r3, #0
 80035d0:	d004      	beq.n	80035dc <HAL_I2C_Init+0xd0>
 80035d2:	f240 11c1 	movw	r1, #449	; 0x1c1
 80035d6:	486d      	ldr	r0, [pc, #436]	; (800378c <HAL_I2C_Init+0x280>)
 80035d8:	f7fd fed0 	bl	800137c <assert_failed>
 80035dc:	687b      	ldr	r3, [r7, #4]
 80035de:	69db      	ldr	r3, [r3, #28]
 80035e0:	2b00      	cmp	r3, #0
 80035e2:	d008      	beq.n	80035f6 <HAL_I2C_Init+0xea>
 80035e4:	687b      	ldr	r3, [r7, #4]
 80035e6:	69db      	ldr	r3, [r3, #28]
 80035e8:	2b40      	cmp	r3, #64	; 0x40
 80035ea:	d004      	beq.n	80035f6 <HAL_I2C_Init+0xea>
 80035ec:	f44f 71e1 	mov.w	r1, #450	; 0x1c2
 80035f0:	4866      	ldr	r0, [pc, #408]	; (800378c <HAL_I2C_Init+0x280>)
 80035f2:	f7fd fec3 	bl	800137c <assert_failed>
 80035f6:	687b      	ldr	r3, [r7, #4]
 80035f8:	6a1b      	ldr	r3, [r3, #32]
 80035fa:	2b00      	cmp	r3, #0
 80035fc:	d008      	beq.n	8003610 <HAL_I2C_Init+0x104>
 80035fe:	687b      	ldr	r3, [r7, #4]
 8003600:	6a1b      	ldr	r3, [r3, #32]
 8003602:	2b80      	cmp	r3, #128	; 0x80
 8003604:	d004      	beq.n	8003610 <HAL_I2C_Init+0x104>
 8003606:	f240 11c3 	movw	r1, #451	; 0x1c3
 800360a:	4860      	ldr	r0, [pc, #384]	; (800378c <HAL_I2C_Init+0x280>)
 800360c:	f7fd feb6 	bl	800137c <assert_failed>
 8003610:	687b      	ldr	r3, [r7, #4]
 8003612:	f893 303d 	ldrb.w	r3, [r3, #61]	; 0x3d
 8003616:	b2db      	uxtb	r3, r3
 8003618:	2b00      	cmp	r3, #0
 800361a:	d106      	bne.n	800362a <HAL_I2C_Init+0x11e>
 800361c:	687b      	ldr	r3, [r7, #4]
 800361e:	2200      	movs	r2, #0
 8003620:	f883 203c 	strb.w	r2, [r3, #60]	; 0x3c
 8003624:	6878      	ldr	r0, [r7, #4]
 8003626:	f7fd fdc9 	bl	80011bc <HAL_I2C_MspInit>
 800362a:	687b      	ldr	r3, [r7, #4]
 800362c:	2224      	movs	r2, #36	; 0x24
 800362e:	f883 203d 	strb.w	r2, [r3, #61]	; 0x3d
 8003632:	687b      	ldr	r3, [r7, #4]
 8003634:	681b      	ldr	r3, [r3, #0]
 8003636:	681a      	ldr	r2, [r3, #0]
 8003638:	687b      	ldr	r3, [r7, #4]
 800363a:	681b      	ldr	r3, [r3, #0]
 800363c:	f022 0201 	bic.w	r2, r2, #1
 8003640:	601a      	str	r2, [r3, #0]
 8003642:	f001 fdfd 	bl	8005240 <HAL_RCC_GetPCLK1Freq>
 8003646:	60f8      	str	r0, [r7, #12]
 8003648:	687b      	ldr	r3, [r7, #4]
 800364a:	685b      	ldr	r3, [r3, #4]
 800364c:	4a51      	ldr	r2, [pc, #324]	; (8003794 <HAL_I2C_Init+0x288>)
 800364e:	4293      	cmp	r3, r2
 8003650:	d807      	bhi.n	8003662 <HAL_I2C_Init+0x156>
 8003652:	68fb      	ldr	r3, [r7, #12]
 8003654:	4a50      	ldr	r2, [pc, #320]	; (8003798 <HAL_I2C_Init+0x28c>)
 8003656:	4293      	cmp	r3, r2
 8003658:	bf94      	ite	ls
 800365a:	2301      	movls	r3, #1
 800365c:	2300      	movhi	r3, #0
 800365e:	b2db      	uxtb	r3, r3
 8003660:	e006      	b.n	8003670 <HAL_I2C_Init+0x164>
 8003662:	68fb      	ldr	r3, [r7, #12]
 8003664:	4a4d      	ldr	r2, [pc, #308]	; (800379c <HAL_I2C_Init+0x290>)
 8003666:	4293      	cmp	r3, r2
 8003668:	bf94      	ite	ls
 800366a:	2301      	movls	r3, #1
 800366c:	2300      	movhi	r3, #0
 800366e:	b2db      	uxtb	r3, r3
 8003670:	2b00      	cmp	r3, #0
 8003672:	d001      	beq.n	8003678 <HAL_I2C_Init+0x16c>
 8003674:	2301      	movs	r3, #1
 8003676:	e0ee      	b.n	8003856 <HAL_I2C_Init+0x34a>
 8003678:	68fb      	ldr	r3, [r7, #12]
 800367a:	4a49      	ldr	r2, [pc, #292]	; (80037a0 <HAL_I2C_Init+0x294>)
 800367c:	fba2 2303 	umull	r2, r3, r2, r3
 8003680:	0c9b      	lsrs	r3, r3, #18
 8003682:	60bb      	str	r3, [r7, #8]
 8003684:	687b      	ldr	r3, [r7, #4]
 8003686:	681b      	ldr	r3, [r3, #0]
 8003688:	685b      	ldr	r3, [r3, #4]
 800368a:	f023 013f 	bic.w	r1, r3, #63	; 0x3f
 800368e:	687b      	ldr	r3, [r7, #4]
 8003690:	681b      	ldr	r3, [r3, #0]
 8003692:	68ba      	ldr	r2, [r7, #8]
 8003694:	430a      	orrs	r2, r1
 8003696:	605a      	str	r2, [r3, #4]
 8003698:	687b      	ldr	r3, [r7, #4]
 800369a:	681b      	ldr	r3, [r3, #0]
 800369c:	6a1b      	ldr	r3, [r3, #32]
 800369e:	f023 013f 	bic.w	r1, r3, #63	; 0x3f
 80036a2:	687b      	ldr	r3, [r7, #4]
 80036a4:	685b      	ldr	r3, [r3, #4]
 80036a6:	4a3b      	ldr	r2, [pc, #236]	; (8003794 <HAL_I2C_Init+0x288>)
 80036a8:	4293      	cmp	r3, r2
 80036aa:	d802      	bhi.n	80036b2 <HAL_I2C_Init+0x1a6>
 80036ac:	68bb      	ldr	r3, [r7, #8]
 80036ae:	3301      	adds	r3, #1
 80036b0:	e009      	b.n	80036c6 <HAL_I2C_Init+0x1ba>
 80036b2:	68bb      	ldr	r3, [r7, #8]
 80036b4:	f44f 7296 	mov.w	r2, #300	; 0x12c
 80036b8:	fb02 f303 	mul.w	r3, r2, r3
 80036bc:	4a39      	ldr	r2, [pc, #228]	; (80037a4 <HAL_I2C_Init+0x298>)
 80036be:	fba2 2303 	umull	r2, r3, r2, r3
 80036c2:	099b      	lsrs	r3, r3, #6
 80036c4:	3301      	adds	r3, #1
 80036c6:	687a      	ldr	r2, [r7, #4]
 80036c8:	6812      	ldr	r2, [r2, #0]
 80036ca:	430b      	orrs	r3, r1
 80036cc:	6213      	str	r3, [r2, #32]
 80036ce:	687b      	ldr	r3, [r7, #4]
 80036d0:	681b      	ldr	r3, [r3, #0]
 80036d2:	69db      	ldr	r3, [r3, #28]
 80036d4:	f423 424f 	bic.w	r2, r3, #52992	; 0xcf00
 80036d8:	f022 02ff 	bic.w	r2, r2, #255	; 0xff
 80036dc:	687b      	ldr	r3, [r7, #4]
 80036de:	685b      	ldr	r3, [r3, #4]
 80036e0:	492c      	ldr	r1, [pc, #176]	; (8003794 <HAL_I2C_Init+0x288>)
 80036e2:	428b      	cmp	r3, r1
 80036e4:	d80d      	bhi.n	8003702 <HAL_I2C_Init+0x1f6>
 80036e6:	68fb      	ldr	r3, [r7, #12]
 80036e8:	1e59      	subs	r1, r3, #1
 80036ea:	687b      	ldr	r3, [r7, #4]
 80036ec:	685b      	ldr	r3, [r3, #4]
 80036ee:	005b      	lsls	r3, r3, #1
 80036f0:	fbb1 f3f3 	udiv	r3, r1, r3
 80036f4:	3301      	adds	r3, #1
 80036f6:	f3c3 030b 	ubfx	r3, r3, #0, #12
 80036fa:	2b04      	cmp	r3, #4
 80036fc:	bf38      	it	cc
 80036fe:	2304      	movcc	r3, #4
 8003700:	e062      	b.n	80037c8 <HAL_I2C_Init+0x2bc>
 8003702:	687b      	ldr	r3, [r7, #4]
 8003704:	689b      	ldr	r3, [r3, #8]
 8003706:	2b00      	cmp	r3, #0
 8003708:	d111      	bne.n	800372e <HAL_I2C_Init+0x222>
 800370a:	68fb      	ldr	r3, [r7, #12]
 800370c:	1e58      	subs	r0, r3, #1
 800370e:	687b      	ldr	r3, [r7, #4]
 8003710:	6859      	ldr	r1, [r3, #4]
 8003712:	460b      	mov	r3, r1
 8003714:	005b      	lsls	r3, r3, #1
 8003716:	440b      	add	r3, r1
 8003718:	fbb0 f3f3 	udiv	r3, r0, r3
 800371c:	3301      	adds	r3, #1
 800371e:	f3c3 030b 	ubfx	r3, r3, #0, #12
 8003722:	2b00      	cmp	r3, #0
 8003724:	bf0c      	ite	eq
 8003726:	2301      	moveq	r3, #1
 8003728:	2300      	movne	r3, #0
 800372a:	b2db      	uxtb	r3, r3
 800372c:	e012      	b.n	8003754 <HAL_I2C_Init+0x248>
 800372e:	68fb      	ldr	r3, [r7, #12]
 8003730:	1e58      	subs	r0, r3, #1
 8003732:	687b      	ldr	r3, [r7, #4]
 8003734:	6859      	ldr	r1, [r3, #4]
 8003736:	460b      	mov	r3, r1
 8003738:	009b      	lsls	r3, r3, #2
 800373a:	440b      	add	r3, r1
 800373c:	0099      	lsls	r1, r3, #2
 800373e:	440b      	add	r3, r1
 8003740:	fbb0 f3f3 	udiv	r3, r0, r3
 8003744:	3301      	adds	r3, #1
 8003746:	f3c3 030b 	ubfx	r3, r3, #0, #12
 800374a:	2b00      	cmp	r3, #0
 800374c:	bf0c      	ite	eq
 800374e:	2301      	moveq	r3, #1
 8003750:	2300      	movne	r3, #0
 8003752:	b2db      	uxtb	r3, r3
 8003754:	2b00      	cmp	r3, #0
 8003756:	d001      	beq.n	800375c <HAL_I2C_Init+0x250>
 8003758:	2301      	movs	r3, #1
 800375a:	e035      	b.n	80037c8 <HAL_I2C_Init+0x2bc>
 800375c:	687b      	ldr	r3, [r7, #4]
 800375e:	689b      	ldr	r3, [r3, #8]
 8003760:	2b00      	cmp	r3, #0
 8003762:	d121      	bne.n	80037a8 <HAL_I2C_Init+0x29c>
 8003764:	68fb      	ldr	r3, [r7, #12]
 8003766:	1e58      	subs	r0, r3, #1
 8003768:	687b      	ldr	r3, [r7, #4]
 800376a:	6859      	ldr	r1, [r3, #4]
 800376c:	460b      	mov	r3, r1
 800376e:	005b      	lsls	r3, r3, #1
 8003770:	440b      	add	r3, r1
 8003772:	fbb0 f3f3 	udiv	r3, r0, r3
 8003776:	3301      	adds	r3, #1
 8003778:	f3c3 030b 	ubfx	r3, r3, #0, #12
 800377c:	f443 4300 	orr.w	r3, r3, #32768	; 0x8000
 8003780:	e022      	b.n	80037c8 <HAL_I2C_Init+0x2bc>
 8003782:	bf00      	nop
 8003784:	40005400 	.word	0x40005400
 8003788:	40005800 	.word	0x40005800
 800378c:	0800a908 	.word	0x0800a908
 8003790:	00061a80 	.word	0x00061a80
 8003794:	000186a0 	.word	0x000186a0
 8003798:	001e847f 	.word	0x001e847f
 800379c:	003d08ff 	.word	0x003d08ff
 80037a0:	431bde83 	.word	0x431bde83
 80037a4:	10624dd3 	.word	0x10624dd3
 80037a8:	68fb      	ldr	r3, [r7, #12]
 80037aa:	1e58      	subs	r0, r3, #1
 80037ac:	687b      	ldr	r3, [r7, #4]
 80037ae:	6859      	ldr	r1, [r3, #4]
 80037b0:	460b      	mov	r3, r1
 80037b2:	009b      	lsls	r3, r3, #2
 80037b4:	440b      	add	r3, r1
 80037b6:	0099      	lsls	r1, r3, #2
 80037b8:	440b      	add	r3, r1
 80037ba:	fbb0 f3f3 	udiv	r3, r0, r3
 80037be:	3301      	adds	r3, #1
 80037c0:	f3c3 030b 	ubfx	r3, r3, #0, #12
 80037c4:	f443 4340 	orr.w	r3, r3, #49152	; 0xc000
 80037c8:	6879      	ldr	r1, [r7, #4]
 80037ca:	6809      	ldr	r1, [r1, #0]
 80037cc:	4313      	orrs	r3, r2
 80037ce:	61cb      	str	r3, [r1, #28]
 80037d0:	687b      	ldr	r3, [r7, #4]
 80037d2:	681b      	ldr	r3, [r3, #0]
 80037d4:	681b      	ldr	r3, [r3, #0]
 80037d6:	f023 01c0 	bic.w	r1, r3, #192	; 0xc0
 80037da:	687b      	ldr	r3, [r7, #4]
 80037dc:	69da      	ldr	r2, [r3, #28]
 80037de:	687b      	ldr	r3, [r7, #4]
 80037e0:	6a1b      	ldr	r3, [r3, #32]
 80037e2:	431a      	orrs	r2, r3
 80037e4:	687b      	ldr	r3, [r7, #4]
 80037e6:	681b      	ldr	r3, [r3, #0]
 80037e8:	430a      	orrs	r2, r1
 80037ea:	601a      	str	r2, [r3, #0]
 80037ec:	687b      	ldr	r3, [r7, #4]
 80037ee:	681b      	ldr	r3, [r3, #0]
 80037f0:	689b      	ldr	r3, [r3, #8]
 80037f2:	f423 4303 	bic.w	r3, r3, #33536	; 0x8300
 80037f6:	f023 03ff 	bic.w	r3, r3, #255	; 0xff
 80037fa:	687a      	ldr	r2, [r7, #4]
 80037fc:	6911      	ldr	r1, [r2, #16]
 80037fe:	687a      	ldr	r2, [r7, #4]
 8003800:	68d2      	ldr	r2, [r2, #12]
 8003802:	4311      	orrs	r1, r2
 8003804:	687a      	ldr	r2, [r7, #4]
 8003806:	6812      	ldr	r2, [r2, #0]
 8003808:	430b      	orrs	r3, r1
 800380a:	6093      	str	r3, [r2, #8]
 800380c:	687b      	ldr	r3, [r7, #4]
 800380e:	681b      	ldr	r3, [r3, #0]
 8003810:	68db      	ldr	r3, [r3, #12]
 8003812:	f023 01ff 	bic.w	r1, r3, #255	; 0xff
 8003816:	687b      	ldr	r3, [r7, #4]
 8003818:	695a      	ldr	r2, [r3, #20]
 800381a:	687b      	ldr	r3, [r7, #4]
 800381c:	699b      	ldr	r3, [r3, #24]
 800381e:	431a      	orrs	r2, r3
 8003820:	687b      	ldr	r3, [r7, #4]
 8003822:	681b      	ldr	r3, [r3, #0]
 8003824:	430a      	orrs	r2, r1
 8003826:	60da      	str	r2, [r3, #12]
 8003828:	687b      	ldr	r3, [r7, #4]
 800382a:	681b      	ldr	r3, [r3, #0]
 800382c:	681a      	ldr	r2, [r3, #0]
 800382e:	687b      	ldr	r3, [r7, #4]
 8003830:	681b      	ldr	r3, [r3, #0]
 8003832:	f042 0201 	orr.w	r2, r2, #1
 8003836:	601a      	str	r2, [r3, #0]
 8003838:	687b      	ldr	r3, [r7, #4]
 800383a:	2200      	movs	r2, #0
 800383c:	641a      	str	r2, [r3, #64]	; 0x40
 800383e:	687b      	ldr	r3, [r7, #4]
 8003840:	2220      	movs	r2, #32
 8003842:	f883 203d 	strb.w	r2, [r3, #61]	; 0x3d
 8003846:	687b      	ldr	r3, [r7, #4]
 8003848:	2200      	movs	r2, #0
 800384a:	631a      	str	r2, [r3, #48]	; 0x30
 800384c:	687b      	ldr	r3, [r7, #4]
 800384e:	2200      	movs	r2, #0
 8003850:	f883 203e 	strb.w	r2, [r3, #62]	; 0x3e
 8003854:	2300      	movs	r3, #0
 8003856:	4618      	mov	r0, r3
 8003858:	3710      	adds	r7, #16
 800385a:	46bd      	mov	sp, r7
 800385c:	bd80      	pop	{r7, pc}
 800385e:	bf00      	nop

08003860 <HAL_I2C_Master_Transmit>:
 8003860:	b580      	push	{r7, lr}
 8003862:	b088      	sub	sp, #32
 8003864:	af02      	add	r7, sp, #8
 8003866:	60f8      	str	r0, [r7, #12]
 8003868:	607a      	str	r2, [r7, #4]
 800386a:	461a      	mov	r2, r3
 800386c:	460b      	mov	r3, r1
 800386e:	817b      	strh	r3, [r7, #10]
 8003870:	4613      	mov	r3, r2
 8003872:	813b      	strh	r3, [r7, #8]
 8003874:	f7fe fa88 	bl	8001d88 <HAL_GetTick>
 8003878:	6178      	str	r0, [r7, #20]
 800387a:	68fb      	ldr	r3, [r7, #12]
 800387c:	f893 303d 	ldrb.w	r3, [r3, #61]	; 0x3d
 8003880:	b2db      	uxtb	r3, r3
 8003882:	2b20      	cmp	r3, #32
 8003884:	f040 80e0 	bne.w	8003a48 <HAL_I2C_Master_Transmit+0x1e8>
 8003888:	697b      	ldr	r3, [r7, #20]
 800388a:	9300      	str	r3, [sp, #0]
 800388c:	2319      	movs	r3, #25
 800388e:	2201      	movs	r2, #1
 8003890:	4970      	ldr	r1, [pc, #448]	; (8003a54 <HAL_I2C_Master_Transmit+0x1f4>)
 8003892:	68f8      	ldr	r0, [r7, #12]
 8003894:	f000 fc5a 	bl	800414c <I2C_WaitOnFlagUntilTimeout>
 8003898:	4603      	mov	r3, r0
 800389a:	2b00      	cmp	r3, #0
 800389c:	d001      	beq.n	80038a2 <HAL_I2C_Master_Transmit+0x42>
 800389e:	2302      	movs	r3, #2
 80038a0:	e0d3      	b.n	8003a4a <HAL_I2C_Master_Transmit+0x1ea>
 80038a2:	68fb      	ldr	r3, [r7, #12]
 80038a4:	f893 303c 	ldrb.w	r3, [r3, #60]	; 0x3c
 80038a8:	2b01      	cmp	r3, #1
 80038aa:	d101      	bne.n	80038b0 <HAL_I2C_Master_Transmit+0x50>
 80038ac:	2302      	movs	r3, #2
 80038ae:	e0cc      	b.n	8003a4a <HAL_I2C_Master_Transmit+0x1ea>
 80038b0:	68fb      	ldr	r3, [r7, #12]
 80038b2:	2201      	movs	r2, #1
 80038b4:	f883 203c 	strb.w	r2, [r3, #60]	; 0x3c
 80038b8:	68fb      	ldr	r3, [r7, #12]
 80038ba:	681b      	ldr	r3, [r3, #0]
 80038bc:	681b      	ldr	r3, [r3, #0]
 80038be:	f003 0301 	and.w	r3, r3, #1
 80038c2:	2b01      	cmp	r3, #1
 80038c4:	d007      	beq.n	80038d6 <HAL_I2C_Master_Transmit+0x76>
 80038c6:	68fb      	ldr	r3, [r7, #12]
 80038c8:	681b      	ldr	r3, [r3, #0]
 80038ca:	681a      	ldr	r2, [r3, #0]
 80038cc:	68fb      	ldr	r3, [r7, #12]
 80038ce:	681b      	ldr	r3, [r3, #0]
 80038d0:	f042 0201 	orr.w	r2, r2, #1
 80038d4:	601a      	str	r2, [r3, #0]
 80038d6:	68fb      	ldr	r3, [r7, #12]
 80038d8:	681b      	ldr	r3, [r3, #0]
 80038da:	681a      	ldr	r2, [r3, #0]
 80038dc:	68fb      	ldr	r3, [r7, #12]
 80038de:	681b      	ldr	r3, [r3, #0]
 80038e0:	f422 6200 	bic.w	r2, r2, #2048	; 0x800
 80038e4:	601a      	str	r2, [r3, #0]
 80038e6:	68fb      	ldr	r3, [r7, #12]
 80038e8:	2221      	movs	r2, #33	; 0x21
 80038ea:	f883 203d 	strb.w	r2, [r3, #61]	; 0x3d
 80038ee:	68fb      	ldr	r3, [r7, #12]
 80038f0:	2210      	movs	r2, #16
 80038f2:	f883 203e 	strb.w	r2, [r3, #62]	; 0x3e
 80038f6:	68fb      	ldr	r3, [r7, #12]
 80038f8:	2200      	movs	r2, #0
 80038fa:	641a      	str	r2, [r3, #64]	; 0x40
 80038fc:	68fb      	ldr	r3, [r7, #12]
 80038fe:	687a      	ldr	r2, [r7, #4]
 8003900:	625a      	str	r2, [r3, #36]	; 0x24
 8003902:	68fb      	ldr	r3, [r7, #12]
 8003904:	893a      	ldrh	r2, [r7, #8]
 8003906:	855a      	strh	r2, [r3, #42]	; 0x2a
 8003908:	68fb      	ldr	r3, [r7, #12]
 800390a:	8d5b      	ldrh	r3, [r3, #42]	; 0x2a
 800390c:	b29a      	uxth	r2, r3
 800390e:	68fb      	ldr	r3, [r7, #12]
 8003910:	851a      	strh	r2, [r3, #40]	; 0x28
 8003912:	68fb      	ldr	r3, [r7, #12]
 8003914:	4a50      	ldr	r2, [pc, #320]	; (8003a58 <HAL_I2C_Master_Transmit+0x1f8>)
 8003916:	62da      	str	r2, [r3, #44]	; 0x2c
 8003918:	8979      	ldrh	r1, [r7, #10]
 800391a:	697b      	ldr	r3, [r7, #20]
 800391c:	6a3a      	ldr	r2, [r7, #32]
 800391e:	68f8      	ldr	r0, [r7, #12]
 8003920:	f000 face 	bl	8003ec0 <I2C_MasterRequestWrite>
 8003924:	4603      	mov	r3, r0
 8003926:	2b00      	cmp	r3, #0
 8003928:	d001      	beq.n	800392e <HAL_I2C_Master_Transmit+0xce>
 800392a:	2301      	movs	r3, #1
 800392c:	e08d      	b.n	8003a4a <HAL_I2C_Master_Transmit+0x1ea>
 800392e:	2300      	movs	r3, #0
 8003930:	613b      	str	r3, [r7, #16]
 8003932:	68fb      	ldr	r3, [r7, #12]
 8003934:	681b      	ldr	r3, [r3, #0]
 8003936:	695b      	ldr	r3, [r3, #20]
 8003938:	613b      	str	r3, [r7, #16]
 800393a:	68fb      	ldr	r3, [r7, #12]
 800393c:	681b      	ldr	r3, [r3, #0]
 800393e:	699b      	ldr	r3, [r3, #24]
 8003940:	613b      	str	r3, [r7, #16]
 8003942:	693b      	ldr	r3, [r7, #16]
 8003944:	e066      	b.n	8003a14 <HAL_I2C_Master_Transmit+0x1b4>
 8003946:	697a      	ldr	r2, [r7, #20]
 8003948:	6a39      	ldr	r1, [r7, #32]
 800394a:	68f8      	ldr	r0, [r7, #12]
 800394c:	f000 fcd4 	bl	80042f8 <I2C_WaitOnTXEFlagUntilTimeout>
 8003950:	4603      	mov	r3, r0
 8003952:	2b00      	cmp	r3, #0
 8003954:	d00d      	beq.n	8003972 <HAL_I2C_Master_Transmit+0x112>
 8003956:	68fb      	ldr	r3, [r7, #12]
 8003958:	6c1b      	ldr	r3, [r3, #64]	; 0x40
 800395a:	2b04      	cmp	r3, #4
 800395c:	d107      	bne.n	800396e <HAL_I2C_Master_Transmit+0x10e>
 800395e:	68fb      	ldr	r3, [r7, #12]
 8003960:	681b      	ldr	r3, [r3, #0]
 8003962:	681a      	ldr	r2, [r3, #0]
 8003964:	68fb      	ldr	r3, [r7, #12]
 8003966:	681b      	ldr	r3, [r3, #0]
 8003968:	f442 7200 	orr.w	r2, r2, #512	; 0x200
 800396c:	601a      	str	r2, [r3, #0]
 800396e:	2301      	movs	r3, #1
 8003970:	e06b      	b.n	8003a4a <HAL_I2C_Master_Transmit+0x1ea>
 8003972:	68fb      	ldr	r3, [r7, #12]
 8003974:	6a5b      	ldr	r3, [r3, #36]	; 0x24
 8003976:	781a      	ldrb	r2, [r3, #0]
 8003978:	68fb      	ldr	r3, [r7, #12]
 800397a:	681b      	ldr	r3, [r3, #0]
 800397c:	611a      	str	r2, [r3, #16]
 800397e:	68fb      	ldr	r3, [r7, #12]
 8003980:	6a5b      	ldr	r3, [r3, #36]	; 0x24
 8003982:	1c5a      	adds	r2, r3, #1
 8003984:	68fb      	ldr	r3, [r7, #12]
 8003986:	625a      	str	r2, [r3, #36]	; 0x24
 8003988:	68fb      	ldr	r3, [r7, #12]
 800398a:	8d5b      	ldrh	r3, [r3, #42]	; 0x2a
 800398c:	b29b      	uxth	r3, r3
 800398e:	3b01      	subs	r3, #1
 8003990:	b29a      	uxth	r2, r3
 8003992:	68fb      	ldr	r3, [r7, #12]
 8003994:	855a      	strh	r2, [r3, #42]	; 0x2a
 8003996:	68fb      	ldr	r3, [r7, #12]
 8003998:	8d1b      	ldrh	r3, [r3, #40]	; 0x28
 800399a:	3b01      	subs	r3, #1
 800399c:	b29a      	uxth	r2, r3
 800399e:	68fb      	ldr	r3, [r7, #12]
 80039a0:	851a      	strh	r2, [r3, #40]	; 0x28
 80039a2:	68fb      	ldr	r3, [r7, #12]
 80039a4:	681b      	ldr	r3, [r3, #0]
 80039a6:	695b      	ldr	r3, [r3, #20]
 80039a8:	f003 0304 	and.w	r3, r3, #4
 80039ac:	2b04      	cmp	r3, #4
 80039ae:	d11b      	bne.n	80039e8 <HAL_I2C_Master_Transmit+0x188>
 80039b0:	68fb      	ldr	r3, [r7, #12]
 80039b2:	8d1b      	ldrh	r3, [r3, #40]	; 0x28
 80039b4:	2b00      	cmp	r3, #0
 80039b6:	d017      	beq.n	80039e8 <HAL_I2C_Master_Transmit+0x188>
 80039b8:	68fb      	ldr	r3, [r7, #12]
 80039ba:	6a5b      	ldr	r3, [r3, #36]	; 0x24
 80039bc:	781a      	ldrb	r2, [r3, #0]
 80039be:	68fb      	ldr	r3, [r7, #12]
 80039c0:	681b      	ldr	r3, [r3, #0]
 80039c2:	611a      	str	r2, [r3, #16]
 80039c4:	68fb      	ldr	r3, [r7, #12]
 80039c6:	6a5b      	ldr	r3, [r3, #36]	; 0x24
 80039c8:	1c5a      	adds	r2, r3, #1
 80039ca:	68fb      	ldr	r3, [r7, #12]
 80039cc:	625a      	str	r2, [r3, #36]	; 0x24
 80039ce:	68fb      	ldr	r3, [r7, #12]
 80039d0:	8d5b      	ldrh	r3, [r3, #42]	; 0x2a
 80039d2:	b29b      	uxth	r3, r3
 80039d4:	3b01      	subs	r3, #1
 80039d6:	b29a      	uxth	r2, r3
 80039d8:	68fb      	ldr	r3, [r7, #12]
 80039da:	855a      	strh	r2, [r3, #42]	; 0x2a
 80039dc:	68fb      	ldr	r3, [r7, #12]
 80039de:	8d1b      	ldrh	r3, [r3, #40]	; 0x28
 80039e0:	3b01      	subs	r3, #1
 80039e2:	b29a      	uxth	r2, r3
 80039e4:	68fb      	ldr	r3, [r7, #12]
 80039e6:	851a      	strh	r2, [r3, #40]	; 0x28
 80039e8:	697a      	ldr	r2, [r7, #20]
 80039ea:	6a39      	ldr	r1, [r7, #32]
 80039ec:	68f8      	ldr	r0, [r7, #12]
 80039ee:	f000 fcc4 	bl	800437a <I2C_WaitOnBTFFlagUntilTimeout>
 80039f2:	4603      	mov	r3, r0
 80039f4:	2b00      	cmp	r3, #0
 80039f6:	d00d      	beq.n	8003a14 <HAL_I2C_Master_Transmit+0x1b4>
 80039f8:	68fb      	ldr	r3, [r7, #12]
 80039fa:	6c1b      	ldr	r3, [r3, #64]	; 0x40
 80039fc:	2b04      	cmp	r3, #4
 80039fe:	d107      	bne.n	8003a10 <HAL_I2C_Master_Transmit+0x1b0>
 8003a00:	68fb      	ldr	r3, [r7, #12]
 8003a02:	681b      	ldr	r3, [r3, #0]
 8003a04:	681a      	ldr	r2, [r3, #0]
 8003a06:	68fb      	ldr	r3, [r7, #12]
 8003a08:	681b      	ldr	r3, [r3, #0]
 8003a0a:	f442 7200 	orr.w	r2, r2, #512	; 0x200
 8003a0e:	601a      	str	r2, [r3, #0]
 8003a10:	2301      	movs	r3, #1
 8003a12:	e01a      	b.n	8003a4a <HAL_I2C_Master_Transmit+0x1ea>
 8003a14:	68fb      	ldr	r3, [r7, #12]
 8003a16:	8d1b      	ldrh	r3, [r3, #40]	; 0x28
 8003a18:	2b00      	cmp	r3, #0
 8003a1a:	d194      	bne.n	8003946 <HAL_I2C_Master_Transmit+0xe6>
 8003a1c:	68fb      	ldr	r3, [r7, #12]
 8003a1e:	681b      	ldr	r3, [r3, #0]
 8003a20:	681a      	ldr	r2, [r3, #0]
 8003a22:	68fb      	ldr	r3, [r7, #12]
 8003a24:	681b      	ldr	r3, [r3, #0]
 8003a26:	f442 7200 	orr.w	r2, r2, #512	; 0x200
 8003a2a:	601a      	str	r2, [r3, #0]
 8003a2c:	68fb      	ldr	r3, [r7, #12]
 8003a2e:	2220      	movs	r2, #32
 8003a30:	f883 203d 	strb.w	r2, [r3, #61]	; 0x3d
 8003a34:	68fb      	ldr	r3, [r7, #12]
 8003a36:	2200      	movs	r2, #0
 8003a38:	f883 203e 	strb.w	r2, [r3, #62]	; 0x3e
 8003a3c:	68fb      	ldr	r3, [r7, #12]
 8003a3e:	2200      	movs	r2, #0
 8003a40:	f883 203c 	strb.w	r2, [r3, #60]	; 0x3c
 8003a44:	2300      	movs	r3, #0
 8003a46:	e000      	b.n	8003a4a <HAL_I2C_Master_Transmit+0x1ea>
 8003a48:	2302      	movs	r3, #2
 8003a4a:	4618      	mov	r0, r3
 8003a4c:	3718      	adds	r7, #24
 8003a4e:	46bd      	mov	sp, r7
 8003a50:	bd80      	pop	{r7, pc}
 8003a52:	bf00      	nop
 8003a54:	00100002 	.word	0x00100002
 8003a58:	ffff0000 	.word	0xffff0000

08003a5c <HAL_I2C_Mem_Read>:
 8003a5c:	b580      	push	{r7, lr}
 8003a5e:	b08c      	sub	sp, #48	; 0x30
 8003a60:	af02      	add	r7, sp, #8
 8003a62:	60f8      	str	r0, [r7, #12]
 8003a64:	4608      	mov	r0, r1
 8003a66:	4611      	mov	r1, r2
 8003a68:	461a      	mov	r2, r3
 8003a6a:	4603      	mov	r3, r0
 8003a6c:	817b      	strh	r3, [r7, #10]
 8003a6e:	460b      	mov	r3, r1
 8003a70:	813b      	strh	r3, [r7, #8]
 8003a72:	4613      	mov	r3, r2
 8003a74:	80fb      	strh	r3, [r7, #6]
 8003a76:	f7fe f987 	bl	8001d88 <HAL_GetTick>
 8003a7a:	6278      	str	r0, [r7, #36]	; 0x24
 8003a7c:	88fb      	ldrh	r3, [r7, #6]
 8003a7e:	2b01      	cmp	r3, #1
 8003a80:	d007      	beq.n	8003a92 <HAL_I2C_Mem_Read+0x36>
 8003a82:	88fb      	ldrh	r3, [r7, #6]
 8003a84:	2b10      	cmp	r3, #16
 8003a86:	d004      	beq.n	8003a92 <HAL_I2C_Mem_Read+0x36>
 8003a88:	f44f 611e 	mov.w	r1, #2528	; 0x9e0
 8003a8c:	4881      	ldr	r0, [pc, #516]	; (8003c94 <HAL_I2C_Mem_Read+0x238>)
 8003a8e:	f7fd fc75 	bl	800137c <assert_failed>
 8003a92:	68fb      	ldr	r3, [r7, #12]
 8003a94:	f893 303d 	ldrb.w	r3, [r3, #61]	; 0x3d
 8003a98:	b2db      	uxtb	r3, r3
 8003a9a:	2b20      	cmp	r3, #32
 8003a9c:	f040 8209 	bne.w	8003eb2 <HAL_I2C_Mem_Read+0x456>
 8003aa0:	6a7b      	ldr	r3, [r7, #36]	; 0x24
 8003aa2:	9300      	str	r3, [sp, #0]
 8003aa4:	2319      	movs	r3, #25
 8003aa6:	2201      	movs	r2, #1
 8003aa8:	497b      	ldr	r1, [pc, #492]	; (8003c98 <HAL_I2C_Mem_Read+0x23c>)
 8003aaa:	68f8      	ldr	r0, [r7, #12]
 8003aac:	f000 fb4e 	bl	800414c <I2C_WaitOnFlagUntilTimeout>
 8003ab0:	4603      	mov	r3, r0
 8003ab2:	2b00      	cmp	r3, #0
 8003ab4:	d001      	beq.n	8003aba <HAL_I2C_Mem_Read+0x5e>
 8003ab6:	2302      	movs	r3, #2
 8003ab8:	e1fc      	b.n	8003eb4 <HAL_I2C_Mem_Read+0x458>
 8003aba:	68fb      	ldr	r3, [r7, #12]
 8003abc:	f893 303c 	ldrb.w	r3, [r3, #60]	; 0x3c
 8003ac0:	2b01      	cmp	r3, #1
 8003ac2:	d101      	bne.n	8003ac8 <HAL_I2C_Mem_Read+0x6c>
 8003ac4:	2302      	movs	r3, #2
 8003ac6:	e1f5      	b.n	8003eb4 <HAL_I2C_Mem_Read+0x458>
 8003ac8:	68fb      	ldr	r3, [r7, #12]
 8003aca:	2201      	movs	r2, #1
 8003acc:	f883 203c 	strb.w	r2, [r3, #60]	; 0x3c
 8003ad0:	68fb      	ldr	r3, [r7, #12]
 8003ad2:	681b      	ldr	r3, [r3, #0]
 8003ad4:	681b      	ldr	r3, [r3, #0]
 8003ad6:	f003 0301 	and.w	r3, r3, #1
 8003ada:	2b01      	cmp	r3, #1
 8003adc:	d007      	beq.n	8003aee <HAL_I2C_Mem_Read+0x92>
 8003ade:	68fb      	ldr	r3, [r7, #12]
 8003ae0:	681b      	ldr	r3, [r3, #0]
 8003ae2:	681a      	ldr	r2, [r3, #0]
 8003ae4:	68fb      	ldr	r3, [r7, #12]
 8003ae6:	681b      	ldr	r3, [r3, #0]
 8003ae8:	f042 0201 	orr.w	r2, r2, #1
 8003aec:	601a      	str	r2, [r3, #0]
 8003aee:	68fb      	ldr	r3, [r7, #12]
 8003af0:	681b      	ldr	r3, [r3, #0]
 8003af2:	681a      	ldr	r2, [r3, #0]
 8003af4:	68fb      	ldr	r3, [r7, #12]
 8003af6:	681b      	ldr	r3, [r3, #0]
 8003af8:	f422 6200 	bic.w	r2, r2, #2048	; 0x800
 8003afc:	601a      	str	r2, [r3, #0]
 8003afe:	68fb      	ldr	r3, [r7, #12]
 8003b00:	2222      	movs	r2, #34	; 0x22
 8003b02:	f883 203d 	strb.w	r2, [r3, #61]	; 0x3d
 8003b06:	68fb      	ldr	r3, [r7, #12]
 8003b08:	2240      	movs	r2, #64	; 0x40
 8003b0a:	f883 203e 	strb.w	r2, [r3, #62]	; 0x3e
 8003b0e:	68fb      	ldr	r3, [r7, #12]
 8003b10:	2200      	movs	r2, #0
 8003b12:	641a      	str	r2, [r3, #64]	; 0x40
 8003b14:	68fb      	ldr	r3, [r7, #12]
 8003b16:	6b3a      	ldr	r2, [r7, #48]	; 0x30
 8003b18:	625a      	str	r2, [r3, #36]	; 0x24
 8003b1a:	68fb      	ldr	r3, [r7, #12]
 8003b1c:	8eba      	ldrh	r2, [r7, #52]	; 0x34
 8003b1e:	855a      	strh	r2, [r3, #42]	; 0x2a
 8003b20:	68fb      	ldr	r3, [r7, #12]
 8003b22:	8d5b      	ldrh	r3, [r3, #42]	; 0x2a
 8003b24:	b29a      	uxth	r2, r3
 8003b26:	68fb      	ldr	r3, [r7, #12]
 8003b28:	851a      	strh	r2, [r3, #40]	; 0x28
 8003b2a:	68fb      	ldr	r3, [r7, #12]
 8003b2c:	4a5b      	ldr	r2, [pc, #364]	; (8003c9c <HAL_I2C_Mem_Read+0x240>)
 8003b2e:	62da      	str	r2, [r3, #44]	; 0x2c
 8003b30:	88f8      	ldrh	r0, [r7, #6]
 8003b32:	893a      	ldrh	r2, [r7, #8]
 8003b34:	8979      	ldrh	r1, [r7, #10]
 8003b36:	6a7b      	ldr	r3, [r7, #36]	; 0x24
 8003b38:	9301      	str	r3, [sp, #4]
 8003b3a:	6bbb      	ldr	r3, [r7, #56]	; 0x38
 8003b3c:	9300      	str	r3, [sp, #0]
 8003b3e:	4603      	mov	r3, r0
 8003b40:	68f8      	ldr	r0, [r7, #12]
 8003b42:	f000 fa33 	bl	8003fac <I2C_RequestMemoryRead>
 8003b46:	4603      	mov	r3, r0
 8003b48:	2b00      	cmp	r3, #0
 8003b4a:	d001      	beq.n	8003b50 <HAL_I2C_Mem_Read+0xf4>
 8003b4c:	2301      	movs	r3, #1
 8003b4e:	e1b1      	b.n	8003eb4 <HAL_I2C_Mem_Read+0x458>
 8003b50:	68fb      	ldr	r3, [r7, #12]
 8003b52:	8d1b      	ldrh	r3, [r3, #40]	; 0x28
 8003b54:	2b00      	cmp	r3, #0
 8003b56:	d113      	bne.n	8003b80 <HAL_I2C_Mem_Read+0x124>
 8003b58:	2300      	movs	r3, #0
 8003b5a:	623b      	str	r3, [r7, #32]
 8003b5c:	68fb      	ldr	r3, [r7, #12]
 8003b5e:	681b      	ldr	r3, [r3, #0]
 8003b60:	695b      	ldr	r3, [r3, #20]
 8003b62:	623b      	str	r3, [r7, #32]
 8003b64:	68fb      	ldr	r3, [r7, #12]
 8003b66:	681b      	ldr	r3, [r3, #0]
 8003b68:	699b      	ldr	r3, [r3, #24]
 8003b6a:	623b      	str	r3, [r7, #32]
 8003b6c:	6a3b      	ldr	r3, [r7, #32]
 8003b6e:	68fb      	ldr	r3, [r7, #12]
 8003b70:	681b      	ldr	r3, [r3, #0]
 8003b72:	681a      	ldr	r2, [r3, #0]
 8003b74:	68fb      	ldr	r3, [r7, #12]
 8003b76:	681b      	ldr	r3, [r3, #0]
 8003b78:	f442 7200 	orr.w	r2, r2, #512	; 0x200
 8003b7c:	601a      	str	r2, [r3, #0]
 8003b7e:	e185      	b.n	8003e8c <HAL_I2C_Mem_Read+0x430>
 8003b80:	68fb      	ldr	r3, [r7, #12]
 8003b82:	8d1b      	ldrh	r3, [r3, #40]	; 0x28
 8003b84:	2b01      	cmp	r3, #1
 8003b86:	d11b      	bne.n	8003bc0 <HAL_I2C_Mem_Read+0x164>
 8003b88:	68fb      	ldr	r3, [r7, #12]
 8003b8a:	681b      	ldr	r3, [r3, #0]
 8003b8c:	681a      	ldr	r2, [r3, #0]
 8003b8e:	68fb      	ldr	r3, [r7, #12]
 8003b90:	681b      	ldr	r3, [r3, #0]
 8003b92:	f422 6280 	bic.w	r2, r2, #1024	; 0x400
 8003b96:	601a      	str	r2, [r3, #0]
 8003b98:	2300      	movs	r3, #0
 8003b9a:	61fb      	str	r3, [r7, #28]
 8003b9c:	68fb      	ldr	r3, [r7, #12]
 8003b9e:	681b      	ldr	r3, [r3, #0]
 8003ba0:	695b      	ldr	r3, [r3, #20]
 8003ba2:	61fb      	str	r3, [r7, #28]
 8003ba4:	68fb      	ldr	r3, [r7, #12]
 8003ba6:	681b      	ldr	r3, [r3, #0]
 8003ba8:	699b      	ldr	r3, [r3, #24]
 8003baa:	61fb      	str	r3, [r7, #28]
 8003bac:	69fb      	ldr	r3, [r7, #28]
 8003bae:	68fb      	ldr	r3, [r7, #12]
 8003bb0:	681b      	ldr	r3, [r3, #0]
 8003bb2:	681a      	ldr	r2, [r3, #0]
 8003bb4:	68fb      	ldr	r3, [r7, #12]
 8003bb6:	681b      	ldr	r3, [r3, #0]
 8003bb8:	f442 7200 	orr.w	r2, r2, #512	; 0x200
 8003bbc:	601a      	str	r2, [r3, #0]
 8003bbe:	e165      	b.n	8003e8c <HAL_I2C_Mem_Read+0x430>
 8003bc0:	68fb      	ldr	r3, [r7, #12]
 8003bc2:	8d1b      	ldrh	r3, [r3, #40]	; 0x28
 8003bc4:	2b02      	cmp	r3, #2
 8003bc6:	d11b      	bne.n	8003c00 <HAL_I2C_Mem_Read+0x1a4>
 8003bc8:	68fb      	ldr	r3, [r7, #12]
 8003bca:	681b      	ldr	r3, [r3, #0]
 8003bcc:	681a      	ldr	r2, [r3, #0]
 8003bce:	68fb      	ldr	r3, [r7, #12]
 8003bd0:	681b      	ldr	r3, [r3, #0]
 8003bd2:	f422 6280 	bic.w	r2, r2, #1024	; 0x400
 8003bd6:	601a      	str	r2, [r3, #0]
 8003bd8:	68fb      	ldr	r3, [r7, #12]
 8003bda:	681b      	ldr	r3, [r3, #0]
 8003bdc:	681a      	ldr	r2, [r3, #0]
 8003bde:	68fb      	ldr	r3, [r7, #12]
 8003be0:	681b      	ldr	r3, [r3, #0]
 8003be2:	f442 6200 	orr.w	r2, r2, #2048	; 0x800
 8003be6:	601a      	str	r2, [r3, #0]
 8003be8:	2300      	movs	r3, #0
 8003bea:	61bb      	str	r3, [r7, #24]
 8003bec:	68fb      	ldr	r3, [r7, #12]
 8003bee:	681b      	ldr	r3, [r3, #0]
 8003bf0:	695b      	ldr	r3, [r3, #20]
 8003bf2:	61bb      	str	r3, [r7, #24]
 8003bf4:	68fb      	ldr	r3, [r7, #12]
 8003bf6:	681b      	ldr	r3, [r3, #0]
 8003bf8:	699b      	ldr	r3, [r3, #24]
 8003bfa:	61bb      	str	r3, [r7, #24]
 8003bfc:	69bb      	ldr	r3, [r7, #24]
 8003bfe:	e145      	b.n	8003e8c <HAL_I2C_Mem_Read+0x430>
 8003c00:	2300      	movs	r3, #0
 8003c02:	617b      	str	r3, [r7, #20]
 8003c04:	68fb      	ldr	r3, [r7, #12]
 8003c06:	681b      	ldr	r3, [r3, #0]
 8003c08:	695b      	ldr	r3, [r3, #20]
 8003c0a:	617b      	str	r3, [r7, #20]
 8003c0c:	68fb      	ldr	r3, [r7, #12]
 8003c0e:	681b      	ldr	r3, [r3, #0]
 8003c10:	699b      	ldr	r3, [r3, #24]
 8003c12:	617b      	str	r3, [r7, #20]
 8003c14:	697b      	ldr	r3, [r7, #20]
 8003c16:	e139      	b.n	8003e8c <HAL_I2C_Mem_Read+0x430>
 8003c18:	68fb      	ldr	r3, [r7, #12]
 8003c1a:	8d1b      	ldrh	r3, [r3, #40]	; 0x28
 8003c1c:	2b03      	cmp	r3, #3
 8003c1e:	f200 80f2 	bhi.w	8003e06 <HAL_I2C_Mem_Read+0x3aa>
 8003c22:	68fb      	ldr	r3, [r7, #12]
 8003c24:	8d1b      	ldrh	r3, [r3, #40]	; 0x28
 8003c26:	2b01      	cmp	r3, #1
 8003c28:	d123      	bne.n	8003c72 <HAL_I2C_Mem_Read+0x216>
 8003c2a:	6a7a      	ldr	r2, [r7, #36]	; 0x24
 8003c2c:	6bb9      	ldr	r1, [r7, #56]	; 0x38
 8003c2e:	68f8      	ldr	r0, [r7, #12]
 8003c30:	f000 fbe4 	bl	80043fc <I2C_WaitOnRXNEFlagUntilTimeout>
 8003c34:	4603      	mov	r3, r0
 8003c36:	2b00      	cmp	r3, #0
 8003c38:	d001      	beq.n	8003c3e <HAL_I2C_Mem_Read+0x1e2>
 8003c3a:	2301      	movs	r3, #1
 8003c3c:	e13a      	b.n	8003eb4 <HAL_I2C_Mem_Read+0x458>
 8003c3e:	68fb      	ldr	r3, [r7, #12]
 8003c40:	681b      	ldr	r3, [r3, #0]
 8003c42:	691a      	ldr	r2, [r3, #16]
 8003c44:	68fb      	ldr	r3, [r7, #12]
 8003c46:	6a5b      	ldr	r3, [r3, #36]	; 0x24
 8003c48:	b2d2      	uxtb	r2, r2
 8003c4a:	701a      	strb	r2, [r3, #0]
 8003c4c:	68fb      	ldr	r3, [r7, #12]
 8003c4e:	6a5b      	ldr	r3, [r3, #36]	; 0x24
 8003c50:	1c5a      	adds	r2, r3, #1
 8003c52:	68fb      	ldr	r3, [r7, #12]
 8003c54:	625a      	str	r2, [r3, #36]	; 0x24
 8003c56:	68fb      	ldr	r3, [r7, #12]
 8003c58:	8d1b      	ldrh	r3, [r3, #40]	; 0x28
 8003c5a:	3b01      	subs	r3, #1
 8003c5c:	b29a      	uxth	r2, r3
 8003c5e:	68fb      	ldr	r3, [r7, #12]
 8003c60:	851a      	strh	r2, [r3, #40]	; 0x28
 8003c62:	68fb      	ldr	r3, [r7, #12]
 8003c64:	8d5b      	ldrh	r3, [r3, #42]	; 0x2a
 8003c66:	b29b      	uxth	r3, r3
 8003c68:	3b01      	subs	r3, #1
 8003c6a:	b29a      	uxth	r2, r3
 8003c6c:	68fb      	ldr	r3, [r7, #12]
 8003c6e:	855a      	strh	r2, [r3, #42]	; 0x2a
 8003c70:	e10c      	b.n	8003e8c <HAL_I2C_Mem_Read+0x430>
 8003c72:	68fb      	ldr	r3, [r7, #12]
 8003c74:	8d1b      	ldrh	r3, [r3, #40]	; 0x28
 8003c76:	2b02      	cmp	r3, #2
 8003c78:	d14f      	bne.n	8003d1a <HAL_I2C_Mem_Read+0x2be>
 8003c7a:	6a7b      	ldr	r3, [r7, #36]	; 0x24
 8003c7c:	9300      	str	r3, [sp, #0]
 8003c7e:	6bbb      	ldr	r3, [r7, #56]	; 0x38
 8003c80:	2200      	movs	r2, #0
 8003c82:	4907      	ldr	r1, [pc, #28]	; (8003ca0 <HAL_I2C_Mem_Read+0x244>)
 8003c84:	68f8      	ldr	r0, [r7, #12]
 8003c86:	f000 fa61 	bl	800414c <I2C_WaitOnFlagUntilTimeout>
 8003c8a:	4603      	mov	r3, r0
 8003c8c:	2b00      	cmp	r3, #0
 8003c8e:	d009      	beq.n	8003ca4 <HAL_I2C_Mem_Read+0x248>
 8003c90:	2301      	movs	r3, #1
 8003c92:	e10f      	b.n	8003eb4 <HAL_I2C_Mem_Read+0x458>
 8003c94:	0800a908 	.word	0x0800a908
 8003c98:	00100002 	.word	0x00100002
 8003c9c:	ffff0000 	.word	0xffff0000
 8003ca0:	00010004 	.word	0x00010004
 8003ca4:	68fb      	ldr	r3, [r7, #12]
 8003ca6:	681b      	ldr	r3, [r3, #0]
 8003ca8:	681a      	ldr	r2, [r3, #0]
 8003caa:	68fb      	ldr	r3, [r7, #12]
 8003cac:	681b      	ldr	r3, [r3, #0]
 8003cae:	f442 7200 	orr.w	r2, r2, #512	; 0x200
 8003cb2:	601a      	str	r2, [r3, #0]
 8003cb4:	68fb      	ldr	r3, [r7, #12]
 8003cb6:	681b      	ldr	r3, [r3, #0]
 8003cb8:	691a      	ldr	r2, [r3, #16]
 8003cba:	68fb      	ldr	r3, [r7, #12]
 8003cbc:	6a5b      	ldr	r3, [r3, #36]	; 0x24
 8003cbe:	b2d2      	uxtb	r2, r2
 8003cc0:	701a      	strb	r2, [r3, #0]
 8003cc2:	68fb      	ldr	r3, [r7, #12]
 8003cc4:	6a5b      	ldr	r3, [r3, #36]	; 0x24
 8003cc6:	1c5a      	adds	r2, r3, #1
 8003cc8:	68fb      	ldr	r3, [r7, #12]
 8003cca:	625a      	str	r2, [r3, #36]	; 0x24
 8003ccc:	68fb      	ldr	r3, [r7, #12]
 8003cce:	8d1b      	ldrh	r3, [r3, #40]	; 0x28
 8003cd0:	3b01      	subs	r3, #1
 8003cd2:	b29a      	uxth	r2, r3
 8003cd4:	68fb      	ldr	r3, [r7, #12]
 8003cd6:	851a      	strh	r2, [r3, #40]	; 0x28
 8003cd8:	68fb      	ldr	r3, [r7, #12]
 8003cda:	8d5b      	ldrh	r3, [r3, #42]	; 0x2a
 8003cdc:	b29b      	uxth	r3, r3
 8003cde:	3b01      	subs	r3, #1
 8003ce0:	b29a      	uxth	r2, r3
 8003ce2:	68fb      	ldr	r3, [r7, #12]
 8003ce4:	855a      	strh	r2, [r3, #42]	; 0x2a
 8003ce6:	68fb      	ldr	r3, [r7, #12]
 8003ce8:	681b      	ldr	r3, [r3, #0]
 8003cea:	691a      	ldr	r2, [r3, #16]
 8003cec:	68fb      	ldr	r3, [r7, #12]
 8003cee:	6a5b      	ldr	r3, [r3, #36]	; 0x24
 8003cf0:	b2d2      	uxtb	r2, r2
 8003cf2:	701a      	strb	r2, [r3, #0]
 8003cf4:	68fb      	ldr	r3, [r7, #12]
 8003cf6:	6a5b      	ldr	r3, [r3, #36]	; 0x24
 8003cf8:	1c5a      	adds	r2, r3, #1
 8003cfa:	68fb      	ldr	r3, [r7, #12]
 8003cfc:	625a      	str	r2, [r3, #36]	; 0x24
 8003cfe:	68fb      	ldr	r3, [r7, #12]
 8003d00:	8d1b      	ldrh	r3, [r3, #40]	; 0x28
 8003d02:	3b01      	subs	r3, #1
 8003d04:	b29a      	uxth	r2, r3
 8003d06:	68fb      	ldr	r3, [r7, #12]
 8003d08:	851a      	strh	r2, [r3, #40]	; 0x28
 8003d0a:	68fb      	ldr	r3, [r7, #12]
 8003d0c:	8d5b      	ldrh	r3, [r3, #42]	; 0x2a
 8003d0e:	b29b      	uxth	r3, r3
 8003d10:	3b01      	subs	r3, #1
 8003d12:	b29a      	uxth	r2, r3
 8003d14:	68fb      	ldr	r3, [r7, #12]
 8003d16:	855a      	strh	r2, [r3, #42]	; 0x2a
 8003d18:	e0b8      	b.n	8003e8c <HAL_I2C_Mem_Read+0x430>
 8003d1a:	6a7b      	ldr	r3, [r7, #36]	; 0x24
 8003d1c:	9300      	str	r3, [sp, #0]
 8003d1e:	6bbb      	ldr	r3, [r7, #56]	; 0x38
 8003d20:	2200      	movs	r2, #0
 8003d22:	4966      	ldr	r1, [pc, #408]	; (8003ebc <HAL_I2C_Mem_Read+0x460>)
 8003d24:	68f8      	ldr	r0, [r7, #12]
 8003d26:	f000 fa11 	bl	800414c <I2C_WaitOnFlagUntilTimeout>
 8003d2a:	4603      	mov	r3, r0
 8003d2c:	2b00      	cmp	r3, #0
 8003d2e:	d001      	beq.n	8003d34 <HAL_I2C_Mem_Read+0x2d8>
 8003d30:	2301      	movs	r3, #1
 8003d32:	e0bf      	b.n	8003eb4 <HAL_I2C_Mem_Read+0x458>
 8003d34:	68fb      	ldr	r3, [r7, #12]
 8003d36:	681b      	ldr	r3, [r3, #0]
 8003d38:	681a      	ldr	r2, [r3, #0]
 8003d3a:	68fb      	ldr	r3, [r7, #12]
 8003d3c:	681b      	ldr	r3, [r3, #0]
 8003d3e:	f422 6280 	bic.w	r2, r2, #1024	; 0x400
 8003d42:	601a      	str	r2, [r3, #0]
 8003d44:	68fb      	ldr	r3, [r7, #12]
 8003d46:	681b      	ldr	r3, [r3, #0]
 8003d48:	691a      	ldr	r2, [r3, #16]
 8003d4a:	68fb      	ldr	r3, [r7, #12]
 8003d4c:	6a5b      	ldr	r3, [r3, #36]	; 0x24
 8003d4e:	b2d2      	uxtb	r2, r2
 8003d50:	701a      	strb	r2, [r3, #0]
 8003d52:	68fb      	ldr	r3, [r7, #12]
 8003d54:	6a5b      	ldr	r3, [r3, #36]	; 0x24
 8003d56:	1c5a      	adds	r2, r3, #1
 8003d58:	68fb      	ldr	r3, [r7, #12]
 8003d5a:	625a      	str	r2, [r3, #36]	; 0x24
 8003d5c:	68fb      	ldr	r3, [r7, #12]
 8003d5e:	8d1b      	ldrh	r3, [r3, #40]	; 0x28
 8003d60:	3b01      	subs	r3, #1
 8003d62:	b29a      	uxth	r2, r3
 8003d64:	68fb      	ldr	r3, [r7, #12]
 8003d66:	851a      	strh	r2, [r3, #40]	; 0x28
 8003d68:	68fb      	ldr	r3, [r7, #12]
 8003d6a:	8d5b      	ldrh	r3, [r3, #42]	; 0x2a
 8003d6c:	b29b      	uxth	r3, r3
 8003d6e:	3b01      	subs	r3, #1
 8003d70:	b29a      	uxth	r2, r3
 8003d72:	68fb      	ldr	r3, [r7, #12]
 8003d74:	855a      	strh	r2, [r3, #42]	; 0x2a
 8003d76:	6a7b      	ldr	r3, [r7, #36]	; 0x24
 8003d78:	9300      	str	r3, [sp, #0]
 8003d7a:	6bbb      	ldr	r3, [r7, #56]	; 0x38
 8003d7c:	2200      	movs	r2, #0
 8003d7e:	494f      	ldr	r1, [pc, #316]	; (8003ebc <HAL_I2C_Mem_Read+0x460>)
 8003d80:	68f8      	ldr	r0, [r7, #12]
 8003d82:	f000 f9e3 	bl	800414c <I2C_WaitOnFlagUntilTimeout>
 8003d86:	4603      	mov	r3, r0
 8003d88:	2b00      	cmp	r3, #0
 8003d8a:	d001      	beq.n	8003d90 <HAL_I2C_Mem_Read+0x334>
 8003d8c:	2301      	movs	r3, #1
 8003d8e:	e091      	b.n	8003eb4 <HAL_I2C_Mem_Read+0x458>
 8003d90:	68fb      	ldr	r3, [r7, #12]
 8003d92:	681b      	ldr	r3, [r3, #0]
 8003d94:	681a      	ldr	r2, [r3, #0]
 8003d96:	68fb      	ldr	r3, [r7, #12]
 8003d98:	681b      	ldr	r3, [r3, #0]
 8003d9a:	f442 7200 	orr.w	r2, r2, #512	; 0x200
 8003d9e:	601a      	str	r2, [r3, #0]
 8003da0:	68fb      	ldr	r3, [r7, #12]
 8003da2:	681b      	ldr	r3, [r3, #0]
 8003da4:	691a      	ldr	r2, [r3, #16]
 8003da6:	68fb      	ldr	r3, [r7, #12]
 8003da8:	6a5b      	ldr	r3, [r3, #36]	; 0x24
 8003daa:	b2d2      	uxtb	r2, r2
 8003dac:	701a      	strb	r2, [r3, #0]
 8003dae:	68fb      	ldr	r3, [r7, #12]
 8003db0:	6a5b      	ldr	r3, [r3, #36]	; 0x24
 8003db2:	1c5a      	adds	r2, r3, #1
 8003db4:	68fb      	ldr	r3, [r7, #12]
 8003db6:	625a      	str	r2, [r3, #36]	; 0x24
 8003db8:	68fb      	ldr	r3, [r7, #12]
 8003dba:	8d1b      	ldrh	r3, [r3, #40]	; 0x28
 8003dbc:	3b01      	subs	r3, #1
 8003dbe:	b29a      	uxth	r2, r3
 8003dc0:	68fb      	ldr	r3, [r7, #12]
 8003dc2:	851a      	strh	r2, [r3, #40]	; 0x28
 8003dc4:	68fb      	ldr	r3, [r7, #12]
 8003dc6:	8d5b      	ldrh	r3, [r3, #42]	; 0x2a
 8003dc8:	b29b      	uxth	r3, r3
 8003dca:	3b01      	subs	r3, #1
 8003dcc:	b29a      	uxth	r2, r3
 8003dce:	68fb      	ldr	r3, [r7, #12]
 8003dd0:	855a      	strh	r2, [r3, #42]	; 0x2a
 8003dd2:	68fb      	ldr	r3, [r7, #12]
 8003dd4:	681b      	ldr	r3, [r3, #0]
 8003dd6:	691a      	ldr	r2, [r3, #16]
 8003dd8:	68fb      	ldr	r3, [r7, #12]
 8003dda:	6a5b      	ldr	r3, [r3, #36]	; 0x24
 8003ddc:	b2d2      	uxtb	r2, r2
 8003dde:	701a      	strb	r2, [r3, #0]
 8003de0:	68fb      	ldr	r3, [r7, #12]
 8003de2:	6a5b      	ldr	r3, [r3, #36]	; 0x24
 8003de4:	1c5a      	adds	r2, r3, #1
 8003de6:	68fb      	ldr	r3, [r7, #12]
 8003de8:	625a      	str	r2, [r3, #36]	; 0x24
 8003dea:	68fb      	ldr	r3, [r7, #12]
 8003dec:	8d1b      	ldrh	r3, [r3, #40]	; 0x28
 8003dee:	3b01      	subs	r3, #1
 8003df0:	b29a      	uxth	r2, r3
 8003df2:	68fb      	ldr	r3, [r7, #12]
 8003df4:	851a      	strh	r2, [r3, #40]	; 0x28
 8003df6:	68fb      	ldr	r3, [r7, #12]
 8003df8:	8d5b      	ldrh	r3, [r3, #42]	; 0x2a
 8003dfa:	b29b      	uxth	r3, r3
 8003dfc:	3b01      	subs	r3, #1
 8003dfe:	b29a      	uxth	r2, r3
 8003e00:	68fb      	ldr	r3, [r7, #12]
 8003e02:	855a      	strh	r2, [r3, #42]	; 0x2a
 8003e04:	e042      	b.n	8003e8c <HAL_I2C_Mem_Read+0x430>
 8003e06:	6a7a      	ldr	r2, [r7, #36]	; 0x24
 8003e08:	6bb9      	ldr	r1, [r7, #56]	; 0x38
 8003e0a:	68f8      	ldr	r0, [r7, #12]
 8003e0c:	f000 faf6 	bl	80043fc <I2C_WaitOnRXNEFlagUntilTimeout>
 8003e10:	4603      	mov	r3, r0
 8003e12:	2b00      	cmp	r3, #0
 8003e14:	d001      	beq.n	8003e1a <HAL_I2C_Mem_Read+0x3be>
 8003e16:	2301      	movs	r3, #1
 8003e18:	e04c      	b.n	8003eb4 <HAL_I2C_Mem_Read+0x458>
 8003e1a:	68fb      	ldr	r3, [r7, #12]
 8003e1c:	681b      	ldr	r3, [r3, #0]
 8003e1e:	691a      	ldr	r2, [r3, #16]
 8003e20:	68fb      	ldr	r3, [r7, #12]
 8003e22:	6a5b      	ldr	r3, [r3, #36]	; 0x24
 8003e24:	b2d2      	uxtb	r2, r2
 8003e26:	701a      	strb	r2, [r3, #0]
 8003e28:	68fb      	ldr	r3, [r7, #12]
 8003e2a:	6a5b      	ldr	r3, [r3, #36]	; 0x24
 8003e2c:	1c5a      	adds	r2, r3, #1
 8003e2e:	68fb      	ldr	r3, [r7, #12]
 8003e30:	625a      	str	r2, [r3, #36]	; 0x24
 8003e32:	68fb      	ldr	r3, [r7, #12]
 8003e34:	8d1b      	ldrh	r3, [r3, #40]	; 0x28
 8003e36:	3b01      	subs	r3, #1
 8003e38:	b29a      	uxth	r2, r3
 8003e3a:	68fb      	ldr	r3, [r7, #12]
 8003e3c:	851a      	strh	r2, [r3, #40]	; 0x28
 8003e3e:	68fb      	ldr	r3, [r7, #12]
 8003e40:	8d5b      	ldrh	r3, [r3, #42]	; 0x2a
 8003e42:	b29b      	uxth	r3, r3
 8003e44:	3b01      	subs	r3, #1
 8003e46:	b29a      	uxth	r2, r3
 8003e48:	68fb      	ldr	r3, [r7, #12]
 8003e4a:	855a      	strh	r2, [r3, #42]	; 0x2a
 8003e4c:	68fb      	ldr	r3, [r7, #12]
 8003e4e:	681b      	ldr	r3, [r3, #0]
 8003e50:	695b      	ldr	r3, [r3, #20]
 8003e52:	f003 0304 	and.w	r3, r3, #4
 8003e56:	2b04      	cmp	r3, #4
 8003e58:	d118      	bne.n	8003e8c <HAL_I2C_Mem_Read+0x430>
 8003e5a:	68fb      	ldr	r3, [r7, #12]
 8003e5c:	681b      	ldr	r3, [r3, #0]
 8003e5e:	691a      	ldr	r2, [r3, #16]
 8003e60:	68fb      	ldr	r3, [r7, #12]
 8003e62:	6a5b      	ldr	r3, [r3, #36]	; 0x24
 8003e64:	b2d2      	uxtb	r2, r2
 8003e66:	701a      	strb	r2, [r3, #0]
 8003e68:	68fb      	ldr	r3, [r7, #12]
 8003e6a:	6a5b      	ldr	r3, [r3, #36]	; 0x24
 8003e6c:	1c5a      	adds	r2, r3, #1
 8003e6e:	68fb      	ldr	r3, [r7, #12]
 8003e70:	625a      	str	r2, [r3, #36]	; 0x24
 8003e72:	68fb      	ldr	r3, [r7, #12]
 8003e74:	8d1b      	ldrh	r3, [r3, #40]	; 0x28
 8003e76:	3b01      	subs	r3, #1
 8003e78:	b29a      	uxth	r2, r3
 8003e7a:	68fb      	ldr	r3, [r7, #12]
 8003e7c:	851a      	strh	r2, [r3, #40]	; 0x28
 8003e7e:	68fb      	ldr	r3, [r7, #12]
 8003e80:	8d5b      	ldrh	r3, [r3, #42]	; 0x2a
 8003e82:	b29b      	uxth	r3, r3
 8003e84:	3b01      	subs	r3, #1
 8003e86:	b29a      	uxth	r2, r3
 8003e88:	68fb      	ldr	r3, [r7, #12]
 8003e8a:	855a      	strh	r2, [r3, #42]	; 0x2a
 8003e8c:	68fb      	ldr	r3, [r7, #12]
 8003e8e:	8d1b      	ldrh	r3, [r3, #40]	; 0x28
 8003e90:	2b00      	cmp	r3, #0
 8003e92:	f47f aec1 	bne.w	8003c18 <HAL_I2C_Mem_Read+0x1bc>
 8003e96:	68fb      	ldr	r3, [r7, #12]
 8003e98:	2220      	movs	r2, #32
 8003e9a:	f883 203d 	strb.w	r2, [r3, #61]	; 0x3d
 8003e9e:	68fb      	ldr	r3, [r7, #12]
 8003ea0:	2200      	movs	r2, #0
 8003ea2:	f883 203e 	strb.w	r2, [r3, #62]	; 0x3e
 8003ea6:	68fb      	ldr	r3, [r7, #12]
 8003ea8:	2200      	movs	r2, #0
 8003eaa:	f883 203c 	strb.w	r2, [r3, #60]	; 0x3c
 8003eae:	2300      	movs	r3, #0
 8003eb0:	e000      	b.n	8003eb4 <HAL_I2C_Mem_Read+0x458>
 8003eb2:	2302      	movs	r3, #2
 8003eb4:	4618      	mov	r0, r3
 8003eb6:	3728      	adds	r7, #40	; 0x28
 8003eb8:	46bd      	mov	sp, r7
 8003eba:	bd80      	pop	{r7, pc}
 8003ebc:	00010004 	.word	0x00010004

08003ec0 <I2C_MasterRequestWrite>:
 8003ec0:	b580      	push	{r7, lr}
 8003ec2:	b088      	sub	sp, #32
 8003ec4:	af02      	add	r7, sp, #8
 8003ec6:	60f8      	str	r0, [r7, #12]
 8003ec8:	607a      	str	r2, [r7, #4]
 8003eca:	603b      	str	r3, [r7, #0]
 8003ecc:	460b      	mov	r3, r1
 8003ece:	817b      	strh	r3, [r7, #10]
 8003ed0:	68fb      	ldr	r3, [r7, #12]
 8003ed2:	6adb      	ldr	r3, [r3, #44]	; 0x2c
 8003ed4:	617b      	str	r3, [r7, #20]
 8003ed6:	697b      	ldr	r3, [r7, #20]
 8003ed8:	2b08      	cmp	r3, #8
 8003eda:	d006      	beq.n	8003eea <I2C_MasterRequestWrite+0x2a>
 8003edc:	697b      	ldr	r3, [r7, #20]
 8003ede:	2b01      	cmp	r3, #1
 8003ee0:	d003      	beq.n	8003eea <I2C_MasterRequestWrite+0x2a>
 8003ee2:	697b      	ldr	r3, [r7, #20]
 8003ee4:	f513 3f80 	cmn.w	r3, #65536	; 0x10000
 8003ee8:	d108      	bne.n	8003efc <I2C_MasterRequestWrite+0x3c>
 8003eea:	68fb      	ldr	r3, [r7, #12]
 8003eec:	681b      	ldr	r3, [r3, #0]
 8003eee:	681a      	ldr	r2, [r3, #0]
 8003ef0:	68fb      	ldr	r3, [r7, #12]
 8003ef2:	681b      	ldr	r3, [r3, #0]
 8003ef4:	f442 7280 	orr.w	r2, r2, #256	; 0x100
 8003ef8:	601a      	str	r2, [r3, #0]
 8003efa:	e00b      	b.n	8003f14 <I2C_MasterRequestWrite+0x54>
 8003efc:	68fb      	ldr	r3, [r7, #12]
 8003efe:	6b1b      	ldr	r3, [r3, #48]	; 0x30
 8003f00:	2b12      	cmp	r3, #18
 8003f02:	d107      	bne.n	8003f14 <I2C_MasterRequestWrite+0x54>
 8003f04:	68fb      	ldr	r3, [r7, #12]
 8003f06:	681b      	ldr	r3, [r3, #0]
 8003f08:	681a      	ldr	r2, [r3, #0]
 8003f0a:	68fb      	ldr	r3, [r7, #12]
 8003f0c:	681b      	ldr	r3, [r3, #0]
 8003f0e:	f442 7280 	orr.w	r2, r2, #256	; 0x100
 8003f12:	601a      	str	r2, [r3, #0]
 8003f14:	683b      	ldr	r3, [r7, #0]
 8003f16:	9300      	str	r3, [sp, #0]
 8003f18:	687b      	ldr	r3, [r7, #4]
 8003f1a:	2200      	movs	r2, #0
 8003f1c:	f04f 1101 	mov.w	r1, #65537	; 0x10001
 8003f20:	68f8      	ldr	r0, [r7, #12]
 8003f22:	f000 f913 	bl	800414c <I2C_WaitOnFlagUntilTimeout>
 8003f26:	4603      	mov	r3, r0
 8003f28:	2b00      	cmp	r3, #0
 8003f2a:	d001      	beq.n	8003f30 <I2C_MasterRequestWrite+0x70>
 8003f2c:	2301      	movs	r3, #1
 8003f2e:	e035      	b.n	8003f9c <I2C_MasterRequestWrite+0xdc>
 8003f30:	68fb      	ldr	r3, [r7, #12]
 8003f32:	691b      	ldr	r3, [r3, #16]
 8003f34:	f5b3 4f80 	cmp.w	r3, #16384	; 0x4000
 8003f38:	d108      	bne.n	8003f4c <I2C_MasterRequestWrite+0x8c>
 8003f3a:	897b      	ldrh	r3, [r7, #10]
 8003f3c:	b2db      	uxtb	r3, r3
 8003f3e:	461a      	mov	r2, r3
 8003f40:	68fb      	ldr	r3, [r7, #12]
 8003f42:	681b      	ldr	r3, [r3, #0]
 8003f44:	f002 02fe 	and.w	r2, r2, #254	; 0xfe
 8003f48:	611a      	str	r2, [r3, #16]
 8003f4a:	e01b      	b.n	8003f84 <I2C_MasterRequestWrite+0xc4>
 8003f4c:	897b      	ldrh	r3, [r7, #10]
 8003f4e:	11db      	asrs	r3, r3, #7
 8003f50:	b2db      	uxtb	r3, r3
 8003f52:	f003 0306 	and.w	r3, r3, #6
 8003f56:	b2db      	uxtb	r3, r3
 8003f58:	f063 030f 	orn	r3, r3, #15
 8003f5c:	b2da      	uxtb	r2, r3
 8003f5e:	68fb      	ldr	r3, [r7, #12]
 8003f60:	681b      	ldr	r3, [r3, #0]
 8003f62:	611a      	str	r2, [r3, #16]
 8003f64:	683b      	ldr	r3, [r7, #0]
 8003f66:	687a      	ldr	r2, [r7, #4]
 8003f68:	490e      	ldr	r1, [pc, #56]	; (8003fa4 <I2C_MasterRequestWrite+0xe4>)
 8003f6a:	68f8      	ldr	r0, [r7, #12]
 8003f6c:	f000 f945 	bl	80041fa <I2C_WaitOnMasterAddressFlagUntilTimeout>
 8003f70:	4603      	mov	r3, r0
 8003f72:	2b00      	cmp	r3, #0
 8003f74:	d001      	beq.n	8003f7a <I2C_MasterRequestWrite+0xba>
 8003f76:	2301      	movs	r3, #1
 8003f78:	e010      	b.n	8003f9c <I2C_MasterRequestWrite+0xdc>
 8003f7a:	897b      	ldrh	r3, [r7, #10]
 8003f7c:	b2da      	uxtb	r2, r3
 8003f7e:	68fb      	ldr	r3, [r7, #12]
 8003f80:	681b      	ldr	r3, [r3, #0]
 8003f82:	611a      	str	r2, [r3, #16]
 8003f84:	683b      	ldr	r3, [r7, #0]
 8003f86:	687a      	ldr	r2, [r7, #4]
 8003f88:	4907      	ldr	r1, [pc, #28]	; (8003fa8 <I2C_MasterRequestWrite+0xe8>)
 8003f8a:	68f8      	ldr	r0, [r7, #12]
 8003f8c:	f000 f935 	bl	80041fa <I2C_WaitOnMasterAddressFlagUntilTimeout>
 8003f90:	4603      	mov	r3, r0
 8003f92:	2b00      	cmp	r3, #0
 8003f94:	d001      	beq.n	8003f9a <I2C_MasterRequestWrite+0xda>
 8003f96:	2301      	movs	r3, #1
 8003f98:	e000      	b.n	8003f9c <I2C_MasterRequestWrite+0xdc>
 8003f9a:	2300      	movs	r3, #0
 8003f9c:	4618      	mov	r0, r3
 8003f9e:	3718      	adds	r7, #24
 8003fa0:	46bd      	mov	sp, r7
 8003fa2:	bd80      	pop	{r7, pc}
 8003fa4:	00010008 	.word	0x00010008
 8003fa8:	00010002 	.word	0x00010002

08003fac <I2C_RequestMemoryRead>:
 8003fac:	b580      	push	{r7, lr}
 8003fae:	b088      	sub	sp, #32
 8003fb0:	af02      	add	r7, sp, #8
 8003fb2:	60f8      	str	r0, [r7, #12]
 8003fb4:	4608      	mov	r0, r1
 8003fb6:	4611      	mov	r1, r2
 8003fb8:	461a      	mov	r2, r3
 8003fba:	4603      	mov	r3, r0
 8003fbc:	817b      	strh	r3, [r7, #10]
 8003fbe:	460b      	mov	r3, r1
 8003fc0:	813b      	strh	r3, [r7, #8]
 8003fc2:	4613      	mov	r3, r2
 8003fc4:	80fb      	strh	r3, [r7, #6]
 8003fc6:	68fb      	ldr	r3, [r7, #12]
 8003fc8:	681b      	ldr	r3, [r3, #0]
 8003fca:	681a      	ldr	r2, [r3, #0]
 8003fcc:	68fb      	ldr	r3, [r7, #12]
 8003fce:	681b      	ldr	r3, [r3, #0]
 8003fd0:	f442 6280 	orr.w	r2, r2, #1024	; 0x400
 8003fd4:	601a      	str	r2, [r3, #0]
 8003fd6:	68fb      	ldr	r3, [r7, #12]
 8003fd8:	681b      	ldr	r3, [r3, #0]
 8003fda:	681a      	ldr	r2, [r3, #0]
 8003fdc:	68fb      	ldr	r3, [r7, #12]
 8003fde:	681b      	ldr	r3, [r3, #0]
 8003fe0:	f442 7280 	orr.w	r2, r2, #256	; 0x100
 8003fe4:	601a      	str	r2, [r3, #0]
 8003fe6:	6a7b      	ldr	r3, [r7, #36]	; 0x24
 8003fe8:	9300      	str	r3, [sp, #0]
 8003fea:	6a3b      	ldr	r3, [r7, #32]
 8003fec:	2200      	movs	r2, #0
 8003fee:	f04f 1101 	mov.w	r1, #65537	; 0x10001
 8003ff2:	68f8      	ldr	r0, [r7, #12]
 8003ff4:	f000 f8aa 	bl	800414c <I2C_WaitOnFlagUntilTimeout>
 8003ff8:	4603      	mov	r3, r0
 8003ffa:	2b00      	cmp	r3, #0
 8003ffc:	d001      	beq.n	8004002 <I2C_RequestMemoryRead+0x56>
 8003ffe:	2301      	movs	r3, #1
 8004000:	e09e      	b.n	8004140 <I2C_RequestMemoryRead+0x194>
 8004002:	897b      	ldrh	r3, [r7, #10]
 8004004:	b2db      	uxtb	r3, r3
 8004006:	461a      	mov	r2, r3
 8004008:	68fb      	ldr	r3, [r7, #12]
 800400a:	681b      	ldr	r3, [r3, #0]
 800400c:	f002 02fe 	and.w	r2, r2, #254	; 0xfe
 8004010:	611a      	str	r2, [r3, #16]
 8004012:	6a7b      	ldr	r3, [r7, #36]	; 0x24
 8004014:	6a3a      	ldr	r2, [r7, #32]
 8004016:	494c      	ldr	r1, [pc, #304]	; (8004148 <I2C_RequestMemoryRead+0x19c>)
 8004018:	68f8      	ldr	r0, [r7, #12]
 800401a:	f000 f8ee 	bl	80041fa <I2C_WaitOnMasterAddressFlagUntilTimeout>
 800401e:	4603      	mov	r3, r0
 8004020:	2b00      	cmp	r3, #0
 8004022:	d001      	beq.n	8004028 <I2C_RequestMemoryRead+0x7c>
 8004024:	2301      	movs	r3, #1
 8004026:	e08b      	b.n	8004140 <I2C_RequestMemoryRead+0x194>
 8004028:	2300      	movs	r3, #0
 800402a:	617b      	str	r3, [r7, #20]
 800402c:	68fb      	ldr	r3, [r7, #12]
 800402e:	681b      	ldr	r3, [r3, #0]
 8004030:	695b      	ldr	r3, [r3, #20]
 8004032:	617b      	str	r3, [r7, #20]
 8004034:	68fb      	ldr	r3, [r7, #12]
 8004036:	681b      	ldr	r3, [r3, #0]
 8004038:	699b      	ldr	r3, [r3, #24]
 800403a:	617b      	str	r3, [r7, #20]
 800403c:	697b      	ldr	r3, [r7, #20]
 800403e:	6a7a      	ldr	r2, [r7, #36]	; 0x24
 8004040:	6a39      	ldr	r1, [r7, #32]
 8004042:	68f8      	ldr	r0, [r7, #12]
 8004044:	f000 f958 	bl	80042f8 <I2C_WaitOnTXEFlagUntilTimeout>
 8004048:	4603      	mov	r3, r0
 800404a:	2b00      	cmp	r3, #0
 800404c:	d00d      	beq.n	800406a <I2C_RequestMemoryRead+0xbe>
 800404e:	68fb      	ldr	r3, [r7, #12]
 8004050:	6c1b      	ldr	r3, [r3, #64]	; 0x40
 8004052:	2b04      	cmp	r3, #4
 8004054:	d107      	bne.n	8004066 <I2C_RequestMemoryRead+0xba>
 8004056:	68fb      	ldr	r3, [r7, #12]
 8004058:	681b      	ldr	r3, [r3, #0]
 800405a:	681a      	ldr	r2, [r3, #0]
 800405c:	68fb      	ldr	r3, [r7, #12]
 800405e:	681b      	ldr	r3, [r3, #0]
 8004060:	f442 7200 	orr.w	r2, r2, #512	; 0x200
 8004064:	601a      	str	r2, [r3, #0]
 8004066:	2301      	movs	r3, #1
 8004068:	e06a      	b.n	8004140 <I2C_RequestMemoryRead+0x194>
 800406a:	88fb      	ldrh	r3, [r7, #6]
 800406c:	2b01      	cmp	r3, #1
 800406e:	d105      	bne.n	800407c <I2C_RequestMemoryRead+0xd0>
 8004070:	893b      	ldrh	r3, [r7, #8]
 8004072:	b2da      	uxtb	r2, r3
 8004074:	68fb      	ldr	r3, [r7, #12]
 8004076:	681b      	ldr	r3, [r3, #0]
 8004078:	611a      	str	r2, [r3, #16]
 800407a:	e021      	b.n	80040c0 <I2C_RequestMemoryRead+0x114>
 800407c:	893b      	ldrh	r3, [r7, #8]
 800407e:	0a1b      	lsrs	r3, r3, #8
 8004080:	b29b      	uxth	r3, r3
 8004082:	b2da      	uxtb	r2, r3
 8004084:	68fb      	ldr	r3, [r7, #12]
 8004086:	681b      	ldr	r3, [r3, #0]
 8004088:	611a      	str	r2, [r3, #16]
 800408a:	6a7a      	ldr	r2, [r7, #36]	; 0x24
 800408c:	6a39      	ldr	r1, [r7, #32]
 800408e:	68f8      	ldr	r0, [r7, #12]
 8004090:	f000 f932 	bl	80042f8 <I2C_WaitOnTXEFlagUntilTimeout>
 8004094:	4603      	mov	r3, r0
 8004096:	2b00      	cmp	r3, #0
 8004098:	d00d      	beq.n	80040b6 <I2C_RequestMemoryRead+0x10a>
 800409a:	68fb      	ldr	r3, [r7, #12]
 800409c:	6c1b      	ldr	r3, [r3, #64]	; 0x40
 800409e:	2b04      	cmp	r3, #4
 80040a0:	d107      	bne.n	80040b2 <I2C_RequestMemoryRead+0x106>
 80040a2:	68fb      	ldr	r3, [r7, #12]
 80040a4:	681b      	ldr	r3, [r3, #0]
 80040a6:	681a      	ldr	r2, [r3, #0]
 80040a8:	68fb      	ldr	r3, [r7, #12]
 80040aa:	681b      	ldr	r3, [r3, #0]
 80040ac:	f442 7200 	orr.w	r2, r2, #512	; 0x200
 80040b0:	601a      	str	r2, [r3, #0]
 80040b2:	2301      	movs	r3, #1
 80040b4:	e044      	b.n	8004140 <I2C_RequestMemoryRead+0x194>
 80040b6:	893b      	ldrh	r3, [r7, #8]
 80040b8:	b2da      	uxtb	r2, r3
 80040ba:	68fb      	ldr	r3, [r7, #12]
 80040bc:	681b      	ldr	r3, [r3, #0]
 80040be:	611a      	str	r2, [r3, #16]
 80040c0:	6a7a      	ldr	r2, [r7, #36]	; 0x24
 80040c2:	6a39      	ldr	r1, [r7, #32]
 80040c4:	68f8      	ldr	r0, [r7, #12]
 80040c6:	f000 f917 	bl	80042f8 <I2C_WaitOnTXEFlagUntilTimeout>
 80040ca:	4603      	mov	r3, r0
 80040cc:	2b00      	cmp	r3, #0
 80040ce:	d00d      	beq.n	80040ec <I2C_RequestMemoryRead+0x140>
 80040d0:	68fb      	ldr	r3, [r7, #12]
 80040d2:	6c1b      	ldr	r3, [r3, #64]	; 0x40
 80040d4:	2b04      	cmp	r3, #4
 80040d6:	d107      	bne.n	80040e8 <I2C_RequestMemoryRead+0x13c>
 80040d8:	68fb      	ldr	r3, [r7, #12]
 80040da:	681b      	ldr	r3, [r3, #0]
 80040dc:	681a      	ldr	r2, [r3, #0]
 80040de:	68fb      	ldr	r3, [r7, #12]
 80040e0:	681b      	ldr	r3, [r3, #0]
 80040e2:	f442 7200 	orr.w	r2, r2, #512	; 0x200
 80040e6:	601a      	str	r2, [r3, #0]
 80040e8:	2301      	movs	r3, #1
 80040ea:	e029      	b.n	8004140 <I2C_RequestMemoryRead+0x194>
 80040ec:	68fb      	ldr	r3, [r7, #12]
 80040ee:	681b      	ldr	r3, [r3, #0]
 80040f0:	681a      	ldr	r2, [r3, #0]
 80040f2:	68fb      	ldr	r3, [r7, #12]
 80040f4:	681b      	ldr	r3, [r3, #0]
 80040f6:	f442 7280 	orr.w	r2, r2, #256	; 0x100
 80040fa:	601a      	str	r2, [r3, #0]
 80040fc:	6a7b      	ldr	r3, [r7, #36]	; 0x24
 80040fe:	9300      	str	r3, [sp, #0]
 8004100:	6a3b      	ldr	r3, [r7, #32]
 8004102:	2200      	movs	r2, #0
 8004104:	f04f 1101 	mov.w	r1, #65537	; 0x10001
 8004108:	68f8      	ldr	r0, [r7, #12]
 800410a:	f000 f81f 	bl	800414c <I2C_WaitOnFlagUntilTimeout>
 800410e:	4603      	mov	r3, r0
 8004110:	2b00      	cmp	r3, #0
 8004112:	d001      	beq.n	8004118 <I2C_RequestMemoryRead+0x16c>
 8004114:	2301      	movs	r3, #1
 8004116:	e013      	b.n	8004140 <I2C_RequestMemoryRead+0x194>
 8004118:	897b      	ldrh	r3, [r7, #10]
 800411a:	b2db      	uxtb	r3, r3
 800411c:	f043 0301 	orr.w	r3, r3, #1
 8004120:	b2da      	uxtb	r2, r3
 8004122:	68fb      	ldr	r3, [r7, #12]
 8004124:	681b      	ldr	r3, [r3, #0]
 8004126:	611a      	str	r2, [r3, #16]
 8004128:	6a7b      	ldr	r3, [r7, #36]	; 0x24
 800412a:	6a3a      	ldr	r2, [r7, #32]
 800412c:	4906      	ldr	r1, [pc, #24]	; (8004148 <I2C_RequestMemoryRead+0x19c>)
 800412e:	68f8      	ldr	r0, [r7, #12]
 8004130:	f000 f863 	bl	80041fa <I2C_WaitOnMasterAddressFlagUntilTimeout>
 8004134:	4603      	mov	r3, r0
 8004136:	2b00      	cmp	r3, #0
 8004138:	d001      	beq.n	800413e <I2C_RequestMemoryRead+0x192>
 800413a:	2301      	movs	r3, #1
 800413c:	e000      	b.n	8004140 <I2C_RequestMemoryRead+0x194>
 800413e:	2300      	movs	r3, #0
 8004140:	4618      	mov	r0, r3
 8004142:	3718      	adds	r7, #24
 8004144:	46bd      	mov	sp, r7
 8004146:	bd80      	pop	{r7, pc}
 8004148:	00010002 	.word	0x00010002

0800414c <I2C_WaitOnFlagUntilTimeout>:
 800414c:	b580      	push	{r7, lr}
 800414e:	b084      	sub	sp, #16
 8004150:	af00      	add	r7, sp, #0
 8004152:	60f8      	str	r0, [r7, #12]
 8004154:	60b9      	str	r1, [r7, #8]
 8004156:	603b      	str	r3, [r7, #0]
 8004158:	4613      	mov	r3, r2
 800415a:	71fb      	strb	r3, [r7, #7]
 800415c:	e025      	b.n	80041aa <I2C_WaitOnFlagUntilTimeout+0x5e>
 800415e:	683b      	ldr	r3, [r7, #0]
 8004160:	f1b3 3fff 	cmp.w	r3, #4294967295
 8004164:	d021      	beq.n	80041aa <I2C_WaitOnFlagUntilTimeout+0x5e>
 8004166:	f7fd fe0f 	bl	8001d88 <HAL_GetTick>
 800416a:	4602      	mov	r2, r0
 800416c:	69bb      	ldr	r3, [r7, #24]
 800416e:	1ad3      	subs	r3, r2, r3
 8004170:	683a      	ldr	r2, [r7, #0]
 8004172:	429a      	cmp	r2, r3
 8004174:	d302      	bcc.n	800417c <I2C_WaitOnFlagUntilTimeout+0x30>
 8004176:	683b      	ldr	r3, [r7, #0]
 8004178:	2b00      	cmp	r3, #0
 800417a:	d116      	bne.n	80041aa <I2C_WaitOnFlagUntilTimeout+0x5e>
 800417c:	68fb      	ldr	r3, [r7, #12]
 800417e:	2200      	movs	r2, #0
 8004180:	631a      	str	r2, [r3, #48]	; 0x30
 8004182:	68fb      	ldr	r3, [r7, #12]
 8004184:	2220      	movs	r2, #32
 8004186:	f883 203d 	strb.w	r2, [r3, #61]	; 0x3d
 800418a:	68fb      	ldr	r3, [r7, #12]
 800418c:	2200      	movs	r2, #0
 800418e:	f883 203e 	strb.w	r2, [r3, #62]	; 0x3e
 8004192:	68fb      	ldr	r3, [r7, #12]
 8004194:	6c1b      	ldr	r3, [r3, #64]	; 0x40
 8004196:	f043 0220 	orr.w	r2, r3, #32
 800419a:	68fb      	ldr	r3, [r7, #12]
 800419c:	641a      	str	r2, [r3, #64]	; 0x40
 800419e:	68fb      	ldr	r3, [r7, #12]
 80041a0:	2200      	movs	r2, #0
 80041a2:	f883 203c 	strb.w	r2, [r3, #60]	; 0x3c
 80041a6:	2301      	movs	r3, #1
 80041a8:	e023      	b.n	80041f2 <I2C_WaitOnFlagUntilTimeout+0xa6>
 80041aa:	68bb      	ldr	r3, [r7, #8]
 80041ac:	0c1b      	lsrs	r3, r3, #16
 80041ae:	b2db      	uxtb	r3, r3
 80041b0:	2b01      	cmp	r3, #1
 80041b2:	d10d      	bne.n	80041d0 <I2C_WaitOnFlagUntilTimeout+0x84>
 80041b4:	68fb      	ldr	r3, [r7, #12]
 80041b6:	681b      	ldr	r3, [r3, #0]
 80041b8:	695b      	ldr	r3, [r3, #20]
 80041ba:	43da      	mvns	r2, r3
 80041bc:	68bb      	ldr	r3, [r7, #8]
 80041be:	4013      	ands	r3, r2
 80041c0:	b29b      	uxth	r3, r3
 80041c2:	2b00      	cmp	r3, #0
 80041c4:	bf0c      	ite	eq
 80041c6:	2301      	moveq	r3, #1
 80041c8:	2300      	movne	r3, #0
 80041ca:	b2db      	uxtb	r3, r3
 80041cc:	461a      	mov	r2, r3
 80041ce:	e00c      	b.n	80041ea <I2C_WaitOnFlagUntilTimeout+0x9e>
 80041d0:	68fb      	ldr	r3, [r7, #12]
 80041d2:	681b      	ldr	r3, [r3, #0]
 80041d4:	699b      	ldr	r3, [r3, #24]
 80041d6:	43da      	mvns	r2, r3
 80041d8:	68bb      	ldr	r3, [r7, #8]
 80041da:	4013      	ands	r3, r2
 80041dc:	b29b      	uxth	r3, r3
 80041de:	2b00      	cmp	r3, #0
 80041e0:	bf0c      	ite	eq
 80041e2:	2301      	moveq	r3, #1
 80041e4:	2300      	movne	r3, #0
 80041e6:	b2db      	uxtb	r3, r3
 80041e8:	461a      	mov	r2, r3
 80041ea:	79fb      	ldrb	r3, [r7, #7]
 80041ec:	429a      	cmp	r2, r3
 80041ee:	d0b6      	beq.n	800415e <I2C_WaitOnFlagUntilTimeout+0x12>
 80041f0:	2300      	movs	r3, #0
 80041f2:	4618      	mov	r0, r3
 80041f4:	3710      	adds	r7, #16
 80041f6:	46bd      	mov	sp, r7
 80041f8:	bd80      	pop	{r7, pc}

080041fa <I2C_WaitOnMasterAddressFlagUntilTimeout>:
 80041fa:	b580      	push	{r7, lr}
 80041fc:	b084      	sub	sp, #16
 80041fe:	af00      	add	r7, sp, #0
 8004200:	60f8      	str	r0, [r7, #12]
 8004202:	60b9      	str	r1, [r7, #8]
 8004204:	607a      	str	r2, [r7, #4]
 8004206:	603b      	str	r3, [r7, #0]
 8004208:	e051      	b.n	80042ae <I2C_WaitOnMasterAddressFlagUntilTimeout+0xb4>
 800420a:	68fb      	ldr	r3, [r7, #12]
 800420c:	681b      	ldr	r3, [r3, #0]
 800420e:	695b      	ldr	r3, [r3, #20]
 8004210:	f403 6380 	and.w	r3, r3, #1024	; 0x400
 8004214:	f5b3 6f80 	cmp.w	r3, #1024	; 0x400
 8004218:	d123      	bne.n	8004262 <I2C_WaitOnMasterAddressFlagUntilTimeout+0x68>
 800421a:	68fb      	ldr	r3, [r7, #12]
 800421c:	681b      	ldr	r3, [r3, #0]
 800421e:	681a      	ldr	r2, [r3, #0]
 8004220:	68fb      	ldr	r3, [r7, #12]
 8004222:	681b      	ldr	r3, [r3, #0]
 8004224:	f442 7200 	orr.w	r2, r2, #512	; 0x200
 8004228:	601a      	str	r2, [r3, #0]
 800422a:	68fb      	ldr	r3, [r7, #12]
 800422c:	681b      	ldr	r3, [r3, #0]
 800422e:	f46f 6280 	mvn.w	r2, #1024	; 0x400
 8004232:	615a      	str	r2, [r3, #20]
 8004234:	68fb      	ldr	r3, [r7, #12]
 8004236:	2200      	movs	r2, #0
 8004238:	631a      	str	r2, [r3, #48]	; 0x30
 800423a:	68fb      	ldr	r3, [r7, #12]
 800423c:	2220      	movs	r2, #32
 800423e:	f883 203d 	strb.w	r2, [r3, #61]	; 0x3d
 8004242:	68fb      	ldr	r3, [r7, #12]
 8004244:	2200      	movs	r2, #0
 8004246:	f883 203e 	strb.w	r2, [r3, #62]	; 0x3e
 800424a:	68fb      	ldr	r3, [r7, #12]
 800424c:	6c1b      	ldr	r3, [r3, #64]	; 0x40
 800424e:	f043 0204 	orr.w	r2, r3, #4
 8004252:	68fb      	ldr	r3, [r7, #12]
 8004254:	641a      	str	r2, [r3, #64]	; 0x40
 8004256:	68fb      	ldr	r3, [r7, #12]
 8004258:	2200      	movs	r2, #0
 800425a:	f883 203c 	strb.w	r2, [r3, #60]	; 0x3c
 800425e:	2301      	movs	r3, #1
 8004260:	e046      	b.n	80042f0 <I2C_WaitOnMasterAddressFlagUntilTimeout+0xf6>
 8004262:	687b      	ldr	r3, [r7, #4]
 8004264:	f1b3 3fff 	cmp.w	r3, #4294967295
 8004268:	d021      	beq.n	80042ae <I2C_WaitOnMasterAddressFlagUntilTimeout+0xb4>
 800426a:	f7fd fd8d 	bl	8001d88 <HAL_GetTick>
 800426e:	4602      	mov	r2, r0
 8004270:	683b      	ldr	r3, [r7, #0]
 8004272:	1ad3      	subs	r3, r2, r3
 8004274:	687a      	ldr	r2, [r7, #4]
 8004276:	429a      	cmp	r2, r3
 8004278:	d302      	bcc.n	8004280 <I2C_WaitOnMasterAddressFlagUntilTimeout+0x86>
 800427a:	687b      	ldr	r3, [r7, #4]
 800427c:	2b00      	cmp	r3, #0
 800427e:	d116      	bne.n	80042ae <I2C_WaitOnMasterAddressFlagUntilTimeout+0xb4>
 8004280:	68fb      	ldr	r3, [r7, #12]
 8004282:	2200      	movs	r2, #0
 8004284:	631a      	str	r2, [r3, #48]	; 0x30
 8004286:	68fb      	ldr	r3, [r7, #12]
 8004288:	2220      	movs	r2, #32
 800428a:	f883 203d 	strb.w	r2, [r3, #61]	; 0x3d
 800428e:	68fb      	ldr	r3, [r7, #12]
 8004290:	2200      	movs	r2, #0
 8004292:	f883 203e 	strb.w	r2, [r3, #62]	; 0x3e
 8004296:	68fb      	ldr	r3, [r7, #12]
 8004298:	6c1b      	ldr	r3, [r3, #64]	; 0x40
 800429a:	f043 0220 	orr.w	r2, r3, #32
 800429e:	68fb      	ldr	r3, [r7, #12]
 80042a0:	641a      	str	r2, [r3, #64]	; 0x40
 80042a2:	68fb      	ldr	r3, [r7, #12]
 80042a4:	2200      	movs	r2, #0
 80042a6:	f883 203c 	strb.w	r2, [r3, #60]	; 0x3c
 80042aa:	2301      	movs	r3, #1
 80042ac:	e020      	b.n	80042f0 <I2C_WaitOnMasterAddressFlagUntilTimeout+0xf6>
 80042ae:	68bb      	ldr	r3, [r7, #8]
 80042b0:	0c1b      	lsrs	r3, r3, #16
 80042b2:	b2db      	uxtb	r3, r3
 80042b4:	2b01      	cmp	r3, #1
 80042b6:	d10c      	bne.n	80042d2 <I2C_WaitOnMasterAddressFlagUntilTimeout+0xd8>
 80042b8:	68fb      	ldr	r3, [r7, #12]
 80042ba:	681b      	ldr	r3, [r3, #0]
 80042bc:	695b      	ldr	r3, [r3, #20]
 80042be:	43da      	mvns	r2, r3
 80042c0:	68bb      	ldr	r3, [r7, #8]
 80042c2:	4013      	ands	r3, r2
 80042c4:	b29b      	uxth	r3, r3
 80042c6:	2b00      	cmp	r3, #0
 80042c8:	bf14      	ite	ne
 80042ca:	2301      	movne	r3, #1
 80042cc:	2300      	moveq	r3, #0
 80042ce:	b2db      	uxtb	r3, r3
 80042d0:	e00b      	b.n	80042ea <I2C_WaitOnMasterAddressFlagUntilTimeout+0xf0>
 80042d2:	68fb      	ldr	r3, [r7, #12]
 80042d4:	681b      	ldr	r3, [r3, #0]
 80042d6:	699b      	ldr	r3, [r3, #24]
 80042d8:	43da      	mvns	r2, r3
 80042da:	68bb      	ldr	r3, [r7, #8]
 80042dc:	4013      	ands	r3, r2
 80042de:	b29b      	uxth	r3, r3
 80042e0:	2b00      	cmp	r3, #0
 80042e2:	bf14      	ite	ne
 80042e4:	2301      	movne	r3, #1
 80042e6:	2300      	moveq	r3, #0
 80042e8:	b2db      	uxtb	r3, r3
 80042ea:	2b00      	cmp	r3, #0
 80042ec:	d18d      	bne.n	800420a <I2C_WaitOnMasterAddressFlagUntilTimeout+0x10>
 80042ee:	2300      	movs	r3, #0
 80042f0:	4618      	mov	r0, r3
 80042f2:	3710      	adds	r7, #16
 80042f4:	46bd      	mov	sp, r7
 80042f6:	bd80      	pop	{r7, pc}

080042f8 <I2C_WaitOnTXEFlagUntilTimeout>:
 80042f8:	b580      	push	{r7, lr}
 80042fa:	b084      	sub	sp, #16
 80042fc:	af00      	add	r7, sp, #0
 80042fe:	60f8      	str	r0, [r7, #12]
 8004300:	60b9      	str	r1, [r7, #8]
 8004302:	607a      	str	r2, [r7, #4]
 8004304:	e02d      	b.n	8004362 <I2C_WaitOnTXEFlagUntilTimeout+0x6a>
 8004306:	68f8      	ldr	r0, [r7, #12]
 8004308:	f000 f8ce 	bl	80044a8 <I2C_IsAcknowledgeFailed>
 800430c:	4603      	mov	r3, r0
 800430e:	2b00      	cmp	r3, #0
 8004310:	d001      	beq.n	8004316 <I2C_WaitOnTXEFlagUntilTimeout+0x1e>
 8004312:	2301      	movs	r3, #1
 8004314:	e02d      	b.n	8004372 <I2C_WaitOnTXEFlagUntilTimeout+0x7a>
 8004316:	68bb      	ldr	r3, [r7, #8]
 8004318:	f1b3 3fff 	cmp.w	r3, #4294967295
 800431c:	d021      	beq.n	8004362 <I2C_WaitOnTXEFlagUntilTimeout+0x6a>
 800431e:	f7fd fd33 	bl	8001d88 <HAL_GetTick>
 8004322:	4602      	mov	r2, r0
 8004324:	687b      	ldr	r3, [r7, #4]
 8004326:	1ad3      	subs	r3, r2, r3
 8004328:	68ba      	ldr	r2, [r7, #8]
 800432a:	429a      	cmp	r2, r3
 800432c:	d302      	bcc.n	8004334 <I2C_WaitOnTXEFlagUntilTimeout+0x3c>
 800432e:	68bb      	ldr	r3, [r7, #8]
 8004330:	2b00      	cmp	r3, #0
 8004332:	d116      	bne.n	8004362 <I2C_WaitOnTXEFlagUntilTimeout+0x6a>
 8004334:	68fb      	ldr	r3, [r7, #12]
 8004336:	2200      	movs	r2, #0
 8004338:	631a      	str	r2, [r3, #48]	; 0x30
 800433a:	68fb      	ldr	r3, [r7, #12]
 800433c:	2220      	movs	r2, #32
 800433e:	f883 203d 	strb.w	r2, [r3, #61]	; 0x3d
 8004342:	68fb      	ldr	r3, [r7, #12]
 8004344:	2200      	movs	r2, #0
 8004346:	f883 203e 	strb.w	r2, [r3, #62]	; 0x3e
 800434a:	68fb      	ldr	r3, [r7, #12]
 800434c:	6c1b      	ldr	r3, [r3, #64]	; 0x40
 800434e:	f043 0220 	orr.w	r2, r3, #32
 8004352:	68fb      	ldr	r3, [r7, #12]
 8004354:	641a      	str	r2, [r3, #64]	; 0x40
 8004356:	68fb      	ldr	r3, [r7, #12]
 8004358:	2200      	movs	r2, #0
 800435a:	f883 203c 	strb.w	r2, [r3, #60]	; 0x3c
 800435e:	2301      	movs	r3, #1
 8004360:	e007      	b.n	8004372 <I2C_WaitOnTXEFlagUntilTimeout+0x7a>
 8004362:	68fb      	ldr	r3, [r7, #12]
 8004364:	681b      	ldr	r3, [r3, #0]
 8004366:	695b      	ldr	r3, [r3, #20]
 8004368:	f003 0380 	and.w	r3, r3, #128	; 0x80
 800436c:	2b80      	cmp	r3, #128	; 0x80
 800436e:	d1ca      	bne.n	8004306 <I2C_WaitOnTXEFlagUntilTimeout+0xe>
 8004370:	2300      	movs	r3, #0
 8004372:	4618      	mov	r0, r3
 8004374:	3710      	adds	r7, #16
 8004376:	46bd      	mov	sp, r7
 8004378:	bd80      	pop	{r7, pc}

0800437a <I2C_WaitOnBTFFlagUntilTimeout>:
 800437a:	b580      	push	{r7, lr}
 800437c:	b084      	sub	sp, #16
 800437e:	af00      	add	r7, sp, #0
 8004380:	60f8      	str	r0, [r7, #12]
 8004382:	60b9      	str	r1, [r7, #8]
 8004384:	607a      	str	r2, [r7, #4]
 8004386:	e02d      	b.n	80043e4 <I2C_WaitOnBTFFlagUntilTimeout+0x6a>
 8004388:	68f8      	ldr	r0, [r7, #12]
 800438a:	f000 f88d 	bl	80044a8 <I2C_IsAcknowledgeFailed>
 800438e:	4603      	mov	r3, r0
 8004390:	2b00      	cmp	r3, #0
 8004392:	d001      	beq.n	8004398 <I2C_WaitOnBTFFlagUntilTimeout+0x1e>
 8004394:	2301      	movs	r3, #1
 8004396:	e02d      	b.n	80043f4 <I2C_WaitOnBTFFlagUntilTimeout+0x7a>
 8004398:	68bb      	ldr	r3, [r7, #8]
 800439a:	f1b3 3fff 	cmp.w	r3, #4294967295
 800439e:	d021      	beq.n	80043e4 <I2C_WaitOnBTFFlagUntilTimeout+0x6a>
 80043a0:	f7fd fcf2 	bl	8001d88 <HAL_GetTick>
 80043a4:	4602      	mov	r2, r0
 80043a6:	687b      	ldr	r3, [r7, #4]
 80043a8:	1ad3      	subs	r3, r2, r3
 80043aa:	68ba      	ldr	r2, [r7, #8]
 80043ac:	429a      	cmp	r2, r3
 80043ae:	d302      	bcc.n	80043b6 <I2C_WaitOnBTFFlagUntilTimeout+0x3c>
 80043b0:	68bb      	ldr	r3, [r7, #8]
 80043b2:	2b00      	cmp	r3, #0
 80043b4:	d116      	bne.n	80043e4 <I2C_WaitOnBTFFlagUntilTimeout+0x6a>
 80043b6:	68fb      	ldr	r3, [r7, #12]
 80043b8:	2200      	movs	r2, #0
 80043ba:	631a      	str	r2, [r3, #48]	; 0x30
 80043bc:	68fb      	ldr	r3, [r7, #12]
 80043be:	2220      	movs	r2, #32
 80043c0:	f883 203d 	strb.w	r2, [r3, #61]	; 0x3d
 80043c4:	68fb      	ldr	r3, [r7, #12]
 80043c6:	2200      	movs	r2, #0
 80043c8:	f883 203e 	strb.w	r2, [r3, #62]	; 0x3e
 80043cc:	68fb      	ldr	r3, [r7, #12]
 80043ce:	6c1b      	ldr	r3, [r3, #64]	; 0x40
 80043d0:	f043 0220 	orr.w	r2, r3, #32
 80043d4:	68fb      	ldr	r3, [r7, #12]
 80043d6:	641a      	str	r2, [r3, #64]	; 0x40
 80043d8:	68fb      	ldr	r3, [r7, #12]
 80043da:	2200      	movs	r2, #0
 80043dc:	f883 203c 	strb.w	r2, [r3, #60]	; 0x3c
 80043e0:	2301      	movs	r3, #1
 80043e2:	e007      	b.n	80043f4 <I2C_WaitOnBTFFlagUntilTimeout+0x7a>
 80043e4:	68fb      	ldr	r3, [r7, #12]
 80043e6:	681b      	ldr	r3, [r3, #0]
 80043e8:	695b      	ldr	r3, [r3, #20]
 80043ea:	f003 0304 	and.w	r3, r3, #4
 80043ee:	2b04      	cmp	r3, #4
 80043f0:	d1ca      	bne.n	8004388 <I2C_WaitOnBTFFlagUntilTimeout+0xe>
 80043f2:	2300      	movs	r3, #0
 80043f4:	4618      	mov	r0, r3
 80043f6:	3710      	adds	r7, #16
 80043f8:	46bd      	mov	sp, r7
 80043fa:	bd80      	pop	{r7, pc}

080043fc <I2C_WaitOnRXNEFlagUntilTimeout>:
 80043fc:	b580      	push	{r7, lr}
 80043fe:	b084      	sub	sp, #16
 8004400:	af00      	add	r7, sp, #0
 8004402:	60f8      	str	r0, [r7, #12]
 8004404:	60b9      	str	r1, [r7, #8]
 8004406:	607a      	str	r2, [r7, #4]
 8004408:	e042      	b.n	8004490 <I2C_WaitOnRXNEFlagUntilTimeout+0x94>
 800440a:	68fb      	ldr	r3, [r7, #12]
 800440c:	681b      	ldr	r3, [r3, #0]
 800440e:	695b      	ldr	r3, [r3, #20]
 8004410:	f003 0310 	and.w	r3, r3, #16
 8004414:	2b10      	cmp	r3, #16
 8004416:	d119      	bne.n	800444c <I2C_WaitOnRXNEFlagUntilTimeout+0x50>
 8004418:	68fb      	ldr	r3, [r7, #12]
 800441a:	681b      	ldr	r3, [r3, #0]
 800441c:	f06f 0210 	mvn.w	r2, #16
 8004420:	615a      	str	r2, [r3, #20]
 8004422:	68fb      	ldr	r3, [r7, #12]
 8004424:	2200      	movs	r2, #0
 8004426:	631a      	str	r2, [r3, #48]	; 0x30
 8004428:	68fb      	ldr	r3, [r7, #12]
 800442a:	2220      	movs	r2, #32
 800442c:	f883 203d 	strb.w	r2, [r3, #61]	; 0x3d
 8004430:	68fb      	ldr	r3, [r7, #12]
 8004432:	2200      	movs	r2, #0
 8004434:	f883 203e 	strb.w	r2, [r3, #62]	; 0x3e
 8004438:	68fb      	ldr	r3, [r7, #12]
 800443a:	6c1a      	ldr	r2, [r3, #64]	; 0x40
 800443c:	68fb      	ldr	r3, [r7, #12]
 800443e:	641a      	str	r2, [r3, #64]	; 0x40
 8004440:	68fb      	ldr	r3, [r7, #12]
 8004442:	2200      	movs	r2, #0
 8004444:	f883 203c 	strb.w	r2, [r3, #60]	; 0x3c
 8004448:	2301      	movs	r3, #1
 800444a:	e029      	b.n	80044a0 <I2C_WaitOnRXNEFlagUntilTimeout+0xa4>
 800444c:	f7fd fc9c 	bl	8001d88 <HAL_GetTick>
 8004450:	4602      	mov	r2, r0
 8004452:	687b      	ldr	r3, [r7, #4]
 8004454:	1ad3      	subs	r3, r2, r3
 8004456:	68ba      	ldr	r2, [r7, #8]
 8004458:	429a      	cmp	r2, r3
 800445a:	d302      	bcc.n	8004462 <I2C_WaitOnRXNEFlagUntilTimeout+0x66>
 800445c:	68bb      	ldr	r3, [r7, #8]
 800445e:	2b00      	cmp	r3, #0
 8004460:	d116      	bne.n	8004490 <I2C_WaitOnRXNEFlagUntilTimeout+0x94>
 8004462:	68fb      	ldr	r3, [r7, #12]
 8004464:	2200      	movs	r2, #0
 8004466:	631a      	str	r2, [r3, #48]	; 0x30
 8004468:	68fb      	ldr	r3, [r7, #12]
 800446a:	2220      	movs	r2, #32
 800446c:	f883 203d 	strb.w	r2, [r3, #61]	; 0x3d
 8004470:	68fb      	ldr	r3, [r7, #12]
 8004472:	2200      	movs	r2, #0
 8004474:	f883 203e 	strb.w	r2, [r3, #62]	; 0x3e
 8004478:	68fb      	ldr	r3, [r7, #12]
 800447a:	6c1b      	ldr	r3, [r3, #64]	; 0x40
 800447c:	f043 0220 	orr.w	r2, r3, #32
 8004480:	68fb      	ldr	r3, [r7, #12]
 8004482:	641a      	str	r2, [r3, #64]	; 0x40
 8004484:	68fb      	ldr	r3, [r7, #12]
 8004486:	2200      	movs	r2, #0
 8004488:	f883 203c 	strb.w	r2, [r3, #60]	; 0x3c
 800448c:	2301      	movs	r3, #1
 800448e:	e007      	b.n	80044a0 <I2C_WaitOnRXNEFlagUntilTimeout+0xa4>
 8004490:	68fb      	ldr	r3, [r7, #12]
 8004492:	681b      	ldr	r3, [r3, #0]
 8004494:	695b      	ldr	r3, [r3, #20]
 8004496:	f003 0340 	and.w	r3, r3, #64	; 0x40
 800449a:	2b40      	cmp	r3, #64	; 0x40
 800449c:	d1b5      	bne.n	800440a <I2C_WaitOnRXNEFlagUntilTimeout+0xe>
 800449e:	2300      	movs	r3, #0
 80044a0:	4618      	mov	r0, r3
 80044a2:	3710      	adds	r7, #16
 80044a4:	46bd      	mov	sp, r7
 80044a6:	bd80      	pop	{r7, pc}

080044a8 <I2C_IsAcknowledgeFailed>:
 80044a8:	b480      	push	{r7}
 80044aa:	b083      	sub	sp, #12
 80044ac:	af00      	add	r7, sp, #0
 80044ae:	6078      	str	r0, [r7, #4]
 80044b0:	687b      	ldr	r3, [r7, #4]
 80044b2:	681b      	ldr	r3, [r3, #0]
 80044b4:	695b      	ldr	r3, [r3, #20]
 80044b6:	f403 6380 	and.w	r3, r3, #1024	; 0x400
 80044ba:	f5b3 6f80 	cmp.w	r3, #1024	; 0x400
 80044be:	d11b      	bne.n	80044f8 <I2C_IsAcknowledgeFailed+0x50>
 80044c0:	687b      	ldr	r3, [r7, #4]
 80044c2:	681b      	ldr	r3, [r3, #0]
 80044c4:	f46f 6280 	mvn.w	r2, #1024	; 0x400
 80044c8:	615a      	str	r2, [r3, #20]
 80044ca:	687b      	ldr	r3, [r7, #4]
 80044cc:	2200      	movs	r2, #0
 80044ce:	631a      	str	r2, [r3, #48]	; 0x30
 80044d0:	687b      	ldr	r3, [r7, #4]
 80044d2:	2220      	movs	r2, #32
 80044d4:	f883 203d 	strb.w	r2, [r3, #61]	; 0x3d
 80044d8:	687b      	ldr	r3, [r7, #4]
 80044da:	2200      	movs	r2, #0
 80044dc:	f883 203e 	strb.w	r2, [r3, #62]	; 0x3e
 80044e0:	687b      	ldr	r3, [r7, #4]
 80044e2:	6c1b      	ldr	r3, [r3, #64]	; 0x40
 80044e4:	f043 0204 	orr.w	r2, r3, #4
 80044e8:	687b      	ldr	r3, [r7, #4]
 80044ea:	641a      	str	r2, [r3, #64]	; 0x40
 80044ec:	687b      	ldr	r3, [r7, #4]
 80044ee:	2200      	movs	r2, #0
 80044f0:	f883 203c 	strb.w	r2, [r3, #60]	; 0x3c
 80044f4:	2301      	movs	r3, #1
 80044f6:	e000      	b.n	80044fa <I2C_IsAcknowledgeFailed+0x52>
 80044f8:	2300      	movs	r3, #0
 80044fa:	4618      	mov	r0, r3
 80044fc:	370c      	adds	r7, #12
 80044fe:	46bd      	mov	sp, r7
 8004500:	bc80      	pop	{r7}
 8004502:	4770      	bx	lr

08004504 <HAL_RCC_OscConfig>:
 8004504:	b580      	push	{r7, lr}
 8004506:	b088      	sub	sp, #32
 8004508:	af00      	add	r7, sp, #0
 800450a:	6078      	str	r0, [r7, #4]
 800450c:	687b      	ldr	r3, [r7, #4]
 800450e:	2b00      	cmp	r3, #0
 8004510:	d102      	bne.n	8004518 <HAL_RCC_OscConfig+0x14>
 8004512:	2301      	movs	r3, #1
 8004514:	f000 bc6c 	b.w	8004df0 <HAL_RCC_OscConfig+0x8ec>
 8004518:	687b      	ldr	r3, [r7, #4]
 800451a:	681b      	ldr	r3, [r3, #0]
 800451c:	2b00      	cmp	r3, #0
 800451e:	d022      	beq.n	8004566 <HAL_RCC_OscConfig+0x62>
 8004520:	687b      	ldr	r3, [r7, #4]
 8004522:	681b      	ldr	r3, [r3, #0]
 8004524:	f003 0301 	and.w	r3, r3, #1
 8004528:	2b00      	cmp	r3, #0
 800452a:	d11c      	bne.n	8004566 <HAL_RCC_OscConfig+0x62>
 800452c:	687b      	ldr	r3, [r7, #4]
 800452e:	681b      	ldr	r3, [r3, #0]
 8004530:	f003 0302 	and.w	r3, r3, #2
 8004534:	2b00      	cmp	r3, #0
 8004536:	d116      	bne.n	8004566 <HAL_RCC_OscConfig+0x62>
 8004538:	687b      	ldr	r3, [r7, #4]
 800453a:	681b      	ldr	r3, [r3, #0]
 800453c:	f003 0308 	and.w	r3, r3, #8
 8004540:	2b00      	cmp	r3, #0
 8004542:	d110      	bne.n	8004566 <HAL_RCC_OscConfig+0x62>
 8004544:	687b      	ldr	r3, [r7, #4]
 8004546:	681b      	ldr	r3, [r3, #0]
 8004548:	f003 0304 	and.w	r3, r3, #4
 800454c:	2b00      	cmp	r3, #0
 800454e:	d10a      	bne.n	8004566 <HAL_RCC_OscConfig+0x62>
 8004550:	687b      	ldr	r3, [r7, #4]
 8004552:	681b      	ldr	r3, [r3, #0]
 8004554:	f003 0310 	and.w	r3, r3, #16
 8004558:	2b00      	cmp	r3, #0
 800455a:	d104      	bne.n	8004566 <HAL_RCC_OscConfig+0x62>
 800455c:	f44f 71a8 	mov.w	r1, #336	; 0x150
 8004560:	4897      	ldr	r0, [pc, #604]	; (80047c0 <HAL_RCC_OscConfig+0x2bc>)
 8004562:	f7fc ff0b 	bl	800137c <assert_failed>
 8004566:	4b97      	ldr	r3, [pc, #604]	; (80047c4 <HAL_RCC_OscConfig+0x2c0>)
 8004568:	689b      	ldr	r3, [r3, #8]
 800456a:	f003 030c 	and.w	r3, r3, #12
 800456e:	61bb      	str	r3, [r7, #24]
 8004570:	4b94      	ldr	r3, [pc, #592]	; (80047c4 <HAL_RCC_OscConfig+0x2c0>)
 8004572:	689b      	ldr	r3, [r3, #8]
 8004574:	f403 3380 	and.w	r3, r3, #65536	; 0x10000
 8004578:	617b      	str	r3, [r7, #20]
 800457a:	687b      	ldr	r3, [r7, #4]
 800457c:	681b      	ldr	r3, [r3, #0]
 800457e:	f003 0301 	and.w	r3, r3, #1
 8004582:	2b00      	cmp	r3, #0
 8004584:	f000 808e 	beq.w	80046a4 <HAL_RCC_OscConfig+0x1a0>
 8004588:	687b      	ldr	r3, [r7, #4]
 800458a:	685b      	ldr	r3, [r3, #4]
 800458c:	2b00      	cmp	r3, #0
 800458e:	d00c      	beq.n	80045aa <HAL_RCC_OscConfig+0xa6>
 8004590:	687b      	ldr	r3, [r7, #4]
 8004592:	685b      	ldr	r3, [r3, #4]
 8004594:	2b01      	cmp	r3, #1
 8004596:	d008      	beq.n	80045aa <HAL_RCC_OscConfig+0xa6>
 8004598:	687b      	ldr	r3, [r7, #4]
 800459a:	685b      	ldr	r3, [r3, #4]
 800459c:	2b05      	cmp	r3, #5
 800459e:	d004      	beq.n	80045aa <HAL_RCC_OscConfig+0xa6>
 80045a0:	f240 1159 	movw	r1, #345	; 0x159
 80045a4:	4886      	ldr	r0, [pc, #536]	; (80047c0 <HAL_RCC_OscConfig+0x2bc>)
 80045a6:	f7fc fee9 	bl	800137c <assert_failed>
 80045aa:	69bb      	ldr	r3, [r7, #24]
 80045ac:	2b08      	cmp	r3, #8
 80045ae:	d006      	beq.n	80045be <HAL_RCC_OscConfig+0xba>
 80045b0:	69bb      	ldr	r3, [r7, #24]
 80045b2:	2b0c      	cmp	r3, #12
 80045b4:	d110      	bne.n	80045d8 <HAL_RCC_OscConfig+0xd4>
 80045b6:	697b      	ldr	r3, [r7, #20]
 80045b8:	f5b3 3f80 	cmp.w	r3, #65536	; 0x10000
 80045bc:	d10c      	bne.n	80045d8 <HAL_RCC_OscConfig+0xd4>
 80045be:	4b81      	ldr	r3, [pc, #516]	; (80047c4 <HAL_RCC_OscConfig+0x2c0>)
 80045c0:	681b      	ldr	r3, [r3, #0]
 80045c2:	f403 3300 	and.w	r3, r3, #131072	; 0x20000
 80045c6:	2b00      	cmp	r3, #0
 80045c8:	d06b      	beq.n	80046a2 <HAL_RCC_OscConfig+0x19e>
 80045ca:	687b      	ldr	r3, [r7, #4]
 80045cc:	685b      	ldr	r3, [r3, #4]
 80045ce:	2b00      	cmp	r3, #0
 80045d0:	d167      	bne.n	80046a2 <HAL_RCC_OscConfig+0x19e>
 80045d2:	2301      	movs	r3, #1
 80045d4:	f000 bc0c 	b.w	8004df0 <HAL_RCC_OscConfig+0x8ec>
 80045d8:	687b      	ldr	r3, [r7, #4]
 80045da:	685b      	ldr	r3, [r3, #4]
 80045dc:	2b01      	cmp	r3, #1
 80045de:	d106      	bne.n	80045ee <HAL_RCC_OscConfig+0xea>
 80045e0:	4b78      	ldr	r3, [pc, #480]	; (80047c4 <HAL_RCC_OscConfig+0x2c0>)
 80045e2:	681b      	ldr	r3, [r3, #0]
 80045e4:	4a77      	ldr	r2, [pc, #476]	; (80047c4 <HAL_RCC_OscConfig+0x2c0>)
 80045e6:	f443 3380 	orr.w	r3, r3, #65536	; 0x10000
 80045ea:	6013      	str	r3, [r2, #0]
 80045ec:	e02d      	b.n	800464a <HAL_RCC_OscConfig+0x146>
 80045ee:	687b      	ldr	r3, [r7, #4]
 80045f0:	685b      	ldr	r3, [r3, #4]
 80045f2:	2b00      	cmp	r3, #0
 80045f4:	d10c      	bne.n	8004610 <HAL_RCC_OscConfig+0x10c>
 80045f6:	4b73      	ldr	r3, [pc, #460]	; (80047c4 <HAL_RCC_OscConfig+0x2c0>)
 80045f8:	681b      	ldr	r3, [r3, #0]
 80045fa:	4a72      	ldr	r2, [pc, #456]	; (80047c4 <HAL_RCC_OscConfig+0x2c0>)
 80045fc:	f423 3380 	bic.w	r3, r3, #65536	; 0x10000
 8004600:	6013      	str	r3, [r2, #0]
 8004602:	4b70      	ldr	r3, [pc, #448]	; (80047c4 <HAL_RCC_OscConfig+0x2c0>)
 8004604:	681b      	ldr	r3, [r3, #0]
 8004606:	4a6f      	ldr	r2, [pc, #444]	; (80047c4 <HAL_RCC_OscConfig+0x2c0>)
 8004608:	f423 2380 	bic.w	r3, r3, #262144	; 0x40000
 800460c:	6013      	str	r3, [r2, #0]
 800460e:	e01c      	b.n	800464a <HAL_RCC_OscConfig+0x146>
 8004610:	687b      	ldr	r3, [r7, #4]
 8004612:	685b      	ldr	r3, [r3, #4]
 8004614:	2b05      	cmp	r3, #5
 8004616:	d10c      	bne.n	8004632 <HAL_RCC_OscConfig+0x12e>
 8004618:	4b6a      	ldr	r3, [pc, #424]	; (80047c4 <HAL_RCC_OscConfig+0x2c0>)
 800461a:	681b      	ldr	r3, [r3, #0]
 800461c:	4a69      	ldr	r2, [pc, #420]	; (80047c4 <HAL_RCC_OscConfig+0x2c0>)
 800461e:	f443 2380 	orr.w	r3, r3, #262144	; 0x40000
 8004622:	6013      	str	r3, [r2, #0]
 8004624:	4b67      	ldr	r3, [pc, #412]	; (80047c4 <HAL_RCC_OscConfig+0x2c0>)
 8004626:	681b      	ldr	r3, [r3, #0]
 8004628:	4a66      	ldr	r2, [pc, #408]	; (80047c4 <HAL_RCC_OscConfig+0x2c0>)
 800462a:	f443 3380 	orr.w	r3, r3, #65536	; 0x10000
 800462e:	6013      	str	r3, [r2, #0]
 8004630:	e00b      	b.n	800464a <HAL_RCC_OscConfig+0x146>
 8004632:	4b64      	ldr	r3, [pc, #400]	; (80047c4 <HAL_RCC_OscConfig+0x2c0>)
 8004634:	681b      	ldr	r3, [r3, #0]
 8004636:	4a63      	ldr	r2, [pc, #396]	; (80047c4 <HAL_RCC_OscConfig+0x2c0>)
 8004638:	f423 3380 	bic.w	r3, r3, #65536	; 0x10000
 800463c:	6013      	str	r3, [r2, #0]
 800463e:	4b61      	ldr	r3, [pc, #388]	; (80047c4 <HAL_RCC_OscConfig+0x2c0>)
 8004640:	681b      	ldr	r3, [r3, #0]
 8004642:	4a60      	ldr	r2, [pc, #384]	; (80047c4 <HAL_RCC_OscConfig+0x2c0>)
 8004644:	f423 2380 	bic.w	r3, r3, #262144	; 0x40000
 8004648:	6013      	str	r3, [r2, #0]
 800464a:	687b      	ldr	r3, [r7, #4]
 800464c:	685b      	ldr	r3, [r3, #4]
 800464e:	2b00      	cmp	r3, #0
 8004650:	d013      	beq.n	800467a <HAL_RCC_OscConfig+0x176>
 8004652:	f7fd fb99 	bl	8001d88 <HAL_GetTick>
 8004656:	6138      	str	r0, [r7, #16]
 8004658:	e008      	b.n	800466c <HAL_RCC_OscConfig+0x168>
 800465a:	f7fd fb95 	bl	8001d88 <HAL_GetTick>
 800465e:	4602      	mov	r2, r0
 8004660:	693b      	ldr	r3, [r7, #16]
 8004662:	1ad3      	subs	r3, r2, r3
 8004664:	2b64      	cmp	r3, #100	; 0x64
 8004666:	d901      	bls.n	800466c <HAL_RCC_OscConfig+0x168>
 8004668:	2303      	movs	r3, #3
 800466a:	e3c1      	b.n	8004df0 <HAL_RCC_OscConfig+0x8ec>
 800466c:	4b55      	ldr	r3, [pc, #340]	; (80047c4 <HAL_RCC_OscConfig+0x2c0>)
 800466e:	681b      	ldr	r3, [r3, #0]
 8004670:	f403 3300 	and.w	r3, r3, #131072	; 0x20000
 8004674:	2b00      	cmp	r3, #0
 8004676:	d0f0      	beq.n	800465a <HAL_RCC_OscConfig+0x156>
 8004678:	e014      	b.n	80046a4 <HAL_RCC_OscConfig+0x1a0>
 800467a:	f7fd fb85 	bl	8001d88 <HAL_GetTick>
 800467e:	6138      	str	r0, [r7, #16]
 8004680:	e008      	b.n	8004694 <HAL_RCC_OscConfig+0x190>
 8004682:	f7fd fb81 	bl	8001d88 <HAL_GetTick>
 8004686:	4602      	mov	r2, r0
 8004688:	693b      	ldr	r3, [r7, #16]
 800468a:	1ad3      	subs	r3, r2, r3
 800468c:	2b64      	cmp	r3, #100	; 0x64
 800468e:	d901      	bls.n	8004694 <HAL_RCC_OscConfig+0x190>
 8004690:	2303      	movs	r3, #3
 8004692:	e3ad      	b.n	8004df0 <HAL_RCC_OscConfig+0x8ec>
 8004694:	4b4b      	ldr	r3, [pc, #300]	; (80047c4 <HAL_RCC_OscConfig+0x2c0>)
 8004696:	681b      	ldr	r3, [r3, #0]
 8004698:	f403 3300 	and.w	r3, r3, #131072	; 0x20000
 800469c:	2b00      	cmp	r3, #0
 800469e:	d1f0      	bne.n	8004682 <HAL_RCC_OscConfig+0x17e>
 80046a0:	e000      	b.n	80046a4 <HAL_RCC_OscConfig+0x1a0>
 80046a2:	bf00      	nop
 80046a4:	687b      	ldr	r3, [r7, #4]
 80046a6:	681b      	ldr	r3, [r3, #0]
 80046a8:	f003 0302 	and.w	r3, r3, #2
 80046ac:	2b00      	cmp	r3, #0
 80046ae:	d070      	beq.n	8004792 <HAL_RCC_OscConfig+0x28e>
 80046b0:	687b      	ldr	r3, [r7, #4]
 80046b2:	68db      	ldr	r3, [r3, #12]
 80046b4:	2b00      	cmp	r3, #0
 80046b6:	d008      	beq.n	80046ca <HAL_RCC_OscConfig+0x1c6>
 80046b8:	687b      	ldr	r3, [r7, #4]
 80046ba:	68db      	ldr	r3, [r3, #12]
 80046bc:	2b01      	cmp	r3, #1
 80046be:	d004      	beq.n	80046ca <HAL_RCC_OscConfig+0x1c6>
 80046c0:	f44f 71c6 	mov.w	r1, #396	; 0x18c
 80046c4:	483e      	ldr	r0, [pc, #248]	; (80047c0 <HAL_RCC_OscConfig+0x2bc>)
 80046c6:	f7fc fe59 	bl	800137c <assert_failed>
 80046ca:	687b      	ldr	r3, [r7, #4]
 80046cc:	691b      	ldr	r3, [r3, #16]
 80046ce:	2b1f      	cmp	r3, #31
 80046d0:	d904      	bls.n	80046dc <HAL_RCC_OscConfig+0x1d8>
 80046d2:	f240 118d 	movw	r1, #397	; 0x18d
 80046d6:	483a      	ldr	r0, [pc, #232]	; (80047c0 <HAL_RCC_OscConfig+0x2bc>)
 80046d8:	f7fc fe50 	bl	800137c <assert_failed>
 80046dc:	69bb      	ldr	r3, [r7, #24]
 80046de:	2b04      	cmp	r3, #4
 80046e0:	d005      	beq.n	80046ee <HAL_RCC_OscConfig+0x1ea>
 80046e2:	69bb      	ldr	r3, [r7, #24]
 80046e4:	2b0c      	cmp	r3, #12
 80046e6:	d119      	bne.n	800471c <HAL_RCC_OscConfig+0x218>
 80046e8:	697b      	ldr	r3, [r7, #20]
 80046ea:	2b00      	cmp	r3, #0
 80046ec:	d116      	bne.n	800471c <HAL_RCC_OscConfig+0x218>
 80046ee:	4b35      	ldr	r3, [pc, #212]	; (80047c4 <HAL_RCC_OscConfig+0x2c0>)
 80046f0:	681b      	ldr	r3, [r3, #0]
 80046f2:	f003 0302 	and.w	r3, r3, #2
 80046f6:	2b00      	cmp	r3, #0
 80046f8:	d005      	beq.n	8004706 <HAL_RCC_OscConfig+0x202>
 80046fa:	687b      	ldr	r3, [r7, #4]
 80046fc:	68db      	ldr	r3, [r3, #12]
 80046fe:	2b01      	cmp	r3, #1
 8004700:	d001      	beq.n	8004706 <HAL_RCC_OscConfig+0x202>
 8004702:	2301      	movs	r3, #1
 8004704:	e374      	b.n	8004df0 <HAL_RCC_OscConfig+0x8ec>
 8004706:	4b2f      	ldr	r3, [pc, #188]	; (80047c4 <HAL_RCC_OscConfig+0x2c0>)
 8004708:	685b      	ldr	r3, [r3, #4]
 800470a:	f423 52f8 	bic.w	r2, r3, #7936	; 0x1f00
 800470e:	687b      	ldr	r3, [r7, #4]
 8004710:	691b      	ldr	r3, [r3, #16]
 8004712:	021b      	lsls	r3, r3, #8
 8004714:	492b      	ldr	r1, [pc, #172]	; (80047c4 <HAL_RCC_OscConfig+0x2c0>)
 8004716:	4313      	orrs	r3, r2
 8004718:	604b      	str	r3, [r1, #4]
 800471a:	e03a      	b.n	8004792 <HAL_RCC_OscConfig+0x28e>
 800471c:	687b      	ldr	r3, [r7, #4]
 800471e:	68db      	ldr	r3, [r3, #12]
 8004720:	2b00      	cmp	r3, #0
 8004722:	d020      	beq.n	8004766 <HAL_RCC_OscConfig+0x262>
 8004724:	4b28      	ldr	r3, [pc, #160]	; (80047c8 <HAL_RCC_OscConfig+0x2c4>)
 8004726:	2201      	movs	r2, #1
 8004728:	601a      	str	r2, [r3, #0]
 800472a:	f7fd fb2d 	bl	8001d88 <HAL_GetTick>
 800472e:	6138      	str	r0, [r7, #16]
 8004730:	e008      	b.n	8004744 <HAL_RCC_OscConfig+0x240>
 8004732:	f7fd fb29 	bl	8001d88 <HAL_GetTick>
 8004736:	4602      	mov	r2, r0
 8004738:	693b      	ldr	r3, [r7, #16]
 800473a:	1ad3      	subs	r3, r2, r3
 800473c:	2b02      	cmp	r3, #2
 800473e:	d901      	bls.n	8004744 <HAL_RCC_OscConfig+0x240>
 8004740:	2303      	movs	r3, #3
 8004742:	e355      	b.n	8004df0 <HAL_RCC_OscConfig+0x8ec>
 8004744:	4b1f      	ldr	r3, [pc, #124]	; (80047c4 <HAL_RCC_OscConfig+0x2c0>)
 8004746:	681b      	ldr	r3, [r3, #0]
 8004748:	f003 0302 	and.w	r3, r3, #2
 800474c:	2b00      	cmp	r3, #0
 800474e:	d0f0      	beq.n	8004732 <HAL_RCC_OscConfig+0x22e>
 8004750:	4b1c      	ldr	r3, [pc, #112]	; (80047c4 <HAL_RCC_OscConfig+0x2c0>)
 8004752:	685b      	ldr	r3, [r3, #4]
 8004754:	f423 52f8 	bic.w	r2, r3, #7936	; 0x1f00
 8004758:	687b      	ldr	r3, [r7, #4]
 800475a:	691b      	ldr	r3, [r3, #16]
 800475c:	021b      	lsls	r3, r3, #8
 800475e:	4919      	ldr	r1, [pc, #100]	; (80047c4 <HAL_RCC_OscConfig+0x2c0>)
 8004760:	4313      	orrs	r3, r2
 8004762:	604b      	str	r3, [r1, #4]
 8004764:	e015      	b.n	8004792 <HAL_RCC_OscConfig+0x28e>
 8004766:	4b18      	ldr	r3, [pc, #96]	; (80047c8 <HAL_RCC_OscConfig+0x2c4>)
 8004768:	2200      	movs	r2, #0
 800476a:	601a      	str	r2, [r3, #0]
 800476c:	f7fd fb0c 	bl	8001d88 <HAL_GetTick>
 8004770:	6138      	str	r0, [r7, #16]
 8004772:	e008      	b.n	8004786 <HAL_RCC_OscConfig+0x282>
 8004774:	f7fd fb08 	bl	8001d88 <HAL_GetTick>
 8004778:	4602      	mov	r2, r0
 800477a:	693b      	ldr	r3, [r7, #16]
 800477c:	1ad3      	subs	r3, r2, r3
 800477e:	2b02      	cmp	r3, #2
 8004780:	d901      	bls.n	8004786 <HAL_RCC_OscConfig+0x282>
 8004782:	2303      	movs	r3, #3
 8004784:	e334      	b.n	8004df0 <HAL_RCC_OscConfig+0x8ec>
 8004786:	4b0f      	ldr	r3, [pc, #60]	; (80047c4 <HAL_RCC_OscConfig+0x2c0>)
 8004788:	681b      	ldr	r3, [r3, #0]
 800478a:	f003 0302 	and.w	r3, r3, #2
 800478e:	2b00      	cmp	r3, #0
 8004790:	d1f0      	bne.n	8004774 <HAL_RCC_OscConfig+0x270>
 8004792:	687b      	ldr	r3, [r7, #4]
 8004794:	681b      	ldr	r3, [r3, #0]
 8004796:	f003 0310 	and.w	r3, r3, #16
 800479a:	2b00      	cmp	r3, #0
 800479c:	f000 8129 	beq.w	80049f2 <HAL_RCC_OscConfig+0x4ee>
 80047a0:	69bb      	ldr	r3, [r7, #24]
 80047a2:	2b00      	cmp	r3, #0
 80047a4:	f040 80a4 	bne.w	80048f0 <HAL_RCC_OscConfig+0x3ec>
 80047a8:	4b06      	ldr	r3, [pc, #24]	; (80047c4 <HAL_RCC_OscConfig+0x2c0>)
 80047aa:	681b      	ldr	r3, [r3, #0]
 80047ac:	f403 7300 	and.w	r3, r3, #512	; 0x200
 80047b0:	2b00      	cmp	r3, #0
 80047b2:	d00b      	beq.n	80047cc <HAL_RCC_OscConfig+0x2c8>
 80047b4:	687b      	ldr	r3, [r7, #4]
 80047b6:	699b      	ldr	r3, [r3, #24]
 80047b8:	2b00      	cmp	r3, #0
 80047ba:	d107      	bne.n	80047cc <HAL_RCC_OscConfig+0x2c8>
 80047bc:	2301      	movs	r3, #1
 80047be:	e317      	b.n	8004df0 <HAL_RCC_OscConfig+0x8ec>
 80047c0:	0800a940 	.word	0x0800a940
 80047c4:	40023800 	.word	0x40023800
 80047c8:	42470000 	.word	0x42470000
 80047cc:	687b      	ldr	r3, [r7, #4]
 80047ce:	69db      	ldr	r3, [r3, #28]
 80047d0:	2bff      	cmp	r3, #255	; 0xff
 80047d2:	d904      	bls.n	80047de <HAL_RCC_OscConfig+0x2da>
 80047d4:	f240 11d7 	movw	r1, #471	; 0x1d7
 80047d8:	48a5      	ldr	r0, [pc, #660]	; (8004a70 <HAL_RCC_OscConfig+0x56c>)
 80047da:	f7fc fdcf 	bl	800137c <assert_failed>
 80047de:	687b      	ldr	r3, [r7, #4]
 80047e0:	6a1b      	ldr	r3, [r3, #32]
 80047e2:	2b00      	cmp	r3, #0
 80047e4:	d022      	beq.n	800482c <HAL_RCC_OscConfig+0x328>
 80047e6:	687b      	ldr	r3, [r7, #4]
 80047e8:	6a1b      	ldr	r3, [r3, #32]
 80047ea:	f5b3 5f00 	cmp.w	r3, #8192	; 0x2000
 80047ee:	d01d      	beq.n	800482c <HAL_RCC_OscConfig+0x328>
 80047f0:	687b      	ldr	r3, [r7, #4]
 80047f2:	6a1b      	ldr	r3, [r3, #32]
 80047f4:	f5b3 4f80 	cmp.w	r3, #16384	; 0x4000
 80047f8:	d018      	beq.n	800482c <HAL_RCC_OscConfig+0x328>
 80047fa:	687b      	ldr	r3, [r7, #4]
 80047fc:	6a1b      	ldr	r3, [r3, #32]
 80047fe:	f5b3 4fc0 	cmp.w	r3, #24576	; 0x6000
 8004802:	d013      	beq.n	800482c <HAL_RCC_OscConfig+0x328>
 8004804:	687b      	ldr	r3, [r7, #4]
 8004806:	6a1b      	ldr	r3, [r3, #32]
 8004808:	f5b3 4f00 	cmp.w	r3, #32768	; 0x8000
 800480c:	d00e      	beq.n	800482c <HAL_RCC_OscConfig+0x328>
 800480e:	687b      	ldr	r3, [r7, #4]
 8004810:	6a1b      	ldr	r3, [r3, #32]
 8004812:	f5b3 4f20 	cmp.w	r3, #40960	; 0xa000
 8004816:	d009      	beq.n	800482c <HAL_RCC_OscConfig+0x328>
 8004818:	687b      	ldr	r3, [r7, #4]
 800481a:	6a1b      	ldr	r3, [r3, #32]
 800481c:	f5b3 4f40 	cmp.w	r3, #49152	; 0xc000
 8004820:	d004      	beq.n	800482c <HAL_RCC_OscConfig+0x328>
 8004822:	f44f 71ec 	mov.w	r1, #472	; 0x1d8
 8004826:	4892      	ldr	r0, [pc, #584]	; (8004a70 <HAL_RCC_OscConfig+0x56c>)
 8004828:	f7fc fda8 	bl	800137c <assert_failed>
 800482c:	687b      	ldr	r3, [r7, #4]
 800482e:	6a1a      	ldr	r2, [r3, #32]
 8004830:	4b90      	ldr	r3, [pc, #576]	; (8004a74 <HAL_RCC_OscConfig+0x570>)
 8004832:	685b      	ldr	r3, [r3, #4]
 8004834:	f403 4360 	and.w	r3, r3, #57344	; 0xe000
 8004838:	429a      	cmp	r2, r3
 800483a:	d91d      	bls.n	8004878 <HAL_RCC_OscConfig+0x374>
 800483c:	687b      	ldr	r3, [r7, #4]
 800483e:	6a1b      	ldr	r3, [r3, #32]
 8004840:	4618      	mov	r0, r3
 8004842:	f000 fd67 	bl	8005314 <RCC_SetFlashLatencyFromMSIRange>
 8004846:	4603      	mov	r3, r0
 8004848:	2b00      	cmp	r3, #0
 800484a:	d001      	beq.n	8004850 <HAL_RCC_OscConfig+0x34c>
 800484c:	2301      	movs	r3, #1
 800484e:	e2cf      	b.n	8004df0 <HAL_RCC_OscConfig+0x8ec>
 8004850:	4b88      	ldr	r3, [pc, #544]	; (8004a74 <HAL_RCC_OscConfig+0x570>)
 8004852:	685b      	ldr	r3, [r3, #4]
 8004854:	f423 4260 	bic.w	r2, r3, #57344	; 0xe000
 8004858:	687b      	ldr	r3, [r7, #4]
 800485a:	6a1b      	ldr	r3, [r3, #32]
 800485c:	4985      	ldr	r1, [pc, #532]	; (8004a74 <HAL_RCC_OscConfig+0x570>)
 800485e:	4313      	orrs	r3, r2
 8004860:	604b      	str	r3, [r1, #4]
 8004862:	4b84      	ldr	r3, [pc, #528]	; (8004a74 <HAL_RCC_OscConfig+0x570>)
 8004864:	685b      	ldr	r3, [r3, #4]
 8004866:	f023 427f 	bic.w	r2, r3, #4278190080	; 0xff000000
 800486a:	687b      	ldr	r3, [r7, #4]
 800486c:	69db      	ldr	r3, [r3, #28]
 800486e:	061b      	lsls	r3, r3, #24
 8004870:	4980      	ldr	r1, [pc, #512]	; (8004a74 <HAL_RCC_OscConfig+0x570>)
 8004872:	4313      	orrs	r3, r2
 8004874:	604b      	str	r3, [r1, #4]
 8004876:	e01c      	b.n	80048b2 <HAL_RCC_OscConfig+0x3ae>
 8004878:	4b7e      	ldr	r3, [pc, #504]	; (8004a74 <HAL_RCC_OscConfig+0x570>)
 800487a:	685b      	ldr	r3, [r3, #4]
 800487c:	f423 4260 	bic.w	r2, r3, #57344	; 0xe000
 8004880:	687b      	ldr	r3, [r7, #4]
 8004882:	6a1b      	ldr	r3, [r3, #32]
 8004884:	497b      	ldr	r1, [pc, #492]	; (8004a74 <HAL_RCC_OscConfig+0x570>)
 8004886:	4313      	orrs	r3, r2
 8004888:	604b      	str	r3, [r1, #4]
 800488a:	4b7a      	ldr	r3, [pc, #488]	; (8004a74 <HAL_RCC_OscConfig+0x570>)
 800488c:	685b      	ldr	r3, [r3, #4]
 800488e:	f023 427f 	bic.w	r2, r3, #4278190080	; 0xff000000
 8004892:	687b      	ldr	r3, [r7, #4]
 8004894:	69db      	ldr	r3, [r3, #28]
 8004896:	061b      	lsls	r3, r3, #24
 8004898:	4976      	ldr	r1, [pc, #472]	; (8004a74 <HAL_RCC_OscConfig+0x570>)
 800489a:	4313      	orrs	r3, r2
 800489c:	604b      	str	r3, [r1, #4]
 800489e:	687b      	ldr	r3, [r7, #4]
 80048a0:	6a1b      	ldr	r3, [r3, #32]
 80048a2:	4618      	mov	r0, r3
 80048a4:	f000 fd36 	bl	8005314 <RCC_SetFlashLatencyFromMSIRange>
 80048a8:	4603      	mov	r3, r0
 80048aa:	2b00      	cmp	r3, #0
 80048ac:	d001      	beq.n	80048b2 <HAL_RCC_OscConfig+0x3ae>
 80048ae:	2301      	movs	r3, #1
 80048b0:	e29e      	b.n	8004df0 <HAL_RCC_OscConfig+0x8ec>
 80048b2:	687b      	ldr	r3, [r7, #4]
 80048b4:	6a1b      	ldr	r3, [r3, #32]
 80048b6:	0b5b      	lsrs	r3, r3, #13
 80048b8:	3301      	adds	r3, #1
 80048ba:	f44f 4200 	mov.w	r2, #32768	; 0x8000
 80048be:	fa02 f303 	lsl.w	r3, r2, r3
 80048c2:	4a6c      	ldr	r2, [pc, #432]	; (8004a74 <HAL_RCC_OscConfig+0x570>)
 80048c4:	6892      	ldr	r2, [r2, #8]
 80048c6:	0912      	lsrs	r2, r2, #4
 80048c8:	f002 020f 	and.w	r2, r2, #15
 80048cc:	496a      	ldr	r1, [pc, #424]	; (8004a78 <HAL_RCC_OscConfig+0x574>)
 80048ce:	5c8a      	ldrb	r2, [r1, r2]
 80048d0:	40d3      	lsrs	r3, r2
 80048d2:	4a6a      	ldr	r2, [pc, #424]	; (8004a7c <HAL_RCC_OscConfig+0x578>)
 80048d4:	6013      	str	r3, [r2, #0]
 80048d6:	4b6a      	ldr	r3, [pc, #424]	; (8004a80 <HAL_RCC_OscConfig+0x57c>)
 80048d8:	681b      	ldr	r3, [r3, #0]
 80048da:	4618      	mov	r0, r3
 80048dc:	f7fc fd8c 	bl	80013f8 <HAL_InitTick>
 80048e0:	4603      	mov	r3, r0
 80048e2:	73fb      	strb	r3, [r7, #15]
 80048e4:	7bfb      	ldrb	r3, [r7, #15]
 80048e6:	2b00      	cmp	r3, #0
 80048e8:	f000 8083 	beq.w	80049f2 <HAL_RCC_OscConfig+0x4ee>
 80048ec:	7bfb      	ldrb	r3, [r7, #15]
 80048ee:	e27f      	b.n	8004df0 <HAL_RCC_OscConfig+0x8ec>
 80048f0:	687b      	ldr	r3, [r7, #4]
 80048f2:	699b      	ldr	r3, [r3, #24]
 80048f4:	2b00      	cmp	r3, #0
 80048f6:	d008      	beq.n	800490a <HAL_RCC_OscConfig+0x406>
 80048f8:	687b      	ldr	r3, [r7, #4]
 80048fa:	699b      	ldr	r3, [r3, #24]
 80048fc:	2b01      	cmp	r3, #1
 80048fe:	d004      	beq.n	800490a <HAL_RCC_OscConfig+0x406>
 8004900:	f44f 7102 	mov.w	r1, #520	; 0x208
 8004904:	485a      	ldr	r0, [pc, #360]	; (8004a70 <HAL_RCC_OscConfig+0x56c>)
 8004906:	f7fc fd39 	bl	800137c <assert_failed>
 800490a:	687b      	ldr	r3, [r7, #4]
 800490c:	699b      	ldr	r3, [r3, #24]
 800490e:	2b00      	cmp	r3, #0
 8004910:	d059      	beq.n	80049c6 <HAL_RCC_OscConfig+0x4c2>
 8004912:	4b5c      	ldr	r3, [pc, #368]	; (8004a84 <HAL_RCC_OscConfig+0x580>)
 8004914:	2201      	movs	r2, #1
 8004916:	601a      	str	r2, [r3, #0]
 8004918:	f7fd fa36 	bl	8001d88 <HAL_GetTick>
 800491c:	6138      	str	r0, [r7, #16]
 800491e:	e008      	b.n	8004932 <HAL_RCC_OscConfig+0x42e>
 8004920:	f7fd fa32 	bl	8001d88 <HAL_GetTick>
 8004924:	4602      	mov	r2, r0
 8004926:	693b      	ldr	r3, [r7, #16]
 8004928:	1ad3      	subs	r3, r2, r3
 800492a:	2b02      	cmp	r3, #2
 800492c:	d901      	bls.n	8004932 <HAL_RCC_OscConfig+0x42e>
 800492e:	2303      	movs	r3, #3
 8004930:	e25e      	b.n	8004df0 <HAL_RCC_OscConfig+0x8ec>
 8004932:	4b50      	ldr	r3, [pc, #320]	; (8004a74 <HAL_RCC_OscConfig+0x570>)
 8004934:	681b      	ldr	r3, [r3, #0]
 8004936:	f403 7300 	and.w	r3, r3, #512	; 0x200
 800493a:	2b00      	cmp	r3, #0
 800493c:	d0f0      	beq.n	8004920 <HAL_RCC_OscConfig+0x41c>
 800493e:	687b      	ldr	r3, [r7, #4]
 8004940:	69db      	ldr	r3, [r3, #28]
 8004942:	2bff      	cmp	r3, #255	; 0xff
 8004944:	d904      	bls.n	8004950 <HAL_RCC_OscConfig+0x44c>
 8004946:	f44f 7107 	mov.w	r1, #540	; 0x21c
 800494a:	4849      	ldr	r0, [pc, #292]	; (8004a70 <HAL_RCC_OscConfig+0x56c>)
 800494c:	f7fc fd16 	bl	800137c <assert_failed>
 8004950:	687b      	ldr	r3, [r7, #4]
 8004952:	6a1b      	ldr	r3, [r3, #32]
 8004954:	2b00      	cmp	r3, #0
 8004956:	d022      	beq.n	800499e <HAL_RCC_OscConfig+0x49a>
 8004958:	687b      	ldr	r3, [r7, #4]
 800495a:	6a1b      	ldr	r3, [r3, #32]
 800495c:	f5b3 5f00 	cmp.w	r3, #8192	; 0x2000
 8004960:	d01d      	beq.n	800499e <HAL_RCC_OscConfig+0x49a>
 8004962:	687b      	ldr	r3, [r7, #4]
 8004964:	6a1b      	ldr	r3, [r3, #32]
 8004966:	f5b3 4f80 	cmp.w	r3, #16384	; 0x4000
 800496a:	d018      	beq.n	800499e <HAL_RCC_OscConfig+0x49a>
 800496c:	687b      	ldr	r3, [r7, #4]
 800496e:	6a1b      	ldr	r3, [r3, #32]
 8004970:	f5b3 4fc0 	cmp.w	r3, #24576	; 0x6000
 8004974:	d013      	beq.n	800499e <HAL_RCC_OscConfig+0x49a>
 8004976:	687b      	ldr	r3, [r7, #4]
 8004978:	6a1b      	ldr	r3, [r3, #32]
 800497a:	f5b3 4f00 	cmp.w	r3, #32768	; 0x8000
 800497e:	d00e      	beq.n	800499e <HAL_RCC_OscConfig+0x49a>
 8004980:	687b      	ldr	r3, [r7, #4]
 8004982:	6a1b      	ldr	r3, [r3, #32]
 8004984:	f5b3 4f20 	cmp.w	r3, #40960	; 0xa000
 8004988:	d009      	beq.n	800499e <HAL_RCC_OscConfig+0x49a>
 800498a:	687b      	ldr	r3, [r7, #4]
 800498c:	6a1b      	ldr	r3, [r3, #32]
 800498e:	f5b3 4f40 	cmp.w	r3, #49152	; 0xc000
 8004992:	d004      	beq.n	800499e <HAL_RCC_OscConfig+0x49a>
 8004994:	f240 211d 	movw	r1, #541	; 0x21d
 8004998:	4835      	ldr	r0, [pc, #212]	; (8004a70 <HAL_RCC_OscConfig+0x56c>)
 800499a:	f7fc fcef 	bl	800137c <assert_failed>
 800499e:	4b35      	ldr	r3, [pc, #212]	; (8004a74 <HAL_RCC_OscConfig+0x570>)
 80049a0:	685b      	ldr	r3, [r3, #4]
 80049a2:	f423 4260 	bic.w	r2, r3, #57344	; 0xe000
 80049a6:	687b      	ldr	r3, [r7, #4]
 80049a8:	6a1b      	ldr	r3, [r3, #32]
 80049aa:	4932      	ldr	r1, [pc, #200]	; (8004a74 <HAL_RCC_OscConfig+0x570>)
 80049ac:	4313      	orrs	r3, r2
 80049ae:	604b      	str	r3, [r1, #4]
 80049b0:	4b30      	ldr	r3, [pc, #192]	; (8004a74 <HAL_RCC_OscConfig+0x570>)
 80049b2:	685b      	ldr	r3, [r3, #4]
 80049b4:	f023 427f 	bic.w	r2, r3, #4278190080	; 0xff000000
 80049b8:	687b      	ldr	r3, [r7, #4]
 80049ba:	69db      	ldr	r3, [r3, #28]
 80049bc:	061b      	lsls	r3, r3, #24
 80049be:	492d      	ldr	r1, [pc, #180]	; (8004a74 <HAL_RCC_OscConfig+0x570>)
 80049c0:	4313      	orrs	r3, r2
 80049c2:	604b      	str	r3, [r1, #4]
 80049c4:	e015      	b.n	80049f2 <HAL_RCC_OscConfig+0x4ee>
 80049c6:	4b2f      	ldr	r3, [pc, #188]	; (8004a84 <HAL_RCC_OscConfig+0x580>)
 80049c8:	2200      	movs	r2, #0
 80049ca:	601a      	str	r2, [r3, #0]
 80049cc:	f7fd f9dc 	bl	8001d88 <HAL_GetTick>
 80049d0:	6138      	str	r0, [r7, #16]
 80049d2:	e008      	b.n	80049e6 <HAL_RCC_OscConfig+0x4e2>
 80049d4:	f7fd f9d8 	bl	8001d88 <HAL_GetTick>
 80049d8:	4602      	mov	r2, r0
 80049da:	693b      	ldr	r3, [r7, #16]
 80049dc:	1ad3      	subs	r3, r2, r3
 80049de:	2b02      	cmp	r3, #2
 80049e0:	d901      	bls.n	80049e6 <HAL_RCC_OscConfig+0x4e2>
 80049e2:	2303      	movs	r3, #3
 80049e4:	e204      	b.n	8004df0 <HAL_RCC_OscConfig+0x8ec>
 80049e6:	4b23      	ldr	r3, [pc, #140]	; (8004a74 <HAL_RCC_OscConfig+0x570>)
 80049e8:	681b      	ldr	r3, [r3, #0]
 80049ea:	f403 7300 	and.w	r3, r3, #512	; 0x200
 80049ee:	2b00      	cmp	r3, #0
 80049f0:	d1f0      	bne.n	80049d4 <HAL_RCC_OscConfig+0x4d0>
 80049f2:	687b      	ldr	r3, [r7, #4]
 80049f4:	681b      	ldr	r3, [r3, #0]
 80049f6:	f003 0308 	and.w	r3, r3, #8
 80049fa:	2b00      	cmp	r3, #0
 80049fc:	d04c      	beq.n	8004a98 <HAL_RCC_OscConfig+0x594>
 80049fe:	687b      	ldr	r3, [r7, #4]
 8004a00:	695b      	ldr	r3, [r3, #20]
 8004a02:	2b00      	cmp	r3, #0
 8004a04:	d008      	beq.n	8004a18 <HAL_RCC_OscConfig+0x514>
 8004a06:	687b      	ldr	r3, [r7, #4]
 8004a08:	695b      	ldr	r3, [r3, #20]
 8004a0a:	2b01      	cmp	r3, #1
 8004a0c:	d004      	beq.n	8004a18 <HAL_RCC_OscConfig+0x514>
 8004a0e:	f44f 710f 	mov.w	r1, #572	; 0x23c
 8004a12:	4817      	ldr	r0, [pc, #92]	; (8004a70 <HAL_RCC_OscConfig+0x56c>)
 8004a14:	f7fc fcb2 	bl	800137c <assert_failed>
 8004a18:	687b      	ldr	r3, [r7, #4]
 8004a1a:	695b      	ldr	r3, [r3, #20]
 8004a1c:	2b00      	cmp	r3, #0
 8004a1e:	d016      	beq.n	8004a4e <HAL_RCC_OscConfig+0x54a>
 8004a20:	4b19      	ldr	r3, [pc, #100]	; (8004a88 <HAL_RCC_OscConfig+0x584>)
 8004a22:	2201      	movs	r2, #1
 8004a24:	601a      	str	r2, [r3, #0]
 8004a26:	f7fd f9af 	bl	8001d88 <HAL_GetTick>
 8004a2a:	6138      	str	r0, [r7, #16]
 8004a2c:	e008      	b.n	8004a40 <HAL_RCC_OscConfig+0x53c>
 8004a2e:	f7fd f9ab 	bl	8001d88 <HAL_GetTick>
 8004a32:	4602      	mov	r2, r0
 8004a34:	693b      	ldr	r3, [r7, #16]
 8004a36:	1ad3      	subs	r3, r2, r3
 8004a38:	2b02      	cmp	r3, #2
 8004a3a:	d901      	bls.n	8004a40 <HAL_RCC_OscConfig+0x53c>
 8004a3c:	2303      	movs	r3, #3
 8004a3e:	e1d7      	b.n	8004df0 <HAL_RCC_OscConfig+0x8ec>
 8004a40:	4b0c      	ldr	r3, [pc, #48]	; (8004a74 <HAL_RCC_OscConfig+0x570>)
 8004a42:	6b5b      	ldr	r3, [r3, #52]	; 0x34
 8004a44:	f003 0302 	and.w	r3, r3, #2
 8004a48:	2b00      	cmp	r3, #0
 8004a4a:	d0f0      	beq.n	8004a2e <HAL_RCC_OscConfig+0x52a>
 8004a4c:	e024      	b.n	8004a98 <HAL_RCC_OscConfig+0x594>
 8004a4e:	4b0e      	ldr	r3, [pc, #56]	; (8004a88 <HAL_RCC_OscConfig+0x584>)
 8004a50:	2200      	movs	r2, #0
 8004a52:	601a      	str	r2, [r3, #0]
 8004a54:	f7fd f998 	bl	8001d88 <HAL_GetTick>
 8004a58:	6138      	str	r0, [r7, #16]
 8004a5a:	e017      	b.n	8004a8c <HAL_RCC_OscConfig+0x588>
 8004a5c:	f7fd f994 	bl	8001d88 <HAL_GetTick>
 8004a60:	4602      	mov	r2, r0
 8004a62:	693b      	ldr	r3, [r7, #16]
 8004a64:	1ad3      	subs	r3, r2, r3
 8004a66:	2b02      	cmp	r3, #2
 8004a68:	d910      	bls.n	8004a8c <HAL_RCC_OscConfig+0x588>
 8004a6a:	2303      	movs	r3, #3
 8004a6c:	e1c0      	b.n	8004df0 <HAL_RCC_OscConfig+0x8ec>
 8004a6e:	bf00      	nop
 8004a70:	0800a940 	.word	0x0800a940
 8004a74:	40023800 	.word	0x40023800
 8004a78:	0800ab24 	.word	0x0800ab24
 8004a7c:	20000000 	.word	0x20000000
 8004a80:	20000004 	.word	0x20000004
 8004a84:	42470020 	.word	0x42470020
 8004a88:	42470680 	.word	0x42470680
 8004a8c:	4ba2      	ldr	r3, [pc, #648]	; (8004d18 <HAL_RCC_OscConfig+0x814>)
 8004a8e:	6b5b      	ldr	r3, [r3, #52]	; 0x34
 8004a90:	f003 0302 	and.w	r3, r3, #2
 8004a94:	2b00      	cmp	r3, #0
 8004a96:	d1e1      	bne.n	8004a5c <HAL_RCC_OscConfig+0x558>
 8004a98:	687b      	ldr	r3, [r7, #4]
 8004a9a:	681b      	ldr	r3, [r3, #0]
 8004a9c:	f003 0304 	and.w	r3, r3, #4
 8004aa0:	2b00      	cmp	r3, #0
 8004aa2:	f000 80b7 	beq.w	8004c14 <HAL_RCC_OscConfig+0x710>
 8004aa6:	2300      	movs	r3, #0
 8004aa8:	77fb      	strb	r3, [r7, #31]
 8004aaa:	687b      	ldr	r3, [r7, #4]
 8004aac:	689b      	ldr	r3, [r3, #8]
 8004aae:	2b00      	cmp	r3, #0
 8004ab0:	d00c      	beq.n	8004acc <HAL_RCC_OscConfig+0x5c8>
 8004ab2:	687b      	ldr	r3, [r7, #4]
 8004ab4:	689b      	ldr	r3, [r3, #8]
 8004ab6:	2b01      	cmp	r3, #1
 8004ab8:	d008      	beq.n	8004acc <HAL_RCC_OscConfig+0x5c8>
 8004aba:	687b      	ldr	r3, [r7, #4]
 8004abc:	689b      	ldr	r3, [r3, #8]
 8004abe:	2b05      	cmp	r3, #5
 8004ac0:	d004      	beq.n	8004acc <HAL_RCC_OscConfig+0x5c8>
 8004ac2:	f44f 711a 	mov.w	r1, #616	; 0x268
 8004ac6:	4895      	ldr	r0, [pc, #596]	; (8004d1c <HAL_RCC_OscConfig+0x818>)
 8004ac8:	f7fc fc58 	bl	800137c <assert_failed>
 8004acc:	4b92      	ldr	r3, [pc, #584]	; (8004d18 <HAL_RCC_OscConfig+0x814>)
 8004ace:	6a5b      	ldr	r3, [r3, #36]	; 0x24
 8004ad0:	f003 5380 	and.w	r3, r3, #268435456	; 0x10000000
 8004ad4:	2b00      	cmp	r3, #0
 8004ad6:	d10d      	bne.n	8004af4 <HAL_RCC_OscConfig+0x5f0>
 8004ad8:	4b8f      	ldr	r3, [pc, #572]	; (8004d18 <HAL_RCC_OscConfig+0x814>)
 8004ada:	6a5b      	ldr	r3, [r3, #36]	; 0x24
 8004adc:	4a8e      	ldr	r2, [pc, #568]	; (8004d18 <HAL_RCC_OscConfig+0x814>)
 8004ade:	f043 5380 	orr.w	r3, r3, #268435456	; 0x10000000
 8004ae2:	6253      	str	r3, [r2, #36]	; 0x24
 8004ae4:	4b8c      	ldr	r3, [pc, #560]	; (8004d18 <HAL_RCC_OscConfig+0x814>)
 8004ae6:	6a5b      	ldr	r3, [r3, #36]	; 0x24
 8004ae8:	f003 5380 	and.w	r3, r3, #268435456	; 0x10000000
 8004aec:	60bb      	str	r3, [r7, #8]
 8004aee:	68bb      	ldr	r3, [r7, #8]
 8004af0:	2301      	movs	r3, #1
 8004af2:	77fb      	strb	r3, [r7, #31]
 8004af4:	4b8a      	ldr	r3, [pc, #552]	; (8004d20 <HAL_RCC_OscConfig+0x81c>)
 8004af6:	681b      	ldr	r3, [r3, #0]
 8004af8:	f403 7380 	and.w	r3, r3, #256	; 0x100
 8004afc:	2b00      	cmp	r3, #0
 8004afe:	d118      	bne.n	8004b32 <HAL_RCC_OscConfig+0x62e>
 8004b00:	4b87      	ldr	r3, [pc, #540]	; (8004d20 <HAL_RCC_OscConfig+0x81c>)
 8004b02:	681b      	ldr	r3, [r3, #0]
 8004b04:	4a86      	ldr	r2, [pc, #536]	; (8004d20 <HAL_RCC_OscConfig+0x81c>)
 8004b06:	f443 7380 	orr.w	r3, r3, #256	; 0x100
 8004b0a:	6013      	str	r3, [r2, #0]
 8004b0c:	f7fd f93c 	bl	8001d88 <HAL_GetTick>
 8004b10:	6138      	str	r0, [r7, #16]
 8004b12:	e008      	b.n	8004b26 <HAL_RCC_OscConfig+0x622>
 8004b14:	f7fd f938 	bl	8001d88 <HAL_GetTick>
 8004b18:	4602      	mov	r2, r0
 8004b1a:	693b      	ldr	r3, [r7, #16]
 8004b1c:	1ad3      	subs	r3, r2, r3
 8004b1e:	2b64      	cmp	r3, #100	; 0x64
 8004b20:	d901      	bls.n	8004b26 <HAL_RCC_OscConfig+0x622>
 8004b22:	2303      	movs	r3, #3
 8004b24:	e164      	b.n	8004df0 <HAL_RCC_OscConfig+0x8ec>
 8004b26:	4b7e      	ldr	r3, [pc, #504]	; (8004d20 <HAL_RCC_OscConfig+0x81c>)
 8004b28:	681b      	ldr	r3, [r3, #0]
 8004b2a:	f403 7380 	and.w	r3, r3, #256	; 0x100
 8004b2e:	2b00      	cmp	r3, #0
 8004b30:	d0f0      	beq.n	8004b14 <HAL_RCC_OscConfig+0x610>
 8004b32:	687b      	ldr	r3, [r7, #4]
 8004b34:	689b      	ldr	r3, [r3, #8]
 8004b36:	2b01      	cmp	r3, #1
 8004b38:	d106      	bne.n	8004b48 <HAL_RCC_OscConfig+0x644>
 8004b3a:	4b77      	ldr	r3, [pc, #476]	; (8004d18 <HAL_RCC_OscConfig+0x814>)
 8004b3c:	6b5b      	ldr	r3, [r3, #52]	; 0x34
 8004b3e:	4a76      	ldr	r2, [pc, #472]	; (8004d18 <HAL_RCC_OscConfig+0x814>)
 8004b40:	f443 7380 	orr.w	r3, r3, #256	; 0x100
 8004b44:	6353      	str	r3, [r2, #52]	; 0x34
 8004b46:	e02d      	b.n	8004ba4 <HAL_RCC_OscConfig+0x6a0>
 8004b48:	687b      	ldr	r3, [r7, #4]
 8004b4a:	689b      	ldr	r3, [r3, #8]
 8004b4c:	2b00      	cmp	r3, #0
 8004b4e:	d10c      	bne.n	8004b6a <HAL_RCC_OscConfig+0x666>
 8004b50:	4b71      	ldr	r3, [pc, #452]	; (8004d18 <HAL_RCC_OscConfig+0x814>)
 8004b52:	6b5b      	ldr	r3, [r3, #52]	; 0x34
 8004b54:	4a70      	ldr	r2, [pc, #448]	; (8004d18 <HAL_RCC_OscConfig+0x814>)
 8004b56:	f423 7380 	bic.w	r3, r3, #256	; 0x100
 8004b5a:	6353      	str	r3, [r2, #52]	; 0x34
 8004b5c:	4b6e      	ldr	r3, [pc, #440]	; (8004d18 <HAL_RCC_OscConfig+0x814>)
 8004b5e:	6b5b      	ldr	r3, [r3, #52]	; 0x34
 8004b60:	4a6d      	ldr	r2, [pc, #436]	; (8004d18 <HAL_RCC_OscConfig+0x814>)
 8004b62:	f423 6380 	bic.w	r3, r3, #1024	; 0x400
 8004b66:	6353      	str	r3, [r2, #52]	; 0x34
 8004b68:	e01c      	b.n	8004ba4 <HAL_RCC_OscConfig+0x6a0>
 8004b6a:	687b      	ldr	r3, [r7, #4]
 8004b6c:	689b      	ldr	r3, [r3, #8]
 8004b6e:	2b05      	cmp	r3, #5
 8004b70:	d10c      	bne.n	8004b8c <HAL_RCC_OscConfig+0x688>
 8004b72:	4b69      	ldr	r3, [pc, #420]	; (8004d18 <HAL_RCC_OscConfig+0x814>)
 8004b74:	6b5b      	ldr	r3, [r3, #52]	; 0x34
 8004b76:	4a68      	ldr	r2, [pc, #416]	; (8004d18 <HAL_RCC_OscConfig+0x814>)
 8004b78:	f443 6380 	orr.w	r3, r3, #1024	; 0x400
 8004b7c:	6353      	str	r3, [r2, #52]	; 0x34
 8004b7e:	4b66      	ldr	r3, [pc, #408]	; (8004d18 <HAL_RCC_OscConfig+0x814>)
 8004b80:	6b5b      	ldr	r3, [r3, #52]	; 0x34
 8004b82:	4a65      	ldr	r2, [pc, #404]	; (8004d18 <HAL_RCC_OscConfig+0x814>)
 8004b84:	f443 7380 	orr.w	r3, r3, #256	; 0x100
 8004b88:	6353      	str	r3, [r2, #52]	; 0x34
 8004b8a:	e00b      	b.n	8004ba4 <HAL_RCC_OscConfig+0x6a0>
 8004b8c:	4b62      	ldr	r3, [pc, #392]	; (8004d18 <HAL_RCC_OscConfig+0x814>)
 8004b8e:	6b5b      	ldr	r3, [r3, #52]	; 0x34
 8004b90:	4a61      	ldr	r2, [pc, #388]	; (8004d18 <HAL_RCC_OscConfig+0x814>)
 8004b92:	f423 7380 	bic.w	r3, r3, #256	; 0x100
 8004b96:	6353      	str	r3, [r2, #52]	; 0x34
 8004b98:	4b5f      	ldr	r3, [pc, #380]	; (8004d18 <HAL_RCC_OscConfig+0x814>)
 8004b9a:	6b5b      	ldr	r3, [r3, #52]	; 0x34
 8004b9c:	4a5e      	ldr	r2, [pc, #376]	; (8004d18 <HAL_RCC_OscConfig+0x814>)
 8004b9e:	f423 6380 	bic.w	r3, r3, #1024	; 0x400
 8004ba2:	6353      	str	r3, [r2, #52]	; 0x34
 8004ba4:	687b      	ldr	r3, [r7, #4]
 8004ba6:	689b      	ldr	r3, [r3, #8]
 8004ba8:	2b00      	cmp	r3, #0
 8004baa:	d015      	beq.n	8004bd8 <HAL_RCC_OscConfig+0x6d4>
 8004bac:	f7fd f8ec 	bl	8001d88 <HAL_GetTick>
 8004bb0:	6138      	str	r0, [r7, #16]
 8004bb2:	e00a      	b.n	8004bca <HAL_RCC_OscConfig+0x6c6>
 8004bb4:	f7fd f8e8 	bl	8001d88 <HAL_GetTick>
 8004bb8:	4602      	mov	r2, r0
 8004bba:	693b      	ldr	r3, [r7, #16]
 8004bbc:	1ad3      	subs	r3, r2, r3
 8004bbe:	f241 3288 	movw	r2, #5000	; 0x1388
 8004bc2:	4293      	cmp	r3, r2
 8004bc4:	d901      	bls.n	8004bca <HAL_RCC_OscConfig+0x6c6>
 8004bc6:	2303      	movs	r3, #3
 8004bc8:	e112      	b.n	8004df0 <HAL_RCC_OscConfig+0x8ec>
 8004bca:	4b53      	ldr	r3, [pc, #332]	; (8004d18 <HAL_RCC_OscConfig+0x814>)
 8004bcc:	6b5b      	ldr	r3, [r3, #52]	; 0x34
 8004bce:	f403 7300 	and.w	r3, r3, #512	; 0x200
 8004bd2:	2b00      	cmp	r3, #0
 8004bd4:	d0ee      	beq.n	8004bb4 <HAL_RCC_OscConfig+0x6b0>
 8004bd6:	e014      	b.n	8004c02 <HAL_RCC_OscConfig+0x6fe>
 8004bd8:	f7fd f8d6 	bl	8001d88 <HAL_GetTick>
 8004bdc:	6138      	str	r0, [r7, #16]
 8004bde:	e00a      	b.n	8004bf6 <HAL_RCC_OscConfig+0x6f2>
 8004be0:	f7fd f8d2 	bl	8001d88 <HAL_GetTick>
 8004be4:	4602      	mov	r2, r0
 8004be6:	693b      	ldr	r3, [r7, #16]
 8004be8:	1ad3      	subs	r3, r2, r3
 8004bea:	f241 3288 	movw	r2, #5000	; 0x1388
 8004bee:	4293      	cmp	r3, r2
 8004bf0:	d901      	bls.n	8004bf6 <HAL_RCC_OscConfig+0x6f2>
 8004bf2:	2303      	movs	r3, #3
 8004bf4:	e0fc      	b.n	8004df0 <HAL_RCC_OscConfig+0x8ec>
 8004bf6:	4b48      	ldr	r3, [pc, #288]	; (8004d18 <HAL_RCC_OscConfig+0x814>)
 8004bf8:	6b5b      	ldr	r3, [r3, #52]	; 0x34
 8004bfa:	f403 7300 	and.w	r3, r3, #512	; 0x200
 8004bfe:	2b00      	cmp	r3, #0
 8004c00:	d1ee      	bne.n	8004be0 <HAL_RCC_OscConfig+0x6dc>
 8004c02:	7ffb      	ldrb	r3, [r7, #31]
 8004c04:	2b01      	cmp	r3, #1
 8004c06:	d105      	bne.n	8004c14 <HAL_RCC_OscConfig+0x710>
 8004c08:	4b43      	ldr	r3, [pc, #268]	; (8004d18 <HAL_RCC_OscConfig+0x814>)
 8004c0a:	6a5b      	ldr	r3, [r3, #36]	; 0x24
 8004c0c:	4a42      	ldr	r2, [pc, #264]	; (8004d18 <HAL_RCC_OscConfig+0x814>)
 8004c0e:	f023 5380 	bic.w	r3, r3, #268435456	; 0x10000000
 8004c12:	6253      	str	r3, [r2, #36]	; 0x24
 8004c14:	687b      	ldr	r3, [r7, #4]
 8004c16:	6a5b      	ldr	r3, [r3, #36]	; 0x24
 8004c18:	2b00      	cmp	r3, #0
 8004c1a:	d00c      	beq.n	8004c36 <HAL_RCC_OscConfig+0x732>
 8004c1c:	687b      	ldr	r3, [r7, #4]
 8004c1e:	6a5b      	ldr	r3, [r3, #36]	; 0x24
 8004c20:	2b01      	cmp	r3, #1
 8004c22:	d008      	beq.n	8004c36 <HAL_RCC_OscConfig+0x732>
 8004c24:	687b      	ldr	r3, [r7, #4]
 8004c26:	6a5b      	ldr	r3, [r3, #36]	; 0x24
 8004c28:	2b02      	cmp	r3, #2
 8004c2a:	d004      	beq.n	8004c36 <HAL_RCC_OscConfig+0x732>
 8004c2c:	f44f 712b 	mov.w	r1, #684	; 0x2ac
 8004c30:	483a      	ldr	r0, [pc, #232]	; (8004d1c <HAL_RCC_OscConfig+0x818>)
 8004c32:	f7fc fba3 	bl	800137c <assert_failed>
 8004c36:	687b      	ldr	r3, [r7, #4]
 8004c38:	6a5b      	ldr	r3, [r3, #36]	; 0x24
 8004c3a:	2b00      	cmp	r3, #0
 8004c3c:	f000 80d7 	beq.w	8004dee <HAL_RCC_OscConfig+0x8ea>
 8004c40:	69bb      	ldr	r3, [r7, #24]
 8004c42:	2b0c      	cmp	r3, #12
 8004c44:	f000 80b3 	beq.w	8004dae <HAL_RCC_OscConfig+0x8aa>
 8004c48:	687b      	ldr	r3, [r7, #4]
 8004c4a:	6a5b      	ldr	r3, [r3, #36]	; 0x24
 8004c4c:	2b02      	cmp	r3, #2
 8004c4e:	f040 8097 	bne.w	8004d80 <HAL_RCC_OscConfig+0x87c>
 8004c52:	687b      	ldr	r3, [r7, #4]
 8004c54:	6a9b      	ldr	r3, [r3, #40]	; 0x28
 8004c56:	2b00      	cmp	r3, #0
 8004c58:	d009      	beq.n	8004c6e <HAL_RCC_OscConfig+0x76a>
 8004c5a:	687b      	ldr	r3, [r7, #4]
 8004c5c:	6a9b      	ldr	r3, [r3, #40]	; 0x28
 8004c5e:	f5b3 3f80 	cmp.w	r3, #65536	; 0x10000
 8004c62:	d004      	beq.n	8004c6e <HAL_RCC_OscConfig+0x76a>
 8004c64:	f240 21b5 	movw	r1, #693	; 0x2b5
 8004c68:	482c      	ldr	r0, [pc, #176]	; (8004d1c <HAL_RCC_OscConfig+0x818>)
 8004c6a:	f7fc fb87 	bl	800137c <assert_failed>
 8004c6e:	687b      	ldr	r3, [r7, #4]
 8004c70:	6adb      	ldr	r3, [r3, #44]	; 0x2c
 8004c72:	2b00      	cmp	r3, #0
 8004c74:	d02c      	beq.n	8004cd0 <HAL_RCC_OscConfig+0x7cc>
 8004c76:	687b      	ldr	r3, [r7, #4]
 8004c78:	6adb      	ldr	r3, [r3, #44]	; 0x2c
 8004c7a:	f5b3 2f80 	cmp.w	r3, #262144	; 0x40000
 8004c7e:	d027      	beq.n	8004cd0 <HAL_RCC_OscConfig+0x7cc>
 8004c80:	687b      	ldr	r3, [r7, #4]
 8004c82:	6adb      	ldr	r3, [r3, #44]	; 0x2c
 8004c84:	f5b3 2f00 	cmp.w	r3, #524288	; 0x80000
 8004c88:	d022      	beq.n	8004cd0 <HAL_RCC_OscConfig+0x7cc>
 8004c8a:	687b      	ldr	r3, [r7, #4]
 8004c8c:	6adb      	ldr	r3, [r3, #44]	; 0x2c
 8004c8e:	f5b3 2f40 	cmp.w	r3, #786432	; 0xc0000
 8004c92:	d01d      	beq.n	8004cd0 <HAL_RCC_OscConfig+0x7cc>
 8004c94:	687b      	ldr	r3, [r7, #4]
 8004c96:	6adb      	ldr	r3, [r3, #44]	; 0x2c
 8004c98:	f5b3 1f80 	cmp.w	r3, #1048576	; 0x100000
 8004c9c:	d018      	beq.n	8004cd0 <HAL_RCC_OscConfig+0x7cc>
 8004c9e:	687b      	ldr	r3, [r7, #4]
 8004ca0:	6adb      	ldr	r3, [r3, #44]	; 0x2c
 8004ca2:	f5b3 1fa0 	cmp.w	r3, #1310720	; 0x140000
 8004ca6:	d013      	beq.n	8004cd0 <HAL_RCC_OscConfig+0x7cc>
 8004ca8:	687b      	ldr	r3, [r7, #4]
 8004caa:	6adb      	ldr	r3, [r3, #44]	; 0x2c
 8004cac:	f5b3 1fc0 	cmp.w	r3, #1572864	; 0x180000
 8004cb0:	d00e      	beq.n	8004cd0 <HAL_RCC_OscConfig+0x7cc>
 8004cb2:	687b      	ldr	r3, [r7, #4]
 8004cb4:	6adb      	ldr	r3, [r3, #44]	; 0x2c
 8004cb6:	f5b3 1fe0 	cmp.w	r3, #1835008	; 0x1c0000
 8004cba:	d009      	beq.n	8004cd0 <HAL_RCC_OscConfig+0x7cc>
 8004cbc:	687b      	ldr	r3, [r7, #4]
 8004cbe:	6adb      	ldr	r3, [r3, #44]	; 0x2c
 8004cc0:	f5b3 1f00 	cmp.w	r3, #2097152	; 0x200000
 8004cc4:	d004      	beq.n	8004cd0 <HAL_RCC_OscConfig+0x7cc>
 8004cc6:	f240 21b6 	movw	r1, #694	; 0x2b6
 8004cca:	4814      	ldr	r0, [pc, #80]	; (8004d1c <HAL_RCC_OscConfig+0x818>)
 8004ccc:	f7fc fb56 	bl	800137c <assert_failed>
 8004cd0:	687b      	ldr	r3, [r7, #4]
 8004cd2:	6b1b      	ldr	r3, [r3, #48]	; 0x30
 8004cd4:	f5b3 0f80 	cmp.w	r3, #4194304	; 0x400000
 8004cd8:	d00e      	beq.n	8004cf8 <HAL_RCC_OscConfig+0x7f4>
 8004cda:	687b      	ldr	r3, [r7, #4]
 8004cdc:	6b1b      	ldr	r3, [r3, #48]	; 0x30
 8004cde:	f5b3 0f00 	cmp.w	r3, #8388608	; 0x800000
 8004ce2:	d009      	beq.n	8004cf8 <HAL_RCC_OscConfig+0x7f4>
 8004ce4:	687b      	ldr	r3, [r7, #4]
 8004ce6:	6b1b      	ldr	r3, [r3, #48]	; 0x30
 8004ce8:	f5b3 0f40 	cmp.w	r3, #12582912	; 0xc00000
 8004cec:	d004      	beq.n	8004cf8 <HAL_RCC_OscConfig+0x7f4>
 8004cee:	f240 21b7 	movw	r1, #695	; 0x2b7
 8004cf2:	480a      	ldr	r0, [pc, #40]	; (8004d1c <HAL_RCC_OscConfig+0x818>)
 8004cf4:	f7fc fb42 	bl	800137c <assert_failed>
 8004cf8:	4b0a      	ldr	r3, [pc, #40]	; (8004d24 <HAL_RCC_OscConfig+0x820>)
 8004cfa:	2200      	movs	r2, #0
 8004cfc:	601a      	str	r2, [r3, #0]
 8004cfe:	f7fd f843 	bl	8001d88 <HAL_GetTick>
 8004d02:	6138      	str	r0, [r7, #16]
 8004d04:	e010      	b.n	8004d28 <HAL_RCC_OscConfig+0x824>
 8004d06:	f7fd f83f 	bl	8001d88 <HAL_GetTick>
 8004d0a:	4602      	mov	r2, r0
 8004d0c:	693b      	ldr	r3, [r7, #16]
 8004d0e:	1ad3      	subs	r3, r2, r3
 8004d10:	2b02      	cmp	r3, #2
 8004d12:	d909      	bls.n	8004d28 <HAL_RCC_OscConfig+0x824>
 8004d14:	2303      	movs	r3, #3
 8004d16:	e06b      	b.n	8004df0 <HAL_RCC_OscConfig+0x8ec>
 8004d18:	40023800 	.word	0x40023800
 8004d1c:	0800a940 	.word	0x0800a940
 8004d20:	40007000 	.word	0x40007000
 8004d24:	42470060 	.word	0x42470060
 8004d28:	4b33      	ldr	r3, [pc, #204]	; (8004df8 <HAL_RCC_OscConfig+0x8f4>)
 8004d2a:	681b      	ldr	r3, [r3, #0]
 8004d2c:	f003 7300 	and.w	r3, r3, #33554432	; 0x2000000
 8004d30:	2b00      	cmp	r3, #0
 8004d32:	d1e8      	bne.n	8004d06 <HAL_RCC_OscConfig+0x802>
 8004d34:	4b30      	ldr	r3, [pc, #192]	; (8004df8 <HAL_RCC_OscConfig+0x8f4>)
 8004d36:	689b      	ldr	r3, [r3, #8]
 8004d38:	f423 027d 	bic.w	r2, r3, #16580608	; 0xfd0000
 8004d3c:	687b      	ldr	r3, [r7, #4]
 8004d3e:	6a99      	ldr	r1, [r3, #40]	; 0x28
 8004d40:	687b      	ldr	r3, [r7, #4]
 8004d42:	6adb      	ldr	r3, [r3, #44]	; 0x2c
 8004d44:	4319      	orrs	r1, r3
 8004d46:	687b      	ldr	r3, [r7, #4]
 8004d48:	6b1b      	ldr	r3, [r3, #48]	; 0x30
 8004d4a:	430b      	orrs	r3, r1
 8004d4c:	492a      	ldr	r1, [pc, #168]	; (8004df8 <HAL_RCC_OscConfig+0x8f4>)
 8004d4e:	4313      	orrs	r3, r2
 8004d50:	608b      	str	r3, [r1, #8]
 8004d52:	4b2a      	ldr	r3, [pc, #168]	; (8004dfc <HAL_RCC_OscConfig+0x8f8>)
 8004d54:	2201      	movs	r2, #1
 8004d56:	601a      	str	r2, [r3, #0]
 8004d58:	f7fd f816 	bl	8001d88 <HAL_GetTick>
 8004d5c:	6138      	str	r0, [r7, #16]
 8004d5e:	e008      	b.n	8004d72 <HAL_RCC_OscConfig+0x86e>
 8004d60:	f7fd f812 	bl	8001d88 <HAL_GetTick>
 8004d64:	4602      	mov	r2, r0
 8004d66:	693b      	ldr	r3, [r7, #16]
 8004d68:	1ad3      	subs	r3, r2, r3
 8004d6a:	2b02      	cmp	r3, #2
 8004d6c:	d901      	bls.n	8004d72 <HAL_RCC_OscConfig+0x86e>
 8004d6e:	2303      	movs	r3, #3
 8004d70:	e03e      	b.n	8004df0 <HAL_RCC_OscConfig+0x8ec>
 8004d72:	4b21      	ldr	r3, [pc, #132]	; (8004df8 <HAL_RCC_OscConfig+0x8f4>)
 8004d74:	681b      	ldr	r3, [r3, #0]
 8004d76:	f003 7300 	and.w	r3, r3, #33554432	; 0x2000000
 8004d7a:	2b00      	cmp	r3, #0
 8004d7c:	d0f0      	beq.n	8004d60 <HAL_RCC_OscConfig+0x85c>
 8004d7e:	e036      	b.n	8004dee <HAL_RCC_OscConfig+0x8ea>
 8004d80:	4b1e      	ldr	r3, [pc, #120]	; (8004dfc <HAL_RCC_OscConfig+0x8f8>)
 8004d82:	2200      	movs	r2, #0
 8004d84:	601a      	str	r2, [r3, #0]
 8004d86:	f7fc ffff 	bl	8001d88 <HAL_GetTick>
 8004d8a:	6138      	str	r0, [r7, #16]
 8004d8c:	e008      	b.n	8004da0 <HAL_RCC_OscConfig+0x89c>
 8004d8e:	f7fc fffb 	bl	8001d88 <HAL_GetTick>
 8004d92:	4602      	mov	r2, r0
 8004d94:	693b      	ldr	r3, [r7, #16]
 8004d96:	1ad3      	subs	r3, r2, r3
 8004d98:	2b02      	cmp	r3, #2
 8004d9a:	d901      	bls.n	8004da0 <HAL_RCC_OscConfig+0x89c>
 8004d9c:	2303      	movs	r3, #3
 8004d9e:	e027      	b.n	8004df0 <HAL_RCC_OscConfig+0x8ec>
 8004da0:	4b15      	ldr	r3, [pc, #84]	; (8004df8 <HAL_RCC_OscConfig+0x8f4>)
 8004da2:	681b      	ldr	r3, [r3, #0]
 8004da4:	f003 7300 	and.w	r3, r3, #33554432	; 0x2000000
 8004da8:	2b00      	cmp	r3, #0
 8004daa:	d1f0      	bne.n	8004d8e <HAL_RCC_OscConfig+0x88a>
 8004dac:	e01f      	b.n	8004dee <HAL_RCC_OscConfig+0x8ea>
 8004dae:	687b      	ldr	r3, [r7, #4]
 8004db0:	6a5b      	ldr	r3, [r3, #36]	; 0x24
 8004db2:	2b01      	cmp	r3, #1
 8004db4:	d101      	bne.n	8004dba <HAL_RCC_OscConfig+0x8b6>
 8004db6:	2301      	movs	r3, #1
 8004db8:	e01a      	b.n	8004df0 <HAL_RCC_OscConfig+0x8ec>
 8004dba:	4b0f      	ldr	r3, [pc, #60]	; (8004df8 <HAL_RCC_OscConfig+0x8f4>)
 8004dbc:	689b      	ldr	r3, [r3, #8]
 8004dbe:	617b      	str	r3, [r7, #20]
 8004dc0:	697b      	ldr	r3, [r7, #20]
 8004dc2:	f403 3280 	and.w	r2, r3, #65536	; 0x10000
 8004dc6:	687b      	ldr	r3, [r7, #4]
 8004dc8:	6a9b      	ldr	r3, [r3, #40]	; 0x28
 8004dca:	429a      	cmp	r2, r3
 8004dcc:	d10d      	bne.n	8004dea <HAL_RCC_OscConfig+0x8e6>
 8004dce:	697b      	ldr	r3, [r7, #20]
 8004dd0:	f403 1270 	and.w	r2, r3, #3932160	; 0x3c0000
 8004dd4:	687b      	ldr	r3, [r7, #4]
 8004dd6:	6adb      	ldr	r3, [r3, #44]	; 0x2c
 8004dd8:	429a      	cmp	r2, r3
 8004dda:	d106      	bne.n	8004dea <HAL_RCC_OscConfig+0x8e6>
 8004ddc:	697b      	ldr	r3, [r7, #20]
 8004dde:	f403 0240 	and.w	r2, r3, #12582912	; 0xc00000
 8004de2:	687b      	ldr	r3, [r7, #4]
 8004de4:	6b1b      	ldr	r3, [r3, #48]	; 0x30
 8004de6:	429a      	cmp	r2, r3
 8004de8:	d001      	beq.n	8004dee <HAL_RCC_OscConfig+0x8ea>
 8004dea:	2301      	movs	r3, #1
 8004dec:	e000      	b.n	8004df0 <HAL_RCC_OscConfig+0x8ec>
 8004dee:	2300      	movs	r3, #0
 8004df0:	4618      	mov	r0, r3
 8004df2:	3720      	adds	r7, #32
 8004df4:	46bd      	mov	sp, r7
 8004df6:	bd80      	pop	{r7, pc}
 8004df8:	40023800 	.word	0x40023800
 8004dfc:	42470060 	.word	0x42470060

08004e00 <HAL_RCC_ClockConfig>:
 8004e00:	b580      	push	{r7, lr}
 8004e02:	b084      	sub	sp, #16
 8004e04:	af00      	add	r7, sp, #0
 8004e06:	6078      	str	r0, [r7, #4]
 8004e08:	6039      	str	r1, [r7, #0]
 8004e0a:	687b      	ldr	r3, [r7, #4]
 8004e0c:	2b00      	cmp	r3, #0
 8004e0e:	d101      	bne.n	8004e14 <HAL_RCC_ClockConfig+0x14>
 8004e10:	2301      	movs	r3, #1
 8004e12:	e1a4      	b.n	800515e <HAL_RCC_ClockConfig+0x35e>
 8004e14:	683b      	ldr	r3, [r7, #0]
 8004e16:	2b00      	cmp	r3, #0
 8004e18:	d007      	beq.n	8004e2a <HAL_RCC_ClockConfig+0x2a>
 8004e1a:	683b      	ldr	r3, [r7, #0]
 8004e1c:	2b01      	cmp	r3, #1
 8004e1e:	d004      	beq.n	8004e2a <HAL_RCC_ClockConfig+0x2a>
 8004e20:	f240 312a 	movw	r1, #810	; 0x32a
 8004e24:	4893      	ldr	r0, [pc, #588]	; (8005074 <HAL_RCC_ClockConfig+0x274>)
 8004e26:	f7fc faa9 	bl	800137c <assert_failed>
 8004e2a:	4b93      	ldr	r3, [pc, #588]	; (8005078 <HAL_RCC_ClockConfig+0x278>)
 8004e2c:	681b      	ldr	r3, [r3, #0]
 8004e2e:	f003 0301 	and.w	r3, r3, #1
 8004e32:	683a      	ldr	r2, [r7, #0]
 8004e34:	429a      	cmp	r2, r3
 8004e36:	d919      	bls.n	8004e6c <HAL_RCC_ClockConfig+0x6c>
 8004e38:	683b      	ldr	r3, [r7, #0]
 8004e3a:	2b01      	cmp	r3, #1
 8004e3c:	d105      	bne.n	8004e4a <HAL_RCC_ClockConfig+0x4a>
 8004e3e:	4b8e      	ldr	r3, [pc, #568]	; (8005078 <HAL_RCC_ClockConfig+0x278>)
 8004e40:	681b      	ldr	r3, [r3, #0]
 8004e42:	4a8d      	ldr	r2, [pc, #564]	; (8005078 <HAL_RCC_ClockConfig+0x278>)
 8004e44:	f043 0304 	orr.w	r3, r3, #4
 8004e48:	6013      	str	r3, [r2, #0]
 8004e4a:	4b8b      	ldr	r3, [pc, #556]	; (8005078 <HAL_RCC_ClockConfig+0x278>)
 8004e4c:	681b      	ldr	r3, [r3, #0]
 8004e4e:	f023 0201 	bic.w	r2, r3, #1
 8004e52:	4989      	ldr	r1, [pc, #548]	; (8005078 <HAL_RCC_ClockConfig+0x278>)
 8004e54:	683b      	ldr	r3, [r7, #0]
 8004e56:	4313      	orrs	r3, r2
 8004e58:	600b      	str	r3, [r1, #0]
 8004e5a:	4b87      	ldr	r3, [pc, #540]	; (8005078 <HAL_RCC_ClockConfig+0x278>)
 8004e5c:	681b      	ldr	r3, [r3, #0]
 8004e5e:	f003 0301 	and.w	r3, r3, #1
 8004e62:	683a      	ldr	r2, [r7, #0]
 8004e64:	429a      	cmp	r2, r3
 8004e66:	d001      	beq.n	8004e6c <HAL_RCC_ClockConfig+0x6c>
 8004e68:	2301      	movs	r3, #1
 8004e6a:	e178      	b.n	800515e <HAL_RCC_ClockConfig+0x35e>
 8004e6c:	687b      	ldr	r3, [r7, #4]
 8004e6e:	681b      	ldr	r3, [r3, #0]
 8004e70:	f003 0302 	and.w	r3, r3, #2
 8004e74:	2b00      	cmp	r3, #0
 8004e76:	d031      	beq.n	8004edc <HAL_RCC_ClockConfig+0xdc>
 8004e78:	687b      	ldr	r3, [r7, #4]
 8004e7a:	689b      	ldr	r3, [r3, #8]
 8004e7c:	2b00      	cmp	r3, #0
 8004e7e:	d024      	beq.n	8004eca <HAL_RCC_ClockConfig+0xca>
 8004e80:	687b      	ldr	r3, [r7, #4]
 8004e82:	689b      	ldr	r3, [r3, #8]
 8004e84:	2b80      	cmp	r3, #128	; 0x80
 8004e86:	d020      	beq.n	8004eca <HAL_RCC_ClockConfig+0xca>
 8004e88:	687b      	ldr	r3, [r7, #4]
 8004e8a:	689b      	ldr	r3, [r3, #8]
 8004e8c:	2b90      	cmp	r3, #144	; 0x90
 8004e8e:	d01c      	beq.n	8004eca <HAL_RCC_ClockConfig+0xca>
 8004e90:	687b      	ldr	r3, [r7, #4]
 8004e92:	689b      	ldr	r3, [r3, #8]
 8004e94:	2ba0      	cmp	r3, #160	; 0xa0
 8004e96:	d018      	beq.n	8004eca <HAL_RCC_ClockConfig+0xca>
 8004e98:	687b      	ldr	r3, [r7, #4]
 8004e9a:	689b      	ldr	r3, [r3, #8]
 8004e9c:	2bb0      	cmp	r3, #176	; 0xb0
 8004e9e:	d014      	beq.n	8004eca <HAL_RCC_ClockConfig+0xca>
 8004ea0:	687b      	ldr	r3, [r7, #4]
 8004ea2:	689b      	ldr	r3, [r3, #8]
 8004ea4:	2bc0      	cmp	r3, #192	; 0xc0
 8004ea6:	d010      	beq.n	8004eca <HAL_RCC_ClockConfig+0xca>
 8004ea8:	687b      	ldr	r3, [r7, #4]
 8004eaa:	689b      	ldr	r3, [r3, #8]
 8004eac:	2bd0      	cmp	r3, #208	; 0xd0
 8004eae:	d00c      	beq.n	8004eca <HAL_RCC_ClockConfig+0xca>
 8004eb0:	687b      	ldr	r3, [r7, #4]
 8004eb2:	689b      	ldr	r3, [r3, #8]
 8004eb4:	2be0      	cmp	r3, #224	; 0xe0
 8004eb6:	d008      	beq.n	8004eca <HAL_RCC_ClockConfig+0xca>
 8004eb8:	687b      	ldr	r3, [r7, #4]
 8004eba:	689b      	ldr	r3, [r3, #8]
 8004ebc:	2bf0      	cmp	r3, #240	; 0xf0
 8004ebe:	d004      	beq.n	8004eca <HAL_RCC_ClockConfig+0xca>
 8004ec0:	f240 3141 	movw	r1, #833	; 0x341
 8004ec4:	486b      	ldr	r0, [pc, #428]	; (8005074 <HAL_RCC_ClockConfig+0x274>)
 8004ec6:	f7fc fa59 	bl	800137c <assert_failed>
 8004eca:	4b6c      	ldr	r3, [pc, #432]	; (800507c <HAL_RCC_ClockConfig+0x27c>)
 8004ecc:	689b      	ldr	r3, [r3, #8]
 8004ece:	f023 02f0 	bic.w	r2, r3, #240	; 0xf0
 8004ed2:	687b      	ldr	r3, [r7, #4]
 8004ed4:	689b      	ldr	r3, [r3, #8]
 8004ed6:	4969      	ldr	r1, [pc, #420]	; (800507c <HAL_RCC_ClockConfig+0x27c>)
 8004ed8:	4313      	orrs	r3, r2
 8004eda:	608b      	str	r3, [r1, #8]
 8004edc:	687b      	ldr	r3, [r7, #4]
 8004ede:	681b      	ldr	r3, [r3, #0]
 8004ee0:	f003 0301 	and.w	r3, r3, #1
 8004ee4:	2b00      	cmp	r3, #0
 8004ee6:	f000 80a3 	beq.w	8005030 <HAL_RCC_ClockConfig+0x230>
 8004eea:	687b      	ldr	r3, [r7, #4]
 8004eec:	685b      	ldr	r3, [r3, #4]
 8004eee:	2b00      	cmp	r3, #0
 8004ef0:	d010      	beq.n	8004f14 <HAL_RCC_ClockConfig+0x114>
 8004ef2:	687b      	ldr	r3, [r7, #4]
 8004ef4:	685b      	ldr	r3, [r3, #4]
 8004ef6:	2b01      	cmp	r3, #1
 8004ef8:	d00c      	beq.n	8004f14 <HAL_RCC_ClockConfig+0x114>
 8004efa:	687b      	ldr	r3, [r7, #4]
 8004efc:	685b      	ldr	r3, [r3, #4]
 8004efe:	2b02      	cmp	r3, #2
 8004f00:	d008      	beq.n	8004f14 <HAL_RCC_ClockConfig+0x114>
 8004f02:	687b      	ldr	r3, [r7, #4]
 8004f04:	685b      	ldr	r3, [r3, #4]
 8004f06:	2b03      	cmp	r3, #3
 8004f08:	d004      	beq.n	8004f14 <HAL_RCC_ClockConfig+0x114>
 8004f0a:	f44f 7152 	mov.w	r1, #840	; 0x348
 8004f0e:	4859      	ldr	r0, [pc, #356]	; (8005074 <HAL_RCC_ClockConfig+0x274>)
 8004f10:	f7fc fa34 	bl	800137c <assert_failed>
 8004f14:	687b      	ldr	r3, [r7, #4]
 8004f16:	685b      	ldr	r3, [r3, #4]
 8004f18:	2b02      	cmp	r3, #2
 8004f1a:	d107      	bne.n	8004f2c <HAL_RCC_ClockConfig+0x12c>
 8004f1c:	4b57      	ldr	r3, [pc, #348]	; (800507c <HAL_RCC_ClockConfig+0x27c>)
 8004f1e:	681b      	ldr	r3, [r3, #0]
 8004f20:	f403 3300 	and.w	r3, r3, #131072	; 0x20000
 8004f24:	2b00      	cmp	r3, #0
 8004f26:	d121      	bne.n	8004f6c <HAL_RCC_ClockConfig+0x16c>
 8004f28:	2301      	movs	r3, #1
 8004f2a:	e118      	b.n	800515e <HAL_RCC_ClockConfig+0x35e>
 8004f2c:	687b      	ldr	r3, [r7, #4]
 8004f2e:	685b      	ldr	r3, [r3, #4]
 8004f30:	2b03      	cmp	r3, #3
 8004f32:	d107      	bne.n	8004f44 <HAL_RCC_ClockConfig+0x144>
 8004f34:	4b51      	ldr	r3, [pc, #324]	; (800507c <HAL_RCC_ClockConfig+0x27c>)
 8004f36:	681b      	ldr	r3, [r3, #0]
 8004f38:	f003 7300 	and.w	r3, r3, #33554432	; 0x2000000
 8004f3c:	2b00      	cmp	r3, #0
 8004f3e:	d115      	bne.n	8004f6c <HAL_RCC_ClockConfig+0x16c>
 8004f40:	2301      	movs	r3, #1
 8004f42:	e10c      	b.n	800515e <HAL_RCC_ClockConfig+0x35e>
 8004f44:	687b      	ldr	r3, [r7, #4]
 8004f46:	685b      	ldr	r3, [r3, #4]
 8004f48:	2b01      	cmp	r3, #1
 8004f4a:	d107      	bne.n	8004f5c <HAL_RCC_ClockConfig+0x15c>
 8004f4c:	4b4b      	ldr	r3, [pc, #300]	; (800507c <HAL_RCC_ClockConfig+0x27c>)
 8004f4e:	681b      	ldr	r3, [r3, #0]
 8004f50:	f003 0302 	and.w	r3, r3, #2
 8004f54:	2b00      	cmp	r3, #0
 8004f56:	d109      	bne.n	8004f6c <HAL_RCC_ClockConfig+0x16c>
 8004f58:	2301      	movs	r3, #1
 8004f5a:	e100      	b.n	800515e <HAL_RCC_ClockConfig+0x35e>
 8004f5c:	4b47      	ldr	r3, [pc, #284]	; (800507c <HAL_RCC_ClockConfig+0x27c>)
 8004f5e:	681b      	ldr	r3, [r3, #0]
 8004f60:	f403 7300 	and.w	r3, r3, #512	; 0x200
 8004f64:	2b00      	cmp	r3, #0
 8004f66:	d101      	bne.n	8004f6c <HAL_RCC_ClockConfig+0x16c>
 8004f68:	2301      	movs	r3, #1
 8004f6a:	e0f8      	b.n	800515e <HAL_RCC_ClockConfig+0x35e>
 8004f6c:	4b43      	ldr	r3, [pc, #268]	; (800507c <HAL_RCC_ClockConfig+0x27c>)
 8004f6e:	689b      	ldr	r3, [r3, #8]
 8004f70:	f023 0203 	bic.w	r2, r3, #3
 8004f74:	687b      	ldr	r3, [r7, #4]
 8004f76:	685b      	ldr	r3, [r3, #4]
 8004f78:	4940      	ldr	r1, [pc, #256]	; (800507c <HAL_RCC_ClockConfig+0x27c>)
 8004f7a:	4313      	orrs	r3, r2
 8004f7c:	608b      	str	r3, [r1, #8]
 8004f7e:	f7fc ff03 	bl	8001d88 <HAL_GetTick>
 8004f82:	60f8      	str	r0, [r7, #12]
 8004f84:	687b      	ldr	r3, [r7, #4]
 8004f86:	685b      	ldr	r3, [r3, #4]
 8004f88:	2b02      	cmp	r3, #2
 8004f8a:	d112      	bne.n	8004fb2 <HAL_RCC_ClockConfig+0x1b2>
 8004f8c:	e00a      	b.n	8004fa4 <HAL_RCC_ClockConfig+0x1a4>
 8004f8e:	f7fc fefb 	bl	8001d88 <HAL_GetTick>
 8004f92:	4602      	mov	r2, r0
 8004f94:	68fb      	ldr	r3, [r7, #12]
 8004f96:	1ad3      	subs	r3, r2, r3
 8004f98:	f241 3288 	movw	r2, #5000	; 0x1388
 8004f9c:	4293      	cmp	r3, r2
 8004f9e:	d901      	bls.n	8004fa4 <HAL_RCC_ClockConfig+0x1a4>
 8004fa0:	2303      	movs	r3, #3
 8004fa2:	e0dc      	b.n	800515e <HAL_RCC_ClockConfig+0x35e>
 8004fa4:	4b35      	ldr	r3, [pc, #212]	; (800507c <HAL_RCC_ClockConfig+0x27c>)
 8004fa6:	689b      	ldr	r3, [r3, #8]
 8004fa8:	f003 030c 	and.w	r3, r3, #12
 8004fac:	2b08      	cmp	r3, #8
 8004fae:	d1ee      	bne.n	8004f8e <HAL_RCC_ClockConfig+0x18e>
 8004fb0:	e03e      	b.n	8005030 <HAL_RCC_ClockConfig+0x230>
 8004fb2:	687b      	ldr	r3, [r7, #4]
 8004fb4:	685b      	ldr	r3, [r3, #4]
 8004fb6:	2b03      	cmp	r3, #3
 8004fb8:	d112      	bne.n	8004fe0 <HAL_RCC_ClockConfig+0x1e0>
 8004fba:	e00a      	b.n	8004fd2 <HAL_RCC_ClockConfig+0x1d2>
 8004fbc:	f7fc fee4 	bl	8001d88 <HAL_GetTick>
 8004fc0:	4602      	mov	r2, r0
 8004fc2:	68fb      	ldr	r3, [r7, #12]
 8004fc4:	1ad3      	subs	r3, r2, r3
 8004fc6:	f241 3288 	movw	r2, #5000	; 0x1388
 8004fca:	4293      	cmp	r3, r2
 8004fcc:	d901      	bls.n	8004fd2 <HAL_RCC_ClockConfig+0x1d2>
 8004fce:	2303      	movs	r3, #3
 8004fd0:	e0c5      	b.n	800515e <HAL_RCC_ClockConfig+0x35e>
 8004fd2:	4b2a      	ldr	r3, [pc, #168]	; (800507c <HAL_RCC_ClockConfig+0x27c>)
 8004fd4:	689b      	ldr	r3, [r3, #8]
 8004fd6:	f003 030c 	and.w	r3, r3, #12
 8004fda:	2b0c      	cmp	r3, #12
 8004fdc:	d1ee      	bne.n	8004fbc <HAL_RCC_ClockConfig+0x1bc>
 8004fde:	e027      	b.n	8005030 <HAL_RCC_ClockConfig+0x230>
 8004fe0:	687b      	ldr	r3, [r7, #4]
 8004fe2:	685b      	ldr	r3, [r3, #4]
 8004fe4:	2b01      	cmp	r3, #1
 8004fe6:	d11d      	bne.n	8005024 <HAL_RCC_ClockConfig+0x224>
 8004fe8:	e00a      	b.n	8005000 <HAL_RCC_ClockConfig+0x200>
 8004fea:	f7fc fecd 	bl	8001d88 <HAL_GetTick>
 8004fee:	4602      	mov	r2, r0
 8004ff0:	68fb      	ldr	r3, [r7, #12]
 8004ff2:	1ad3      	subs	r3, r2, r3
 8004ff4:	f241 3288 	movw	r2, #5000	; 0x1388
 8004ff8:	4293      	cmp	r3, r2
 8004ffa:	d901      	bls.n	8005000 <HAL_RCC_ClockConfig+0x200>
 8004ffc:	2303      	movs	r3, #3
 8004ffe:	e0ae      	b.n	800515e <HAL_RCC_ClockConfig+0x35e>
 8005000:	4b1e      	ldr	r3, [pc, #120]	; (800507c <HAL_RCC_ClockConfig+0x27c>)
 8005002:	689b      	ldr	r3, [r3, #8]
 8005004:	f003 030c 	and.w	r3, r3, #12
 8005008:	2b04      	cmp	r3, #4
 800500a:	d1ee      	bne.n	8004fea <HAL_RCC_ClockConfig+0x1ea>
 800500c:	e010      	b.n	8005030 <HAL_RCC_ClockConfig+0x230>
 800500e:	f7fc febb 	bl	8001d88 <HAL_GetTick>
 8005012:	4602      	mov	r2, r0
 8005014:	68fb      	ldr	r3, [r7, #12]
 8005016:	1ad3      	subs	r3, r2, r3
 8005018:	f241 3288 	movw	r2, #5000	; 0x1388
 800501c:	4293      	cmp	r3, r2
 800501e:	d901      	bls.n	8005024 <HAL_RCC_ClockConfig+0x224>
 8005020:	2303      	movs	r3, #3
 8005022:	e09c      	b.n	800515e <HAL_RCC_ClockConfig+0x35e>
 8005024:	4b15      	ldr	r3, [pc, #84]	; (800507c <HAL_RCC_ClockConfig+0x27c>)
 8005026:	689b      	ldr	r3, [r3, #8]
 8005028:	f003 030c 	and.w	r3, r3, #12
 800502c:	2b00      	cmp	r3, #0
 800502e:	d1ee      	bne.n	800500e <HAL_RCC_ClockConfig+0x20e>
 8005030:	4b11      	ldr	r3, [pc, #68]	; (8005078 <HAL_RCC_ClockConfig+0x278>)
 8005032:	681b      	ldr	r3, [r3, #0]
 8005034:	f003 0301 	and.w	r3, r3, #1
 8005038:	683a      	ldr	r2, [r7, #0]
 800503a:	429a      	cmp	r2, r3
 800503c:	d220      	bcs.n	8005080 <HAL_RCC_ClockConfig+0x280>
 800503e:	683b      	ldr	r3, [r7, #0]
 8005040:	2b01      	cmp	r3, #1
 8005042:	d105      	bne.n	8005050 <HAL_RCC_ClockConfig+0x250>
 8005044:	4b0c      	ldr	r3, [pc, #48]	; (8005078 <HAL_RCC_ClockConfig+0x278>)
 8005046:	681b      	ldr	r3, [r3, #0]
 8005048:	4a0b      	ldr	r2, [pc, #44]	; (8005078 <HAL_RCC_ClockConfig+0x278>)
 800504a:	f043 0304 	orr.w	r3, r3, #4
 800504e:	6013      	str	r3, [r2, #0]
 8005050:	4b09      	ldr	r3, [pc, #36]	; (8005078 <HAL_RCC_ClockConfig+0x278>)
 8005052:	681b      	ldr	r3, [r3, #0]
 8005054:	f023 0201 	bic.w	r2, r3, #1
 8005058:	4907      	ldr	r1, [pc, #28]	; (8005078 <HAL_RCC_ClockConfig+0x278>)
 800505a:	683b      	ldr	r3, [r7, #0]
 800505c:	4313      	orrs	r3, r2
 800505e:	600b      	str	r3, [r1, #0]
 8005060:	4b05      	ldr	r3, [pc, #20]	; (8005078 <HAL_RCC_ClockConfig+0x278>)
 8005062:	681b      	ldr	r3, [r3, #0]
 8005064:	f003 0301 	and.w	r3, r3, #1
 8005068:	683a      	ldr	r2, [r7, #0]
 800506a:	429a      	cmp	r2, r3
 800506c:	d008      	beq.n	8005080 <HAL_RCC_ClockConfig+0x280>
 800506e:	2301      	movs	r3, #1
 8005070:	e075      	b.n	800515e <HAL_RCC_ClockConfig+0x35e>
 8005072:	bf00      	nop
 8005074:	0800a940 	.word	0x0800a940
 8005078:	40023c00 	.word	0x40023c00
 800507c:	40023800 	.word	0x40023800
 8005080:	687b      	ldr	r3, [r7, #4]
 8005082:	681b      	ldr	r3, [r3, #0]
 8005084:	f003 0304 	and.w	r3, r3, #4
 8005088:	2b00      	cmp	r3, #0
 800508a:	d025      	beq.n	80050d8 <HAL_RCC_ClockConfig+0x2d8>
 800508c:	687b      	ldr	r3, [r7, #4]
 800508e:	68db      	ldr	r3, [r3, #12]
 8005090:	2b00      	cmp	r3, #0
 8005092:	d018      	beq.n	80050c6 <HAL_RCC_ClockConfig+0x2c6>
 8005094:	687b      	ldr	r3, [r7, #4]
 8005096:	68db      	ldr	r3, [r3, #12]
 8005098:	f5b3 6f80 	cmp.w	r3, #1024	; 0x400
 800509c:	d013      	beq.n	80050c6 <HAL_RCC_ClockConfig+0x2c6>
 800509e:	687b      	ldr	r3, [r7, #4]
 80050a0:	68db      	ldr	r3, [r3, #12]
 80050a2:	f5b3 6fa0 	cmp.w	r3, #1280	; 0x500
 80050a6:	d00e      	beq.n	80050c6 <HAL_RCC_ClockConfig+0x2c6>
 80050a8:	687b      	ldr	r3, [r7, #4]
 80050aa:	68db      	ldr	r3, [r3, #12]
 80050ac:	f5b3 6fc0 	cmp.w	r3, #1536	; 0x600
 80050b0:	d009      	beq.n	80050c6 <HAL_RCC_ClockConfig+0x2c6>
 80050b2:	687b      	ldr	r3, [r7, #4]
 80050b4:	68db      	ldr	r3, [r3, #12]
 80050b6:	f5b3 6fe0 	cmp.w	r3, #1792	; 0x700
 80050ba:	d004      	beq.n	80050c6 <HAL_RCC_ClockConfig+0x2c6>
 80050bc:	f240 31ad 	movw	r1, #941	; 0x3ad
 80050c0:	4829      	ldr	r0, [pc, #164]	; (8005168 <HAL_RCC_ClockConfig+0x368>)
 80050c2:	f7fc f95b 	bl	800137c <assert_failed>
 80050c6:	4b29      	ldr	r3, [pc, #164]	; (800516c <HAL_RCC_ClockConfig+0x36c>)
 80050c8:	689b      	ldr	r3, [r3, #8]
 80050ca:	f423 62e0 	bic.w	r2, r3, #1792	; 0x700
 80050ce:	687b      	ldr	r3, [r7, #4]
 80050d0:	68db      	ldr	r3, [r3, #12]
 80050d2:	4926      	ldr	r1, [pc, #152]	; (800516c <HAL_RCC_ClockConfig+0x36c>)
 80050d4:	4313      	orrs	r3, r2
 80050d6:	608b      	str	r3, [r1, #8]
 80050d8:	687b      	ldr	r3, [r7, #4]
 80050da:	681b      	ldr	r3, [r3, #0]
 80050dc:	f003 0308 	and.w	r3, r3, #8
 80050e0:	2b00      	cmp	r3, #0
 80050e2:	d026      	beq.n	8005132 <HAL_RCC_ClockConfig+0x332>
 80050e4:	687b      	ldr	r3, [r7, #4]
 80050e6:	691b      	ldr	r3, [r3, #16]
 80050e8:	2b00      	cmp	r3, #0
 80050ea:	d018      	beq.n	800511e <HAL_RCC_ClockConfig+0x31e>
 80050ec:	687b      	ldr	r3, [r7, #4]
 80050ee:	691b      	ldr	r3, [r3, #16]
 80050f0:	f5b3 6f80 	cmp.w	r3, #1024	; 0x400
 80050f4:	d013      	beq.n	800511e <HAL_RCC_ClockConfig+0x31e>
 80050f6:	687b      	ldr	r3, [r7, #4]
 80050f8:	691b      	ldr	r3, [r3, #16]
 80050fa:	f5b3 6fa0 	cmp.w	r3, #1280	; 0x500
 80050fe:	d00e      	beq.n	800511e <HAL_RCC_ClockConfig+0x31e>
 8005100:	687b      	ldr	r3, [r7, #4]
 8005102:	691b      	ldr	r3, [r3, #16]
 8005104:	f5b3 6fc0 	cmp.w	r3, #1536	; 0x600
 8005108:	d009      	beq.n	800511e <HAL_RCC_ClockConfig+0x31e>
 800510a:	687b      	ldr	r3, [r7, #4]
 800510c:	691b      	ldr	r3, [r3, #16]
 800510e:	f5b3 6fe0 	cmp.w	r3, #1792	; 0x700
 8005112:	d004      	beq.n	800511e <HAL_RCC_ClockConfig+0x31e>
 8005114:	f44f 716d 	mov.w	r1, #948	; 0x3b4
 8005118:	4813      	ldr	r0, [pc, #76]	; (8005168 <HAL_RCC_ClockConfig+0x368>)
 800511a:	f7fc f92f 	bl	800137c <assert_failed>
 800511e:	4b13      	ldr	r3, [pc, #76]	; (800516c <HAL_RCC_ClockConfig+0x36c>)
 8005120:	689b      	ldr	r3, [r3, #8]
 8005122:	f423 5260 	bic.w	r2, r3, #14336	; 0x3800
 8005126:	687b      	ldr	r3, [r7, #4]
 8005128:	691b      	ldr	r3, [r3, #16]
 800512a:	00db      	lsls	r3, r3, #3
 800512c:	490f      	ldr	r1, [pc, #60]	; (800516c <HAL_RCC_ClockConfig+0x36c>)
 800512e:	4313      	orrs	r3, r2
 8005130:	608b      	str	r3, [r1, #8]
 8005132:	f000 f823 	bl	800517c <HAL_RCC_GetSysClockFreq>
 8005136:	4601      	mov	r1, r0
 8005138:	4b0c      	ldr	r3, [pc, #48]	; (800516c <HAL_RCC_ClockConfig+0x36c>)
 800513a:	689b      	ldr	r3, [r3, #8]
 800513c:	091b      	lsrs	r3, r3, #4
 800513e:	f003 030f 	and.w	r3, r3, #15
 8005142:	4a0b      	ldr	r2, [pc, #44]	; (8005170 <HAL_RCC_ClockConfig+0x370>)
 8005144:	5cd3      	ldrb	r3, [r2, r3]
 8005146:	fa21 f303 	lsr.w	r3, r1, r3
 800514a:	4a0a      	ldr	r2, [pc, #40]	; (8005174 <HAL_RCC_ClockConfig+0x374>)
 800514c:	6013      	str	r3, [r2, #0]
 800514e:	4b0a      	ldr	r3, [pc, #40]	; (8005178 <HAL_RCC_ClockConfig+0x378>)
 8005150:	681b      	ldr	r3, [r3, #0]
 8005152:	4618      	mov	r0, r3
 8005154:	f7fc f950 	bl	80013f8 <HAL_InitTick>
 8005158:	4603      	mov	r3, r0
 800515a:	72fb      	strb	r3, [r7, #11]
 800515c:	7afb      	ldrb	r3, [r7, #11]
 800515e:	4618      	mov	r0, r3
 8005160:	3710      	adds	r7, #16
 8005162:	46bd      	mov	sp, r7
 8005164:	bd80      	pop	{r7, pc}
 8005166:	bf00      	nop
 8005168:	0800a940 	.word	0x0800a940
 800516c:	40023800 	.word	0x40023800
 8005170:	0800ab24 	.word	0x0800ab24
 8005174:	20000000 	.word	0x20000000
 8005178:	20000004 	.word	0x20000004

0800517c <HAL_RCC_GetSysClockFreq>:
 800517c:	b480      	push	{r7}
 800517e:	b087      	sub	sp, #28
 8005180:	af00      	add	r7, sp, #0
 8005182:	4b26      	ldr	r3, [pc, #152]	; (800521c <HAL_RCC_GetSysClockFreq+0xa0>)
 8005184:	689b      	ldr	r3, [r3, #8]
 8005186:	60fb      	str	r3, [r7, #12]
 8005188:	68fb      	ldr	r3, [r7, #12]
 800518a:	f003 030c 	and.w	r3, r3, #12
 800518e:	2b08      	cmp	r3, #8
 8005190:	d006      	beq.n	80051a0 <HAL_RCC_GetSysClockFreq+0x24>
 8005192:	2b0c      	cmp	r3, #12
 8005194:	d007      	beq.n	80051a6 <HAL_RCC_GetSysClockFreq+0x2a>
 8005196:	2b04      	cmp	r3, #4
 8005198:	d12c      	bne.n	80051f4 <HAL_RCC_GetSysClockFreq+0x78>
 800519a:	4b21      	ldr	r3, [pc, #132]	; (8005220 <HAL_RCC_GetSysClockFreq+0xa4>)
 800519c:	613b      	str	r3, [r7, #16]
 800519e:	e037      	b.n	8005210 <HAL_RCC_GetSysClockFreq+0x94>
 80051a0:	4b20      	ldr	r3, [pc, #128]	; (8005224 <HAL_RCC_GetSysClockFreq+0xa8>)
 80051a2:	613b      	str	r3, [r7, #16]
 80051a4:	e034      	b.n	8005210 <HAL_RCC_GetSysClockFreq+0x94>
 80051a6:	68fb      	ldr	r3, [r7, #12]
 80051a8:	0c9b      	lsrs	r3, r3, #18
 80051aa:	f003 030f 	and.w	r3, r3, #15
 80051ae:	4a1e      	ldr	r2, [pc, #120]	; (8005228 <HAL_RCC_GetSysClockFreq+0xac>)
 80051b0:	5cd3      	ldrb	r3, [r2, r3]
 80051b2:	60bb      	str	r3, [r7, #8]
 80051b4:	68fb      	ldr	r3, [r7, #12]
 80051b6:	0d9b      	lsrs	r3, r3, #22
 80051b8:	f003 0303 	and.w	r3, r3, #3
 80051bc:	3301      	adds	r3, #1
 80051be:	607b      	str	r3, [r7, #4]
 80051c0:	4b16      	ldr	r3, [pc, #88]	; (800521c <HAL_RCC_GetSysClockFreq+0xa0>)
 80051c2:	689b      	ldr	r3, [r3, #8]
 80051c4:	f403 3380 	and.w	r3, r3, #65536	; 0x10000
 80051c8:	2b00      	cmp	r3, #0
 80051ca:	d008      	beq.n	80051de <HAL_RCC_GetSysClockFreq+0x62>
 80051cc:	68bb      	ldr	r3, [r7, #8]
 80051ce:	4a15      	ldr	r2, [pc, #84]	; (8005224 <HAL_RCC_GetSysClockFreq+0xa8>)
 80051d0:	fb02 f203 	mul.w	r2, r2, r3
 80051d4:	687b      	ldr	r3, [r7, #4]
 80051d6:	fbb2 f3f3 	udiv	r3, r2, r3
 80051da:	617b      	str	r3, [r7, #20]
 80051dc:	e007      	b.n	80051ee <HAL_RCC_GetSysClockFreq+0x72>
 80051de:	68bb      	ldr	r3, [r7, #8]
 80051e0:	4a0f      	ldr	r2, [pc, #60]	; (8005220 <HAL_RCC_GetSysClockFreq+0xa4>)
 80051e2:	fb02 f203 	mul.w	r2, r2, r3
 80051e6:	687b      	ldr	r3, [r7, #4]
 80051e8:	fbb2 f3f3 	udiv	r3, r2, r3
 80051ec:	617b      	str	r3, [r7, #20]
 80051ee:	697b      	ldr	r3, [r7, #20]
 80051f0:	613b      	str	r3, [r7, #16]
 80051f2:	e00d      	b.n	8005210 <HAL_RCC_GetSysClockFreq+0x94>
 80051f4:	4b09      	ldr	r3, [pc, #36]	; (800521c <HAL_RCC_GetSysClockFreq+0xa0>)
 80051f6:	685b      	ldr	r3, [r3, #4]
 80051f8:	0b5b      	lsrs	r3, r3, #13
 80051fa:	f003 0307 	and.w	r3, r3, #7
 80051fe:	603b      	str	r3, [r7, #0]
 8005200:	683b      	ldr	r3, [r7, #0]
 8005202:	3301      	adds	r3, #1
 8005204:	f44f 4200 	mov.w	r2, #32768	; 0x8000
 8005208:	fa02 f303 	lsl.w	r3, r2, r3
 800520c:	613b      	str	r3, [r7, #16]
 800520e:	bf00      	nop
 8005210:	693b      	ldr	r3, [r7, #16]
 8005212:	4618      	mov	r0, r3
 8005214:	371c      	adds	r7, #28
 8005216:	46bd      	mov	sp, r7
 8005218:	bc80      	pop	{r7}
 800521a:	4770      	bx	lr
 800521c:	40023800 	.word	0x40023800
 8005220:	00f42400 	.word	0x00f42400
 8005224:	007a1200 	.word	0x007a1200
 8005228:	0800ab18 	.word	0x0800ab18

0800522c <HAL_RCC_GetHCLKFreq>:
 800522c:	b480      	push	{r7}
 800522e:	af00      	add	r7, sp, #0
 8005230:	4b02      	ldr	r3, [pc, #8]	; (800523c <HAL_RCC_GetHCLKFreq+0x10>)
 8005232:	681b      	ldr	r3, [r3, #0]
 8005234:	4618      	mov	r0, r3
 8005236:	46bd      	mov	sp, r7
 8005238:	bc80      	pop	{r7}
 800523a:	4770      	bx	lr
 800523c:	20000000 	.word	0x20000000

08005240 <HAL_RCC_GetPCLK1Freq>:
 8005240:	b580      	push	{r7, lr}
 8005242:	af00      	add	r7, sp, #0
 8005244:	f7ff fff2 	bl	800522c <HAL_RCC_GetHCLKFreq>
 8005248:	4601      	mov	r1, r0
 800524a:	4b05      	ldr	r3, [pc, #20]	; (8005260 <HAL_RCC_GetPCLK1Freq+0x20>)
 800524c:	689b      	ldr	r3, [r3, #8]
 800524e:	0a1b      	lsrs	r3, r3, #8
 8005250:	f003 0307 	and.w	r3, r3, #7
 8005254:	4a03      	ldr	r2, [pc, #12]	; (8005264 <HAL_RCC_GetPCLK1Freq+0x24>)
 8005256:	5cd3      	ldrb	r3, [r2, r3]
 8005258:	fa21 f303 	lsr.w	r3, r1, r3
 800525c:	4618      	mov	r0, r3
 800525e:	bd80      	pop	{r7, pc}
 8005260:	40023800 	.word	0x40023800
 8005264:	0800ab34 	.word	0x0800ab34

08005268 <HAL_RCC_GetPCLK2Freq>:
 8005268:	b580      	push	{r7, lr}
 800526a:	af00      	add	r7, sp, #0
 800526c:	f7ff ffde 	bl	800522c <HAL_RCC_GetHCLKFreq>
 8005270:	4601      	mov	r1, r0
 8005272:	4b05      	ldr	r3, [pc, #20]	; (8005288 <HAL_RCC_GetPCLK2Freq+0x20>)
 8005274:	689b      	ldr	r3, [r3, #8]
 8005276:	0adb      	lsrs	r3, r3, #11
 8005278:	f003 0307 	and.w	r3, r3, #7
 800527c:	4a03      	ldr	r2, [pc, #12]	; (800528c <HAL_RCC_GetPCLK2Freq+0x24>)
 800527e:	5cd3      	ldrb	r3, [r2, r3]
 8005280:	fa21 f303 	lsr.w	r3, r1, r3
 8005284:	4618      	mov	r0, r3
 8005286:	bd80      	pop	{r7, pc}
 8005288:	40023800 	.word	0x40023800
 800528c:	0800ab34 	.word	0x0800ab34

08005290 <HAL_RCC_GetClockConfig>:
 8005290:	b580      	push	{r7, lr}
 8005292:	b082      	sub	sp, #8
 8005294:	af00      	add	r7, sp, #0
 8005296:	6078      	str	r0, [r7, #4]
 8005298:	6039      	str	r1, [r7, #0]
 800529a:	687b      	ldr	r3, [r7, #4]
 800529c:	2b00      	cmp	r3, #0
 800529e:	d104      	bne.n	80052aa <HAL_RCC_GetClockConfig+0x1a>
 80052a0:	f240 41fa 	movw	r1, #1274	; 0x4fa
 80052a4:	4818      	ldr	r0, [pc, #96]	; (8005308 <HAL_RCC_GetClockConfig+0x78>)
 80052a6:	f7fc f869 	bl	800137c <assert_failed>
 80052aa:	683b      	ldr	r3, [r7, #0]
 80052ac:	2b00      	cmp	r3, #0
 80052ae:	d104      	bne.n	80052ba <HAL_RCC_GetClockConfig+0x2a>
 80052b0:	f240 41fb 	movw	r1, #1275	; 0x4fb
 80052b4:	4814      	ldr	r0, [pc, #80]	; (8005308 <HAL_RCC_GetClockConfig+0x78>)
 80052b6:	f7fc f861 	bl	800137c <assert_failed>
 80052ba:	687b      	ldr	r3, [r7, #4]
 80052bc:	220f      	movs	r2, #15
 80052be:	601a      	str	r2, [r3, #0]
 80052c0:	4b12      	ldr	r3, [pc, #72]	; (800530c <HAL_RCC_GetClockConfig+0x7c>)
 80052c2:	689b      	ldr	r3, [r3, #8]
 80052c4:	f003 0203 	and.w	r2, r3, #3
 80052c8:	687b      	ldr	r3, [r7, #4]
 80052ca:	605a      	str	r2, [r3, #4]
 80052cc:	4b0f      	ldr	r3, [pc, #60]	; (800530c <HAL_RCC_GetClockConfig+0x7c>)
 80052ce:	689b      	ldr	r3, [r3, #8]
 80052d0:	f003 02f0 	and.w	r2, r3, #240	; 0xf0
 80052d4:	687b      	ldr	r3, [r7, #4]
 80052d6:	609a      	str	r2, [r3, #8]
 80052d8:	4b0c      	ldr	r3, [pc, #48]	; (800530c <HAL_RCC_GetClockConfig+0x7c>)
 80052da:	689b      	ldr	r3, [r3, #8]
 80052dc:	f403 62e0 	and.w	r2, r3, #1792	; 0x700
 80052e0:	687b      	ldr	r3, [r7, #4]
 80052e2:	60da      	str	r2, [r3, #12]
 80052e4:	4b09      	ldr	r3, [pc, #36]	; (800530c <HAL_RCC_GetClockConfig+0x7c>)
 80052e6:	689b      	ldr	r3, [r3, #8]
 80052e8:	08db      	lsrs	r3, r3, #3
 80052ea:	f403 62e0 	and.w	r2, r3, #1792	; 0x700
 80052ee:	687b      	ldr	r3, [r7, #4]
 80052f0:	611a      	str	r2, [r3, #16]
 80052f2:	4b07      	ldr	r3, [pc, #28]	; (8005310 <HAL_RCC_GetClockConfig+0x80>)
 80052f4:	681b      	ldr	r3, [r3, #0]
 80052f6:	f003 0201 	and.w	r2, r3, #1
 80052fa:	683b      	ldr	r3, [r7, #0]
 80052fc:	601a      	str	r2, [r3, #0]
 80052fe:	bf00      	nop
 8005300:	3708      	adds	r7, #8
 8005302:	46bd      	mov	sp, r7
 8005304:	bd80      	pop	{r7, pc}
 8005306:	bf00      	nop
 8005308:	0800a940 	.word	0x0800a940
 800530c:	40023800 	.word	0x40023800
 8005310:	40023c00 	.word	0x40023c00

08005314 <RCC_SetFlashLatencyFromMSIRange>:
 8005314:	b480      	push	{r7}
 8005316:	b087      	sub	sp, #28
 8005318:	af00      	add	r7, sp, #0
 800531a:	6078      	str	r0, [r7, #4]
 800531c:	2300      	movs	r3, #0
 800531e:	613b      	str	r3, [r7, #16]
 8005320:	4b29      	ldr	r3, [pc, #164]	; (80053c8 <RCC_SetFlashLatencyFromMSIRange+0xb4>)
 8005322:	689b      	ldr	r3, [r3, #8]
 8005324:	f003 03f0 	and.w	r3, r3, #240	; 0xf0
 8005328:	2b00      	cmp	r3, #0
 800532a:	d12c      	bne.n	8005386 <RCC_SetFlashLatencyFromMSIRange+0x72>
 800532c:	4b26      	ldr	r3, [pc, #152]	; (80053c8 <RCC_SetFlashLatencyFromMSIRange+0xb4>)
 800532e:	6a5b      	ldr	r3, [r3, #36]	; 0x24
 8005330:	f003 5380 	and.w	r3, r3, #268435456	; 0x10000000
 8005334:	2b00      	cmp	r3, #0
 8005336:	d005      	beq.n	8005344 <RCC_SetFlashLatencyFromMSIRange+0x30>
 8005338:	4b24      	ldr	r3, [pc, #144]	; (80053cc <RCC_SetFlashLatencyFromMSIRange+0xb8>)
 800533a:	681b      	ldr	r3, [r3, #0]
 800533c:	f403 53c0 	and.w	r3, r3, #6144	; 0x1800
 8005340:	617b      	str	r3, [r7, #20]
 8005342:	e016      	b.n	8005372 <RCC_SetFlashLatencyFromMSIRange+0x5e>
 8005344:	4b20      	ldr	r3, [pc, #128]	; (80053c8 <RCC_SetFlashLatencyFromMSIRange+0xb4>)
 8005346:	6a5b      	ldr	r3, [r3, #36]	; 0x24
 8005348:	4a1f      	ldr	r2, [pc, #124]	; (80053c8 <RCC_SetFlashLatencyFromMSIRange+0xb4>)
 800534a:	f043 5380 	orr.w	r3, r3, #268435456	; 0x10000000
 800534e:	6253      	str	r3, [r2, #36]	; 0x24
 8005350:	4b1d      	ldr	r3, [pc, #116]	; (80053c8 <RCC_SetFlashLatencyFromMSIRange+0xb4>)
 8005352:	6a5b      	ldr	r3, [r3, #36]	; 0x24
 8005354:	f003 5380 	and.w	r3, r3, #268435456	; 0x10000000
 8005358:	60fb      	str	r3, [r7, #12]
 800535a:	68fb      	ldr	r3, [r7, #12]
 800535c:	4b1b      	ldr	r3, [pc, #108]	; (80053cc <RCC_SetFlashLatencyFromMSIRange+0xb8>)
 800535e:	681b      	ldr	r3, [r3, #0]
 8005360:	f403 53c0 	and.w	r3, r3, #6144	; 0x1800
 8005364:	617b      	str	r3, [r7, #20]
 8005366:	4b18      	ldr	r3, [pc, #96]	; (80053c8 <RCC_SetFlashLatencyFromMSIRange+0xb4>)
 8005368:	6a5b      	ldr	r3, [r3, #36]	; 0x24
 800536a:	4a17      	ldr	r2, [pc, #92]	; (80053c8 <RCC_SetFlashLatencyFromMSIRange+0xb4>)
 800536c:	f023 5380 	bic.w	r3, r3, #268435456	; 0x10000000
 8005370:	6253      	str	r3, [r2, #36]	; 0x24
 8005372:	697b      	ldr	r3, [r7, #20]
 8005374:	f5b3 5fc0 	cmp.w	r3, #6144	; 0x1800
 8005378:	d105      	bne.n	8005386 <RCC_SetFlashLatencyFromMSIRange+0x72>
 800537a:	687b      	ldr	r3, [r7, #4]
 800537c:	f5b3 4f40 	cmp.w	r3, #49152	; 0xc000
 8005380:	d101      	bne.n	8005386 <RCC_SetFlashLatencyFromMSIRange+0x72>
 8005382:	2301      	movs	r3, #1
 8005384:	613b      	str	r3, [r7, #16]
 8005386:	693b      	ldr	r3, [r7, #16]
 8005388:	2b01      	cmp	r3, #1
 800538a:	d105      	bne.n	8005398 <RCC_SetFlashLatencyFromMSIRange+0x84>
 800538c:	4b10      	ldr	r3, [pc, #64]	; (80053d0 <RCC_SetFlashLatencyFromMSIRange+0xbc>)
 800538e:	681b      	ldr	r3, [r3, #0]
 8005390:	4a0f      	ldr	r2, [pc, #60]	; (80053d0 <RCC_SetFlashLatencyFromMSIRange+0xbc>)
 8005392:	f043 0304 	orr.w	r3, r3, #4
 8005396:	6013      	str	r3, [r2, #0]
 8005398:	4b0d      	ldr	r3, [pc, #52]	; (80053d0 <RCC_SetFlashLatencyFromMSIRange+0xbc>)
 800539a:	681b      	ldr	r3, [r3, #0]
 800539c:	f023 0201 	bic.w	r2, r3, #1
 80053a0:	490b      	ldr	r1, [pc, #44]	; (80053d0 <RCC_SetFlashLatencyFromMSIRange+0xbc>)
 80053a2:	693b      	ldr	r3, [r7, #16]
 80053a4:	4313      	orrs	r3, r2
 80053a6:	600b      	str	r3, [r1, #0]
 80053a8:	4b09      	ldr	r3, [pc, #36]	; (80053d0 <RCC_SetFlashLatencyFromMSIRange+0xbc>)
 80053aa:	681b      	ldr	r3, [r3, #0]
 80053ac:	f003 0301 	and.w	r3, r3, #1
 80053b0:	693a      	ldr	r2, [r7, #16]
 80053b2:	429a      	cmp	r2, r3
 80053b4:	d001      	beq.n	80053ba <RCC_SetFlashLatencyFromMSIRange+0xa6>
 80053b6:	2301      	movs	r3, #1
 80053b8:	e000      	b.n	80053bc <RCC_SetFlashLatencyFromMSIRange+0xa8>
 80053ba:	2300      	movs	r3, #0
 80053bc:	4618      	mov	r0, r3
 80053be:	371c      	adds	r7, #28
 80053c0:	46bd      	mov	sp, r7
 80053c2:	bc80      	pop	{r7}
 80053c4:	4770      	bx	lr
 80053c6:	bf00      	nop
 80053c8:	40023800 	.word	0x40023800
 80053cc:	40007000 	.word	0x40007000
 80053d0:	40023c00 	.word	0x40023c00

080053d4 <HAL_TIM_Base_Init>:
 80053d4:	b580      	push	{r7, lr}
 80053d6:	b082      	sub	sp, #8
 80053d8:	af00      	add	r7, sp, #0
 80053da:	6078      	str	r0, [r7, #4]
 80053dc:	687b      	ldr	r3, [r7, #4]
 80053de:	2b00      	cmp	r3, #0
 80053e0:	d101      	bne.n	80053e6 <HAL_TIM_Base_Init+0x12>
 80053e2:	2301      	movs	r3, #1
 80053e4:	e088      	b.n	80054f8 <HAL_TIM_Base_Init+0x124>
 80053e6:	687b      	ldr	r3, [r7, #4]
 80053e8:	681b      	ldr	r3, [r3, #0]
 80053ea:	f1b3 4f80 	cmp.w	r3, #1073741824	; 0x40000000
 80053ee:	d02c      	beq.n	800544a <HAL_TIM_Base_Init+0x76>
 80053f0:	687b      	ldr	r3, [r7, #4]
 80053f2:	681b      	ldr	r3, [r3, #0]
 80053f4:	4a42      	ldr	r2, [pc, #264]	; (8005500 <HAL_TIM_Base_Init+0x12c>)
 80053f6:	4293      	cmp	r3, r2
 80053f8:	d027      	beq.n	800544a <HAL_TIM_Base_Init+0x76>
 80053fa:	687b      	ldr	r3, [r7, #4]
 80053fc:	681b      	ldr	r3, [r3, #0]
 80053fe:	4a41      	ldr	r2, [pc, #260]	; (8005504 <HAL_TIM_Base_Init+0x130>)
 8005400:	4293      	cmp	r3, r2
 8005402:	d022      	beq.n	800544a <HAL_TIM_Base_Init+0x76>
 8005404:	687b      	ldr	r3, [r7, #4]
 8005406:	681b      	ldr	r3, [r3, #0]
 8005408:	4a3f      	ldr	r2, [pc, #252]	; (8005508 <HAL_TIM_Base_Init+0x134>)
 800540a:	4293      	cmp	r3, r2
 800540c:	d01d      	beq.n	800544a <HAL_TIM_Base_Init+0x76>
 800540e:	687b      	ldr	r3, [r7, #4]
 8005410:	681b      	ldr	r3, [r3, #0]
 8005412:	4a3e      	ldr	r2, [pc, #248]	; (800550c <HAL_TIM_Base_Init+0x138>)
 8005414:	4293      	cmp	r3, r2
 8005416:	d018      	beq.n	800544a <HAL_TIM_Base_Init+0x76>
 8005418:	687b      	ldr	r3, [r7, #4]
 800541a:	681b      	ldr	r3, [r3, #0]
 800541c:	4a3c      	ldr	r2, [pc, #240]	; (8005510 <HAL_TIM_Base_Init+0x13c>)
 800541e:	4293      	cmp	r3, r2
 8005420:	d013      	beq.n	800544a <HAL_TIM_Base_Init+0x76>
 8005422:	687b      	ldr	r3, [r7, #4]
 8005424:	681b      	ldr	r3, [r3, #0]
 8005426:	4a3b      	ldr	r2, [pc, #236]	; (8005514 <HAL_TIM_Base_Init+0x140>)
 8005428:	4293      	cmp	r3, r2
 800542a:	d00e      	beq.n	800544a <HAL_TIM_Base_Init+0x76>
 800542c:	687b      	ldr	r3, [r7, #4]
 800542e:	681b      	ldr	r3, [r3, #0]
 8005430:	4a39      	ldr	r2, [pc, #228]	; (8005518 <HAL_TIM_Base_Init+0x144>)
 8005432:	4293      	cmp	r3, r2
 8005434:	d009      	beq.n	800544a <HAL_TIM_Base_Init+0x76>
 8005436:	687b      	ldr	r3, [r7, #4]
 8005438:	681b      	ldr	r3, [r3, #0]
 800543a:	4a38      	ldr	r2, [pc, #224]	; (800551c <HAL_TIM_Base_Init+0x148>)
 800543c:	4293      	cmp	r3, r2
 800543e:	d004      	beq.n	800544a <HAL_TIM_Base_Init+0x76>
 8005440:	f240 110b 	movw	r1, #267	; 0x10b
 8005444:	4836      	ldr	r0, [pc, #216]	; (8005520 <HAL_TIM_Base_Init+0x14c>)
 8005446:	f7fb ff99 	bl	800137c <assert_failed>
 800544a:	687b      	ldr	r3, [r7, #4]
 800544c:	689b      	ldr	r3, [r3, #8]
 800544e:	2b00      	cmp	r3, #0
 8005450:	d014      	beq.n	800547c <HAL_TIM_Base_Init+0xa8>
 8005452:	687b      	ldr	r3, [r7, #4]
 8005454:	689b      	ldr	r3, [r3, #8]
 8005456:	2b10      	cmp	r3, #16
 8005458:	d010      	beq.n	800547c <HAL_TIM_Base_Init+0xa8>
 800545a:	687b      	ldr	r3, [r7, #4]
 800545c:	689b      	ldr	r3, [r3, #8]
 800545e:	2b20      	cmp	r3, #32
 8005460:	d00c      	beq.n	800547c <HAL_TIM_Base_Init+0xa8>
 8005462:	687b      	ldr	r3, [r7, #4]
 8005464:	689b      	ldr	r3, [r3, #8]
 8005466:	2b40      	cmp	r3, #64	; 0x40
 8005468:	d008      	beq.n	800547c <HAL_TIM_Base_Init+0xa8>
 800546a:	687b      	ldr	r3, [r7, #4]
 800546c:	689b      	ldr	r3, [r3, #8]
 800546e:	2b60      	cmp	r3, #96	; 0x60
 8005470:	d004      	beq.n	800547c <HAL_TIM_Base_Init+0xa8>
 8005472:	f44f 7186 	mov.w	r1, #268	; 0x10c
 8005476:	482a      	ldr	r0, [pc, #168]	; (8005520 <HAL_TIM_Base_Init+0x14c>)
 8005478:	f7fb ff80 	bl	800137c <assert_failed>
 800547c:	687b      	ldr	r3, [r7, #4]
 800547e:	691b      	ldr	r3, [r3, #16]
 8005480:	2b00      	cmp	r3, #0
 8005482:	d00e      	beq.n	80054a2 <HAL_TIM_Base_Init+0xce>
 8005484:	687b      	ldr	r3, [r7, #4]
 8005486:	691b      	ldr	r3, [r3, #16]
 8005488:	f5b3 7f80 	cmp.w	r3, #256	; 0x100
 800548c:	d009      	beq.n	80054a2 <HAL_TIM_Base_Init+0xce>
 800548e:	687b      	ldr	r3, [r7, #4]
 8005490:	691b      	ldr	r3, [r3, #16]
 8005492:	f5b3 7f00 	cmp.w	r3, #512	; 0x200
 8005496:	d004      	beq.n	80054a2 <HAL_TIM_Base_Init+0xce>
 8005498:	f240 110d 	movw	r1, #269	; 0x10d
 800549c:	4820      	ldr	r0, [pc, #128]	; (8005520 <HAL_TIM_Base_Init+0x14c>)
 800549e:	f7fb ff6d 	bl	800137c <assert_failed>
 80054a2:	687b      	ldr	r3, [r7, #4]
 80054a4:	695b      	ldr	r3, [r3, #20]
 80054a6:	2b00      	cmp	r3, #0
 80054a8:	d008      	beq.n	80054bc <HAL_TIM_Base_Init+0xe8>
 80054aa:	687b      	ldr	r3, [r7, #4]
 80054ac:	695b      	ldr	r3, [r3, #20]
 80054ae:	2b80      	cmp	r3, #128	; 0x80
 80054b0:	d004      	beq.n	80054bc <HAL_TIM_Base_Init+0xe8>
 80054b2:	f44f 7187 	mov.w	r1, #270	; 0x10e
 80054b6:	481a      	ldr	r0, [pc, #104]	; (8005520 <HAL_TIM_Base_Init+0x14c>)
 80054b8:	f7fb ff60 	bl	800137c <assert_failed>
 80054bc:	687b      	ldr	r3, [r7, #4]
 80054be:	f893 3039 	ldrb.w	r3, [r3, #57]	; 0x39
 80054c2:	b2db      	uxtb	r3, r3
 80054c4:	2b00      	cmp	r3, #0
 80054c6:	d106      	bne.n	80054d6 <HAL_TIM_Base_Init+0x102>
 80054c8:	687b      	ldr	r3, [r7, #4]
 80054ca:	2200      	movs	r2, #0
 80054cc:	f883 2038 	strb.w	r2, [r3, #56]	; 0x38
 80054d0:	6878      	ldr	r0, [r7, #4]
 80054d2:	f7fc fa4d 	bl	8001970 <HAL_TIM_Base_MspInit>
 80054d6:	687b      	ldr	r3, [r7, #4]
 80054d8:	2202      	movs	r2, #2
 80054da:	f883 2039 	strb.w	r2, [r3, #57]	; 0x39
 80054de:	687b      	ldr	r3, [r7, #4]
 80054e0:	681a      	ldr	r2, [r3, #0]
 80054e2:	687b      	ldr	r3, [r7, #4]
 80054e4:	3304      	adds	r3, #4
 80054e6:	4619      	mov	r1, r3
 80054e8:	4610      	mov	r0, r2
 80054ea:	f001 f815 	bl	8006518 <TIM_Base_SetConfig>
 80054ee:	687b      	ldr	r3, [r7, #4]
 80054f0:	2201      	movs	r2, #1
 80054f2:	f883 2039 	strb.w	r2, [r3, #57]	; 0x39
 80054f6:	2300      	movs	r3, #0
 80054f8:	4618      	mov	r0, r3
 80054fa:	3708      	adds	r7, #8
 80054fc:	46bd      	mov	sp, r7
 80054fe:	bd80      	pop	{r7, pc}
 8005500:	40000400 	.word	0x40000400
 8005504:	40000800 	.word	0x40000800
 8005508:	40000c00 	.word	0x40000c00
 800550c:	40001000 	.word	0x40001000
 8005510:	40001400 	.word	0x40001400
 8005514:	40010800 	.word	0x40010800
 8005518:	40010c00 	.word	0x40010c00
 800551c:	40011000 	.word	0x40011000
 8005520:	0800a978 	.word	0x0800a978

08005524 <HAL_TIM_Base_Start>:
 8005524:	b580      	push	{r7, lr}
 8005526:	b084      	sub	sp, #16
 8005528:	af00      	add	r7, sp, #0
 800552a:	6078      	str	r0, [r7, #4]
 800552c:	687b      	ldr	r3, [r7, #4]
 800552e:	681b      	ldr	r3, [r3, #0]
 8005530:	f1b3 4f80 	cmp.w	r3, #1073741824	; 0x40000000
 8005534:	d02c      	beq.n	8005590 <HAL_TIM_Base_Start+0x6c>
 8005536:	687b      	ldr	r3, [r7, #4]
 8005538:	681b      	ldr	r3, [r3, #0]
 800553a:	4a24      	ldr	r2, [pc, #144]	; (80055cc <HAL_TIM_Base_Start+0xa8>)
 800553c:	4293      	cmp	r3, r2
 800553e:	d027      	beq.n	8005590 <HAL_TIM_Base_Start+0x6c>
 8005540:	687b      	ldr	r3, [r7, #4]
 8005542:	681b      	ldr	r3, [r3, #0]
 8005544:	4a22      	ldr	r2, [pc, #136]	; (80055d0 <HAL_TIM_Base_Start+0xac>)
 8005546:	4293      	cmp	r3, r2
 8005548:	d022      	beq.n	8005590 <HAL_TIM_Base_Start+0x6c>
 800554a:	687b      	ldr	r3, [r7, #4]
 800554c:	681b      	ldr	r3, [r3, #0]
 800554e:	4a21      	ldr	r2, [pc, #132]	; (80055d4 <HAL_TIM_Base_Start+0xb0>)
 8005550:	4293      	cmp	r3, r2
 8005552:	d01d      	beq.n	8005590 <HAL_TIM_Base_Start+0x6c>
 8005554:	687b      	ldr	r3, [r7, #4]
 8005556:	681b      	ldr	r3, [r3, #0]
 8005558:	4a1f      	ldr	r2, [pc, #124]	; (80055d8 <HAL_TIM_Base_Start+0xb4>)
 800555a:	4293      	cmp	r3, r2
 800555c:	d018      	beq.n	8005590 <HAL_TIM_Base_Start+0x6c>
 800555e:	687b      	ldr	r3, [r7, #4]
 8005560:	681b      	ldr	r3, [r3, #0]
 8005562:	4a1e      	ldr	r2, [pc, #120]	; (80055dc <HAL_TIM_Base_Start+0xb8>)
 8005564:	4293      	cmp	r3, r2
 8005566:	d013      	beq.n	8005590 <HAL_TIM_Base_Start+0x6c>
 8005568:	687b      	ldr	r3, [r7, #4]
 800556a:	681b      	ldr	r3, [r3, #0]
 800556c:	4a1c      	ldr	r2, [pc, #112]	; (80055e0 <HAL_TIM_Base_Start+0xbc>)
 800556e:	4293      	cmp	r3, r2
 8005570:	d00e      	beq.n	8005590 <HAL_TIM_Base_Start+0x6c>
 8005572:	687b      	ldr	r3, [r7, #4]
 8005574:	681b      	ldr	r3, [r3, #0]
 8005576:	4a1b      	ldr	r2, [pc, #108]	; (80055e4 <HAL_TIM_Base_Start+0xc0>)
 8005578:	4293      	cmp	r3, r2
 800557a:	d009      	beq.n	8005590 <HAL_TIM_Base_Start+0x6c>
 800557c:	687b      	ldr	r3, [r7, #4]
 800557e:	681b      	ldr	r3, [r3, #0]
 8005580:	4a19      	ldr	r2, [pc, #100]	; (80055e8 <HAL_TIM_Base_Start+0xc4>)
 8005582:	4293      	cmp	r3, r2
 8005584:	d004      	beq.n	8005590 <HAL_TIM_Base_Start+0x6c>
 8005586:	f44f 71bf 	mov.w	r1, #382	; 0x17e
 800558a:	4818      	ldr	r0, [pc, #96]	; (80055ec <HAL_TIM_Base_Start+0xc8>)
 800558c:	f7fb fef6 	bl	800137c <assert_failed>
 8005590:	687b      	ldr	r3, [r7, #4]
 8005592:	2202      	movs	r2, #2
 8005594:	f883 2039 	strb.w	r2, [r3, #57]	; 0x39
 8005598:	687b      	ldr	r3, [r7, #4]
 800559a:	681b      	ldr	r3, [r3, #0]
 800559c:	689b      	ldr	r3, [r3, #8]
 800559e:	f003 0307 	and.w	r3, r3, #7
 80055a2:	60fb      	str	r3, [r7, #12]
 80055a4:	68fb      	ldr	r3, [r7, #12]
 80055a6:	2b06      	cmp	r3, #6
 80055a8:	d007      	beq.n	80055ba <HAL_TIM_Base_Start+0x96>
 80055aa:	687b      	ldr	r3, [r7, #4]
 80055ac:	681b      	ldr	r3, [r3, #0]
 80055ae:	681a      	ldr	r2, [r3, #0]
 80055b0:	687b      	ldr	r3, [r7, #4]
 80055b2:	681b      	ldr	r3, [r3, #0]
 80055b4:	f042 0201 	orr.w	r2, r2, #1
 80055b8:	601a      	str	r2, [r3, #0]
 80055ba:	687b      	ldr	r3, [r7, #4]
 80055bc:	2201      	movs	r2, #1
 80055be:	f883 2039 	strb.w	r2, [r3, #57]	; 0x39
 80055c2:	2300      	movs	r3, #0
 80055c4:	4618      	mov	r0, r3
 80055c6:	3710      	adds	r7, #16
 80055c8:	46bd      	mov	sp, r7
 80055ca:	bd80      	pop	{r7, pc}
 80055cc:	40000400 	.word	0x40000400
 80055d0:	40000800 	.word	0x40000800
 80055d4:	40000c00 	.word	0x40000c00
 80055d8:	40001000 	.word	0x40001000
 80055dc:	40001400 	.word	0x40001400
 80055e0:	40010800 	.word	0x40010800
 80055e4:	40010c00 	.word	0x40010c00
 80055e8:	40011000 	.word	0x40011000
 80055ec:	0800a978 	.word	0x0800a978

080055f0 <HAL_TIM_Base_Stop>:
 80055f0:	b580      	push	{r7, lr}
 80055f2:	b082      	sub	sp, #8
 80055f4:	af00      	add	r7, sp, #0
 80055f6:	6078      	str	r0, [r7, #4]
 80055f8:	687b      	ldr	r3, [r7, #4]
 80055fa:	681b      	ldr	r3, [r3, #0]
 80055fc:	f1b3 4f80 	cmp.w	r3, #1073741824	; 0x40000000
 8005600:	d02c      	beq.n	800565c <HAL_TIM_Base_Stop+0x6c>
 8005602:	687b      	ldr	r3, [r7, #4]
 8005604:	681b      	ldr	r3, [r3, #0]
 8005606:	4a24      	ldr	r2, [pc, #144]	; (8005698 <HAL_TIM_Base_Stop+0xa8>)
 8005608:	4293      	cmp	r3, r2
 800560a:	d027      	beq.n	800565c <HAL_TIM_Base_Stop+0x6c>
 800560c:	687b      	ldr	r3, [r7, #4]
 800560e:	681b      	ldr	r3, [r3, #0]
 8005610:	4a22      	ldr	r2, [pc, #136]	; (800569c <HAL_TIM_Base_Stop+0xac>)
 8005612:	4293      	cmp	r3, r2
 8005614:	d022      	beq.n	800565c <HAL_TIM_Base_Stop+0x6c>
 8005616:	687b      	ldr	r3, [r7, #4]
 8005618:	681b      	ldr	r3, [r3, #0]
 800561a:	4a21      	ldr	r2, [pc, #132]	; (80056a0 <HAL_TIM_Base_Stop+0xb0>)
 800561c:	4293      	cmp	r3, r2
 800561e:	d01d      	beq.n	800565c <HAL_TIM_Base_Stop+0x6c>
 8005620:	687b      	ldr	r3, [r7, #4]
 8005622:	681b      	ldr	r3, [r3, #0]
 8005624:	4a1f      	ldr	r2, [pc, #124]	; (80056a4 <HAL_TIM_Base_Stop+0xb4>)
 8005626:	4293      	cmp	r3, r2
 8005628:	d018      	beq.n	800565c <HAL_TIM_Base_Stop+0x6c>
 800562a:	687b      	ldr	r3, [r7, #4]
 800562c:	681b      	ldr	r3, [r3, #0]
 800562e:	4a1e      	ldr	r2, [pc, #120]	; (80056a8 <HAL_TIM_Base_Stop+0xb8>)
 8005630:	4293      	cmp	r3, r2
 8005632:	d013      	beq.n	800565c <HAL_TIM_Base_Stop+0x6c>
 8005634:	687b      	ldr	r3, [r7, #4]
 8005636:	681b      	ldr	r3, [r3, #0]
 8005638:	4a1c      	ldr	r2, [pc, #112]	; (80056ac <HAL_TIM_Base_Stop+0xbc>)
 800563a:	4293      	cmp	r3, r2
 800563c:	d00e      	beq.n	800565c <HAL_TIM_Base_Stop+0x6c>
 800563e:	687b      	ldr	r3, [r7, #4]
 8005640:	681b      	ldr	r3, [r3, #0]
 8005642:	4a1b      	ldr	r2, [pc, #108]	; (80056b0 <HAL_TIM_Base_Stop+0xc0>)
 8005644:	4293      	cmp	r3, r2
 8005646:	d009      	beq.n	800565c <HAL_TIM_Base_Stop+0x6c>
 8005648:	687b      	ldr	r3, [r7, #4]
 800564a:	681b      	ldr	r3, [r3, #0]
 800564c:	4a19      	ldr	r2, [pc, #100]	; (80056b4 <HAL_TIM_Base_Stop+0xc4>)
 800564e:	4293      	cmp	r3, r2
 8005650:	d004      	beq.n	800565c <HAL_TIM_Base_Stop+0x6c>
 8005652:	f240 1199 	movw	r1, #409	; 0x199
 8005656:	4818      	ldr	r0, [pc, #96]	; (80056b8 <HAL_TIM_Base_Stop+0xc8>)
 8005658:	f7fb fe90 	bl	800137c <assert_failed>
 800565c:	687b      	ldr	r3, [r7, #4]
 800565e:	2202      	movs	r2, #2
 8005660:	f883 2039 	strb.w	r2, [r3, #57]	; 0x39
 8005664:	687b      	ldr	r3, [r7, #4]
 8005666:	681b      	ldr	r3, [r3, #0]
 8005668:	6a1a      	ldr	r2, [r3, #32]
 800566a:	f241 1311 	movw	r3, #4369	; 0x1111
 800566e:	4013      	ands	r3, r2
 8005670:	2b00      	cmp	r3, #0
 8005672:	d107      	bne.n	8005684 <HAL_TIM_Base_Stop+0x94>
 8005674:	687b      	ldr	r3, [r7, #4]
 8005676:	681b      	ldr	r3, [r3, #0]
 8005678:	681a      	ldr	r2, [r3, #0]
 800567a:	687b      	ldr	r3, [r7, #4]
 800567c:	681b      	ldr	r3, [r3, #0]
 800567e:	f022 0201 	bic.w	r2, r2, #1
 8005682:	601a      	str	r2, [r3, #0]
 8005684:	687b      	ldr	r3, [r7, #4]
 8005686:	2201      	movs	r2, #1
 8005688:	f883 2039 	strb.w	r2, [r3, #57]	; 0x39
 800568c:	2300      	movs	r3, #0
 800568e:	4618      	mov	r0, r3
 8005690:	3708      	adds	r7, #8
 8005692:	46bd      	mov	sp, r7
 8005694:	bd80      	pop	{r7, pc}
 8005696:	bf00      	nop
 8005698:	40000400 	.word	0x40000400
 800569c:	40000800 	.word	0x40000800
 80056a0:	40000c00 	.word	0x40000c00
 80056a4:	40001000 	.word	0x40001000
 80056a8:	40001400 	.word	0x40001400
 80056ac:	40010800 	.word	0x40010800
 80056b0:	40010c00 	.word	0x40010c00
 80056b4:	40011000 	.word	0x40011000
 80056b8:	0800a978 	.word	0x0800a978

080056bc <HAL_TIM_Base_Start_IT>:
 80056bc:	b580      	push	{r7, lr}
 80056be:	b084      	sub	sp, #16
 80056c0:	af00      	add	r7, sp, #0
 80056c2:	6078      	str	r0, [r7, #4]
 80056c4:	687b      	ldr	r3, [r7, #4]
 80056c6:	681b      	ldr	r3, [r3, #0]
 80056c8:	f1b3 4f80 	cmp.w	r3, #1073741824	; 0x40000000
 80056cc:	d02c      	beq.n	8005728 <HAL_TIM_Base_Start_IT+0x6c>
 80056ce:	687b      	ldr	r3, [r7, #4]
 80056d0:	681b      	ldr	r3, [r3, #0]
 80056d2:	4a24      	ldr	r2, [pc, #144]	; (8005764 <HAL_TIM_Base_Start_IT+0xa8>)
 80056d4:	4293      	cmp	r3, r2
 80056d6:	d027      	beq.n	8005728 <HAL_TIM_Base_Start_IT+0x6c>
 80056d8:	687b      	ldr	r3, [r7, #4]
 80056da:	681b      	ldr	r3, [r3, #0]
 80056dc:	4a22      	ldr	r2, [pc, #136]	; (8005768 <HAL_TIM_Base_Start_IT+0xac>)
 80056de:	4293      	cmp	r3, r2
 80056e0:	d022      	beq.n	8005728 <HAL_TIM_Base_Start_IT+0x6c>
 80056e2:	687b      	ldr	r3, [r7, #4]
 80056e4:	681b      	ldr	r3, [r3, #0]
 80056e6:	4a21      	ldr	r2, [pc, #132]	; (800576c <HAL_TIM_Base_Start_IT+0xb0>)
 80056e8:	4293      	cmp	r3, r2
 80056ea:	d01d      	beq.n	8005728 <HAL_TIM_Base_Start_IT+0x6c>
 80056ec:	687b      	ldr	r3, [r7, #4]
 80056ee:	681b      	ldr	r3, [r3, #0]
 80056f0:	4a1f      	ldr	r2, [pc, #124]	; (8005770 <HAL_TIM_Base_Start_IT+0xb4>)
 80056f2:	4293      	cmp	r3, r2
 80056f4:	d018      	beq.n	8005728 <HAL_TIM_Base_Start_IT+0x6c>
 80056f6:	687b      	ldr	r3, [r7, #4]
 80056f8:	681b      	ldr	r3, [r3, #0]
 80056fa:	4a1e      	ldr	r2, [pc, #120]	; (8005774 <HAL_TIM_Base_Start_IT+0xb8>)
 80056fc:	4293      	cmp	r3, r2
 80056fe:	d013      	beq.n	8005728 <HAL_TIM_Base_Start_IT+0x6c>
 8005700:	687b      	ldr	r3, [r7, #4]
 8005702:	681b      	ldr	r3, [r3, #0]
 8005704:	4a1c      	ldr	r2, [pc, #112]	; (8005778 <HAL_TIM_Base_Start_IT+0xbc>)
 8005706:	4293      	cmp	r3, r2
 8005708:	d00e      	beq.n	8005728 <HAL_TIM_Base_Start_IT+0x6c>
 800570a:	687b      	ldr	r3, [r7, #4]
 800570c:	681b      	ldr	r3, [r3, #0]
 800570e:	4a1b      	ldr	r2, [pc, #108]	; (800577c <HAL_TIM_Base_Start_IT+0xc0>)
 8005710:	4293      	cmp	r3, r2
 8005712:	d009      	beq.n	8005728 <HAL_TIM_Base_Start_IT+0x6c>
 8005714:	687b      	ldr	r3, [r7, #4]
 8005716:	681b      	ldr	r3, [r3, #0]
 8005718:	4a19      	ldr	r2, [pc, #100]	; (8005780 <HAL_TIM_Base_Start_IT+0xc4>)
 800571a:	4293      	cmp	r3, r2
 800571c:	d004      	beq.n	8005728 <HAL_TIM_Base_Start_IT+0x6c>
 800571e:	f44f 71d9 	mov.w	r1, #434	; 0x1b2
 8005722:	4818      	ldr	r0, [pc, #96]	; (8005784 <HAL_TIM_Base_Start_IT+0xc8>)
 8005724:	f7fb fe2a 	bl	800137c <assert_failed>
 8005728:	687b      	ldr	r3, [r7, #4]
 800572a:	681b      	ldr	r3, [r3, #0]
 800572c:	68da      	ldr	r2, [r3, #12]
 800572e:	687b      	ldr	r3, [r7, #4]
 8005730:	681b      	ldr	r3, [r3, #0]
 8005732:	f042 0201 	orr.w	r2, r2, #1
 8005736:	60da      	str	r2, [r3, #12]
 8005738:	687b      	ldr	r3, [r7, #4]
 800573a:	681b      	ldr	r3, [r3, #0]
 800573c:	689b      	ldr	r3, [r3, #8]
 800573e:	f003 0307 	and.w	r3, r3, #7
 8005742:	60fb      	str	r3, [r7, #12]
 8005744:	68fb      	ldr	r3, [r7, #12]
 8005746:	2b06      	cmp	r3, #6
 8005748:	d007      	beq.n	800575a <HAL_TIM_Base_Start_IT+0x9e>
 800574a:	687b      	ldr	r3, [r7, #4]
 800574c:	681b      	ldr	r3, [r3, #0]
 800574e:	681a      	ldr	r2, [r3, #0]
 8005750:	687b      	ldr	r3, [r7, #4]
 8005752:	681b      	ldr	r3, [r3, #0]
 8005754:	f042 0201 	orr.w	r2, r2, #1
 8005758:	601a      	str	r2, [r3, #0]
 800575a:	2300      	movs	r3, #0
 800575c:	4618      	mov	r0, r3
 800575e:	3710      	adds	r7, #16
 8005760:	46bd      	mov	sp, r7
 8005762:	bd80      	pop	{r7, pc}
 8005764:	40000400 	.word	0x40000400
 8005768:	40000800 	.word	0x40000800
 800576c:	40000c00 	.word	0x40000c00
 8005770:	40001000 	.word	0x40001000
 8005774:	40001400 	.word	0x40001400
 8005778:	40010800 	.word	0x40010800
 800577c:	40010c00 	.word	0x40010c00
 8005780:	40011000 	.word	0x40011000
 8005784:	0800a978 	.word	0x0800a978

08005788 <HAL_TIM_PWM_Init>:
 8005788:	b580      	push	{r7, lr}
 800578a:	b082      	sub	sp, #8
 800578c:	af00      	add	r7, sp, #0
 800578e:	6078      	str	r0, [r7, #4]
 8005790:	687b      	ldr	r3, [r7, #4]
 8005792:	2b00      	cmp	r3, #0
 8005794:	d101      	bne.n	800579a <HAL_TIM_PWM_Init+0x12>
 8005796:	2301      	movs	r3, #1
 8005798:	e088      	b.n	80058ac <HAL_TIM_PWM_Init+0x124>
 800579a:	687b      	ldr	r3, [r7, #4]
 800579c:	681b      	ldr	r3, [r3, #0]
 800579e:	f1b3 4f80 	cmp.w	r3, #1073741824	; 0x40000000
 80057a2:	d02c      	beq.n	80057fe <HAL_TIM_PWM_Init+0x76>
 80057a4:	687b      	ldr	r3, [r7, #4]
 80057a6:	681b      	ldr	r3, [r3, #0]
 80057a8:	4a42      	ldr	r2, [pc, #264]	; (80058b4 <HAL_TIM_PWM_Init+0x12c>)
 80057aa:	4293      	cmp	r3, r2
 80057ac:	d027      	beq.n	80057fe <HAL_TIM_PWM_Init+0x76>
 80057ae:	687b      	ldr	r3, [r7, #4]
 80057b0:	681b      	ldr	r3, [r3, #0]
 80057b2:	4a41      	ldr	r2, [pc, #260]	; (80058b8 <HAL_TIM_PWM_Init+0x130>)
 80057b4:	4293      	cmp	r3, r2
 80057b6:	d022      	beq.n	80057fe <HAL_TIM_PWM_Init+0x76>
 80057b8:	687b      	ldr	r3, [r7, #4]
 80057ba:	681b      	ldr	r3, [r3, #0]
 80057bc:	4a3f      	ldr	r2, [pc, #252]	; (80058bc <HAL_TIM_PWM_Init+0x134>)
 80057be:	4293      	cmp	r3, r2
 80057c0:	d01d      	beq.n	80057fe <HAL_TIM_PWM_Init+0x76>
 80057c2:	687b      	ldr	r3, [r7, #4]
 80057c4:	681b      	ldr	r3, [r3, #0]
 80057c6:	4a3e      	ldr	r2, [pc, #248]	; (80058c0 <HAL_TIM_PWM_Init+0x138>)
 80057c8:	4293      	cmp	r3, r2
 80057ca:	d018      	beq.n	80057fe <HAL_TIM_PWM_Init+0x76>
 80057cc:	687b      	ldr	r3, [r7, #4]
 80057ce:	681b      	ldr	r3, [r3, #0]
 80057d0:	4a3c      	ldr	r2, [pc, #240]	; (80058c4 <HAL_TIM_PWM_Init+0x13c>)
 80057d2:	4293      	cmp	r3, r2
 80057d4:	d013      	beq.n	80057fe <HAL_TIM_PWM_Init+0x76>
 80057d6:	687b      	ldr	r3, [r7, #4]
 80057d8:	681b      	ldr	r3, [r3, #0]
 80057da:	4a3b      	ldr	r2, [pc, #236]	; (80058c8 <HAL_TIM_PWM_Init+0x140>)
 80057dc:	4293      	cmp	r3, r2
 80057de:	d00e      	beq.n	80057fe <HAL_TIM_PWM_Init+0x76>
 80057e0:	687b      	ldr	r3, [r7, #4]
 80057e2:	681b      	ldr	r3, [r3, #0]
 80057e4:	4a39      	ldr	r2, [pc, #228]	; (80058cc <HAL_TIM_PWM_Init+0x144>)
 80057e6:	4293      	cmp	r3, r2
 80057e8:	d009      	beq.n	80057fe <HAL_TIM_PWM_Init+0x76>
 80057ea:	687b      	ldr	r3, [r7, #4]
 80057ec:	681b      	ldr	r3, [r3, #0]
 80057ee:	4a38      	ldr	r2, [pc, #224]	; (80058d0 <HAL_TIM_PWM_Init+0x148>)
 80057f0:	4293      	cmp	r3, r2
 80057f2:	d004      	beq.n	80057fe <HAL_TIM_PWM_Init+0x76>
 80057f4:	f44f 618e 	mov.w	r1, #1136	; 0x470
 80057f8:	4836      	ldr	r0, [pc, #216]	; (80058d4 <HAL_TIM_PWM_Init+0x14c>)
 80057fa:	f7fb fdbf 	bl	800137c <assert_failed>
 80057fe:	687b      	ldr	r3, [r7, #4]
 8005800:	689b      	ldr	r3, [r3, #8]
 8005802:	2b00      	cmp	r3, #0
 8005804:	d014      	beq.n	8005830 <HAL_TIM_PWM_Init+0xa8>
 8005806:	687b      	ldr	r3, [r7, #4]
 8005808:	689b      	ldr	r3, [r3, #8]
 800580a:	2b10      	cmp	r3, #16
 800580c:	d010      	beq.n	8005830 <HAL_TIM_PWM_Init+0xa8>
 800580e:	687b      	ldr	r3, [r7, #4]
 8005810:	689b      	ldr	r3, [r3, #8]
 8005812:	2b20      	cmp	r3, #32
 8005814:	d00c      	beq.n	8005830 <HAL_TIM_PWM_Init+0xa8>
 8005816:	687b      	ldr	r3, [r7, #4]
 8005818:	689b      	ldr	r3, [r3, #8]
 800581a:	2b40      	cmp	r3, #64	; 0x40
 800581c:	d008      	beq.n	8005830 <HAL_TIM_PWM_Init+0xa8>
 800581e:	687b      	ldr	r3, [r7, #4]
 8005820:	689b      	ldr	r3, [r3, #8]
 8005822:	2b60      	cmp	r3, #96	; 0x60
 8005824:	d004      	beq.n	8005830 <HAL_TIM_PWM_Init+0xa8>
 8005826:	f240 4171 	movw	r1, #1137	; 0x471
 800582a:	482a      	ldr	r0, [pc, #168]	; (80058d4 <HAL_TIM_PWM_Init+0x14c>)
 800582c:	f7fb fda6 	bl	800137c <assert_failed>
 8005830:	687b      	ldr	r3, [r7, #4]
 8005832:	691b      	ldr	r3, [r3, #16]
 8005834:	2b00      	cmp	r3, #0
 8005836:	d00e      	beq.n	8005856 <HAL_TIM_PWM_Init+0xce>
 8005838:	687b      	ldr	r3, [r7, #4]
 800583a:	691b      	ldr	r3, [r3, #16]
 800583c:	f5b3 7f80 	cmp.w	r3, #256	; 0x100
 8005840:	d009      	beq.n	8005856 <HAL_TIM_PWM_Init+0xce>
 8005842:	687b      	ldr	r3, [r7, #4]
 8005844:	691b      	ldr	r3, [r3, #16]
 8005846:	f5b3 7f00 	cmp.w	r3, #512	; 0x200
 800584a:	d004      	beq.n	8005856 <HAL_TIM_PWM_Init+0xce>
 800584c:	f240 4172 	movw	r1, #1138	; 0x472
 8005850:	4820      	ldr	r0, [pc, #128]	; (80058d4 <HAL_TIM_PWM_Init+0x14c>)
 8005852:	f7fb fd93 	bl	800137c <assert_failed>
 8005856:	687b      	ldr	r3, [r7, #4]
 8005858:	695b      	ldr	r3, [r3, #20]
 800585a:	2b00      	cmp	r3, #0
 800585c:	d008      	beq.n	8005870 <HAL_TIM_PWM_Init+0xe8>
 800585e:	687b      	ldr	r3, [r7, #4]
 8005860:	695b      	ldr	r3, [r3, #20]
 8005862:	2b80      	cmp	r3, #128	; 0x80
 8005864:	d004      	beq.n	8005870 <HAL_TIM_PWM_Init+0xe8>
 8005866:	f240 4173 	movw	r1, #1139	; 0x473
 800586a:	481a      	ldr	r0, [pc, #104]	; (80058d4 <HAL_TIM_PWM_Init+0x14c>)
 800586c:	f7fb fd86 	bl	800137c <assert_failed>
 8005870:	687b      	ldr	r3, [r7, #4]
 8005872:	f893 3039 	ldrb.w	r3, [r3, #57]	; 0x39
 8005876:	b2db      	uxtb	r3, r3
 8005878:	2b00      	cmp	r3, #0
 800587a:	d106      	bne.n	800588a <HAL_TIM_PWM_Init+0x102>
 800587c:	687b      	ldr	r3, [r7, #4]
 800587e:	2200      	movs	r2, #0
 8005880:	f883 2038 	strb.w	r2, [r3, #56]	; 0x38
 8005884:	6878      	ldr	r0, [r7, #4]
 8005886:	f000 f827 	bl	80058d8 <HAL_TIM_PWM_MspInit>
 800588a:	687b      	ldr	r3, [r7, #4]
 800588c:	2202      	movs	r2, #2
 800588e:	f883 2039 	strb.w	r2, [r3, #57]	; 0x39
 8005892:	687b      	ldr	r3, [r7, #4]
 8005894:	681a      	ldr	r2, [r3, #0]
 8005896:	687b      	ldr	r3, [r7, #4]
 8005898:	3304      	adds	r3, #4
 800589a:	4619      	mov	r1, r3
 800589c:	4610      	mov	r0, r2
 800589e:	f000 fe3b 	bl	8006518 <TIM_Base_SetConfig>
 80058a2:	687b      	ldr	r3, [r7, #4]
 80058a4:	2201      	movs	r2, #1
 80058a6:	f883 2039 	strb.w	r2, [r3, #57]	; 0x39
 80058aa:	2300      	movs	r3, #0
 80058ac:	4618      	mov	r0, r3
 80058ae:	3708      	adds	r7, #8
 80058b0:	46bd      	mov	sp, r7
 80058b2:	bd80      	pop	{r7, pc}
 80058b4:	40000400 	.word	0x40000400
 80058b8:	40000800 	.word	0x40000800
 80058bc:	40000c00 	.word	0x40000c00
 80058c0:	40001000 	.word	0x40001000
 80058c4:	40001400 	.word	0x40001400
 80058c8:	40010800 	.word	0x40010800
 80058cc:	40010c00 	.word	0x40010c00
 80058d0:	40011000 	.word	0x40011000
 80058d4:	0800a978 	.word	0x0800a978

080058d8 <HAL_TIM_PWM_MspInit>:
 80058d8:	b480      	push	{r7}
 80058da:	b083      	sub	sp, #12
 80058dc:	af00      	add	r7, sp, #0
 80058de:	6078      	str	r0, [r7, #4]
 80058e0:	bf00      	nop
 80058e2:	370c      	adds	r7, #12
 80058e4:	46bd      	mov	sp, r7
 80058e6:	bc80      	pop	{r7}
 80058e8:	4770      	bx	lr
	...

080058ec <HAL_TIM_PWM_Start>:
 80058ec:	b580      	push	{r7, lr}
 80058ee:	b084      	sub	sp, #16
 80058f0:	af00      	add	r7, sp, #0
 80058f2:	6078      	str	r0, [r7, #4]
 80058f4:	6039      	str	r1, [r7, #0]
 80058f6:	687b      	ldr	r3, [r7, #4]
 80058f8:	681b      	ldr	r3, [r3, #0]
 80058fa:	f1b3 4f80 	cmp.w	r3, #1073741824	; 0x40000000
 80058fe:	d10b      	bne.n	8005918 <HAL_TIM_PWM_Start+0x2c>
 8005900:	683b      	ldr	r3, [r7, #0]
 8005902:	2b00      	cmp	r3, #0
 8005904:	d05b      	beq.n	80059be <HAL_TIM_PWM_Start+0xd2>
 8005906:	683b      	ldr	r3, [r7, #0]
 8005908:	2b04      	cmp	r3, #4
 800590a:	d058      	beq.n	80059be <HAL_TIM_PWM_Start+0xd2>
 800590c:	683b      	ldr	r3, [r7, #0]
 800590e:	2b08      	cmp	r3, #8
 8005910:	d055      	beq.n	80059be <HAL_TIM_PWM_Start+0xd2>
 8005912:	683b      	ldr	r3, [r7, #0]
 8005914:	2b0c      	cmp	r3, #12
 8005916:	d052      	beq.n	80059be <HAL_TIM_PWM_Start+0xd2>
 8005918:	687b      	ldr	r3, [r7, #4]
 800591a:	681b      	ldr	r3, [r3, #0]
 800591c:	4a36      	ldr	r2, [pc, #216]	; (80059f8 <HAL_TIM_PWM_Start+0x10c>)
 800591e:	4293      	cmp	r3, r2
 8005920:	d10b      	bne.n	800593a <HAL_TIM_PWM_Start+0x4e>
 8005922:	683b      	ldr	r3, [r7, #0]
 8005924:	2b00      	cmp	r3, #0
 8005926:	d04a      	beq.n	80059be <HAL_TIM_PWM_Start+0xd2>
 8005928:	683b      	ldr	r3, [r7, #0]
 800592a:	2b04      	cmp	r3, #4
 800592c:	d047      	beq.n	80059be <HAL_TIM_PWM_Start+0xd2>
 800592e:	683b      	ldr	r3, [r7, #0]
 8005930:	2b08      	cmp	r3, #8
 8005932:	d044      	beq.n	80059be <HAL_TIM_PWM_Start+0xd2>
 8005934:	683b      	ldr	r3, [r7, #0]
 8005936:	2b0c      	cmp	r3, #12
 8005938:	d041      	beq.n	80059be <HAL_TIM_PWM_Start+0xd2>
 800593a:	687b      	ldr	r3, [r7, #4]
 800593c:	681b      	ldr	r3, [r3, #0]
 800593e:	4a2f      	ldr	r2, [pc, #188]	; (80059fc <HAL_TIM_PWM_Start+0x110>)
 8005940:	4293      	cmp	r3, r2
 8005942:	d10b      	bne.n	800595c <HAL_TIM_PWM_Start+0x70>
 8005944:	683b      	ldr	r3, [r7, #0]
 8005946:	2b00      	cmp	r3, #0
 8005948:	d039      	beq.n	80059be <HAL_TIM_PWM_Start+0xd2>
 800594a:	683b      	ldr	r3, [r7, #0]
 800594c:	2b04      	cmp	r3, #4
 800594e:	d036      	beq.n	80059be <HAL_TIM_PWM_Start+0xd2>
 8005950:	683b      	ldr	r3, [r7, #0]
 8005952:	2b08      	cmp	r3, #8
 8005954:	d033      	beq.n	80059be <HAL_TIM_PWM_Start+0xd2>
 8005956:	683b      	ldr	r3, [r7, #0]
 8005958:	2b0c      	cmp	r3, #12
 800595a:	d030      	beq.n	80059be <HAL_TIM_PWM_Start+0xd2>
 800595c:	687b      	ldr	r3, [r7, #4]
 800595e:	681b      	ldr	r3, [r3, #0]
 8005960:	4a27      	ldr	r2, [pc, #156]	; (8005a00 <HAL_TIM_PWM_Start+0x114>)
 8005962:	4293      	cmp	r3, r2
 8005964:	d10b      	bne.n	800597e <HAL_TIM_PWM_Start+0x92>
 8005966:	683b      	ldr	r3, [r7, #0]
 8005968:	2b00      	cmp	r3, #0
 800596a:	d028      	beq.n	80059be <HAL_TIM_PWM_Start+0xd2>
 800596c:	683b      	ldr	r3, [r7, #0]
 800596e:	2b04      	cmp	r3, #4
 8005970:	d025      	beq.n	80059be <HAL_TIM_PWM_Start+0xd2>
 8005972:	683b      	ldr	r3, [r7, #0]
 8005974:	2b08      	cmp	r3, #8
 8005976:	d022      	beq.n	80059be <HAL_TIM_PWM_Start+0xd2>
 8005978:	683b      	ldr	r3, [r7, #0]
 800597a:	2b0c      	cmp	r3, #12
 800597c:	d01f      	beq.n	80059be <HAL_TIM_PWM_Start+0xd2>
 800597e:	687b      	ldr	r3, [r7, #4]
 8005980:	681b      	ldr	r3, [r3, #0]
 8005982:	4a20      	ldr	r2, [pc, #128]	; (8005a04 <HAL_TIM_PWM_Start+0x118>)
 8005984:	4293      	cmp	r3, r2
 8005986:	d105      	bne.n	8005994 <HAL_TIM_PWM_Start+0xa8>
 8005988:	683b      	ldr	r3, [r7, #0]
 800598a:	2b00      	cmp	r3, #0
 800598c:	d017      	beq.n	80059be <HAL_TIM_PWM_Start+0xd2>
 800598e:	683b      	ldr	r3, [r7, #0]
 8005990:	2b04      	cmp	r3, #4
 8005992:	d014      	beq.n	80059be <HAL_TIM_PWM_Start+0xd2>
 8005994:	687b      	ldr	r3, [r7, #4]
 8005996:	681b      	ldr	r3, [r3, #0]
 8005998:	4a1b      	ldr	r2, [pc, #108]	; (8005a08 <HAL_TIM_PWM_Start+0x11c>)
 800599a:	4293      	cmp	r3, r2
 800599c:	d102      	bne.n	80059a4 <HAL_TIM_PWM_Start+0xb8>
 800599e:	683b      	ldr	r3, [r7, #0]
 80059a0:	2b00      	cmp	r3, #0
 80059a2:	d00c      	beq.n	80059be <HAL_TIM_PWM_Start+0xd2>
 80059a4:	687b      	ldr	r3, [r7, #4]
 80059a6:	681b      	ldr	r3, [r3, #0]
 80059a8:	4a18      	ldr	r2, [pc, #96]	; (8005a0c <HAL_TIM_PWM_Start+0x120>)
 80059aa:	4293      	cmp	r3, r2
 80059ac:	d102      	bne.n	80059b4 <HAL_TIM_PWM_Start+0xc8>
 80059ae:	683b      	ldr	r3, [r7, #0]
 80059b0:	2b00      	cmp	r3, #0
 80059b2:	d004      	beq.n	80059be <HAL_TIM_PWM_Start+0xd2>
 80059b4:	f44f 619d 	mov.w	r1, #1256	; 0x4e8
 80059b8:	4815      	ldr	r0, [pc, #84]	; (8005a10 <HAL_TIM_PWM_Start+0x124>)
 80059ba:	f7fb fcdf 	bl	800137c <assert_failed>
 80059be:	687b      	ldr	r3, [r7, #4]
 80059c0:	681b      	ldr	r3, [r3, #0]
 80059c2:	2201      	movs	r2, #1
 80059c4:	6839      	ldr	r1, [r7, #0]
 80059c6:	4618      	mov	r0, r3
 80059c8:	f000 ffa2 	bl	8006910 <TIM_CCxChannelCmd>
 80059cc:	687b      	ldr	r3, [r7, #4]
 80059ce:	681b      	ldr	r3, [r3, #0]
 80059d0:	689b      	ldr	r3, [r3, #8]
 80059d2:	f003 0307 	and.w	r3, r3, #7
 80059d6:	60fb      	str	r3, [r7, #12]
 80059d8:	68fb      	ldr	r3, [r7, #12]
 80059da:	2b06      	cmp	r3, #6
 80059dc:	d007      	beq.n	80059ee <HAL_TIM_PWM_Start+0x102>
 80059de:	687b      	ldr	r3, [r7, #4]
 80059e0:	681b      	ldr	r3, [r3, #0]
 80059e2:	681a      	ldr	r2, [r3, #0]
 80059e4:	687b      	ldr	r3, [r7, #4]
 80059e6:	681b      	ldr	r3, [r3, #0]
 80059e8:	f042 0201 	orr.w	r2, r2, #1
 80059ec:	601a      	str	r2, [r3, #0]
 80059ee:	2300      	movs	r3, #0
 80059f0:	4618      	mov	r0, r3
 80059f2:	3710      	adds	r7, #16
 80059f4:	46bd      	mov	sp, r7
 80059f6:	bd80      	pop	{r7, pc}
 80059f8:	40000400 	.word	0x40000400
 80059fc:	40000800 	.word	0x40000800
 8005a00:	40000c00 	.word	0x40000c00
 8005a04:	40010800 	.word	0x40010800
 8005a08:	40010c00 	.word	0x40010c00
 8005a0c:	40011000 	.word	0x40011000
 8005a10:	0800a978 	.word	0x0800a978

08005a14 <HAL_TIM_IRQHandler>:
 8005a14:	b580      	push	{r7, lr}
 8005a16:	b082      	sub	sp, #8
 8005a18:	af00      	add	r7, sp, #0
 8005a1a:	6078      	str	r0, [r7, #4]
 8005a1c:	687b      	ldr	r3, [r7, #4]
 8005a1e:	681b      	ldr	r3, [r3, #0]
 8005a20:	691b      	ldr	r3, [r3, #16]
 8005a22:	f003 0302 	and.w	r3, r3, #2
 8005a26:	2b02      	cmp	r3, #2
 8005a28:	d122      	bne.n	8005a70 <HAL_TIM_IRQHandler+0x5c>
 8005a2a:	687b      	ldr	r3, [r7, #4]
 8005a2c:	681b      	ldr	r3, [r3, #0]
 8005a2e:	68db      	ldr	r3, [r3, #12]
 8005a30:	f003 0302 	and.w	r3, r3, #2
 8005a34:	2b02      	cmp	r3, #2
 8005a36:	d11b      	bne.n	8005a70 <HAL_TIM_IRQHandler+0x5c>
 8005a38:	687b      	ldr	r3, [r7, #4]
 8005a3a:	681b      	ldr	r3, [r3, #0]
 8005a3c:	f06f 0202 	mvn.w	r2, #2
 8005a40:	611a      	str	r2, [r3, #16]
 8005a42:	687b      	ldr	r3, [r7, #4]
 8005a44:	2201      	movs	r2, #1
 8005a46:	761a      	strb	r2, [r3, #24]
 8005a48:	687b      	ldr	r3, [r7, #4]
 8005a4a:	681b      	ldr	r3, [r3, #0]
 8005a4c:	699b      	ldr	r3, [r3, #24]
 8005a4e:	f003 0303 	and.w	r3, r3, #3
 8005a52:	2b00      	cmp	r3, #0
 8005a54:	d003      	beq.n	8005a5e <HAL_TIM_IRQHandler+0x4a>
 8005a56:	6878      	ldr	r0, [r7, #4]
 8005a58:	f000 fd43 	bl	80064e2 <HAL_TIM_IC_CaptureCallback>
 8005a5c:	e005      	b.n	8005a6a <HAL_TIM_IRQHandler+0x56>
 8005a5e:	6878      	ldr	r0, [r7, #4]
 8005a60:	f000 fd36 	bl	80064d0 <HAL_TIM_OC_DelayElapsedCallback>
 8005a64:	6878      	ldr	r0, [r7, #4]
 8005a66:	f000 fd45 	bl	80064f4 <HAL_TIM_PWM_PulseFinishedCallback>
 8005a6a:	687b      	ldr	r3, [r7, #4]
 8005a6c:	2200      	movs	r2, #0
 8005a6e:	761a      	strb	r2, [r3, #24]
 8005a70:	687b      	ldr	r3, [r7, #4]
 8005a72:	681b      	ldr	r3, [r3, #0]
 8005a74:	691b      	ldr	r3, [r3, #16]
 8005a76:	f003 0304 	and.w	r3, r3, #4
 8005a7a:	2b04      	cmp	r3, #4
 8005a7c:	d122      	bne.n	8005ac4 <HAL_TIM_IRQHandler+0xb0>
 8005a7e:	687b      	ldr	r3, [r7, #4]
 8005a80:	681b      	ldr	r3, [r3, #0]
 8005a82:	68db      	ldr	r3, [r3, #12]
 8005a84:	f003 0304 	and.w	r3, r3, #4
 8005a88:	2b04      	cmp	r3, #4
 8005a8a:	d11b      	bne.n	8005ac4 <HAL_TIM_IRQHandler+0xb0>
 8005a8c:	687b      	ldr	r3, [r7, #4]
 8005a8e:	681b      	ldr	r3, [r3, #0]
 8005a90:	f06f 0204 	mvn.w	r2, #4
 8005a94:	611a      	str	r2, [r3, #16]
 8005a96:	687b      	ldr	r3, [r7, #4]
 8005a98:	2202      	movs	r2, #2
 8005a9a:	761a      	strb	r2, [r3, #24]
 8005a9c:	687b      	ldr	r3, [r7, #4]
 8005a9e:	681b      	ldr	r3, [r3, #0]
 8005aa0:	699b      	ldr	r3, [r3, #24]
 8005aa2:	f403 7340 	and.w	r3, r3, #768	; 0x300
 8005aa6:	2b00      	cmp	r3, #0
 8005aa8:	d003      	beq.n	8005ab2 <HAL_TIM_IRQHandler+0x9e>
 8005aaa:	6878      	ldr	r0, [r7, #4]
 8005aac:	f000 fd19 	bl	80064e2 <HAL_TIM_IC_CaptureCallback>
 8005ab0:	e005      	b.n	8005abe <HAL_TIM_IRQHandler+0xaa>
 8005ab2:	6878      	ldr	r0, [r7, #4]
 8005ab4:	f000 fd0c 	bl	80064d0 <HAL_TIM_OC_DelayElapsedCallback>
 8005ab8:	6878      	ldr	r0, [r7, #4]
 8005aba:	f000 fd1b 	bl	80064f4 <HAL_TIM_PWM_PulseFinishedCallback>
 8005abe:	687b      	ldr	r3, [r7, #4]
 8005ac0:	2200      	movs	r2, #0
 8005ac2:	761a      	strb	r2, [r3, #24]
 8005ac4:	687b      	ldr	r3, [r7, #4]
 8005ac6:	681b      	ldr	r3, [r3, #0]
 8005ac8:	691b      	ldr	r3, [r3, #16]
 8005aca:	f003 0308 	and.w	r3, r3, #8
 8005ace:	2b08      	cmp	r3, #8
 8005ad0:	d122      	bne.n	8005b18 <HAL_TIM_IRQHandler+0x104>
 8005ad2:	687b      	ldr	r3, [r7, #4]
 8005ad4:	681b      	ldr	r3, [r3, #0]
 8005ad6:	68db      	ldr	r3, [r3, #12]
 8005ad8:	f003 0308 	and.w	r3, r3, #8
 8005adc:	2b08      	cmp	r3, #8
 8005ade:	d11b      	bne.n	8005b18 <HAL_TIM_IRQHandler+0x104>
 8005ae0:	687b      	ldr	r3, [r7, #4]
 8005ae2:	681b      	ldr	r3, [r3, #0]
 8005ae4:	f06f 0208 	mvn.w	r2, #8
 8005ae8:	611a      	str	r2, [r3, #16]
 8005aea:	687b      	ldr	r3, [r7, #4]
 8005aec:	2204      	movs	r2, #4
 8005aee:	761a      	strb	r2, [r3, #24]
 8005af0:	687b      	ldr	r3, [r7, #4]
 8005af2:	681b      	ldr	r3, [r3, #0]
 8005af4:	69db      	ldr	r3, [r3, #28]
 8005af6:	f003 0303 	and.w	r3, r3, #3
 8005afa:	2b00      	cmp	r3, #0
 8005afc:	d003      	beq.n	8005b06 <HAL_TIM_IRQHandler+0xf2>
 8005afe:	6878      	ldr	r0, [r7, #4]
 8005b00:	f000 fcef 	bl	80064e2 <HAL_TIM_IC_CaptureCallback>
 8005b04:	e005      	b.n	8005b12 <HAL_TIM_IRQHandler+0xfe>
 8005b06:	6878      	ldr	r0, [r7, #4]
 8005b08:	f000 fce2 	bl	80064d0 <HAL_TIM_OC_DelayElapsedCallback>
 8005b0c:	6878      	ldr	r0, [r7, #4]
 8005b0e:	f000 fcf1 	bl	80064f4 <HAL_TIM_PWM_PulseFinishedCallback>
 8005b12:	687b      	ldr	r3, [r7, #4]
 8005b14:	2200      	movs	r2, #0
 8005b16:	761a      	strb	r2, [r3, #24]
 8005b18:	687b      	ldr	r3, [r7, #4]
 8005b1a:	681b      	ldr	r3, [r3, #0]
 8005b1c:	691b      	ldr	r3, [r3, #16]
 8005b1e:	f003 0310 	and.w	r3, r3, #16
 8005b22:	2b10      	cmp	r3, #16
 8005b24:	d122      	bne.n	8005b6c <HAL_TIM_IRQHandler+0x158>
 8005b26:	687b      	ldr	r3, [r7, #4]
 8005b28:	681b      	ldr	r3, [r3, #0]
 8005b2a:	68db      	ldr	r3, [r3, #12]
 8005b2c:	f003 0310 	and.w	r3, r3, #16
 8005b30:	2b10      	cmp	r3, #16
 8005b32:	d11b      	bne.n	8005b6c <HAL_TIM_IRQHandler+0x158>
 8005b34:	687b      	ldr	r3, [r7, #4]
 8005b36:	681b      	ldr	r3, [r3, #0]
 8005b38:	f06f 0210 	mvn.w	r2, #16
 8005b3c:	611a      	str	r2, [r3, #16]
 8005b3e:	687b      	ldr	r3, [r7, #4]
 8005b40:	2208      	movs	r2, #8
 8005b42:	761a      	strb	r2, [r3, #24]
 8005b44:	687b      	ldr	r3, [r7, #4]
 8005b46:	681b      	ldr	r3, [r3, #0]
 8005b48:	69db      	ldr	r3, [r3, #28]
 8005b4a:	f403 7340 	and.w	r3, r3, #768	; 0x300
 8005b4e:	2b00      	cmp	r3, #0
 8005b50:	d003      	beq.n	8005b5a <HAL_TIM_IRQHandler+0x146>
 8005b52:	6878      	ldr	r0, [r7, #4]
 8005b54:	f000 fcc5 	bl	80064e2 <HAL_TIM_IC_CaptureCallback>
 8005b58:	e005      	b.n	8005b66 <HAL_TIM_IRQHandler+0x152>
 8005b5a:	6878      	ldr	r0, [r7, #4]
 8005b5c:	f000 fcb8 	bl	80064d0 <HAL_TIM_OC_DelayElapsedCallback>
 8005b60:	6878      	ldr	r0, [r7, #4]
 8005b62:	f000 fcc7 	bl	80064f4 <HAL_TIM_PWM_PulseFinishedCallback>
 8005b66:	687b      	ldr	r3, [r7, #4]
 8005b68:	2200      	movs	r2, #0
 8005b6a:	761a      	strb	r2, [r3, #24]
 8005b6c:	687b      	ldr	r3, [r7, #4]
 8005b6e:	681b      	ldr	r3, [r3, #0]
 8005b70:	691b      	ldr	r3, [r3, #16]
 8005b72:	f003 0301 	and.w	r3, r3, #1
 8005b76:	2b01      	cmp	r3, #1
 8005b78:	d10e      	bne.n	8005b98 <HAL_TIM_IRQHandler+0x184>
 8005b7a:	687b      	ldr	r3, [r7, #4]
 8005b7c:	681b      	ldr	r3, [r3, #0]
 8005b7e:	68db      	ldr	r3, [r3, #12]
 8005b80:	f003 0301 	and.w	r3, r3, #1
 8005b84:	2b01      	cmp	r3, #1
 8005b86:	d107      	bne.n	8005b98 <HAL_TIM_IRQHandler+0x184>
 8005b88:	687b      	ldr	r3, [r7, #4]
 8005b8a:	681b      	ldr	r3, [r3, #0]
 8005b8c:	f06f 0201 	mvn.w	r2, #1
 8005b90:	611a      	str	r2, [r3, #16]
 8005b92:	6878      	ldr	r0, [r7, #4]
 8005b94:	f7fb fbcc 	bl	8001330 <HAL_TIM_PeriodElapsedCallback>
 8005b98:	687b      	ldr	r3, [r7, #4]
 8005b9a:	681b      	ldr	r3, [r3, #0]
 8005b9c:	691b      	ldr	r3, [r3, #16]
 8005b9e:	f003 0340 	and.w	r3, r3, #64	; 0x40
 8005ba2:	2b40      	cmp	r3, #64	; 0x40
 8005ba4:	d10e      	bne.n	8005bc4 <HAL_TIM_IRQHandler+0x1b0>
 8005ba6:	687b      	ldr	r3, [r7, #4]
 8005ba8:	681b      	ldr	r3, [r3, #0]
 8005baa:	68db      	ldr	r3, [r3, #12]
 8005bac:	f003 0340 	and.w	r3, r3, #64	; 0x40
 8005bb0:	2b40      	cmp	r3, #64	; 0x40
 8005bb2:	d107      	bne.n	8005bc4 <HAL_TIM_IRQHandler+0x1b0>
 8005bb4:	687b      	ldr	r3, [r7, #4]
 8005bb6:	681b      	ldr	r3, [r3, #0]
 8005bb8:	f06f 0240 	mvn.w	r2, #64	; 0x40
 8005bbc:	611a      	str	r2, [r3, #16]
 8005bbe:	6878      	ldr	r0, [r7, #4]
 8005bc0:	f000 fca1 	bl	8006506 <HAL_TIM_TriggerCallback>
 8005bc4:	bf00      	nop
 8005bc6:	3708      	adds	r7, #8
 8005bc8:	46bd      	mov	sp, r7
 8005bca:	bd80      	pop	{r7, pc}

08005bcc <HAL_TIM_PWM_ConfigChannel>:
 8005bcc:	b580      	push	{r7, lr}
 8005bce:	b084      	sub	sp, #16
 8005bd0:	af00      	add	r7, sp, #0
 8005bd2:	60f8      	str	r0, [r7, #12]
 8005bd4:	60b9      	str	r1, [r7, #8]
 8005bd6:	607a      	str	r2, [r7, #4]
 8005bd8:	687b      	ldr	r3, [r7, #4]
 8005bda:	2b00      	cmp	r3, #0
 8005bdc:	d010      	beq.n	8005c00 <HAL_TIM_PWM_ConfigChannel+0x34>
 8005bde:	687b      	ldr	r3, [r7, #4]
 8005be0:	2b04      	cmp	r3, #4
 8005be2:	d00d      	beq.n	8005c00 <HAL_TIM_PWM_ConfigChannel+0x34>
 8005be4:	687b      	ldr	r3, [r7, #4]
 8005be6:	2b08      	cmp	r3, #8
 8005be8:	d00a      	beq.n	8005c00 <HAL_TIM_PWM_ConfigChannel+0x34>
 8005bea:	687b      	ldr	r3, [r7, #4]
 8005bec:	2b0c      	cmp	r3, #12
 8005bee:	d007      	beq.n	8005c00 <HAL_TIM_PWM_ConfigChannel+0x34>
 8005bf0:	687b      	ldr	r3, [r7, #4]
 8005bf2:	2b3c      	cmp	r3, #60	; 0x3c
 8005bf4:	d004      	beq.n	8005c00 <HAL_TIM_PWM_ConfigChannel+0x34>
 8005bf6:	f640 5169 	movw	r1, #3433	; 0xd69
 8005bfa:	488d      	ldr	r0, [pc, #564]	; (8005e30 <HAL_TIM_PWM_ConfigChannel+0x264>)
 8005bfc:	f7fb fbbe 	bl	800137c <assert_failed>
 8005c00:	68bb      	ldr	r3, [r7, #8]
 8005c02:	681b      	ldr	r3, [r3, #0]
 8005c04:	2b60      	cmp	r3, #96	; 0x60
 8005c06:	d008      	beq.n	8005c1a <HAL_TIM_PWM_ConfigChannel+0x4e>
 8005c08:	68bb      	ldr	r3, [r7, #8]
 8005c0a:	681b      	ldr	r3, [r3, #0]
 8005c0c:	2b70      	cmp	r3, #112	; 0x70
 8005c0e:	d004      	beq.n	8005c1a <HAL_TIM_PWM_ConfigChannel+0x4e>
 8005c10:	f640 516a 	movw	r1, #3434	; 0xd6a
 8005c14:	4886      	ldr	r0, [pc, #536]	; (8005e30 <HAL_TIM_PWM_ConfigChannel+0x264>)
 8005c16:	f7fb fbb1 	bl	800137c <assert_failed>
 8005c1a:	68bb      	ldr	r3, [r7, #8]
 8005c1c:	689b      	ldr	r3, [r3, #8]
 8005c1e:	2b00      	cmp	r3, #0
 8005c20:	d008      	beq.n	8005c34 <HAL_TIM_PWM_ConfigChannel+0x68>
 8005c22:	68bb      	ldr	r3, [r7, #8]
 8005c24:	689b      	ldr	r3, [r3, #8]
 8005c26:	2b02      	cmp	r3, #2
 8005c28:	d004      	beq.n	8005c34 <HAL_TIM_PWM_ConfigChannel+0x68>
 8005c2a:	f640 516b 	movw	r1, #3435	; 0xd6b
 8005c2e:	4880      	ldr	r0, [pc, #512]	; (8005e30 <HAL_TIM_PWM_ConfigChannel+0x264>)
 8005c30:	f7fb fba4 	bl	800137c <assert_failed>
 8005c34:	68bb      	ldr	r3, [r7, #8]
 8005c36:	68db      	ldr	r3, [r3, #12]
 8005c38:	2b00      	cmp	r3, #0
 8005c3a:	d008      	beq.n	8005c4e <HAL_TIM_PWM_ConfigChannel+0x82>
 8005c3c:	68bb      	ldr	r3, [r7, #8]
 8005c3e:	68db      	ldr	r3, [r3, #12]
 8005c40:	2b04      	cmp	r3, #4
 8005c42:	d004      	beq.n	8005c4e <HAL_TIM_PWM_ConfigChannel+0x82>
 8005c44:	f640 516c 	movw	r1, #3436	; 0xd6c
 8005c48:	4879      	ldr	r0, [pc, #484]	; (8005e30 <HAL_TIM_PWM_ConfigChannel+0x264>)
 8005c4a:	f7fb fb97 	bl	800137c <assert_failed>
 8005c4e:	68fb      	ldr	r3, [r7, #12]
 8005c50:	f893 3038 	ldrb.w	r3, [r3, #56]	; 0x38
 8005c54:	2b01      	cmp	r3, #1
 8005c56:	d101      	bne.n	8005c5c <HAL_TIM_PWM_ConfigChannel+0x90>
 8005c58:	2302      	movs	r3, #2
 8005c5a:	e13b      	b.n	8005ed4 <HAL_TIM_PWM_ConfigChannel+0x308>
 8005c5c:	68fb      	ldr	r3, [r7, #12]
 8005c5e:	2201      	movs	r2, #1
 8005c60:	f883 2038 	strb.w	r2, [r3, #56]	; 0x38
 8005c64:	68fb      	ldr	r3, [r7, #12]
 8005c66:	2202      	movs	r2, #2
 8005c68:	f883 2039 	strb.w	r2, [r3, #57]	; 0x39
 8005c6c:	687b      	ldr	r3, [r7, #4]
 8005c6e:	2b0c      	cmp	r3, #12
 8005c70:	f200 8126 	bhi.w	8005ec0 <HAL_TIM_PWM_ConfigChannel+0x2f4>
 8005c74:	a201      	add	r2, pc, #4	; (adr r2, 8005c7c <HAL_TIM_PWM_ConfigChannel+0xb0>)
 8005c76:	f852 f023 	ldr.w	pc, [r2, r3, lsl #2]
 8005c7a:	bf00      	nop
 8005c7c:	08005cb1 	.word	0x08005cb1
 8005c80:	08005ec1 	.word	0x08005ec1
 8005c84:	08005ec1 	.word	0x08005ec1
 8005c88:	08005ec1 	.word	0x08005ec1
 8005c8c:	08005d41 	.word	0x08005d41
 8005c90:	08005ec1 	.word	0x08005ec1
 8005c94:	08005ec1 	.word	0x08005ec1
 8005c98:	08005ec1 	.word	0x08005ec1
 8005c9c:	08005dbf 	.word	0x08005dbf
 8005ca0:	08005ec1 	.word	0x08005ec1
 8005ca4:	08005ec1 	.word	0x08005ec1
 8005ca8:	08005ec1 	.word	0x08005ec1
 8005cac:	08005e4d 	.word	0x08005e4d
 8005cb0:	68fb      	ldr	r3, [r7, #12]
 8005cb2:	681b      	ldr	r3, [r3, #0]
 8005cb4:	f1b3 4f80 	cmp.w	r3, #1073741824	; 0x40000000
 8005cb8:	d022      	beq.n	8005d00 <HAL_TIM_PWM_ConfigChannel+0x134>
 8005cba:	68fb      	ldr	r3, [r7, #12]
 8005cbc:	681b      	ldr	r3, [r3, #0]
 8005cbe:	4a5d      	ldr	r2, [pc, #372]	; (8005e34 <HAL_TIM_PWM_ConfigChannel+0x268>)
 8005cc0:	4293      	cmp	r3, r2
 8005cc2:	d01d      	beq.n	8005d00 <HAL_TIM_PWM_ConfigChannel+0x134>
 8005cc4:	68fb      	ldr	r3, [r7, #12]
 8005cc6:	681b      	ldr	r3, [r3, #0]
 8005cc8:	4a5b      	ldr	r2, [pc, #364]	; (8005e38 <HAL_TIM_PWM_ConfigChannel+0x26c>)
 8005cca:	4293      	cmp	r3, r2
 8005ccc:	d018      	beq.n	8005d00 <HAL_TIM_PWM_ConfigChannel+0x134>
 8005cce:	68fb      	ldr	r3, [r7, #12]
 8005cd0:	681b      	ldr	r3, [r3, #0]
 8005cd2:	4a5a      	ldr	r2, [pc, #360]	; (8005e3c <HAL_TIM_PWM_ConfigChannel+0x270>)
 8005cd4:	4293      	cmp	r3, r2
 8005cd6:	d013      	beq.n	8005d00 <HAL_TIM_PWM_ConfigChannel+0x134>
 8005cd8:	68fb      	ldr	r3, [r7, #12]
 8005cda:	681b      	ldr	r3, [r3, #0]
 8005cdc:	4a58      	ldr	r2, [pc, #352]	; (8005e40 <HAL_TIM_PWM_ConfigChannel+0x274>)
 8005cde:	4293      	cmp	r3, r2
 8005ce0:	d00e      	beq.n	8005d00 <HAL_TIM_PWM_ConfigChannel+0x134>
 8005ce2:	68fb      	ldr	r3, [r7, #12]
 8005ce4:	681b      	ldr	r3, [r3, #0]
 8005ce6:	4a57      	ldr	r2, [pc, #348]	; (8005e44 <HAL_TIM_PWM_ConfigChannel+0x278>)
 8005ce8:	4293      	cmp	r3, r2
 8005cea:	d009      	beq.n	8005d00 <HAL_TIM_PWM_ConfigChannel+0x134>
 8005cec:	68fb      	ldr	r3, [r7, #12]
 8005cee:	681b      	ldr	r3, [r3, #0]
 8005cf0:	4a55      	ldr	r2, [pc, #340]	; (8005e48 <HAL_TIM_PWM_ConfigChannel+0x27c>)
 8005cf2:	4293      	cmp	r3, r2
 8005cf4:	d004      	beq.n	8005d00 <HAL_TIM_PWM_ConfigChannel+0x134>
 8005cf6:	f640 5178 	movw	r1, #3448	; 0xd78
 8005cfa:	484d      	ldr	r0, [pc, #308]	; (8005e30 <HAL_TIM_PWM_ConfigChannel+0x264>)
 8005cfc:	f7fb fb3e 	bl	800137c <assert_failed>
 8005d00:	68fb      	ldr	r3, [r7, #12]
 8005d02:	681b      	ldr	r3, [r3, #0]
 8005d04:	68b9      	ldr	r1, [r7, #8]
 8005d06:	4618      	mov	r0, r3
 8005d08:	f000 fc76 	bl	80065f8 <TIM_OC1_SetConfig>
 8005d0c:	68fb      	ldr	r3, [r7, #12]
 8005d0e:	681b      	ldr	r3, [r3, #0]
 8005d10:	699a      	ldr	r2, [r3, #24]
 8005d12:	68fb      	ldr	r3, [r7, #12]
 8005d14:	681b      	ldr	r3, [r3, #0]
 8005d16:	f042 0208 	orr.w	r2, r2, #8
 8005d1a:	619a      	str	r2, [r3, #24]
 8005d1c:	68fb      	ldr	r3, [r7, #12]
 8005d1e:	681b      	ldr	r3, [r3, #0]
 8005d20:	699a      	ldr	r2, [r3, #24]
 8005d22:	68fb      	ldr	r3, [r7, #12]
 8005d24:	681b      	ldr	r3, [r3, #0]
 8005d26:	f022 0204 	bic.w	r2, r2, #4
 8005d2a:	619a      	str	r2, [r3, #24]
 8005d2c:	68fb      	ldr	r3, [r7, #12]
 8005d2e:	681b      	ldr	r3, [r3, #0]
 8005d30:	6999      	ldr	r1, [r3, #24]
 8005d32:	68bb      	ldr	r3, [r7, #8]
 8005d34:	68da      	ldr	r2, [r3, #12]
 8005d36:	68fb      	ldr	r3, [r7, #12]
 8005d38:	681b      	ldr	r3, [r3, #0]
 8005d3a:	430a      	orrs	r2, r1
 8005d3c:	619a      	str	r2, [r3, #24]
 8005d3e:	e0c0      	b.n	8005ec2 <HAL_TIM_PWM_ConfigChannel+0x2f6>
 8005d40:	68fb      	ldr	r3, [r7, #12]
 8005d42:	681b      	ldr	r3, [r3, #0]
 8005d44:	f1b3 4f80 	cmp.w	r3, #1073741824	; 0x40000000
 8005d48:	d018      	beq.n	8005d7c <HAL_TIM_PWM_ConfigChannel+0x1b0>
 8005d4a:	68fb      	ldr	r3, [r7, #12]
 8005d4c:	681b      	ldr	r3, [r3, #0]
 8005d4e:	4a39      	ldr	r2, [pc, #228]	; (8005e34 <HAL_TIM_PWM_ConfigChannel+0x268>)
 8005d50:	4293      	cmp	r3, r2
 8005d52:	d013      	beq.n	8005d7c <HAL_TIM_PWM_ConfigChannel+0x1b0>
 8005d54:	68fb      	ldr	r3, [r7, #12]
 8005d56:	681b      	ldr	r3, [r3, #0]
 8005d58:	4a37      	ldr	r2, [pc, #220]	; (8005e38 <HAL_TIM_PWM_ConfigChannel+0x26c>)
 8005d5a:	4293      	cmp	r3, r2
 8005d5c:	d00e      	beq.n	8005d7c <HAL_TIM_PWM_ConfigChannel+0x1b0>
 8005d5e:	68fb      	ldr	r3, [r7, #12]
 8005d60:	681b      	ldr	r3, [r3, #0]
 8005d62:	4a36      	ldr	r2, [pc, #216]	; (8005e3c <HAL_TIM_PWM_ConfigChannel+0x270>)
 8005d64:	4293      	cmp	r3, r2
 8005d66:	d009      	beq.n	8005d7c <HAL_TIM_PWM_ConfigChannel+0x1b0>
 8005d68:	68fb      	ldr	r3, [r7, #12]
 8005d6a:	681b      	ldr	r3, [r3, #0]
 8005d6c:	4a34      	ldr	r2, [pc, #208]	; (8005e40 <HAL_TIM_PWM_ConfigChannel+0x274>)
 8005d6e:	4293      	cmp	r3, r2
 8005d70:	d004      	beq.n	8005d7c <HAL_TIM_PWM_ConfigChannel+0x1b0>
 8005d72:	f640 5189 	movw	r1, #3465	; 0xd89
 8005d76:	482e      	ldr	r0, [pc, #184]	; (8005e30 <HAL_TIM_PWM_ConfigChannel+0x264>)
 8005d78:	f7fb fb00 	bl	800137c <assert_failed>
 8005d7c:	68fb      	ldr	r3, [r7, #12]
 8005d7e:	681b      	ldr	r3, [r3, #0]
 8005d80:	68b9      	ldr	r1, [r7, #8]
 8005d82:	4618      	mov	r0, r3
 8005d84:	f000 fc74 	bl	8006670 <TIM_OC2_SetConfig>
 8005d88:	68fb      	ldr	r3, [r7, #12]
 8005d8a:	681b      	ldr	r3, [r3, #0]
 8005d8c:	699a      	ldr	r2, [r3, #24]
 8005d8e:	68fb      	ldr	r3, [r7, #12]
 8005d90:	681b      	ldr	r3, [r3, #0]
 8005d92:	f442 6200 	orr.w	r2, r2, #2048	; 0x800
 8005d96:	619a      	str	r2, [r3, #24]
 8005d98:	68fb      	ldr	r3, [r7, #12]
 8005d9a:	681b      	ldr	r3, [r3, #0]
 8005d9c:	699a      	ldr	r2, [r3, #24]
 8005d9e:	68fb      	ldr	r3, [r7, #12]
 8005da0:	681b      	ldr	r3, [r3, #0]
 8005da2:	f422 6280 	bic.w	r2, r2, #1024	; 0x400
 8005da6:	619a      	str	r2, [r3, #24]
 8005da8:	68fb      	ldr	r3, [r7, #12]
 8005daa:	681b      	ldr	r3, [r3, #0]
 8005dac:	6999      	ldr	r1, [r3, #24]
 8005dae:	68bb      	ldr	r3, [r7, #8]
 8005db0:	68db      	ldr	r3, [r3, #12]
 8005db2:	021a      	lsls	r2, r3, #8
 8005db4:	68fb      	ldr	r3, [r7, #12]
 8005db6:	681b      	ldr	r3, [r3, #0]
 8005db8:	430a      	orrs	r2, r1
 8005dba:	619a      	str	r2, [r3, #24]
 8005dbc:	e081      	b.n	8005ec2 <HAL_TIM_PWM_ConfigChannel+0x2f6>
 8005dbe:	68fb      	ldr	r3, [r7, #12]
 8005dc0:	681b      	ldr	r3, [r3, #0]
 8005dc2:	f1b3 4f80 	cmp.w	r3, #1073741824	; 0x40000000
 8005dc6:	d013      	beq.n	8005df0 <HAL_TIM_PWM_ConfigChannel+0x224>
 8005dc8:	68fb      	ldr	r3, [r7, #12]
 8005dca:	681b      	ldr	r3, [r3, #0]
 8005dcc:	4a19      	ldr	r2, [pc, #100]	; (8005e34 <HAL_TIM_PWM_ConfigChannel+0x268>)
 8005dce:	4293      	cmp	r3, r2
 8005dd0:	d00e      	beq.n	8005df0 <HAL_TIM_PWM_ConfigChannel+0x224>
 8005dd2:	68fb      	ldr	r3, [r7, #12]
 8005dd4:	681b      	ldr	r3, [r3, #0]
 8005dd6:	4a18      	ldr	r2, [pc, #96]	; (8005e38 <HAL_TIM_PWM_ConfigChannel+0x26c>)
 8005dd8:	4293      	cmp	r3, r2
 8005dda:	d009      	beq.n	8005df0 <HAL_TIM_PWM_ConfigChannel+0x224>
 8005ddc:	68fb      	ldr	r3, [r7, #12]
 8005dde:	681b      	ldr	r3, [r3, #0]
 8005de0:	4a16      	ldr	r2, [pc, #88]	; (8005e3c <HAL_TIM_PWM_ConfigChannel+0x270>)
 8005de2:	4293      	cmp	r3, r2
 8005de4:	d004      	beq.n	8005df0 <HAL_TIM_PWM_ConfigChannel+0x224>
 8005de6:	f640 519a 	movw	r1, #3482	; 0xd9a
 8005dea:	4811      	ldr	r0, [pc, #68]	; (8005e30 <HAL_TIM_PWM_ConfigChannel+0x264>)
 8005dec:	f7fb fac6 	bl	800137c <assert_failed>
 8005df0:	68fb      	ldr	r3, [r7, #12]
 8005df2:	681b      	ldr	r3, [r3, #0]
 8005df4:	68b9      	ldr	r1, [r7, #8]
 8005df6:	4618      	mov	r0, r3
 8005df8:	f000 fc78 	bl	80066ec <TIM_OC3_SetConfig>
 8005dfc:	68fb      	ldr	r3, [r7, #12]
 8005dfe:	681b      	ldr	r3, [r3, #0]
 8005e00:	69da      	ldr	r2, [r3, #28]
 8005e02:	68fb      	ldr	r3, [r7, #12]
 8005e04:	681b      	ldr	r3, [r3, #0]
 8005e06:	f042 0208 	orr.w	r2, r2, #8
 8005e0a:	61da      	str	r2, [r3, #28]
 8005e0c:	68fb      	ldr	r3, [r7, #12]
 8005e0e:	681b      	ldr	r3, [r3, #0]
 8005e10:	69da      	ldr	r2, [r3, #28]
 8005e12:	68fb      	ldr	r3, [r7, #12]
 8005e14:	681b      	ldr	r3, [r3, #0]
 8005e16:	f022 0204 	bic.w	r2, r2, #4
 8005e1a:	61da      	str	r2, [r3, #28]
 8005e1c:	68fb      	ldr	r3, [r7, #12]
 8005e1e:	681b      	ldr	r3, [r3, #0]
 8005e20:	69d9      	ldr	r1, [r3, #28]
 8005e22:	68bb      	ldr	r3, [r7, #8]
 8005e24:	68da      	ldr	r2, [r3, #12]
 8005e26:	68fb      	ldr	r3, [r7, #12]
 8005e28:	681b      	ldr	r3, [r3, #0]
 8005e2a:	430a      	orrs	r2, r1
 8005e2c:	61da      	str	r2, [r3, #28]
 8005e2e:	e048      	b.n	8005ec2 <HAL_TIM_PWM_ConfigChannel+0x2f6>
 8005e30:	0800a978 	.word	0x0800a978
 8005e34:	40000400 	.word	0x40000400
 8005e38:	40000800 	.word	0x40000800
 8005e3c:	40000c00 	.word	0x40000c00
 8005e40:	40010800 	.word	0x40010800
 8005e44:	40010c00 	.word	0x40010c00
 8005e48:	40011000 	.word	0x40011000
 8005e4c:	68fb      	ldr	r3, [r7, #12]
 8005e4e:	681b      	ldr	r3, [r3, #0]
 8005e50:	f1b3 4f80 	cmp.w	r3, #1073741824	; 0x40000000
 8005e54:	d013      	beq.n	8005e7e <HAL_TIM_PWM_ConfigChannel+0x2b2>
 8005e56:	68fb      	ldr	r3, [r7, #12]
 8005e58:	681b      	ldr	r3, [r3, #0]
 8005e5a:	4a20      	ldr	r2, [pc, #128]	; (8005edc <HAL_TIM_PWM_ConfigChannel+0x310>)
 8005e5c:	4293      	cmp	r3, r2
 8005e5e:	d00e      	beq.n	8005e7e <HAL_TIM_PWM_ConfigChannel+0x2b2>
 8005e60:	68fb      	ldr	r3, [r7, #12]
 8005e62:	681b      	ldr	r3, [r3, #0]
 8005e64:	4a1e      	ldr	r2, [pc, #120]	; (8005ee0 <HAL_TIM_PWM_ConfigChannel+0x314>)
 8005e66:	4293      	cmp	r3, r2
 8005e68:	d009      	beq.n	8005e7e <HAL_TIM_PWM_ConfigChannel+0x2b2>
 8005e6a:	68fb      	ldr	r3, [r7, #12]
 8005e6c:	681b      	ldr	r3, [r3, #0]
 8005e6e:	4a1d      	ldr	r2, [pc, #116]	; (8005ee4 <HAL_TIM_PWM_ConfigChannel+0x318>)
 8005e70:	4293      	cmp	r3, r2
 8005e72:	d004      	beq.n	8005e7e <HAL_TIM_PWM_ConfigChannel+0x2b2>
 8005e74:	f640 51ab 	movw	r1, #3499	; 0xdab
 8005e78:	481b      	ldr	r0, [pc, #108]	; (8005ee8 <HAL_TIM_PWM_ConfigChannel+0x31c>)
 8005e7a:	f7fb fa7f 	bl	800137c <assert_failed>
 8005e7e:	68fb      	ldr	r3, [r7, #12]
 8005e80:	681b      	ldr	r3, [r3, #0]
 8005e82:	68b9      	ldr	r1, [r7, #8]
 8005e84:	4618      	mov	r0, r3
 8005e86:	f000 fc6e 	bl	8006766 <TIM_OC4_SetConfig>
 8005e8a:	68fb      	ldr	r3, [r7, #12]
 8005e8c:	681b      	ldr	r3, [r3, #0]
 8005e8e:	69da      	ldr	r2, [r3, #28]
 8005e90:	68fb      	ldr	r3, [r7, #12]
 8005e92:	681b      	ldr	r3, [r3, #0]
 8005e94:	f442 6200 	orr.w	r2, r2, #2048	; 0x800
 8005e98:	61da      	str	r2, [r3, #28]
 8005e9a:	68fb      	ldr	r3, [r7, #12]
 8005e9c:	681b      	ldr	r3, [r3, #0]
 8005e9e:	69da      	ldr	r2, [r3, #28]
 8005ea0:	68fb      	ldr	r3, [r7, #12]
 8005ea2:	681b      	ldr	r3, [r3, #0]
 8005ea4:	f422 6280 	bic.w	r2, r2, #1024	; 0x400
 8005ea8:	61da      	str	r2, [r3, #28]
 8005eaa:	68fb      	ldr	r3, [r7, #12]
 8005eac:	681b      	ldr	r3, [r3, #0]
 8005eae:	69d9      	ldr	r1, [r3, #28]
 8005eb0:	68bb      	ldr	r3, [r7, #8]
 8005eb2:	68db      	ldr	r3, [r3, #12]
 8005eb4:	021a      	lsls	r2, r3, #8
 8005eb6:	68fb      	ldr	r3, [r7, #12]
 8005eb8:	681b      	ldr	r3, [r3, #0]
 8005eba:	430a      	orrs	r2, r1
 8005ebc:	61da      	str	r2, [r3, #28]
 8005ebe:	e000      	b.n	8005ec2 <HAL_TIM_PWM_ConfigChannel+0x2f6>
 8005ec0:	bf00      	nop
 8005ec2:	68fb      	ldr	r3, [r7, #12]
 8005ec4:	2201      	movs	r2, #1
 8005ec6:	f883 2039 	strb.w	r2, [r3, #57]	; 0x39
 8005eca:	68fb      	ldr	r3, [r7, #12]
 8005ecc:	2200      	movs	r2, #0
 8005ece:	f883 2038 	strb.w	r2, [r3, #56]	; 0x38
 8005ed2:	2300      	movs	r3, #0
 8005ed4:	4618      	mov	r0, r3
 8005ed6:	3710      	adds	r7, #16
 8005ed8:	46bd      	mov	sp, r7
 8005eda:	bd80      	pop	{r7, pc}
 8005edc:	40000400 	.word	0x40000400
 8005ee0:	40000800 	.word	0x40000800
 8005ee4:	40000c00 	.word	0x40000c00
 8005ee8:	0800a978 	.word	0x0800a978

08005eec <HAL_TIM_ConfigClockSource>:
 8005eec:	b580      	push	{r7, lr}
 8005eee:	b084      	sub	sp, #16
 8005ef0:	af00      	add	r7, sp, #0
 8005ef2:	6078      	str	r0, [r7, #4]
 8005ef4:	6039      	str	r1, [r7, #0]
 8005ef6:	687b      	ldr	r3, [r7, #4]
 8005ef8:	f893 3038 	ldrb.w	r3, [r3, #56]	; 0x38
 8005efc:	2b01      	cmp	r3, #1
 8005efe:	d101      	bne.n	8005f04 <HAL_TIM_ConfigClockSource+0x18>
 8005f00:	2302      	movs	r3, #2
 8005f02:	e2d7      	b.n	80064b4 <HAL_TIM_ConfigClockSource+0x5c8>
 8005f04:	687b      	ldr	r3, [r7, #4]
 8005f06:	2201      	movs	r2, #1
 8005f08:	f883 2038 	strb.w	r2, [r3, #56]	; 0x38
 8005f0c:	687b      	ldr	r3, [r7, #4]
 8005f0e:	2202      	movs	r2, #2
 8005f10:	f883 2039 	strb.w	r2, [r3, #57]	; 0x39
 8005f14:	683b      	ldr	r3, [r7, #0]
 8005f16:	681b      	ldr	r3, [r3, #0]
 8005f18:	f5b3 5f80 	cmp.w	r3, #4096	; 0x1000
 8005f1c:	d029      	beq.n	8005f72 <HAL_TIM_ConfigClockSource+0x86>
 8005f1e:	683b      	ldr	r3, [r7, #0]
 8005f20:	681b      	ldr	r3, [r3, #0]
 8005f22:	f5b3 5f00 	cmp.w	r3, #8192	; 0x2000
 8005f26:	d024      	beq.n	8005f72 <HAL_TIM_ConfigClockSource+0x86>
 8005f28:	683b      	ldr	r3, [r7, #0]
 8005f2a:	681b      	ldr	r3, [r3, #0]
 8005f2c:	2b00      	cmp	r3, #0
 8005f2e:	d020      	beq.n	8005f72 <HAL_TIM_ConfigClockSource+0x86>
 8005f30:	683b      	ldr	r3, [r7, #0]
 8005f32:	681b      	ldr	r3, [r3, #0]
 8005f34:	2b10      	cmp	r3, #16
 8005f36:	d01c      	beq.n	8005f72 <HAL_TIM_ConfigClockSource+0x86>
 8005f38:	683b      	ldr	r3, [r7, #0]
 8005f3a:	681b      	ldr	r3, [r3, #0]
 8005f3c:	2b20      	cmp	r3, #32
 8005f3e:	d018      	beq.n	8005f72 <HAL_TIM_ConfigClockSource+0x86>
 8005f40:	683b      	ldr	r3, [r7, #0]
 8005f42:	681b      	ldr	r3, [r3, #0]
 8005f44:	2b30      	cmp	r3, #48	; 0x30
 8005f46:	d014      	beq.n	8005f72 <HAL_TIM_ConfigClockSource+0x86>
 8005f48:	683b      	ldr	r3, [r7, #0]
 8005f4a:	681b      	ldr	r3, [r3, #0]
 8005f4c:	2b40      	cmp	r3, #64	; 0x40
 8005f4e:	d010      	beq.n	8005f72 <HAL_TIM_ConfigClockSource+0x86>
 8005f50:	683b      	ldr	r3, [r7, #0]
 8005f52:	681b      	ldr	r3, [r3, #0]
 8005f54:	2b50      	cmp	r3, #80	; 0x50
 8005f56:	d00c      	beq.n	8005f72 <HAL_TIM_ConfigClockSource+0x86>
 8005f58:	683b      	ldr	r3, [r7, #0]
 8005f5a:	681b      	ldr	r3, [r3, #0]
 8005f5c:	2b60      	cmp	r3, #96	; 0x60
 8005f5e:	d008      	beq.n	8005f72 <HAL_TIM_ConfigClockSource+0x86>
 8005f60:	683b      	ldr	r3, [r7, #0]
 8005f62:	681b      	ldr	r3, [r3, #0]
 8005f64:	2b70      	cmp	r3, #112	; 0x70
 8005f66:	d004      	beq.n	8005f72 <HAL_TIM_ConfigClockSource+0x86>
 8005f68:	f241 01d0 	movw	r1, #4304	; 0x10d0
 8005f6c:	4874      	ldr	r0, [pc, #464]	; (8006140 <HAL_TIM_ConfigClockSource+0x254>)
 8005f6e:	f7fb fa05 	bl	800137c <assert_failed>
 8005f72:	687b      	ldr	r3, [r7, #4]
 8005f74:	681b      	ldr	r3, [r3, #0]
 8005f76:	689b      	ldr	r3, [r3, #8]
 8005f78:	60fb      	str	r3, [r7, #12]
 8005f7a:	68fb      	ldr	r3, [r7, #12]
 8005f7c:	f023 0377 	bic.w	r3, r3, #119	; 0x77
 8005f80:	60fb      	str	r3, [r7, #12]
 8005f82:	68fb      	ldr	r3, [r7, #12]
 8005f84:	f423 437f 	bic.w	r3, r3, #65280	; 0xff00
 8005f88:	60fb      	str	r3, [r7, #12]
 8005f8a:	687b      	ldr	r3, [r7, #4]
 8005f8c:	681b      	ldr	r3, [r3, #0]
 8005f8e:	68fa      	ldr	r2, [r7, #12]
 8005f90:	609a      	str	r2, [r3, #8]
 8005f92:	683b      	ldr	r3, [r7, #0]
 8005f94:	681b      	ldr	r3, [r3, #0]
 8005f96:	2b40      	cmp	r3, #64	; 0x40
 8005f98:	f000 820a 	beq.w	80063b0 <HAL_TIM_ConfigClockSource+0x4c4>
 8005f9c:	2b40      	cmp	r3, #64	; 0x40
 8005f9e:	d80f      	bhi.n	8005fc0 <HAL_TIM_ConfigClockSource+0xd4>
 8005fa0:	2b10      	cmp	r3, #16
 8005fa2:	f000 8256 	beq.w	8006452 <HAL_TIM_ConfigClockSource+0x566>
 8005fa6:	2b10      	cmp	r3, #16
 8005fa8:	d803      	bhi.n	8005fb2 <HAL_TIM_ConfigClockSource+0xc6>
 8005faa:	2b00      	cmp	r3, #0
 8005fac:	f000 8251 	beq.w	8006452 <HAL_TIM_ConfigClockSource+0x566>
 8005fb0:	e277      	b.n	80064a2 <HAL_TIM_ConfigClockSource+0x5b6>
 8005fb2:	2b20      	cmp	r3, #32
 8005fb4:	f000 824d 	beq.w	8006452 <HAL_TIM_ConfigClockSource+0x566>
 8005fb8:	2b30      	cmp	r3, #48	; 0x30
 8005fba:	f000 824a 	beq.w	8006452 <HAL_TIM_ConfigClockSource+0x566>
 8005fbe:	e270      	b.n	80064a2 <HAL_TIM_ConfigClockSource+0x5b6>
 8005fc0:	2b70      	cmp	r3, #112	; 0x70
 8005fc2:	d04c      	beq.n	800605e <HAL_TIM_ConfigClockSource+0x172>
 8005fc4:	2b70      	cmp	r3, #112	; 0x70
 8005fc6:	d806      	bhi.n	8005fd6 <HAL_TIM_ConfigClockSource+0xea>
 8005fc8:	2b50      	cmp	r3, #80	; 0x50
 8005fca:	f000 8141 	beq.w	8006250 <HAL_TIM_ConfigClockSource+0x364>
 8005fce:	2b60      	cmp	r3, #96	; 0x60
 8005fd0:	f000 818f 	beq.w	80062f2 <HAL_TIM_ConfigClockSource+0x406>
 8005fd4:	e265      	b.n	80064a2 <HAL_TIM_ConfigClockSource+0x5b6>
 8005fd6:	f5b3 5f80 	cmp.w	r3, #4096	; 0x1000
 8005fda:	d004      	beq.n	8005fe6 <HAL_TIM_ConfigClockSource+0xfa>
 8005fdc:	f5b3 5f00 	cmp.w	r3, #8192	; 0x2000
 8005fe0:	f000 80c0 	beq.w	8006164 <HAL_TIM_ConfigClockSource+0x278>
 8005fe4:	e25d      	b.n	80064a2 <HAL_TIM_ConfigClockSource+0x5b6>
 8005fe6:	687b      	ldr	r3, [r7, #4]
 8005fe8:	681b      	ldr	r3, [r3, #0]
 8005fea:	f1b3 4f80 	cmp.w	r3, #1073741824	; 0x40000000
 8005fee:	f000 8257 	beq.w	80064a0 <HAL_TIM_ConfigClockSource+0x5b4>
 8005ff2:	687b      	ldr	r3, [r7, #4]
 8005ff4:	681b      	ldr	r3, [r3, #0]
 8005ff6:	4a53      	ldr	r2, [pc, #332]	; (8006144 <HAL_TIM_ConfigClockSource+0x258>)
 8005ff8:	4293      	cmp	r3, r2
 8005ffa:	f000 8251 	beq.w	80064a0 <HAL_TIM_ConfigClockSource+0x5b4>
 8005ffe:	687b      	ldr	r3, [r7, #4]
 8006000:	681b      	ldr	r3, [r3, #0]
 8006002:	4a51      	ldr	r2, [pc, #324]	; (8006148 <HAL_TIM_ConfigClockSource+0x25c>)
 8006004:	4293      	cmp	r3, r2
 8006006:	f000 824b 	beq.w	80064a0 <HAL_TIM_ConfigClockSource+0x5b4>
 800600a:	687b      	ldr	r3, [r7, #4]
 800600c:	681b      	ldr	r3, [r3, #0]
 800600e:	4a4f      	ldr	r2, [pc, #316]	; (800614c <HAL_TIM_ConfigClockSource+0x260>)
 8006010:	4293      	cmp	r3, r2
 8006012:	f000 8245 	beq.w	80064a0 <HAL_TIM_ConfigClockSource+0x5b4>
 8006016:	687b      	ldr	r3, [r7, #4]
 8006018:	681b      	ldr	r3, [r3, #0]
 800601a:	4a4d      	ldr	r2, [pc, #308]	; (8006150 <HAL_TIM_ConfigClockSource+0x264>)
 800601c:	4293      	cmp	r3, r2
 800601e:	f000 823f 	beq.w	80064a0 <HAL_TIM_ConfigClockSource+0x5b4>
 8006022:	687b      	ldr	r3, [r7, #4]
 8006024:	681b      	ldr	r3, [r3, #0]
 8006026:	4a4b      	ldr	r2, [pc, #300]	; (8006154 <HAL_TIM_ConfigClockSource+0x268>)
 8006028:	4293      	cmp	r3, r2
 800602a:	f000 8239 	beq.w	80064a0 <HAL_TIM_ConfigClockSource+0x5b4>
 800602e:	687b      	ldr	r3, [r7, #4]
 8006030:	681b      	ldr	r3, [r3, #0]
 8006032:	4a49      	ldr	r2, [pc, #292]	; (8006158 <HAL_TIM_ConfigClockSource+0x26c>)
 8006034:	4293      	cmp	r3, r2
 8006036:	f000 8233 	beq.w	80064a0 <HAL_TIM_ConfigClockSource+0x5b4>
 800603a:	687b      	ldr	r3, [r7, #4]
 800603c:	681b      	ldr	r3, [r3, #0]
 800603e:	4a47      	ldr	r2, [pc, #284]	; (800615c <HAL_TIM_ConfigClockSource+0x270>)
 8006040:	4293      	cmp	r3, r2
 8006042:	f000 822d 	beq.w	80064a0 <HAL_TIM_ConfigClockSource+0x5b4>
 8006046:	687b      	ldr	r3, [r7, #4]
 8006048:	681b      	ldr	r3, [r3, #0]
 800604a:	4a45      	ldr	r2, [pc, #276]	; (8006160 <HAL_TIM_ConfigClockSource+0x274>)
 800604c:	4293      	cmp	r3, r2
 800604e:	f000 8227 	beq.w	80064a0 <HAL_TIM_ConfigClockSource+0x5b4>
 8006052:	f241 01dc 	movw	r1, #4316	; 0x10dc
 8006056:	483a      	ldr	r0, [pc, #232]	; (8006140 <HAL_TIM_ConfigClockSource+0x254>)
 8006058:	f7fb f990 	bl	800137c <assert_failed>
 800605c:	e220      	b.n	80064a0 <HAL_TIM_ConfigClockSource+0x5b4>
 800605e:	687b      	ldr	r3, [r7, #4]
 8006060:	681b      	ldr	r3, [r3, #0]
 8006062:	f1b3 4f80 	cmp.w	r3, #1073741824	; 0x40000000
 8006066:	d018      	beq.n	800609a <HAL_TIM_ConfigClockSource+0x1ae>
 8006068:	687b      	ldr	r3, [r7, #4]
 800606a:	681b      	ldr	r3, [r3, #0]
 800606c:	4a35      	ldr	r2, [pc, #212]	; (8006144 <HAL_TIM_ConfigClockSource+0x258>)
 800606e:	4293      	cmp	r3, r2
 8006070:	d013      	beq.n	800609a <HAL_TIM_ConfigClockSource+0x1ae>
 8006072:	687b      	ldr	r3, [r7, #4]
 8006074:	681b      	ldr	r3, [r3, #0]
 8006076:	4a34      	ldr	r2, [pc, #208]	; (8006148 <HAL_TIM_ConfigClockSource+0x25c>)
 8006078:	4293      	cmp	r3, r2
 800607a:	d00e      	beq.n	800609a <HAL_TIM_ConfigClockSource+0x1ae>
 800607c:	687b      	ldr	r3, [r7, #4]
 800607e:	681b      	ldr	r3, [r3, #0]
 8006080:	4a32      	ldr	r2, [pc, #200]	; (800614c <HAL_TIM_ConfigClockSource+0x260>)
 8006082:	4293      	cmp	r3, r2
 8006084:	d009      	beq.n	800609a <HAL_TIM_ConfigClockSource+0x1ae>
 8006086:	687b      	ldr	r3, [r7, #4]
 8006088:	681b      	ldr	r3, [r3, #0]
 800608a:	4a33      	ldr	r2, [pc, #204]	; (8006158 <HAL_TIM_ConfigClockSource+0x26c>)
 800608c:	4293      	cmp	r3, r2
 800608e:	d004      	beq.n	800609a <HAL_TIM_ConfigClockSource+0x1ae>
 8006090:	f241 01e3 	movw	r1, #4323	; 0x10e3
 8006094:	482a      	ldr	r0, [pc, #168]	; (8006140 <HAL_TIM_ConfigClockSource+0x254>)
 8006096:	f7fb f971 	bl	800137c <assert_failed>
 800609a:	683b      	ldr	r3, [r7, #0]
 800609c:	689b      	ldr	r3, [r3, #8]
 800609e:	2b00      	cmp	r3, #0
 80060a0:	d013      	beq.n	80060ca <HAL_TIM_ConfigClockSource+0x1de>
 80060a2:	683b      	ldr	r3, [r7, #0]
 80060a4:	689b      	ldr	r3, [r3, #8]
 80060a6:	f5b3 5f80 	cmp.w	r3, #4096	; 0x1000
 80060aa:	d00e      	beq.n	80060ca <HAL_TIM_ConfigClockSource+0x1de>
 80060ac:	683b      	ldr	r3, [r7, #0]
 80060ae:	689b      	ldr	r3, [r3, #8]
 80060b0:	f5b3 5f00 	cmp.w	r3, #8192	; 0x2000
 80060b4:	d009      	beq.n	80060ca <HAL_TIM_ConfigClockSource+0x1de>
 80060b6:	683b      	ldr	r3, [r7, #0]
 80060b8:	689b      	ldr	r3, [r3, #8]
 80060ba:	f5b3 5f40 	cmp.w	r3, #12288	; 0x3000
 80060be:	d004      	beq.n	80060ca <HAL_TIM_ConfigClockSource+0x1de>
 80060c0:	f241 01e6 	movw	r1, #4326	; 0x10e6
 80060c4:	481e      	ldr	r0, [pc, #120]	; (8006140 <HAL_TIM_ConfigClockSource+0x254>)
 80060c6:	f7fb f959 	bl	800137c <assert_failed>
 80060ca:	683b      	ldr	r3, [r7, #0]
 80060cc:	685b      	ldr	r3, [r3, #4]
 80060ce:	f5b3 4f00 	cmp.w	r3, #32768	; 0x8000
 80060d2:	d014      	beq.n	80060fe <HAL_TIM_ConfigClockSource+0x212>
 80060d4:	683b      	ldr	r3, [r7, #0]
 80060d6:	685b      	ldr	r3, [r3, #4]
 80060d8:	2b00      	cmp	r3, #0
 80060da:	d010      	beq.n	80060fe <HAL_TIM_ConfigClockSource+0x212>
 80060dc:	683b      	ldr	r3, [r7, #0]
 80060de:	685b      	ldr	r3, [r3, #4]
 80060e0:	2b00      	cmp	r3, #0
 80060e2:	d00c      	beq.n	80060fe <HAL_TIM_ConfigClockSource+0x212>
 80060e4:	683b      	ldr	r3, [r7, #0]
 80060e6:	685b      	ldr	r3, [r3, #4]
 80060e8:	2b02      	cmp	r3, #2
 80060ea:	d008      	beq.n	80060fe <HAL_TIM_ConfigClockSource+0x212>
 80060ec:	683b      	ldr	r3, [r7, #0]
 80060ee:	685b      	ldr	r3, [r3, #4]
 80060f0:	2b0a      	cmp	r3, #10
 80060f2:	d004      	beq.n	80060fe <HAL_TIM_ConfigClockSource+0x212>
 80060f4:	f241 01e7 	movw	r1, #4327	; 0x10e7
 80060f8:	4811      	ldr	r0, [pc, #68]	; (8006140 <HAL_TIM_ConfigClockSource+0x254>)
 80060fa:	f7fb f93f 	bl	800137c <assert_failed>
 80060fe:	683b      	ldr	r3, [r7, #0]
 8006100:	68db      	ldr	r3, [r3, #12]
 8006102:	2b0f      	cmp	r3, #15
 8006104:	d904      	bls.n	8006110 <HAL_TIM_ConfigClockSource+0x224>
 8006106:	f241 01e8 	movw	r1, #4328	; 0x10e8
 800610a:	480d      	ldr	r0, [pc, #52]	; (8006140 <HAL_TIM_ConfigClockSource+0x254>)
 800610c:	f7fb f936 	bl	800137c <assert_failed>
 8006110:	687b      	ldr	r3, [r7, #4]
 8006112:	6818      	ldr	r0, [r3, #0]
 8006114:	683b      	ldr	r3, [r7, #0]
 8006116:	6899      	ldr	r1, [r3, #8]
 8006118:	683b      	ldr	r3, [r7, #0]
 800611a:	685a      	ldr	r2, [r3, #4]
 800611c:	683b      	ldr	r3, [r7, #0]
 800611e:	68db      	ldr	r3, [r3, #12]
 8006120:	f000 fbd6 	bl	80068d0 <TIM_ETR_SetConfig>
 8006124:	687b      	ldr	r3, [r7, #4]
 8006126:	681b      	ldr	r3, [r3, #0]
 8006128:	689b      	ldr	r3, [r3, #8]
 800612a:	60fb      	str	r3, [r7, #12]
 800612c:	68fb      	ldr	r3, [r7, #12]
 800612e:	f043 0377 	orr.w	r3, r3, #119	; 0x77
 8006132:	60fb      	str	r3, [r7, #12]
 8006134:	687b      	ldr	r3, [r7, #4]
 8006136:	681b      	ldr	r3, [r3, #0]
 8006138:	68fa      	ldr	r2, [r7, #12]
 800613a:	609a      	str	r2, [r3, #8]
 800613c:	e1b1      	b.n	80064a2 <HAL_TIM_ConfigClockSource+0x5b6>
 800613e:	bf00      	nop
 8006140:	0800a978 	.word	0x0800a978
 8006144:	40000400 	.word	0x40000400
 8006148:	40000800 	.word	0x40000800
 800614c:	40000c00 	.word	0x40000c00
 8006150:	40001000 	.word	0x40001000
 8006154:	40001400 	.word	0x40001400
 8006158:	40010800 	.word	0x40010800
 800615c:	40010c00 	.word	0x40010c00
 8006160:	40011000 	.word	0x40011000
 8006164:	687b      	ldr	r3, [r7, #4]
 8006166:	681b      	ldr	r3, [r3, #0]
 8006168:	f1b3 4f80 	cmp.w	r3, #1073741824	; 0x40000000
 800616c:	d022      	beq.n	80061b4 <HAL_TIM_ConfigClockSource+0x2c8>
 800616e:	687b      	ldr	r3, [r7, #4]
 8006170:	681b      	ldr	r3, [r3, #0]
 8006172:	4a88      	ldr	r2, [pc, #544]	; (8006394 <HAL_TIM_ConfigClockSource+0x4a8>)
 8006174:	4293      	cmp	r3, r2
 8006176:	d01d      	beq.n	80061b4 <HAL_TIM_ConfigClockSource+0x2c8>
 8006178:	687b      	ldr	r3, [r7, #4]
 800617a:	681b      	ldr	r3, [r3, #0]
 800617c:	4a86      	ldr	r2, [pc, #536]	; (8006398 <HAL_TIM_ConfigClockSource+0x4ac>)
 800617e:	4293      	cmp	r3, r2
 8006180:	d018      	beq.n	80061b4 <HAL_TIM_ConfigClockSource+0x2c8>
 8006182:	687b      	ldr	r3, [r7, #4]
 8006184:	681b      	ldr	r3, [r3, #0]
 8006186:	4a85      	ldr	r2, [pc, #532]	; (800639c <HAL_TIM_ConfigClockSource+0x4b0>)
 8006188:	4293      	cmp	r3, r2
 800618a:	d013      	beq.n	80061b4 <HAL_TIM_ConfigClockSource+0x2c8>
 800618c:	687b      	ldr	r3, [r7, #4]
 800618e:	681b      	ldr	r3, [r3, #0]
 8006190:	4a83      	ldr	r2, [pc, #524]	; (80063a0 <HAL_TIM_ConfigClockSource+0x4b4>)
 8006192:	4293      	cmp	r3, r2
 8006194:	d00e      	beq.n	80061b4 <HAL_TIM_ConfigClockSource+0x2c8>
 8006196:	687b      	ldr	r3, [r7, #4]
 8006198:	681b      	ldr	r3, [r3, #0]
 800619a:	4a82      	ldr	r2, [pc, #520]	; (80063a4 <HAL_TIM_ConfigClockSource+0x4b8>)
 800619c:	4293      	cmp	r3, r2
 800619e:	d009      	beq.n	80061b4 <HAL_TIM_ConfigClockSource+0x2c8>
 80061a0:	687b      	ldr	r3, [r7, #4]
 80061a2:	681b      	ldr	r3, [r3, #0]
 80061a4:	4a80      	ldr	r2, [pc, #512]	; (80063a8 <HAL_TIM_ConfigClockSource+0x4bc>)
 80061a6:	4293      	cmp	r3, r2
 80061a8:	d004      	beq.n	80061b4 <HAL_TIM_ConfigClockSource+0x2c8>
 80061aa:	f241 01fb 	movw	r1, #4347	; 0x10fb
 80061ae:	487f      	ldr	r0, [pc, #508]	; (80063ac <HAL_TIM_ConfigClockSource+0x4c0>)
 80061b0:	f7fb f8e4 	bl	800137c <assert_failed>
 80061b4:	683b      	ldr	r3, [r7, #0]
 80061b6:	689b      	ldr	r3, [r3, #8]
 80061b8:	2b00      	cmp	r3, #0
 80061ba:	d013      	beq.n	80061e4 <HAL_TIM_ConfigClockSource+0x2f8>
 80061bc:	683b      	ldr	r3, [r7, #0]
 80061be:	689b      	ldr	r3, [r3, #8]
 80061c0:	f5b3 5f80 	cmp.w	r3, #4096	; 0x1000
 80061c4:	d00e      	beq.n	80061e4 <HAL_TIM_ConfigClockSource+0x2f8>
 80061c6:	683b      	ldr	r3, [r7, #0]
 80061c8:	689b      	ldr	r3, [r3, #8]
 80061ca:	f5b3 5f00 	cmp.w	r3, #8192	; 0x2000
 80061ce:	d009      	beq.n	80061e4 <HAL_TIM_ConfigClockSource+0x2f8>
 80061d0:	683b      	ldr	r3, [r7, #0]
 80061d2:	689b      	ldr	r3, [r3, #8]
 80061d4:	f5b3 5f40 	cmp.w	r3, #12288	; 0x3000
 80061d8:	d004      	beq.n	80061e4 <HAL_TIM_ConfigClockSource+0x2f8>
 80061da:	f241 01fe 	movw	r1, #4350	; 0x10fe
 80061de:	4873      	ldr	r0, [pc, #460]	; (80063ac <HAL_TIM_ConfigClockSource+0x4c0>)
 80061e0:	f7fb f8cc 	bl	800137c <assert_failed>
 80061e4:	683b      	ldr	r3, [r7, #0]
 80061e6:	685b      	ldr	r3, [r3, #4]
 80061e8:	f5b3 4f00 	cmp.w	r3, #32768	; 0x8000
 80061ec:	d014      	beq.n	8006218 <HAL_TIM_ConfigClockSource+0x32c>
 80061ee:	683b      	ldr	r3, [r7, #0]
 80061f0:	685b      	ldr	r3, [r3, #4]
 80061f2:	2b00      	cmp	r3, #0
 80061f4:	d010      	beq.n	8006218 <HAL_TIM_ConfigClockSource+0x32c>
 80061f6:	683b      	ldr	r3, [r7, #0]
 80061f8:	685b      	ldr	r3, [r3, #4]
 80061fa:	2b00      	cmp	r3, #0
 80061fc:	d00c      	beq.n	8006218 <HAL_TIM_ConfigClockSource+0x32c>
 80061fe:	683b      	ldr	r3, [r7, #0]
 8006200:	685b      	ldr	r3, [r3, #4]
 8006202:	2b02      	cmp	r3, #2
 8006204:	d008      	beq.n	8006218 <HAL_TIM_ConfigClockSource+0x32c>
 8006206:	683b      	ldr	r3, [r7, #0]
 8006208:	685b      	ldr	r3, [r3, #4]
 800620a:	2b0a      	cmp	r3, #10
 800620c:	d004      	beq.n	8006218 <HAL_TIM_ConfigClockSource+0x32c>
 800620e:	f241 01ff 	movw	r1, #4351	; 0x10ff
 8006212:	4866      	ldr	r0, [pc, #408]	; (80063ac <HAL_TIM_ConfigClockSource+0x4c0>)
 8006214:	f7fb f8b2 	bl	800137c <assert_failed>
 8006218:	683b      	ldr	r3, [r7, #0]
 800621a:	68db      	ldr	r3, [r3, #12]
 800621c:	2b0f      	cmp	r3, #15
 800621e:	d904      	bls.n	800622a <HAL_TIM_ConfigClockSource+0x33e>
 8006220:	f44f 5188 	mov.w	r1, #4352	; 0x1100
 8006224:	4861      	ldr	r0, [pc, #388]	; (80063ac <HAL_TIM_ConfigClockSource+0x4c0>)
 8006226:	f7fb f8a9 	bl	800137c <assert_failed>
 800622a:	687b      	ldr	r3, [r7, #4]
 800622c:	6818      	ldr	r0, [r3, #0]
 800622e:	683b      	ldr	r3, [r7, #0]
 8006230:	6899      	ldr	r1, [r3, #8]
 8006232:	683b      	ldr	r3, [r7, #0]
 8006234:	685a      	ldr	r2, [r3, #4]
 8006236:	683b      	ldr	r3, [r7, #0]
 8006238:	68db      	ldr	r3, [r3, #12]
 800623a:	f000 fb49 	bl	80068d0 <TIM_ETR_SetConfig>
 800623e:	687b      	ldr	r3, [r7, #4]
 8006240:	681b      	ldr	r3, [r3, #0]
 8006242:	689a      	ldr	r2, [r3, #8]
 8006244:	687b      	ldr	r3, [r7, #4]
 8006246:	681b      	ldr	r3, [r3, #0]
 8006248:	f442 4280 	orr.w	r2, r2, #16384	; 0x4000
 800624c:	609a      	str	r2, [r3, #8]
 800624e:	e128      	b.n	80064a2 <HAL_TIM_ConfigClockSource+0x5b6>
 8006250:	687b      	ldr	r3, [r7, #4]
 8006252:	681b      	ldr	r3, [r3, #0]
 8006254:	f1b3 4f80 	cmp.w	r3, #1073741824	; 0x40000000
 8006258:	d018      	beq.n	800628c <HAL_TIM_ConfigClockSource+0x3a0>
 800625a:	687b      	ldr	r3, [r7, #4]
 800625c:	681b      	ldr	r3, [r3, #0]
 800625e:	4a4d      	ldr	r2, [pc, #308]	; (8006394 <HAL_TIM_ConfigClockSource+0x4a8>)
 8006260:	4293      	cmp	r3, r2
 8006262:	d013      	beq.n	800628c <HAL_TIM_ConfigClockSource+0x3a0>
 8006264:	687b      	ldr	r3, [r7, #4]
 8006266:	681b      	ldr	r3, [r3, #0]
 8006268:	4a4b      	ldr	r2, [pc, #300]	; (8006398 <HAL_TIM_ConfigClockSource+0x4ac>)
 800626a:	4293      	cmp	r3, r2
 800626c:	d00e      	beq.n	800628c <HAL_TIM_ConfigClockSource+0x3a0>
 800626e:	687b      	ldr	r3, [r7, #4]
 8006270:	681b      	ldr	r3, [r3, #0]
 8006272:	4a4a      	ldr	r2, [pc, #296]	; (800639c <HAL_TIM_ConfigClockSource+0x4b0>)
 8006274:	4293      	cmp	r3, r2
 8006276:	d009      	beq.n	800628c <HAL_TIM_ConfigClockSource+0x3a0>
 8006278:	687b      	ldr	r3, [r7, #4]
 800627a:	681b      	ldr	r3, [r3, #0]
 800627c:	4a48      	ldr	r2, [pc, #288]	; (80063a0 <HAL_TIM_ConfigClockSource+0x4b4>)
 800627e:	4293      	cmp	r3, r2
 8006280:	d004      	beq.n	800628c <HAL_TIM_ConfigClockSource+0x3a0>
 8006282:	f241 110f 	movw	r1, #4367	; 0x110f
 8006286:	4849      	ldr	r0, [pc, #292]	; (80063ac <HAL_TIM_ConfigClockSource+0x4c0>)
 8006288:	f7fb f878 	bl	800137c <assert_failed>
 800628c:	683b      	ldr	r3, [r7, #0]
 800628e:	685b      	ldr	r3, [r3, #4]
 8006290:	f5b3 4f00 	cmp.w	r3, #32768	; 0x8000
 8006294:	d014      	beq.n	80062c0 <HAL_TIM_ConfigClockSource+0x3d4>
 8006296:	683b      	ldr	r3, [r7, #0]
 8006298:	685b      	ldr	r3, [r3, #4]
 800629a:	2b00      	cmp	r3, #0
 800629c:	d010      	beq.n	80062c0 <HAL_TIM_ConfigClockSource+0x3d4>
 800629e:	683b      	ldr	r3, [r7, #0]
 80062a0:	685b      	ldr	r3, [r3, #4]
 80062a2:	2b00      	cmp	r3, #0
 80062a4:	d00c      	beq.n	80062c0 <HAL_TIM_ConfigClockSource+0x3d4>
 80062a6:	683b      	ldr	r3, [r7, #0]
 80062a8:	685b      	ldr	r3, [r3, #4]
 80062aa:	2b02      	cmp	r3, #2
 80062ac:	d008      	beq.n	80062c0 <HAL_TIM_ConfigClockSource+0x3d4>
 80062ae:	683b      	ldr	r3, [r7, #0]
 80062b0:	685b      	ldr	r3, [r3, #4]
 80062b2:	2b0a      	cmp	r3, #10
 80062b4:	d004      	beq.n	80062c0 <HAL_TIM_ConfigClockSource+0x3d4>
 80062b6:	f241 1112 	movw	r1, #4370	; 0x1112
 80062ba:	483c      	ldr	r0, [pc, #240]	; (80063ac <HAL_TIM_ConfigClockSource+0x4c0>)
 80062bc:	f7fb f85e 	bl	800137c <assert_failed>
 80062c0:	683b      	ldr	r3, [r7, #0]
 80062c2:	68db      	ldr	r3, [r3, #12]
 80062c4:	2b0f      	cmp	r3, #15
 80062c6:	d904      	bls.n	80062d2 <HAL_TIM_ConfigClockSource+0x3e6>
 80062c8:	f241 1113 	movw	r1, #4371	; 0x1113
 80062cc:	4837      	ldr	r0, [pc, #220]	; (80063ac <HAL_TIM_ConfigClockSource+0x4c0>)
 80062ce:	f7fb f855 	bl	800137c <assert_failed>
 80062d2:	687b      	ldr	r3, [r7, #4]
 80062d4:	6818      	ldr	r0, [r3, #0]
 80062d6:	683b      	ldr	r3, [r7, #0]
 80062d8:	6859      	ldr	r1, [r3, #4]
 80062da:	683b      	ldr	r3, [r7, #0]
 80062dc:	68db      	ldr	r3, [r3, #12]
 80062de:	461a      	mov	r2, r3
 80062e0:	f000 fa7f 	bl	80067e2 <TIM_TI1_ConfigInputStage>
 80062e4:	687b      	ldr	r3, [r7, #4]
 80062e6:	681b      	ldr	r3, [r3, #0]
 80062e8:	2150      	movs	r1, #80	; 0x50
 80062ea:	4618      	mov	r0, r3
 80062ec:	f000 fad6 	bl	800689c <TIM_ITRx_SetConfig>
 80062f0:	e0d7      	b.n	80064a2 <HAL_TIM_ConfigClockSource+0x5b6>
 80062f2:	687b      	ldr	r3, [r7, #4]
 80062f4:	681b      	ldr	r3, [r3, #0]
 80062f6:	f1b3 4f80 	cmp.w	r3, #1073741824	; 0x40000000
 80062fa:	d018      	beq.n	800632e <HAL_TIM_ConfigClockSource+0x442>
 80062fc:	687b      	ldr	r3, [r7, #4]
 80062fe:	681b      	ldr	r3, [r3, #0]
 8006300:	4a24      	ldr	r2, [pc, #144]	; (8006394 <HAL_TIM_ConfigClockSource+0x4a8>)
 8006302:	4293      	cmp	r3, r2
 8006304:	d013      	beq.n	800632e <HAL_TIM_ConfigClockSource+0x442>
 8006306:	687b      	ldr	r3, [r7, #4]
 8006308:	681b      	ldr	r3, [r3, #0]
 800630a:	4a23      	ldr	r2, [pc, #140]	; (8006398 <HAL_TIM_ConfigClockSource+0x4ac>)
 800630c:	4293      	cmp	r3, r2
 800630e:	d00e      	beq.n	800632e <HAL_TIM_ConfigClockSource+0x442>
 8006310:	687b      	ldr	r3, [r7, #4]
 8006312:	681b      	ldr	r3, [r3, #0]
 8006314:	4a21      	ldr	r2, [pc, #132]	; (800639c <HAL_TIM_ConfigClockSource+0x4b0>)
 8006316:	4293      	cmp	r3, r2
 8006318:	d009      	beq.n	800632e <HAL_TIM_ConfigClockSource+0x442>
 800631a:	687b      	ldr	r3, [r7, #4]
 800631c:	681b      	ldr	r3, [r3, #0]
 800631e:	4a20      	ldr	r2, [pc, #128]	; (80063a0 <HAL_TIM_ConfigClockSource+0x4b4>)
 8006320:	4293      	cmp	r3, r2
 8006322:	d004      	beq.n	800632e <HAL_TIM_ConfigClockSource+0x442>
 8006324:	f241 111f 	movw	r1, #4383	; 0x111f
 8006328:	4820      	ldr	r0, [pc, #128]	; (80063ac <HAL_TIM_ConfigClockSource+0x4c0>)
 800632a:	f7fb f827 	bl	800137c <assert_failed>
 800632e:	683b      	ldr	r3, [r7, #0]
 8006330:	685b      	ldr	r3, [r3, #4]
 8006332:	f5b3 4f00 	cmp.w	r3, #32768	; 0x8000
 8006336:	d014      	beq.n	8006362 <HAL_TIM_ConfigClockSource+0x476>
 8006338:	683b      	ldr	r3, [r7, #0]
 800633a:	685b      	ldr	r3, [r3, #4]
 800633c:	2b00      	cmp	r3, #0
 800633e:	d010      	beq.n	8006362 <HAL_TIM_ConfigClockSource+0x476>
 8006340:	683b      	ldr	r3, [r7, #0]
 8006342:	685b      	ldr	r3, [r3, #4]
 8006344:	2b00      	cmp	r3, #0
 8006346:	d00c      	beq.n	8006362 <HAL_TIM_ConfigClockSource+0x476>
 8006348:	683b      	ldr	r3, [r7, #0]
 800634a:	685b      	ldr	r3, [r3, #4]
 800634c:	2b02      	cmp	r3, #2
 800634e:	d008      	beq.n	8006362 <HAL_TIM_ConfigClockSource+0x476>
 8006350:	683b      	ldr	r3, [r7, #0]
 8006352:	685b      	ldr	r3, [r3, #4]
 8006354:	2b0a      	cmp	r3, #10
 8006356:	d004      	beq.n	8006362 <HAL_TIM_ConfigClockSource+0x476>
 8006358:	f241 1122 	movw	r1, #4386	; 0x1122
 800635c:	4813      	ldr	r0, [pc, #76]	; (80063ac <HAL_TIM_ConfigClockSource+0x4c0>)
 800635e:	f7fb f80d 	bl	800137c <assert_failed>
 8006362:	683b      	ldr	r3, [r7, #0]
 8006364:	68db      	ldr	r3, [r3, #12]
 8006366:	2b0f      	cmp	r3, #15
 8006368:	d904      	bls.n	8006374 <HAL_TIM_ConfigClockSource+0x488>
 800636a:	f241 1123 	movw	r1, #4387	; 0x1123
 800636e:	480f      	ldr	r0, [pc, #60]	; (80063ac <HAL_TIM_ConfigClockSource+0x4c0>)
 8006370:	f7fb f804 	bl	800137c <assert_failed>
 8006374:	687b      	ldr	r3, [r7, #4]
 8006376:	6818      	ldr	r0, [r3, #0]
 8006378:	683b      	ldr	r3, [r7, #0]
 800637a:	6859      	ldr	r1, [r3, #4]
 800637c:	683b      	ldr	r3, [r7, #0]
 800637e:	68db      	ldr	r3, [r3, #12]
 8006380:	461a      	mov	r2, r3
 8006382:	f000 fa5c 	bl	800683e <TIM_TI2_ConfigInputStage>
 8006386:	687b      	ldr	r3, [r7, #4]
 8006388:	681b      	ldr	r3, [r3, #0]
 800638a:	2160      	movs	r1, #96	; 0x60
 800638c:	4618      	mov	r0, r3
 800638e:	f000 fa85 	bl	800689c <TIM_ITRx_SetConfig>
 8006392:	e086      	b.n	80064a2 <HAL_TIM_ConfigClockSource+0x5b6>
 8006394:	40000400 	.word	0x40000400
 8006398:	40000800 	.word	0x40000800
 800639c:	40000c00 	.word	0x40000c00
 80063a0:	40010800 	.word	0x40010800
 80063a4:	40010c00 	.word	0x40010c00
 80063a8:	40011000 	.word	0x40011000
 80063ac:	0800a978 	.word	0x0800a978
 80063b0:	687b      	ldr	r3, [r7, #4]
 80063b2:	681b      	ldr	r3, [r3, #0]
 80063b4:	f1b3 4f80 	cmp.w	r3, #1073741824	; 0x40000000
 80063b8:	d018      	beq.n	80063ec <HAL_TIM_ConfigClockSource+0x500>
 80063ba:	687b      	ldr	r3, [r7, #4]
 80063bc:	681b      	ldr	r3, [r3, #0]
 80063be:	4a3f      	ldr	r2, [pc, #252]	; (80064bc <HAL_TIM_ConfigClockSource+0x5d0>)
 80063c0:	4293      	cmp	r3, r2
 80063c2:	d013      	beq.n	80063ec <HAL_TIM_ConfigClockSource+0x500>
 80063c4:	687b      	ldr	r3, [r7, #4]
 80063c6:	681b      	ldr	r3, [r3, #0]
 80063c8:	4a3d      	ldr	r2, [pc, #244]	; (80064c0 <HAL_TIM_ConfigClockSource+0x5d4>)
 80063ca:	4293      	cmp	r3, r2
 80063cc:	d00e      	beq.n	80063ec <HAL_TIM_ConfigClockSource+0x500>
 80063ce:	687b      	ldr	r3, [r7, #4]
 80063d0:	681b      	ldr	r3, [r3, #0]
 80063d2:	4a3c      	ldr	r2, [pc, #240]	; (80064c4 <HAL_TIM_ConfigClockSource+0x5d8>)
 80063d4:	4293      	cmp	r3, r2
 80063d6:	d009      	beq.n	80063ec <HAL_TIM_ConfigClockSource+0x500>
 80063d8:	687b      	ldr	r3, [r7, #4]
 80063da:	681b      	ldr	r3, [r3, #0]
 80063dc:	4a3a      	ldr	r2, [pc, #232]	; (80064c8 <HAL_TIM_ConfigClockSource+0x5dc>)
 80063de:	4293      	cmp	r3, r2
 80063e0:	d004      	beq.n	80063ec <HAL_TIM_ConfigClockSource+0x500>
 80063e2:	f241 112f 	movw	r1, #4399	; 0x112f
 80063e6:	4839      	ldr	r0, [pc, #228]	; (80064cc <HAL_TIM_ConfigClockSource+0x5e0>)
 80063e8:	f7fa ffc8 	bl	800137c <assert_failed>
 80063ec:	683b      	ldr	r3, [r7, #0]
 80063ee:	685b      	ldr	r3, [r3, #4]
 80063f0:	f5b3 4f00 	cmp.w	r3, #32768	; 0x8000
 80063f4:	d014      	beq.n	8006420 <HAL_TIM_ConfigClockSource+0x534>
 80063f6:	683b      	ldr	r3, [r7, #0]
 80063f8:	685b      	ldr	r3, [r3, #4]
 80063fa:	2b00      	cmp	r3, #0
 80063fc:	d010      	beq.n	8006420 <HAL_TIM_ConfigClockSource+0x534>
 80063fe:	683b      	ldr	r3, [r7, #0]
 8006400:	685b      	ldr	r3, [r3, #4]
 8006402:	2b00      	cmp	r3, #0
 8006404:	d00c      	beq.n	8006420 <HAL_TIM_ConfigClockSource+0x534>
 8006406:	683b      	ldr	r3, [r7, #0]
 8006408:	685b      	ldr	r3, [r3, #4]
 800640a:	2b02      	cmp	r3, #2
 800640c:	d008      	beq.n	8006420 <HAL_TIM_ConfigClockSource+0x534>
 800640e:	683b      	ldr	r3, [r7, #0]
 8006410:	685b      	ldr	r3, [r3, #4]
 8006412:	2b0a      	cmp	r3, #10
 8006414:	d004      	beq.n	8006420 <HAL_TIM_ConfigClockSource+0x534>
 8006416:	f241 1132 	movw	r1, #4402	; 0x1132
 800641a:	482c      	ldr	r0, [pc, #176]	; (80064cc <HAL_TIM_ConfigClockSource+0x5e0>)
 800641c:	f7fa ffae 	bl	800137c <assert_failed>
 8006420:	683b      	ldr	r3, [r7, #0]
 8006422:	68db      	ldr	r3, [r3, #12]
 8006424:	2b0f      	cmp	r3, #15
 8006426:	d904      	bls.n	8006432 <HAL_TIM_ConfigClockSource+0x546>
 8006428:	f241 1133 	movw	r1, #4403	; 0x1133
 800642c:	4827      	ldr	r0, [pc, #156]	; (80064cc <HAL_TIM_ConfigClockSource+0x5e0>)
 800642e:	f7fa ffa5 	bl	800137c <assert_failed>
 8006432:	687b      	ldr	r3, [r7, #4]
 8006434:	6818      	ldr	r0, [r3, #0]
 8006436:	683b      	ldr	r3, [r7, #0]
 8006438:	6859      	ldr	r1, [r3, #4]
 800643a:	683b      	ldr	r3, [r7, #0]
 800643c:	68db      	ldr	r3, [r3, #12]
 800643e:	461a      	mov	r2, r3
 8006440:	f000 f9cf 	bl	80067e2 <TIM_TI1_ConfigInputStage>
 8006444:	687b      	ldr	r3, [r7, #4]
 8006446:	681b      	ldr	r3, [r3, #0]
 8006448:	2140      	movs	r1, #64	; 0x40
 800644a:	4618      	mov	r0, r3
 800644c:	f000 fa26 	bl	800689c <TIM_ITRx_SetConfig>
 8006450:	e027      	b.n	80064a2 <HAL_TIM_ConfigClockSource+0x5b6>
 8006452:	687b      	ldr	r3, [r7, #4]
 8006454:	681b      	ldr	r3, [r3, #0]
 8006456:	f1b3 4f80 	cmp.w	r3, #1073741824	; 0x40000000
 800645a:	d018      	beq.n	800648e <HAL_TIM_ConfigClockSource+0x5a2>
 800645c:	687b      	ldr	r3, [r7, #4]
 800645e:	681b      	ldr	r3, [r3, #0]
 8006460:	4a16      	ldr	r2, [pc, #88]	; (80064bc <HAL_TIM_ConfigClockSource+0x5d0>)
 8006462:	4293      	cmp	r3, r2
 8006464:	d013      	beq.n	800648e <HAL_TIM_ConfigClockSource+0x5a2>
 8006466:	687b      	ldr	r3, [r7, #4]
 8006468:	681b      	ldr	r3, [r3, #0]
 800646a:	4a15      	ldr	r2, [pc, #84]	; (80064c0 <HAL_TIM_ConfigClockSource+0x5d4>)
 800646c:	4293      	cmp	r3, r2
 800646e:	d00e      	beq.n	800648e <HAL_TIM_ConfigClockSource+0x5a2>
 8006470:	687b      	ldr	r3, [r7, #4]
 8006472:	681b      	ldr	r3, [r3, #0]
 8006474:	4a13      	ldr	r2, [pc, #76]	; (80064c4 <HAL_TIM_ConfigClockSource+0x5d8>)
 8006476:	4293      	cmp	r3, r2
 8006478:	d009      	beq.n	800648e <HAL_TIM_ConfigClockSource+0x5a2>
 800647a:	687b      	ldr	r3, [r7, #4]
 800647c:	681b      	ldr	r3, [r3, #0]
 800647e:	4a12      	ldr	r2, [pc, #72]	; (80064c8 <HAL_TIM_ConfigClockSource+0x5dc>)
 8006480:	4293      	cmp	r3, r2
 8006482:	d004      	beq.n	800648e <HAL_TIM_ConfigClockSource+0x5a2>
 8006484:	f241 1142 	movw	r1, #4418	; 0x1142
 8006488:	4810      	ldr	r0, [pc, #64]	; (80064cc <HAL_TIM_ConfigClockSource+0x5e0>)
 800648a:	f7fa ff77 	bl	800137c <assert_failed>
 800648e:	687b      	ldr	r3, [r7, #4]
 8006490:	681a      	ldr	r2, [r3, #0]
 8006492:	683b      	ldr	r3, [r7, #0]
 8006494:	681b      	ldr	r3, [r3, #0]
 8006496:	4619      	mov	r1, r3
 8006498:	4610      	mov	r0, r2
 800649a:	f000 f9ff 	bl	800689c <TIM_ITRx_SetConfig>
 800649e:	e000      	b.n	80064a2 <HAL_TIM_ConfigClockSource+0x5b6>
 80064a0:	bf00      	nop
 80064a2:	687b      	ldr	r3, [r7, #4]
 80064a4:	2201      	movs	r2, #1
 80064a6:	f883 2039 	strb.w	r2, [r3, #57]	; 0x39
 80064aa:	687b      	ldr	r3, [r7, #4]
 80064ac:	2200      	movs	r2, #0
 80064ae:	f883 2038 	strb.w	r2, [r3, #56]	; 0x38
 80064b2:	2300      	movs	r3, #0
 80064b4:	4618      	mov	r0, r3
 80064b6:	3710      	adds	r7, #16
 80064b8:	46bd      	mov	sp, r7
 80064ba:	bd80      	pop	{r7, pc}
 80064bc:	40000400 	.word	0x40000400
 80064c0:	40000800 	.word	0x40000800
 80064c4:	40000c00 	.word	0x40000c00
 80064c8:	40010800 	.word	0x40010800
 80064cc:	0800a978 	.word	0x0800a978

080064d0 <HAL_TIM_OC_DelayElapsedCallback>:
 80064d0:	b480      	push	{r7}
 80064d2:	b083      	sub	sp, #12
 80064d4:	af00      	add	r7, sp, #0
 80064d6:	6078      	str	r0, [r7, #4]
 80064d8:	bf00      	nop
 80064da:	370c      	adds	r7, #12
 80064dc:	46bd      	mov	sp, r7
 80064de:	bc80      	pop	{r7}
 80064e0:	4770      	bx	lr

080064e2 <HAL_TIM_IC_CaptureCallback>:
 80064e2:	b480      	push	{r7}
 80064e4:	b083      	sub	sp, #12
 80064e6:	af00      	add	r7, sp, #0
 80064e8:	6078      	str	r0, [r7, #4]
 80064ea:	bf00      	nop
 80064ec:	370c      	adds	r7, #12
 80064ee:	46bd      	mov	sp, r7
 80064f0:	bc80      	pop	{r7}
 80064f2:	4770      	bx	lr

080064f4 <HAL_TIM_PWM_PulseFinishedCallback>:
 80064f4:	b480      	push	{r7}
 80064f6:	b083      	sub	sp, #12
 80064f8:	af00      	add	r7, sp, #0
 80064fa:	6078      	str	r0, [r7, #4]
 80064fc:	bf00      	nop
 80064fe:	370c      	adds	r7, #12
 8006500:	46bd      	mov	sp, r7
 8006502:	bc80      	pop	{r7}
 8006504:	4770      	bx	lr

08006506 <HAL_TIM_TriggerCallback>:
 8006506:	b480      	push	{r7}
 8006508:	b083      	sub	sp, #12
 800650a:	af00      	add	r7, sp, #0
 800650c:	6078      	str	r0, [r7, #4]
 800650e:	bf00      	nop
 8006510:	370c      	adds	r7, #12
 8006512:	46bd      	mov	sp, r7
 8006514:	bc80      	pop	{r7}
 8006516:	4770      	bx	lr

08006518 <TIM_Base_SetConfig>:
 8006518:	b480      	push	{r7}
 800651a:	b085      	sub	sp, #20
 800651c:	af00      	add	r7, sp, #0
 800651e:	6078      	str	r0, [r7, #4]
 8006520:	6039      	str	r1, [r7, #0]
 8006522:	687b      	ldr	r3, [r7, #4]
 8006524:	681b      	ldr	r3, [r3, #0]
 8006526:	60fb      	str	r3, [r7, #12]
 8006528:	687b      	ldr	r3, [r7, #4]
 800652a:	f1b3 4f80 	cmp.w	r3, #1073741824	; 0x40000000
 800652e:	d00f      	beq.n	8006550 <TIM_Base_SetConfig+0x38>
 8006530:	687b      	ldr	r3, [r7, #4]
 8006532:	4a2b      	ldr	r2, [pc, #172]	; (80065e0 <TIM_Base_SetConfig+0xc8>)
 8006534:	4293      	cmp	r3, r2
 8006536:	d00b      	beq.n	8006550 <TIM_Base_SetConfig+0x38>
 8006538:	687b      	ldr	r3, [r7, #4]
 800653a:	4a2a      	ldr	r2, [pc, #168]	; (80065e4 <TIM_Base_SetConfig+0xcc>)
 800653c:	4293      	cmp	r3, r2
 800653e:	d007      	beq.n	8006550 <TIM_Base_SetConfig+0x38>
 8006540:	687b      	ldr	r3, [r7, #4]
 8006542:	4a29      	ldr	r2, [pc, #164]	; (80065e8 <TIM_Base_SetConfig+0xd0>)
 8006544:	4293      	cmp	r3, r2
 8006546:	d003      	beq.n	8006550 <TIM_Base_SetConfig+0x38>
 8006548:	687b      	ldr	r3, [r7, #4]
 800654a:	4a28      	ldr	r2, [pc, #160]	; (80065ec <TIM_Base_SetConfig+0xd4>)
 800654c:	4293      	cmp	r3, r2
 800654e:	d108      	bne.n	8006562 <TIM_Base_SetConfig+0x4a>
 8006550:	68fb      	ldr	r3, [r7, #12]
 8006552:	f023 0370 	bic.w	r3, r3, #112	; 0x70
 8006556:	60fb      	str	r3, [r7, #12]
 8006558:	683b      	ldr	r3, [r7, #0]
 800655a:	685b      	ldr	r3, [r3, #4]
 800655c:	68fa      	ldr	r2, [r7, #12]
 800655e:	4313      	orrs	r3, r2
 8006560:	60fb      	str	r3, [r7, #12]
 8006562:	687b      	ldr	r3, [r7, #4]
 8006564:	f1b3 4f80 	cmp.w	r3, #1073741824	; 0x40000000
 8006568:	d017      	beq.n	800659a <TIM_Base_SetConfig+0x82>
 800656a:	687b      	ldr	r3, [r7, #4]
 800656c:	4a1c      	ldr	r2, [pc, #112]	; (80065e0 <TIM_Base_SetConfig+0xc8>)
 800656e:	4293      	cmp	r3, r2
 8006570:	d013      	beq.n	800659a <TIM_Base_SetConfig+0x82>
 8006572:	687b      	ldr	r3, [r7, #4]
 8006574:	4a1b      	ldr	r2, [pc, #108]	; (80065e4 <TIM_Base_SetConfig+0xcc>)
 8006576:	4293      	cmp	r3, r2
 8006578:	d00f      	beq.n	800659a <TIM_Base_SetConfig+0x82>
 800657a:	687b      	ldr	r3, [r7, #4]
 800657c:	4a1a      	ldr	r2, [pc, #104]	; (80065e8 <TIM_Base_SetConfig+0xd0>)
 800657e:	4293      	cmp	r3, r2
 8006580:	d00b      	beq.n	800659a <TIM_Base_SetConfig+0x82>
 8006582:	687b      	ldr	r3, [r7, #4]
 8006584:	4a19      	ldr	r2, [pc, #100]	; (80065ec <TIM_Base_SetConfig+0xd4>)
 8006586:	4293      	cmp	r3, r2
 8006588:	d007      	beq.n	800659a <TIM_Base_SetConfig+0x82>
 800658a:	687b      	ldr	r3, [r7, #4]
 800658c:	4a18      	ldr	r2, [pc, #96]	; (80065f0 <TIM_Base_SetConfig+0xd8>)
 800658e:	4293      	cmp	r3, r2
 8006590:	d003      	beq.n	800659a <TIM_Base_SetConfig+0x82>
 8006592:	687b      	ldr	r3, [r7, #4]
 8006594:	4a17      	ldr	r2, [pc, #92]	; (80065f4 <TIM_Base_SetConfig+0xdc>)
 8006596:	4293      	cmp	r3, r2
 8006598:	d108      	bne.n	80065ac <TIM_Base_SetConfig+0x94>
 800659a:	68fb      	ldr	r3, [r7, #12]
 800659c:	f423 7340 	bic.w	r3, r3, #768	; 0x300
 80065a0:	60fb      	str	r3, [r7, #12]
 80065a2:	683b      	ldr	r3, [r7, #0]
 80065a4:	68db      	ldr	r3, [r3, #12]
 80065a6:	68fa      	ldr	r2, [r7, #12]
 80065a8:	4313      	orrs	r3, r2
 80065aa:	60fb      	str	r3, [r7, #12]
 80065ac:	68fb      	ldr	r3, [r7, #12]
 80065ae:	f023 0280 	bic.w	r2, r3, #128	; 0x80
 80065b2:	683b      	ldr	r3, [r7, #0]
 80065b4:	691b      	ldr	r3, [r3, #16]
 80065b6:	4313      	orrs	r3, r2
 80065b8:	60fb      	str	r3, [r7, #12]
 80065ba:	687b      	ldr	r3, [r7, #4]
 80065bc:	68fa      	ldr	r2, [r7, #12]
 80065be:	601a      	str	r2, [r3, #0]
 80065c0:	683b      	ldr	r3, [r7, #0]
 80065c2:	689a      	ldr	r2, [r3, #8]
 80065c4:	687b      	ldr	r3, [r7, #4]
 80065c6:	62da      	str	r2, [r3, #44]	; 0x2c
 80065c8:	683b      	ldr	r3, [r7, #0]
 80065ca:	681a      	ldr	r2, [r3, #0]
 80065cc:	687b      	ldr	r3, [r7, #4]
 80065ce:	629a      	str	r2, [r3, #40]	; 0x28
 80065d0:	687b      	ldr	r3, [r7, #4]
 80065d2:	2201      	movs	r2, #1
 80065d4:	615a      	str	r2, [r3, #20]
 80065d6:	bf00      	nop
 80065d8:	3714      	adds	r7, #20
 80065da:	46bd      	mov	sp, r7
 80065dc:	bc80      	pop	{r7}
 80065de:	4770      	bx	lr
 80065e0:	40000400 	.word	0x40000400
 80065e4:	40000800 	.word	0x40000800
 80065e8:	40000c00 	.word	0x40000c00
 80065ec:	40010800 	.word	0x40010800
 80065f0:	40010c00 	.word	0x40010c00
 80065f4:	40011000 	.word	0x40011000

080065f8 <TIM_OC1_SetConfig>:
 80065f8:	b480      	push	{r7}
 80065fa:	b087      	sub	sp, #28
 80065fc:	af00      	add	r7, sp, #0
 80065fe:	6078      	str	r0, [r7, #4]
 8006600:	6039      	str	r1, [r7, #0]
 8006602:	687b      	ldr	r3, [r7, #4]
 8006604:	6a1b      	ldr	r3, [r3, #32]
 8006606:	f023 0201 	bic.w	r2, r3, #1
 800660a:	687b      	ldr	r3, [r7, #4]
 800660c:	621a      	str	r2, [r3, #32]
 800660e:	687b      	ldr	r3, [r7, #4]
 8006610:	6a1b      	ldr	r3, [r3, #32]
 8006612:	617b      	str	r3, [r7, #20]
 8006614:	687b      	ldr	r3, [r7, #4]
 8006616:	685b      	ldr	r3, [r3, #4]
 8006618:	613b      	str	r3, [r7, #16]
 800661a:	687b      	ldr	r3, [r7, #4]
 800661c:	699b      	ldr	r3, [r3, #24]
 800661e:	60fb      	str	r3, [r7, #12]
 8006620:	68fb      	ldr	r3, [r7, #12]
 8006622:	f023 0370 	bic.w	r3, r3, #112	; 0x70
 8006626:	60fb      	str	r3, [r7, #12]
 8006628:	68fb      	ldr	r3, [r7, #12]
 800662a:	f023 0303 	bic.w	r3, r3, #3
 800662e:	60fb      	str	r3, [r7, #12]
 8006630:	683b      	ldr	r3, [r7, #0]
 8006632:	681b      	ldr	r3, [r3, #0]
 8006634:	68fa      	ldr	r2, [r7, #12]
 8006636:	4313      	orrs	r3, r2
 8006638:	60fb      	str	r3, [r7, #12]
 800663a:	697b      	ldr	r3, [r7, #20]
 800663c:	f023 0302 	bic.w	r3, r3, #2
 8006640:	617b      	str	r3, [r7, #20]
 8006642:	683b      	ldr	r3, [r7, #0]
 8006644:	689b      	ldr	r3, [r3, #8]
 8006646:	697a      	ldr	r2, [r7, #20]
 8006648:	4313      	orrs	r3, r2
 800664a:	617b      	str	r3, [r7, #20]
 800664c:	687b      	ldr	r3, [r7, #4]
 800664e:	693a      	ldr	r2, [r7, #16]
 8006650:	605a      	str	r2, [r3, #4]
 8006652:	687b      	ldr	r3, [r7, #4]
 8006654:	68fa      	ldr	r2, [r7, #12]
 8006656:	619a      	str	r2, [r3, #24]
 8006658:	683b      	ldr	r3, [r7, #0]
 800665a:	685a      	ldr	r2, [r3, #4]
 800665c:	687b      	ldr	r3, [r7, #4]
 800665e:	635a      	str	r2, [r3, #52]	; 0x34
 8006660:	687b      	ldr	r3, [r7, #4]
 8006662:	697a      	ldr	r2, [r7, #20]
 8006664:	621a      	str	r2, [r3, #32]
 8006666:	bf00      	nop
 8006668:	371c      	adds	r7, #28
 800666a:	46bd      	mov	sp, r7
 800666c:	bc80      	pop	{r7}
 800666e:	4770      	bx	lr

08006670 <TIM_OC2_SetConfig>:
 8006670:	b480      	push	{r7}
 8006672:	b087      	sub	sp, #28
 8006674:	af00      	add	r7, sp, #0
 8006676:	6078      	str	r0, [r7, #4]
 8006678:	6039      	str	r1, [r7, #0]
 800667a:	687b      	ldr	r3, [r7, #4]
 800667c:	6a1b      	ldr	r3, [r3, #32]
 800667e:	f023 0210 	bic.w	r2, r3, #16
 8006682:	687b      	ldr	r3, [r7, #4]
 8006684:	621a      	str	r2, [r3, #32]
 8006686:	687b      	ldr	r3, [r7, #4]
 8006688:	6a1b      	ldr	r3, [r3, #32]
 800668a:	617b      	str	r3, [r7, #20]
 800668c:	687b      	ldr	r3, [r7, #4]
 800668e:	685b      	ldr	r3, [r3, #4]
 8006690:	613b      	str	r3, [r7, #16]
 8006692:	687b      	ldr	r3, [r7, #4]
 8006694:	699b      	ldr	r3, [r3, #24]
 8006696:	60fb      	str	r3, [r7, #12]
 8006698:	68fb      	ldr	r3, [r7, #12]
 800669a:	f423 43e0 	bic.w	r3, r3, #28672	; 0x7000
 800669e:	60fb      	str	r3, [r7, #12]
 80066a0:	68fb      	ldr	r3, [r7, #12]
 80066a2:	f423 7340 	bic.w	r3, r3, #768	; 0x300
 80066a6:	60fb      	str	r3, [r7, #12]
 80066a8:	683b      	ldr	r3, [r7, #0]
 80066aa:	681b      	ldr	r3, [r3, #0]
 80066ac:	021b      	lsls	r3, r3, #8
 80066ae:	68fa      	ldr	r2, [r7, #12]
 80066b0:	4313      	orrs	r3, r2
 80066b2:	60fb      	str	r3, [r7, #12]
 80066b4:	697b      	ldr	r3, [r7, #20]
 80066b6:	f023 0320 	bic.w	r3, r3, #32
 80066ba:	617b      	str	r3, [r7, #20]
 80066bc:	683b      	ldr	r3, [r7, #0]
 80066be:	689b      	ldr	r3, [r3, #8]
 80066c0:	011b      	lsls	r3, r3, #4
 80066c2:	697a      	ldr	r2, [r7, #20]
 80066c4:	4313      	orrs	r3, r2
 80066c6:	617b      	str	r3, [r7, #20]
 80066c8:	687b      	ldr	r3, [r7, #4]
 80066ca:	693a      	ldr	r2, [r7, #16]
 80066cc:	605a      	str	r2, [r3, #4]
 80066ce:	687b      	ldr	r3, [r7, #4]
 80066d0:	68fa      	ldr	r2, [r7, #12]
 80066d2:	619a      	str	r2, [r3, #24]
 80066d4:	683b      	ldr	r3, [r7, #0]
 80066d6:	685a      	ldr	r2, [r3, #4]
 80066d8:	687b      	ldr	r3, [r7, #4]
 80066da:	639a      	str	r2, [r3, #56]	; 0x38
 80066dc:	687b      	ldr	r3, [r7, #4]
 80066de:	697a      	ldr	r2, [r7, #20]
 80066e0:	621a      	str	r2, [r3, #32]
 80066e2:	bf00      	nop
 80066e4:	371c      	adds	r7, #28
 80066e6:	46bd      	mov	sp, r7
 80066e8:	bc80      	pop	{r7}
 80066ea:	4770      	bx	lr

080066ec <TIM_OC3_SetConfig>:
 80066ec:	b480      	push	{r7}
 80066ee:	b087      	sub	sp, #28
 80066f0:	af00      	add	r7, sp, #0
 80066f2:	6078      	str	r0, [r7, #4]
 80066f4:	6039      	str	r1, [r7, #0]
 80066f6:	687b      	ldr	r3, [r7, #4]
 80066f8:	6a1b      	ldr	r3, [r3, #32]
 80066fa:	f423 7280 	bic.w	r2, r3, #256	; 0x100
 80066fe:	687b      	ldr	r3, [r7, #4]
 8006700:	621a      	str	r2, [r3, #32]
 8006702:	687b      	ldr	r3, [r7, #4]
 8006704:	6a1b      	ldr	r3, [r3, #32]
 8006706:	617b      	str	r3, [r7, #20]
 8006708:	687b      	ldr	r3, [r7, #4]
 800670a:	685b      	ldr	r3, [r3, #4]
 800670c:	613b      	str	r3, [r7, #16]
 800670e:	687b      	ldr	r3, [r7, #4]
 8006710:	69db      	ldr	r3, [r3, #28]
 8006712:	60fb      	str	r3, [r7, #12]
 8006714:	68fb      	ldr	r3, [r7, #12]
 8006716:	f023 0370 	bic.w	r3, r3, #112	; 0x70
 800671a:	60fb      	str	r3, [r7, #12]
 800671c:	68fb      	ldr	r3, [r7, #12]
 800671e:	f023 0303 	bic.w	r3, r3, #3
 8006722:	60fb      	str	r3, [r7, #12]
 8006724:	683b      	ldr	r3, [r7, #0]
 8006726:	681b      	ldr	r3, [r3, #0]
 8006728:	68fa      	ldr	r2, [r7, #12]
 800672a:	4313      	orrs	r3, r2
 800672c:	60fb      	str	r3, [r7, #12]
 800672e:	697b      	ldr	r3, [r7, #20]
 8006730:	f423 7300 	bic.w	r3, r3, #512	; 0x200
 8006734:	617b      	str	r3, [r7, #20]
 8006736:	683b      	ldr	r3, [r7, #0]
 8006738:	689b      	ldr	r3, [r3, #8]
 800673a:	021b      	lsls	r3, r3, #8
 800673c:	697a      	ldr	r2, [r7, #20]
 800673e:	4313      	orrs	r3, r2
 8006740:	617b      	str	r3, [r7, #20]
 8006742:	687b      	ldr	r3, [r7, #4]
 8006744:	693a      	ldr	r2, [r7, #16]
 8006746:	605a      	str	r2, [r3, #4]
 8006748:	687b      	ldr	r3, [r7, #4]
 800674a:	68fa      	ldr	r2, [r7, #12]
 800674c:	61da      	str	r2, [r3, #28]
 800674e:	683b      	ldr	r3, [r7, #0]
 8006750:	685a      	ldr	r2, [r3, #4]
 8006752:	687b      	ldr	r3, [r7, #4]
 8006754:	63da      	str	r2, [r3, #60]	; 0x3c
 8006756:	687b      	ldr	r3, [r7, #4]
 8006758:	697a      	ldr	r2, [r7, #20]
 800675a:	621a      	str	r2, [r3, #32]
 800675c:	bf00      	nop
 800675e:	371c      	adds	r7, #28
 8006760:	46bd      	mov	sp, r7
 8006762:	bc80      	pop	{r7}
 8006764:	4770      	bx	lr

08006766 <TIM_OC4_SetConfig>:
 8006766:	b480      	push	{r7}
 8006768:	b087      	sub	sp, #28
 800676a:	af00      	add	r7, sp, #0
 800676c:	6078      	str	r0, [r7, #4]
 800676e:	6039      	str	r1, [r7, #0]
 8006770:	687b      	ldr	r3, [r7, #4]
 8006772:	6a1b      	ldr	r3, [r3, #32]
 8006774:	f423 5280 	bic.w	r2, r3, #4096	; 0x1000
 8006778:	687b      	ldr	r3, [r7, #4]
 800677a:	621a      	str	r2, [r3, #32]
 800677c:	687b      	ldr	r3, [r7, #4]
 800677e:	6a1b      	ldr	r3, [r3, #32]
 8006780:	617b      	str	r3, [r7, #20]
 8006782:	687b      	ldr	r3, [r7, #4]
 8006784:	685b      	ldr	r3, [r3, #4]
 8006786:	613b      	str	r3, [r7, #16]
 8006788:	687b      	ldr	r3, [r7, #4]
 800678a:	69db      	ldr	r3, [r3, #28]
 800678c:	60fb      	str	r3, [r7, #12]
 800678e:	68fb      	ldr	r3, [r7, #12]
 8006790:	f423 43e0 	bic.w	r3, r3, #28672	; 0x7000
 8006794:	60fb      	str	r3, [r7, #12]
 8006796:	68fb      	ldr	r3, [r7, #12]
 8006798:	f423 7340 	bic.w	r3, r3, #768	; 0x300
 800679c:	60fb      	str	r3, [r7, #12]
 800679e:	683b      	ldr	r3, [r7, #0]
 80067a0:	681b      	ldr	r3, [r3, #0]
 80067a2:	021b      	lsls	r3, r3, #8
 80067a4:	68fa      	ldr	r2, [r7, #12]
 80067a6:	4313      	orrs	r3, r2
 80067a8:	60fb      	str	r3, [r7, #12]
 80067aa:	697b      	ldr	r3, [r7, #20]
 80067ac:	f423 5300 	bic.w	r3, r3, #8192	; 0x2000
 80067b0:	617b      	str	r3, [r7, #20]
 80067b2:	683b      	ldr	r3, [r7, #0]
 80067b4:	689b      	ldr	r3, [r3, #8]
 80067b6:	031b      	lsls	r3, r3, #12
 80067b8:	697a      	ldr	r2, [r7, #20]
 80067ba:	4313      	orrs	r3, r2
 80067bc:	617b      	str	r3, [r7, #20]
 80067be:	687b      	ldr	r3, [r7, #4]
 80067c0:	693a      	ldr	r2, [r7, #16]
 80067c2:	605a      	str	r2, [r3, #4]
 80067c4:	687b      	ldr	r3, [r7, #4]
 80067c6:	68fa      	ldr	r2, [r7, #12]
 80067c8:	61da      	str	r2, [r3, #28]
 80067ca:	683b      	ldr	r3, [r7, #0]
 80067cc:	685a      	ldr	r2, [r3, #4]
 80067ce:	687b      	ldr	r3, [r7, #4]
 80067d0:	641a      	str	r2, [r3, #64]	; 0x40
 80067d2:	687b      	ldr	r3, [r7, #4]
 80067d4:	697a      	ldr	r2, [r7, #20]
 80067d6:	621a      	str	r2, [r3, #32]
 80067d8:	bf00      	nop
 80067da:	371c      	adds	r7, #28
 80067dc:	46bd      	mov	sp, r7
 80067de:	bc80      	pop	{r7}
 80067e0:	4770      	bx	lr

080067e2 <TIM_TI1_ConfigInputStage>:
 80067e2:	b480      	push	{r7}
 80067e4:	b087      	sub	sp, #28
 80067e6:	af00      	add	r7, sp, #0
 80067e8:	60f8      	str	r0, [r7, #12]
 80067ea:	60b9      	str	r1, [r7, #8]
 80067ec:	607a      	str	r2, [r7, #4]
 80067ee:	68fb      	ldr	r3, [r7, #12]
 80067f0:	6a1b      	ldr	r3, [r3, #32]
 80067f2:	617b      	str	r3, [r7, #20]
 80067f4:	68fb      	ldr	r3, [r7, #12]
 80067f6:	6a1b      	ldr	r3, [r3, #32]
 80067f8:	f023 0201 	bic.w	r2, r3, #1
 80067fc:	68fb      	ldr	r3, [r7, #12]
 80067fe:	621a      	str	r2, [r3, #32]
 8006800:	68fb      	ldr	r3, [r7, #12]
 8006802:	699b      	ldr	r3, [r3, #24]
 8006804:	613b      	str	r3, [r7, #16]
 8006806:	693b      	ldr	r3, [r7, #16]
 8006808:	f023 03f0 	bic.w	r3, r3, #240	; 0xf0
 800680c:	613b      	str	r3, [r7, #16]
 800680e:	687b      	ldr	r3, [r7, #4]
 8006810:	011b      	lsls	r3, r3, #4
 8006812:	693a      	ldr	r2, [r7, #16]
 8006814:	4313      	orrs	r3, r2
 8006816:	613b      	str	r3, [r7, #16]
 8006818:	697b      	ldr	r3, [r7, #20]
 800681a:	f023 030a 	bic.w	r3, r3, #10
 800681e:	617b      	str	r3, [r7, #20]
 8006820:	697a      	ldr	r2, [r7, #20]
 8006822:	68bb      	ldr	r3, [r7, #8]
 8006824:	4313      	orrs	r3, r2
 8006826:	617b      	str	r3, [r7, #20]
 8006828:	68fb      	ldr	r3, [r7, #12]
 800682a:	693a      	ldr	r2, [r7, #16]
 800682c:	619a      	str	r2, [r3, #24]
 800682e:	68fb      	ldr	r3, [r7, #12]
 8006830:	697a      	ldr	r2, [r7, #20]
 8006832:	621a      	str	r2, [r3, #32]
 8006834:	bf00      	nop
 8006836:	371c      	adds	r7, #28
 8006838:	46bd      	mov	sp, r7
 800683a:	bc80      	pop	{r7}
 800683c:	4770      	bx	lr

0800683e <TIM_TI2_ConfigInputStage>:
 800683e:	b480      	push	{r7}
 8006840:	b087      	sub	sp, #28
 8006842:	af00      	add	r7, sp, #0
 8006844:	60f8      	str	r0, [r7, #12]
 8006846:	60b9      	str	r1, [r7, #8]
 8006848:	607a      	str	r2, [r7, #4]
 800684a:	68fb      	ldr	r3, [r7, #12]
 800684c:	6a1b      	ldr	r3, [r3, #32]
 800684e:	f023 0210 	bic.w	r2, r3, #16
 8006852:	68fb      	ldr	r3, [r7, #12]
 8006854:	621a      	str	r2, [r3, #32]
 8006856:	68fb      	ldr	r3, [r7, #12]
 8006858:	699b      	ldr	r3, [r3, #24]
 800685a:	617b      	str	r3, [r7, #20]
 800685c:	68fb      	ldr	r3, [r7, #12]
 800685e:	6a1b      	ldr	r3, [r3, #32]
 8006860:	613b      	str	r3, [r7, #16]
 8006862:	697b      	ldr	r3, [r7, #20]
 8006864:	f423 4370 	bic.w	r3, r3, #61440	; 0xf000
 8006868:	617b      	str	r3, [r7, #20]
 800686a:	687b      	ldr	r3, [r7, #4]
 800686c:	031b      	lsls	r3, r3, #12
 800686e:	697a      	ldr	r2, [r7, #20]
 8006870:	4313      	orrs	r3, r2
 8006872:	617b      	str	r3, [r7, #20]
 8006874:	693b      	ldr	r3, [r7, #16]
 8006876:	f023 03a0 	bic.w	r3, r3, #160	; 0xa0
 800687a:	613b      	str	r3, [r7, #16]
 800687c:	68bb      	ldr	r3, [r7, #8]
 800687e:	011b      	lsls	r3, r3, #4
 8006880:	693a      	ldr	r2, [r7, #16]
 8006882:	4313      	orrs	r3, r2
 8006884:	613b      	str	r3, [r7, #16]
 8006886:	68fb      	ldr	r3, [r7, #12]
 8006888:	697a      	ldr	r2, [r7, #20]
 800688a:	619a      	str	r2, [r3, #24]
 800688c:	68fb      	ldr	r3, [r7, #12]
 800688e:	693a      	ldr	r2, [r7, #16]
 8006890:	621a      	str	r2, [r3, #32]
 8006892:	bf00      	nop
 8006894:	371c      	adds	r7, #28
 8006896:	46bd      	mov	sp, r7
 8006898:	bc80      	pop	{r7}
 800689a:	4770      	bx	lr

0800689c <TIM_ITRx_SetConfig>:
 800689c:	b480      	push	{r7}
 800689e:	b085      	sub	sp, #20
 80068a0:	af00      	add	r7, sp, #0
 80068a2:	6078      	str	r0, [r7, #4]
 80068a4:	6039      	str	r1, [r7, #0]
 80068a6:	687b      	ldr	r3, [r7, #4]
 80068a8:	689b      	ldr	r3, [r3, #8]
 80068aa:	60fb      	str	r3, [r7, #12]
 80068ac:	68fb      	ldr	r3, [r7, #12]
 80068ae:	f023 0370 	bic.w	r3, r3, #112	; 0x70
 80068b2:	60fb      	str	r3, [r7, #12]
 80068b4:	683a      	ldr	r2, [r7, #0]
 80068b6:	68fb      	ldr	r3, [r7, #12]
 80068b8:	4313      	orrs	r3, r2
 80068ba:	f043 0307 	orr.w	r3, r3, #7
 80068be:	60fb      	str	r3, [r7, #12]
 80068c0:	687b      	ldr	r3, [r7, #4]
 80068c2:	68fa      	ldr	r2, [r7, #12]
 80068c4:	609a      	str	r2, [r3, #8]
 80068c6:	bf00      	nop
 80068c8:	3714      	adds	r7, #20
 80068ca:	46bd      	mov	sp, r7
 80068cc:	bc80      	pop	{r7}
 80068ce:	4770      	bx	lr

080068d0 <TIM_ETR_SetConfig>:
 80068d0:	b480      	push	{r7}
 80068d2:	b087      	sub	sp, #28
 80068d4:	af00      	add	r7, sp, #0
 80068d6:	60f8      	str	r0, [r7, #12]
 80068d8:	60b9      	str	r1, [r7, #8]
 80068da:	607a      	str	r2, [r7, #4]
 80068dc:	603b      	str	r3, [r7, #0]
 80068de:	68fb      	ldr	r3, [r7, #12]
 80068e0:	689b      	ldr	r3, [r3, #8]
 80068e2:	617b      	str	r3, [r7, #20]
 80068e4:	697b      	ldr	r3, [r7, #20]
 80068e6:	f423 437f 	bic.w	r3, r3, #65280	; 0xff00
 80068ea:	617b      	str	r3, [r7, #20]
 80068ec:	683b      	ldr	r3, [r7, #0]
 80068ee:	021a      	lsls	r2, r3, #8
 80068f0:	687b      	ldr	r3, [r7, #4]
 80068f2:	431a      	orrs	r2, r3
 80068f4:	68bb      	ldr	r3, [r7, #8]
 80068f6:	4313      	orrs	r3, r2
 80068f8:	697a      	ldr	r2, [r7, #20]
 80068fa:	4313      	orrs	r3, r2
 80068fc:	617b      	str	r3, [r7, #20]
 80068fe:	68fb      	ldr	r3, [r7, #12]
 8006900:	697a      	ldr	r2, [r7, #20]
 8006902:	609a      	str	r2, [r3, #8]
 8006904:	bf00      	nop
 8006906:	371c      	adds	r7, #28
 8006908:	46bd      	mov	sp, r7
 800690a:	bc80      	pop	{r7}
 800690c:	4770      	bx	lr
	...

08006910 <TIM_CCxChannelCmd>:
 8006910:	b580      	push	{r7, lr}
 8006912:	b086      	sub	sp, #24
 8006914:	af00      	add	r7, sp, #0
 8006916:	60f8      	str	r0, [r7, #12]
 8006918:	60b9      	str	r1, [r7, #8]
 800691a:	607a      	str	r2, [r7, #4]
 800691c:	68fb      	ldr	r3, [r7, #12]
 800691e:	f1b3 4f80 	cmp.w	r3, #1073741824	; 0x40000000
 8006922:	d01c      	beq.n	800695e <TIM_CCxChannelCmd+0x4e>
 8006924:	68fb      	ldr	r3, [r7, #12]
 8006926:	4a26      	ldr	r2, [pc, #152]	; (80069c0 <TIM_CCxChannelCmd+0xb0>)
 8006928:	4293      	cmp	r3, r2
 800692a:	d018      	beq.n	800695e <TIM_CCxChannelCmd+0x4e>
 800692c:	68fb      	ldr	r3, [r7, #12]
 800692e:	4a25      	ldr	r2, [pc, #148]	; (80069c4 <TIM_CCxChannelCmd+0xb4>)
 8006930:	4293      	cmp	r3, r2
 8006932:	d014      	beq.n	800695e <TIM_CCxChannelCmd+0x4e>
 8006934:	68fb      	ldr	r3, [r7, #12]
 8006936:	4a24      	ldr	r2, [pc, #144]	; (80069c8 <TIM_CCxChannelCmd+0xb8>)
 8006938:	4293      	cmp	r3, r2
 800693a:	d010      	beq.n	800695e <TIM_CCxChannelCmd+0x4e>
 800693c:	68fb      	ldr	r3, [r7, #12]
 800693e:	4a23      	ldr	r2, [pc, #140]	; (80069cc <TIM_CCxChannelCmd+0xbc>)
 8006940:	4293      	cmp	r3, r2
 8006942:	d00c      	beq.n	800695e <TIM_CCxChannelCmd+0x4e>
 8006944:	68fb      	ldr	r3, [r7, #12]
 8006946:	4a22      	ldr	r2, [pc, #136]	; (80069d0 <TIM_CCxChannelCmd+0xc0>)
 8006948:	4293      	cmp	r3, r2
 800694a:	d008      	beq.n	800695e <TIM_CCxChannelCmd+0x4e>
 800694c:	68fb      	ldr	r3, [r7, #12]
 800694e:	4a21      	ldr	r2, [pc, #132]	; (80069d4 <TIM_CCxChannelCmd+0xc4>)
 8006950:	4293      	cmp	r3, r2
 8006952:	d004      	beq.n	800695e <TIM_CCxChannelCmd+0x4e>
 8006954:	f641 0169 	movw	r1, #6249	; 0x1869
 8006958:	481f      	ldr	r0, [pc, #124]	; (80069d8 <TIM_CCxChannelCmd+0xc8>)
 800695a:	f7fa fd0f 	bl	800137c <assert_failed>
 800695e:	68bb      	ldr	r3, [r7, #8]
 8006960:	2b00      	cmp	r3, #0
 8006962:	d010      	beq.n	8006986 <TIM_CCxChannelCmd+0x76>
 8006964:	68bb      	ldr	r3, [r7, #8]
 8006966:	2b04      	cmp	r3, #4
 8006968:	d00d      	beq.n	8006986 <TIM_CCxChannelCmd+0x76>
 800696a:	68bb      	ldr	r3, [r7, #8]
 800696c:	2b08      	cmp	r3, #8
 800696e:	d00a      	beq.n	8006986 <TIM_CCxChannelCmd+0x76>
 8006970:	68bb      	ldr	r3, [r7, #8]
 8006972:	2b0c      	cmp	r3, #12
 8006974:	d007      	beq.n	8006986 <TIM_CCxChannelCmd+0x76>
 8006976:	68bb      	ldr	r3, [r7, #8]
 8006978:	2b3c      	cmp	r3, #60	; 0x3c
 800697a:	d004      	beq.n	8006986 <TIM_CCxChannelCmd+0x76>
 800697c:	f641 016a 	movw	r1, #6250	; 0x186a
 8006980:	4815      	ldr	r0, [pc, #84]	; (80069d8 <TIM_CCxChannelCmd+0xc8>)
 8006982:	f7fa fcfb 	bl	800137c <assert_failed>
 8006986:	68bb      	ldr	r3, [r7, #8]
 8006988:	f003 031f 	and.w	r3, r3, #31
 800698c:	2201      	movs	r2, #1
 800698e:	fa02 f303 	lsl.w	r3, r2, r3
 8006992:	617b      	str	r3, [r7, #20]
 8006994:	68fb      	ldr	r3, [r7, #12]
 8006996:	6a1a      	ldr	r2, [r3, #32]
 8006998:	697b      	ldr	r3, [r7, #20]
 800699a:	43db      	mvns	r3, r3
 800699c:	401a      	ands	r2, r3
 800699e:	68fb      	ldr	r3, [r7, #12]
 80069a0:	621a      	str	r2, [r3, #32]
 80069a2:	68fb      	ldr	r3, [r7, #12]
 80069a4:	6a1a      	ldr	r2, [r3, #32]
 80069a6:	68bb      	ldr	r3, [r7, #8]
 80069a8:	f003 031f 	and.w	r3, r3, #31
 80069ac:	6879      	ldr	r1, [r7, #4]
 80069ae:	fa01 f303 	lsl.w	r3, r1, r3
 80069b2:	431a      	orrs	r2, r3
 80069b4:	68fb      	ldr	r3, [r7, #12]
 80069b6:	621a      	str	r2, [r3, #32]
 80069b8:	bf00      	nop
 80069ba:	3718      	adds	r7, #24
 80069bc:	46bd      	mov	sp, r7
 80069be:	bd80      	pop	{r7, pc}
 80069c0:	40000400 	.word	0x40000400
 80069c4:	40000800 	.word	0x40000800
 80069c8:	40000c00 	.word	0x40000c00
 80069cc:	40010800 	.word	0x40010800
 80069d0:	40010c00 	.word	0x40010c00
 80069d4:	40011000 	.word	0x40011000
 80069d8:	0800a978 	.word	0x0800a978

080069dc <HAL_TIMEx_MasterConfigSynchronization>:
 80069dc:	b580      	push	{r7, lr}
 80069de:	b084      	sub	sp, #16
 80069e0:	af00      	add	r7, sp, #0
 80069e2:	6078      	str	r0, [r7, #4]
 80069e4:	6039      	str	r1, [r7, #0]
 80069e6:	687b      	ldr	r3, [r7, #4]
 80069e8:	681b      	ldr	r3, [r3, #0]
 80069ea:	f1b3 4f80 	cmp.w	r3, #1073741824	; 0x40000000
 80069ee:	d017      	beq.n	8006a20 <HAL_TIMEx_MasterConfigSynchronization+0x44>
 80069f0:	687b      	ldr	r3, [r7, #4]
 80069f2:	681b      	ldr	r3, [r3, #0]
 80069f4:	4a41      	ldr	r2, [pc, #260]	; (8006afc <HAL_TIMEx_MasterConfigSynchronization+0x120>)
 80069f6:	4293      	cmp	r3, r2
 80069f8:	d012      	beq.n	8006a20 <HAL_TIMEx_MasterConfigSynchronization+0x44>
 80069fa:	687b      	ldr	r3, [r7, #4]
 80069fc:	681b      	ldr	r3, [r3, #0]
 80069fe:	4a40      	ldr	r2, [pc, #256]	; (8006b00 <HAL_TIMEx_MasterConfigSynchronization+0x124>)
 8006a00:	4293      	cmp	r3, r2
 8006a02:	d00d      	beq.n	8006a20 <HAL_TIMEx_MasterConfigSynchronization+0x44>
 8006a04:	687b      	ldr	r3, [r7, #4]
 8006a06:	681b      	ldr	r3, [r3, #0]
 8006a08:	4a3e      	ldr	r2, [pc, #248]	; (8006b04 <HAL_TIMEx_MasterConfigSynchronization+0x128>)
 8006a0a:	4293      	cmp	r3, r2
 8006a0c:	d008      	beq.n	8006a20 <HAL_TIMEx_MasterConfigSynchronization+0x44>
 8006a0e:	687b      	ldr	r3, [r7, #4]
 8006a10:	681b      	ldr	r3, [r3, #0]
 8006a12:	4a3d      	ldr	r2, [pc, #244]	; (8006b08 <HAL_TIMEx_MasterConfigSynchronization+0x12c>)
 8006a14:	4293      	cmp	r3, r2
 8006a16:	d003      	beq.n	8006a20 <HAL_TIMEx_MasterConfigSynchronization+0x44>
 8006a18:	215a      	movs	r1, #90	; 0x5a
 8006a1a:	483c      	ldr	r0, [pc, #240]	; (8006b0c <HAL_TIMEx_MasterConfigSynchronization+0x130>)
 8006a1c:	f7fa fcae 	bl	800137c <assert_failed>
 8006a20:	683b      	ldr	r3, [r7, #0]
 8006a22:	681b      	ldr	r3, [r3, #0]
 8006a24:	2b00      	cmp	r3, #0
 8006a26:	d01f      	beq.n	8006a68 <HAL_TIMEx_MasterConfigSynchronization+0x8c>
 8006a28:	683b      	ldr	r3, [r7, #0]
 8006a2a:	681b      	ldr	r3, [r3, #0]
 8006a2c:	2b10      	cmp	r3, #16
 8006a2e:	d01b      	beq.n	8006a68 <HAL_TIMEx_MasterConfigSynchronization+0x8c>
 8006a30:	683b      	ldr	r3, [r7, #0]
 8006a32:	681b      	ldr	r3, [r3, #0]
 8006a34:	2b20      	cmp	r3, #32
 8006a36:	d017      	beq.n	8006a68 <HAL_TIMEx_MasterConfigSynchronization+0x8c>
 8006a38:	683b      	ldr	r3, [r7, #0]
 8006a3a:	681b      	ldr	r3, [r3, #0]
 8006a3c:	2b30      	cmp	r3, #48	; 0x30
 8006a3e:	d013      	beq.n	8006a68 <HAL_TIMEx_MasterConfigSynchronization+0x8c>
 8006a40:	683b      	ldr	r3, [r7, #0]
 8006a42:	681b      	ldr	r3, [r3, #0]
 8006a44:	2b40      	cmp	r3, #64	; 0x40
 8006a46:	d00f      	beq.n	8006a68 <HAL_TIMEx_MasterConfigSynchronization+0x8c>
 8006a48:	683b      	ldr	r3, [r7, #0]
 8006a4a:	681b      	ldr	r3, [r3, #0]
 8006a4c:	2b50      	cmp	r3, #80	; 0x50
 8006a4e:	d00b      	beq.n	8006a68 <HAL_TIMEx_MasterConfigSynchronization+0x8c>
 8006a50:	683b      	ldr	r3, [r7, #0]
 8006a52:	681b      	ldr	r3, [r3, #0]
 8006a54:	2b60      	cmp	r3, #96	; 0x60
 8006a56:	d007      	beq.n	8006a68 <HAL_TIMEx_MasterConfigSynchronization+0x8c>
 8006a58:	683b      	ldr	r3, [r7, #0]
 8006a5a:	681b      	ldr	r3, [r3, #0]
 8006a5c:	2b70      	cmp	r3, #112	; 0x70
 8006a5e:	d003      	beq.n	8006a68 <HAL_TIMEx_MasterConfigSynchronization+0x8c>
 8006a60:	215b      	movs	r1, #91	; 0x5b
 8006a62:	482a      	ldr	r0, [pc, #168]	; (8006b0c <HAL_TIMEx_MasterConfigSynchronization+0x130>)
 8006a64:	f7fa fc8a 	bl	800137c <assert_failed>
 8006a68:	683b      	ldr	r3, [r7, #0]
 8006a6a:	685b      	ldr	r3, [r3, #4]
 8006a6c:	2b80      	cmp	r3, #128	; 0x80
 8006a6e:	d007      	beq.n	8006a80 <HAL_TIMEx_MasterConfigSynchronization+0xa4>
 8006a70:	683b      	ldr	r3, [r7, #0]
 8006a72:	685b      	ldr	r3, [r3, #4]
 8006a74:	2b00      	cmp	r3, #0
 8006a76:	d003      	beq.n	8006a80 <HAL_TIMEx_MasterConfigSynchronization+0xa4>
 8006a78:	215c      	movs	r1, #92	; 0x5c
 8006a7a:	4824      	ldr	r0, [pc, #144]	; (8006b0c <HAL_TIMEx_MasterConfigSynchronization+0x130>)
 8006a7c:	f7fa fc7e 	bl	800137c <assert_failed>
 8006a80:	687b      	ldr	r3, [r7, #4]
 8006a82:	f893 3038 	ldrb.w	r3, [r3, #56]	; 0x38
 8006a86:	2b01      	cmp	r3, #1
 8006a88:	d101      	bne.n	8006a8e <HAL_TIMEx_MasterConfigSynchronization+0xb2>
 8006a8a:	2302      	movs	r3, #2
 8006a8c:	e032      	b.n	8006af4 <HAL_TIMEx_MasterConfigSynchronization+0x118>
 8006a8e:	687b      	ldr	r3, [r7, #4]
 8006a90:	2201      	movs	r2, #1
 8006a92:	f883 2038 	strb.w	r2, [r3, #56]	; 0x38
 8006a96:	687b      	ldr	r3, [r7, #4]
 8006a98:	2202      	movs	r2, #2
 8006a9a:	f883 2039 	strb.w	r2, [r3, #57]	; 0x39
 8006a9e:	687b      	ldr	r3, [r7, #4]
 8006aa0:	681b      	ldr	r3, [r3, #0]
 8006aa2:	685b      	ldr	r3, [r3, #4]
 8006aa4:	60fb      	str	r3, [r7, #12]
 8006aa6:	687b      	ldr	r3, [r7, #4]
 8006aa8:	681b      	ldr	r3, [r3, #0]
 8006aaa:	689b      	ldr	r3, [r3, #8]
 8006aac:	60bb      	str	r3, [r7, #8]
 8006aae:	68fb      	ldr	r3, [r7, #12]
 8006ab0:	f023 0370 	bic.w	r3, r3, #112	; 0x70
 8006ab4:	60fb      	str	r3, [r7, #12]
 8006ab6:	683b      	ldr	r3, [r7, #0]
 8006ab8:	681b      	ldr	r3, [r3, #0]
 8006aba:	68fa      	ldr	r2, [r7, #12]
 8006abc:	4313      	orrs	r3, r2
 8006abe:	60fb      	str	r3, [r7, #12]
 8006ac0:	68bb      	ldr	r3, [r7, #8]
 8006ac2:	f023 0380 	bic.w	r3, r3, #128	; 0x80
 8006ac6:	60bb      	str	r3, [r7, #8]
 8006ac8:	683b      	ldr	r3, [r7, #0]
 8006aca:	685b      	ldr	r3, [r3, #4]
 8006acc:	68ba      	ldr	r2, [r7, #8]
 8006ace:	4313      	orrs	r3, r2
 8006ad0:	60bb      	str	r3, [r7, #8]
 8006ad2:	687b      	ldr	r3, [r7, #4]
 8006ad4:	681b      	ldr	r3, [r3, #0]
 8006ad6:	68fa      	ldr	r2, [r7, #12]
 8006ad8:	605a      	str	r2, [r3, #4]
 8006ada:	687b      	ldr	r3, [r7, #4]
 8006adc:	681b      	ldr	r3, [r3, #0]
 8006ade:	68ba      	ldr	r2, [r7, #8]
 8006ae0:	609a      	str	r2, [r3, #8]
 8006ae2:	687b      	ldr	r3, [r7, #4]
 8006ae4:	2201      	movs	r2, #1
 8006ae6:	f883 2039 	strb.w	r2, [r3, #57]	; 0x39
 8006aea:	687b      	ldr	r3, [r7, #4]
 8006aec:	2200      	movs	r2, #0
 8006aee:	f883 2038 	strb.w	r2, [r3, #56]	; 0x38
 8006af2:	2300      	movs	r3, #0
 8006af4:	4618      	mov	r0, r3
 8006af6:	3710      	adds	r7, #16
 8006af8:	46bd      	mov	sp, r7
 8006afa:	bd80      	pop	{r7, pc}
 8006afc:	40000400 	.word	0x40000400
 8006b00:	40000800 	.word	0x40000800
 8006b04:	40000c00 	.word	0x40000c00
 8006b08:	40010800 	.word	0x40010800
 8006b0c:	0800a9b0 	.word	0x0800a9b0

08006b10 <HAL_UART_Init>:
 8006b10:	b580      	push	{r7, lr}
 8006b12:	b082      	sub	sp, #8
 8006b14:	af00      	add	r7, sp, #0
 8006b16:	6078      	str	r0, [r7, #4]
 8006b18:	687b      	ldr	r3, [r7, #4]
 8006b1a:	2b00      	cmp	r3, #0
 8006b1c:	d101      	bne.n	8006b22 <HAL_UART_Init+0x12>
 8006b1e:	2301      	movs	r3, #1
 8006b20:	e0aa      	b.n	8006c78 <HAL_UART_Init+0x168>
 8006b22:	687b      	ldr	r3, [r7, #4]
 8006b24:	699b      	ldr	r3, [r3, #24]
 8006b26:	2b00      	cmp	r3, #0
 8006b28:	d02c      	beq.n	8006b84 <HAL_UART_Init+0x74>
 8006b2a:	687b      	ldr	r3, [r7, #4]
 8006b2c:	681b      	ldr	r3, [r3, #0]
 8006b2e:	4a54      	ldr	r2, [pc, #336]	; (8006c80 <HAL_UART_Init+0x170>)
 8006b30:	4293      	cmp	r3, r2
 8006b32:	d00e      	beq.n	8006b52 <HAL_UART_Init+0x42>
 8006b34:	687b      	ldr	r3, [r7, #4]
 8006b36:	681b      	ldr	r3, [r3, #0]
 8006b38:	4a52      	ldr	r2, [pc, #328]	; (8006c84 <HAL_UART_Init+0x174>)
 8006b3a:	4293      	cmp	r3, r2
 8006b3c:	d009      	beq.n	8006b52 <HAL_UART_Init+0x42>
 8006b3e:	687b      	ldr	r3, [r7, #4]
 8006b40:	681b      	ldr	r3, [r3, #0]
 8006b42:	4a51      	ldr	r2, [pc, #324]	; (8006c88 <HAL_UART_Init+0x178>)
 8006b44:	4293      	cmp	r3, r2
 8006b46:	d004      	beq.n	8006b52 <HAL_UART_Init+0x42>
 8006b48:	f240 1145 	movw	r1, #325	; 0x145
 8006b4c:	484f      	ldr	r0, [pc, #316]	; (8006c8c <HAL_UART_Init+0x17c>)
 8006b4e:	f7fa fc15 	bl	800137c <assert_failed>
 8006b52:	687b      	ldr	r3, [r7, #4]
 8006b54:	699b      	ldr	r3, [r3, #24]
 8006b56:	2b00      	cmp	r3, #0
 8006b58:	d032      	beq.n	8006bc0 <HAL_UART_Init+0xb0>
 8006b5a:	687b      	ldr	r3, [r7, #4]
 8006b5c:	699b      	ldr	r3, [r3, #24]
 8006b5e:	f5b3 7f80 	cmp.w	r3, #256	; 0x100
 8006b62:	d02d      	beq.n	8006bc0 <HAL_UART_Init+0xb0>
 8006b64:	687b      	ldr	r3, [r7, #4]
 8006b66:	699b      	ldr	r3, [r3, #24]
 8006b68:	f5b3 7f00 	cmp.w	r3, #512	; 0x200
 8006b6c:	d028      	beq.n	8006bc0 <HAL_UART_Init+0xb0>
 8006b6e:	687b      	ldr	r3, [r7, #4]
 8006b70:	699b      	ldr	r3, [r3, #24]
 8006b72:	f5b3 7f40 	cmp.w	r3, #768	; 0x300
 8006b76:	d023      	beq.n	8006bc0 <HAL_UART_Init+0xb0>
 8006b78:	f44f 71a3 	mov.w	r1, #326	; 0x146
 8006b7c:	4843      	ldr	r0, [pc, #268]	; (8006c8c <HAL_UART_Init+0x17c>)
 8006b7e:	f7fa fbfd 	bl	800137c <assert_failed>
 8006b82:	e01d      	b.n	8006bc0 <HAL_UART_Init+0xb0>
 8006b84:	687b      	ldr	r3, [r7, #4]
 8006b86:	681b      	ldr	r3, [r3, #0]
 8006b88:	4a3d      	ldr	r2, [pc, #244]	; (8006c80 <HAL_UART_Init+0x170>)
 8006b8a:	4293      	cmp	r3, r2
 8006b8c:	d018      	beq.n	8006bc0 <HAL_UART_Init+0xb0>
 8006b8e:	687b      	ldr	r3, [r7, #4]
 8006b90:	681b      	ldr	r3, [r3, #0]
 8006b92:	4a3c      	ldr	r2, [pc, #240]	; (8006c84 <HAL_UART_Init+0x174>)
 8006b94:	4293      	cmp	r3, r2
 8006b96:	d013      	beq.n	8006bc0 <HAL_UART_Init+0xb0>
 8006b98:	687b      	ldr	r3, [r7, #4]
 8006b9a:	681b      	ldr	r3, [r3, #0]
 8006b9c:	4a3a      	ldr	r2, [pc, #232]	; (8006c88 <HAL_UART_Init+0x178>)
 8006b9e:	4293      	cmp	r3, r2
 8006ba0:	d00e      	beq.n	8006bc0 <HAL_UART_Init+0xb0>
 8006ba2:	687b      	ldr	r3, [r7, #4]
 8006ba4:	681b      	ldr	r3, [r3, #0]
 8006ba6:	4a3a      	ldr	r2, [pc, #232]	; (8006c90 <HAL_UART_Init+0x180>)
 8006ba8:	4293      	cmp	r3, r2
 8006baa:	d009      	beq.n	8006bc0 <HAL_UART_Init+0xb0>
 8006bac:	687b      	ldr	r3, [r7, #4]
 8006bae:	681b      	ldr	r3, [r3, #0]
 8006bb0:	4a38      	ldr	r2, [pc, #224]	; (8006c94 <HAL_UART_Init+0x184>)
 8006bb2:	4293      	cmp	r3, r2
 8006bb4:	d004      	beq.n	8006bc0 <HAL_UART_Init+0xb0>
 8006bb6:	f44f 71a5 	mov.w	r1, #330	; 0x14a
 8006bba:	4834      	ldr	r0, [pc, #208]	; (8006c8c <HAL_UART_Init+0x17c>)
 8006bbc:	f7fa fbde 	bl	800137c <assert_failed>
 8006bc0:	687b      	ldr	r3, [r7, #4]
 8006bc2:	689b      	ldr	r3, [r3, #8]
 8006bc4:	2b00      	cmp	r3, #0
 8006bc6:	d009      	beq.n	8006bdc <HAL_UART_Init+0xcc>
 8006bc8:	687b      	ldr	r3, [r7, #4]
 8006bca:	689b      	ldr	r3, [r3, #8]
 8006bcc:	f5b3 5f80 	cmp.w	r3, #4096	; 0x1000
 8006bd0:	d004      	beq.n	8006bdc <HAL_UART_Init+0xcc>
 8006bd2:	f44f 71a6 	mov.w	r1, #332	; 0x14c
 8006bd6:	482d      	ldr	r0, [pc, #180]	; (8006c8c <HAL_UART_Init+0x17c>)
 8006bd8:	f7fa fbd0 	bl	800137c <assert_failed>
 8006bdc:	687b      	ldr	r3, [r7, #4]
 8006bde:	69db      	ldr	r3, [r3, #28]
 8006be0:	2b00      	cmp	r3, #0
 8006be2:	d009      	beq.n	8006bf8 <HAL_UART_Init+0xe8>
 8006be4:	687b      	ldr	r3, [r7, #4]
 8006be6:	69db      	ldr	r3, [r3, #28]
 8006be8:	f5b3 4f00 	cmp.w	r3, #32768	; 0x8000
 8006bec:	d004      	beq.n	8006bf8 <HAL_UART_Init+0xe8>
 8006bee:	f240 114d 	movw	r1, #333	; 0x14d
 8006bf2:	4826      	ldr	r0, [pc, #152]	; (8006c8c <HAL_UART_Init+0x17c>)
 8006bf4:	f7fa fbc2 	bl	800137c <assert_failed>
 8006bf8:	687b      	ldr	r3, [r7, #4]
 8006bfa:	f893 3039 	ldrb.w	r3, [r3, #57]	; 0x39
 8006bfe:	b2db      	uxtb	r3, r3
 8006c00:	2b00      	cmp	r3, #0
 8006c02:	d106      	bne.n	8006c12 <HAL_UART_Init+0x102>
 8006c04:	687b      	ldr	r3, [r7, #4]
 8006c06:	2200      	movs	r2, #0
 8006c08:	f883 2038 	strb.w	r2, [r3, #56]	; 0x38
 8006c0c:	6878      	ldr	r0, [r7, #4]
 8006c0e:	f7fa ffd1 	bl	8001bb4 <HAL_UART_MspInit>
 8006c12:	687b      	ldr	r3, [r7, #4]
 8006c14:	2224      	movs	r2, #36	; 0x24
 8006c16:	f883 2039 	strb.w	r2, [r3, #57]	; 0x39
 8006c1a:	687b      	ldr	r3, [r7, #4]
 8006c1c:	681b      	ldr	r3, [r3, #0]
 8006c1e:	68da      	ldr	r2, [r3, #12]
 8006c20:	687b      	ldr	r3, [r7, #4]
 8006c22:	681b      	ldr	r3, [r3, #0]
 8006c24:	f422 5200 	bic.w	r2, r2, #8192	; 0x2000
 8006c28:	60da      	str	r2, [r3, #12]
 8006c2a:	6878      	ldr	r0, [r7, #4]
 8006c2c:	f000 fa60 	bl	80070f0 <UART_SetConfig>
 8006c30:	687b      	ldr	r3, [r7, #4]
 8006c32:	681b      	ldr	r3, [r3, #0]
 8006c34:	691a      	ldr	r2, [r3, #16]
 8006c36:	687b      	ldr	r3, [r7, #4]
 8006c38:	681b      	ldr	r3, [r3, #0]
 8006c3a:	f422 4290 	bic.w	r2, r2, #18432	; 0x4800
 8006c3e:	611a      	str	r2, [r3, #16]
 8006c40:	687b      	ldr	r3, [r7, #4]
 8006c42:	681b      	ldr	r3, [r3, #0]
 8006c44:	695a      	ldr	r2, [r3, #20]
 8006c46:	687b      	ldr	r3, [r7, #4]
 8006c48:	681b      	ldr	r3, [r3, #0]
 8006c4a:	f022 022a 	bic.w	r2, r2, #42	; 0x2a
 8006c4e:	615a      	str	r2, [r3, #20]
 8006c50:	687b      	ldr	r3, [r7, #4]
 8006c52:	681b      	ldr	r3, [r3, #0]
 8006c54:	68da      	ldr	r2, [r3, #12]
 8006c56:	687b      	ldr	r3, [r7, #4]
 8006c58:	681b      	ldr	r3, [r3, #0]
 8006c5a:	f442 5200 	orr.w	r2, r2, #8192	; 0x2000
 8006c5e:	60da      	str	r2, [r3, #12]
 8006c60:	687b      	ldr	r3, [r7, #4]
 8006c62:	2200      	movs	r2, #0
 8006c64:	63da      	str	r2, [r3, #60]	; 0x3c
 8006c66:	687b      	ldr	r3, [r7, #4]
 8006c68:	2220      	movs	r2, #32
 8006c6a:	f883 2039 	strb.w	r2, [r3, #57]	; 0x39
 8006c6e:	687b      	ldr	r3, [r7, #4]
 8006c70:	2220      	movs	r2, #32
 8006c72:	f883 203a 	strb.w	r2, [r3, #58]	; 0x3a
 8006c76:	2300      	movs	r3, #0
 8006c78:	4618      	mov	r0, r3
 8006c7a:	3708      	adds	r7, #8
 8006c7c:	46bd      	mov	sp, r7
 8006c7e:	bd80      	pop	{r7, pc}
 8006c80:	40013800 	.word	0x40013800
 8006c84:	40004400 	.word	0x40004400
 8006c88:	40004800 	.word	0x40004800
 8006c8c:	0800a9ec 	.word	0x0800a9ec
 8006c90:	40004c00 	.word	0x40004c00
 8006c94:	40005000 	.word	0x40005000

08006c98 <HAL_UART_Transmit>:
 8006c98:	b580      	push	{r7, lr}
 8006c9a:	b088      	sub	sp, #32
 8006c9c:	af02      	add	r7, sp, #8
 8006c9e:	60f8      	str	r0, [r7, #12]
 8006ca0:	60b9      	str	r1, [r7, #8]
 8006ca2:	603b      	str	r3, [r7, #0]
 8006ca4:	4613      	mov	r3, r2
 8006ca6:	80fb      	strh	r3, [r7, #6]
 8006ca8:	2300      	movs	r3, #0
 8006caa:	617b      	str	r3, [r7, #20]
 8006cac:	68fb      	ldr	r3, [r7, #12]
 8006cae:	f893 3039 	ldrb.w	r3, [r3, #57]	; 0x39
 8006cb2:	b2db      	uxtb	r3, r3
 8006cb4:	2b20      	cmp	r3, #32
 8006cb6:	f040 8083 	bne.w	8006dc0 <HAL_UART_Transmit+0x128>
 8006cba:	68bb      	ldr	r3, [r7, #8]
 8006cbc:	2b00      	cmp	r3, #0
 8006cbe:	d002      	beq.n	8006cc6 <HAL_UART_Transmit+0x2e>
 8006cc0:	88fb      	ldrh	r3, [r7, #6]
 8006cc2:	2b00      	cmp	r3, #0
 8006cc4:	d101      	bne.n	8006cca <HAL_UART_Transmit+0x32>
 8006cc6:	2301      	movs	r3, #1
 8006cc8:	e07b      	b.n	8006dc2 <HAL_UART_Transmit+0x12a>
 8006cca:	68fb      	ldr	r3, [r7, #12]
 8006ccc:	f893 3038 	ldrb.w	r3, [r3, #56]	; 0x38
 8006cd0:	2b01      	cmp	r3, #1
 8006cd2:	d101      	bne.n	8006cd8 <HAL_UART_Transmit+0x40>
 8006cd4:	2302      	movs	r3, #2
 8006cd6:	e074      	b.n	8006dc2 <HAL_UART_Transmit+0x12a>
 8006cd8:	68fb      	ldr	r3, [r7, #12]
 8006cda:	2201      	movs	r2, #1
 8006cdc:	f883 2038 	strb.w	r2, [r3, #56]	; 0x38
 8006ce0:	68fb      	ldr	r3, [r7, #12]
 8006ce2:	2200      	movs	r2, #0
 8006ce4:	63da      	str	r2, [r3, #60]	; 0x3c
 8006ce6:	68fb      	ldr	r3, [r7, #12]
 8006ce8:	2221      	movs	r2, #33	; 0x21
 8006cea:	f883 2039 	strb.w	r2, [r3, #57]	; 0x39
 8006cee:	f7fb f84b 	bl	8001d88 <HAL_GetTick>
 8006cf2:	6178      	str	r0, [r7, #20]
 8006cf4:	68fb      	ldr	r3, [r7, #12]
 8006cf6:	88fa      	ldrh	r2, [r7, #6]
 8006cf8:	849a      	strh	r2, [r3, #36]	; 0x24
 8006cfa:	68fb      	ldr	r3, [r7, #12]
 8006cfc:	88fa      	ldrh	r2, [r7, #6]
 8006cfe:	84da      	strh	r2, [r3, #38]	; 0x26
 8006d00:	e042      	b.n	8006d88 <HAL_UART_Transmit+0xf0>
 8006d02:	68fb      	ldr	r3, [r7, #12]
 8006d04:	8cdb      	ldrh	r3, [r3, #38]	; 0x26
 8006d06:	b29b      	uxth	r3, r3
 8006d08:	3b01      	subs	r3, #1
 8006d0a:	b29a      	uxth	r2, r3
 8006d0c:	68fb      	ldr	r3, [r7, #12]
 8006d0e:	84da      	strh	r2, [r3, #38]	; 0x26
 8006d10:	68fb      	ldr	r3, [r7, #12]
 8006d12:	689b      	ldr	r3, [r3, #8]
 8006d14:	f5b3 5f80 	cmp.w	r3, #4096	; 0x1000
 8006d18:	d122      	bne.n	8006d60 <HAL_UART_Transmit+0xc8>
 8006d1a:	683b      	ldr	r3, [r7, #0]
 8006d1c:	9300      	str	r3, [sp, #0]
 8006d1e:	697b      	ldr	r3, [r7, #20]
 8006d20:	2200      	movs	r2, #0
 8006d22:	2180      	movs	r1, #128	; 0x80
 8006d24:	68f8      	ldr	r0, [r7, #12]
 8006d26:	f000 f966 	bl	8006ff6 <UART_WaitOnFlagUntilTimeout>
 8006d2a:	4603      	mov	r3, r0
 8006d2c:	2b00      	cmp	r3, #0
 8006d2e:	d001      	beq.n	8006d34 <HAL_UART_Transmit+0x9c>
 8006d30:	2303      	movs	r3, #3
 8006d32:	e046      	b.n	8006dc2 <HAL_UART_Transmit+0x12a>
 8006d34:	68bb      	ldr	r3, [r7, #8]
 8006d36:	613b      	str	r3, [r7, #16]
 8006d38:	693b      	ldr	r3, [r7, #16]
 8006d3a:	881b      	ldrh	r3, [r3, #0]
 8006d3c:	461a      	mov	r2, r3
 8006d3e:	68fb      	ldr	r3, [r7, #12]
 8006d40:	681b      	ldr	r3, [r3, #0]
 8006d42:	f3c2 0208 	ubfx	r2, r2, #0, #9
 8006d46:	605a      	str	r2, [r3, #4]
 8006d48:	68fb      	ldr	r3, [r7, #12]
 8006d4a:	691b      	ldr	r3, [r3, #16]
 8006d4c:	2b00      	cmp	r3, #0
 8006d4e:	d103      	bne.n	8006d58 <HAL_UART_Transmit+0xc0>
 8006d50:	68bb      	ldr	r3, [r7, #8]
 8006d52:	3302      	adds	r3, #2
 8006d54:	60bb      	str	r3, [r7, #8]
 8006d56:	e017      	b.n	8006d88 <HAL_UART_Transmit+0xf0>
 8006d58:	68bb      	ldr	r3, [r7, #8]
 8006d5a:	3301      	adds	r3, #1
 8006d5c:	60bb      	str	r3, [r7, #8]
 8006d5e:	e013      	b.n	8006d88 <HAL_UART_Transmit+0xf0>
 8006d60:	683b      	ldr	r3, [r7, #0]
 8006d62:	9300      	str	r3, [sp, #0]
 8006d64:	697b      	ldr	r3, [r7, #20]
 8006d66:	2200      	movs	r2, #0
 8006d68:	2180      	movs	r1, #128	; 0x80
 8006d6a:	68f8      	ldr	r0, [r7, #12]
 8006d6c:	f000 f943 	bl	8006ff6 <UART_WaitOnFlagUntilTimeout>
 8006d70:	4603      	mov	r3, r0
 8006d72:	2b00      	cmp	r3, #0
 8006d74:	d001      	beq.n	8006d7a <HAL_UART_Transmit+0xe2>
 8006d76:	2303      	movs	r3, #3
 8006d78:	e023      	b.n	8006dc2 <HAL_UART_Transmit+0x12a>
 8006d7a:	68bb      	ldr	r3, [r7, #8]
 8006d7c:	1c5a      	adds	r2, r3, #1
 8006d7e:	60ba      	str	r2, [r7, #8]
 8006d80:	781a      	ldrb	r2, [r3, #0]
 8006d82:	68fb      	ldr	r3, [r7, #12]
 8006d84:	681b      	ldr	r3, [r3, #0]
 8006d86:	605a      	str	r2, [r3, #4]
 8006d88:	68fb      	ldr	r3, [r7, #12]
 8006d8a:	8cdb      	ldrh	r3, [r3, #38]	; 0x26
 8006d8c:	b29b      	uxth	r3, r3
 8006d8e:	2b00      	cmp	r3, #0
 8006d90:	d1b7      	bne.n	8006d02 <HAL_UART_Transmit+0x6a>
 8006d92:	683b      	ldr	r3, [r7, #0]
 8006d94:	9300      	str	r3, [sp, #0]
 8006d96:	697b      	ldr	r3, [r7, #20]
 8006d98:	2200      	movs	r2, #0
 8006d9a:	2140      	movs	r1, #64	; 0x40
 8006d9c:	68f8      	ldr	r0, [r7, #12]
 8006d9e:	f000 f92a 	bl	8006ff6 <UART_WaitOnFlagUntilTimeout>
 8006da2:	4603      	mov	r3, r0
 8006da4:	2b00      	cmp	r3, #0
 8006da6:	d001      	beq.n	8006dac <HAL_UART_Transmit+0x114>
 8006da8:	2303      	movs	r3, #3
 8006daa:	e00a      	b.n	8006dc2 <HAL_UART_Transmit+0x12a>
 8006dac:	68fb      	ldr	r3, [r7, #12]
 8006dae:	2220      	movs	r2, #32
 8006db0:	f883 2039 	strb.w	r2, [r3, #57]	; 0x39
 8006db4:	68fb      	ldr	r3, [r7, #12]
 8006db6:	2200      	movs	r2, #0
 8006db8:	f883 2038 	strb.w	r2, [r3, #56]	; 0x38
 8006dbc:	2300      	movs	r3, #0
 8006dbe:	e000      	b.n	8006dc2 <HAL_UART_Transmit+0x12a>
 8006dc0:	2302      	movs	r3, #2
 8006dc2:	4618      	mov	r0, r3
 8006dc4:	3718      	adds	r7, #24
 8006dc6:	46bd      	mov	sp, r7
 8006dc8:	bd80      	pop	{r7, pc}
	...

08006dcc <HAL_UART_Receive_DMA>:
 8006dcc:	b580      	push	{r7, lr}
 8006dce:	b086      	sub	sp, #24
 8006dd0:	af00      	add	r7, sp, #0
 8006dd2:	60f8      	str	r0, [r7, #12]
 8006dd4:	60b9      	str	r1, [r7, #8]
 8006dd6:	4613      	mov	r3, r2
 8006dd8:	80fb      	strh	r3, [r7, #6]
 8006dda:	68fb      	ldr	r3, [r7, #12]
 8006ddc:	f893 303a 	ldrb.w	r3, [r3, #58]	; 0x3a
 8006de0:	b2db      	uxtb	r3, r3
 8006de2:	2b20      	cmp	r3, #32
 8006de4:	d166      	bne.n	8006eb4 <HAL_UART_Receive_DMA+0xe8>
 8006de6:	68bb      	ldr	r3, [r7, #8]
 8006de8:	2b00      	cmp	r3, #0
 8006dea:	d002      	beq.n	8006df2 <HAL_UART_Receive_DMA+0x26>
 8006dec:	88fb      	ldrh	r3, [r7, #6]
 8006dee:	2b00      	cmp	r3, #0
 8006df0:	d101      	bne.n	8006df6 <HAL_UART_Receive_DMA+0x2a>
 8006df2:	2301      	movs	r3, #1
 8006df4:	e05f      	b.n	8006eb6 <HAL_UART_Receive_DMA+0xea>
 8006df6:	68fb      	ldr	r3, [r7, #12]
 8006df8:	f893 3038 	ldrb.w	r3, [r3, #56]	; 0x38
 8006dfc:	2b01      	cmp	r3, #1
 8006dfe:	d101      	bne.n	8006e04 <HAL_UART_Receive_DMA+0x38>
 8006e00:	2302      	movs	r3, #2
 8006e02:	e058      	b.n	8006eb6 <HAL_UART_Receive_DMA+0xea>
 8006e04:	68fb      	ldr	r3, [r7, #12]
 8006e06:	2201      	movs	r2, #1
 8006e08:	f883 2038 	strb.w	r2, [r3, #56]	; 0x38
 8006e0c:	68ba      	ldr	r2, [r7, #8]
 8006e0e:	68fb      	ldr	r3, [r7, #12]
 8006e10:	629a      	str	r2, [r3, #40]	; 0x28
 8006e12:	68fb      	ldr	r3, [r7, #12]
 8006e14:	88fa      	ldrh	r2, [r7, #6]
 8006e16:	859a      	strh	r2, [r3, #44]	; 0x2c
 8006e18:	68fb      	ldr	r3, [r7, #12]
 8006e1a:	2200      	movs	r2, #0
 8006e1c:	63da      	str	r2, [r3, #60]	; 0x3c
 8006e1e:	68fb      	ldr	r3, [r7, #12]
 8006e20:	2222      	movs	r2, #34	; 0x22
 8006e22:	f883 203a 	strb.w	r2, [r3, #58]	; 0x3a
 8006e26:	68fb      	ldr	r3, [r7, #12]
 8006e28:	6b5b      	ldr	r3, [r3, #52]	; 0x34
 8006e2a:	4a25      	ldr	r2, [pc, #148]	; (8006ec0 <HAL_UART_Receive_DMA+0xf4>)
 8006e2c:	629a      	str	r2, [r3, #40]	; 0x28
 8006e2e:	68fb      	ldr	r3, [r7, #12]
 8006e30:	6b5b      	ldr	r3, [r3, #52]	; 0x34
 8006e32:	4a24      	ldr	r2, [pc, #144]	; (8006ec4 <HAL_UART_Receive_DMA+0xf8>)
 8006e34:	62da      	str	r2, [r3, #44]	; 0x2c
 8006e36:	68fb      	ldr	r3, [r7, #12]
 8006e38:	6b5b      	ldr	r3, [r3, #52]	; 0x34
 8006e3a:	4a23      	ldr	r2, [pc, #140]	; (8006ec8 <HAL_UART_Receive_DMA+0xfc>)
 8006e3c:	631a      	str	r2, [r3, #48]	; 0x30
 8006e3e:	68fb      	ldr	r3, [r7, #12]
 8006e40:	6b5b      	ldr	r3, [r3, #52]	; 0x34
 8006e42:	2200      	movs	r2, #0
 8006e44:	635a      	str	r2, [r3, #52]	; 0x34
 8006e46:	f107 0308 	add.w	r3, r7, #8
 8006e4a:	617b      	str	r3, [r7, #20]
 8006e4c:	68fb      	ldr	r3, [r7, #12]
 8006e4e:	6b58      	ldr	r0, [r3, #52]	; 0x34
 8006e50:	68fb      	ldr	r3, [r7, #12]
 8006e52:	681b      	ldr	r3, [r3, #0]
 8006e54:	3304      	adds	r3, #4
 8006e56:	4619      	mov	r1, r3
 8006e58:	697b      	ldr	r3, [r7, #20]
 8006e5a:	681a      	ldr	r2, [r3, #0]
 8006e5c:	88fb      	ldrh	r3, [r7, #6]
 8006e5e:	f7fb ff27 	bl	8002cb0 <HAL_DMA_Start_IT>
 8006e62:	2300      	movs	r3, #0
 8006e64:	613b      	str	r3, [r7, #16]
 8006e66:	68fb      	ldr	r3, [r7, #12]
 8006e68:	681b      	ldr	r3, [r3, #0]
 8006e6a:	681b      	ldr	r3, [r3, #0]
 8006e6c:	613b      	str	r3, [r7, #16]
 8006e6e:	68fb      	ldr	r3, [r7, #12]
 8006e70:	681b      	ldr	r3, [r3, #0]
 8006e72:	685b      	ldr	r3, [r3, #4]
 8006e74:	613b      	str	r3, [r7, #16]
 8006e76:	693b      	ldr	r3, [r7, #16]
 8006e78:	68fb      	ldr	r3, [r7, #12]
 8006e7a:	2200      	movs	r2, #0
 8006e7c:	f883 2038 	strb.w	r2, [r3, #56]	; 0x38
 8006e80:	68fb      	ldr	r3, [r7, #12]
 8006e82:	681b      	ldr	r3, [r3, #0]
 8006e84:	68da      	ldr	r2, [r3, #12]
 8006e86:	68fb      	ldr	r3, [r7, #12]
 8006e88:	681b      	ldr	r3, [r3, #0]
 8006e8a:	f442 7280 	orr.w	r2, r2, #256	; 0x100
 8006e8e:	60da      	str	r2, [r3, #12]
 8006e90:	68fb      	ldr	r3, [r7, #12]
 8006e92:	681b      	ldr	r3, [r3, #0]
 8006e94:	695a      	ldr	r2, [r3, #20]
 8006e96:	68fb      	ldr	r3, [r7, #12]
 8006e98:	681b      	ldr	r3, [r3, #0]
 8006e9a:	f042 0201 	orr.w	r2, r2, #1
 8006e9e:	615a      	str	r2, [r3, #20]
 8006ea0:	68fb      	ldr	r3, [r7, #12]
 8006ea2:	681b      	ldr	r3, [r3, #0]
 8006ea4:	695a      	ldr	r2, [r3, #20]
 8006ea6:	68fb      	ldr	r3, [r7, #12]
 8006ea8:	681b      	ldr	r3, [r3, #0]
 8006eaa:	f042 0240 	orr.w	r2, r2, #64	; 0x40
 8006eae:	615a      	str	r2, [r3, #20]
 8006eb0:	2300      	movs	r3, #0
 8006eb2:	e000      	b.n	8006eb6 <HAL_UART_Receive_DMA+0xea>
 8006eb4:	2302      	movs	r3, #2
 8006eb6:	4618      	mov	r0, r3
 8006eb8:	3718      	adds	r7, #24
 8006eba:	46bd      	mov	sp, r7
 8006ebc:	bd80      	pop	{r7, pc}
 8006ebe:	bf00      	nop
 8006ec0:	08006edf 	.word	0x08006edf
 8006ec4:	08006f47 	.word	0x08006f47
 8006ec8:	08006f63 	.word	0x08006f63

08006ecc <HAL_UART_RxHalfCpltCallback>:
 8006ecc:	b480      	push	{r7}
 8006ece:	b083      	sub	sp, #12
 8006ed0:	af00      	add	r7, sp, #0
 8006ed2:	6078      	str	r0, [r7, #4]
 8006ed4:	bf00      	nop
 8006ed6:	370c      	adds	r7, #12
 8006ed8:	46bd      	mov	sp, r7
 8006eda:	bc80      	pop	{r7}
 8006edc:	4770      	bx	lr

08006ede <UART_DMAReceiveCplt>:
 8006ede:	b580      	push	{r7, lr}
 8006ee0:	b084      	sub	sp, #16
 8006ee2:	af00      	add	r7, sp, #0
 8006ee4:	6078      	str	r0, [r7, #4]
 8006ee6:	687b      	ldr	r3, [r7, #4]
 8006ee8:	6a5b      	ldr	r3, [r3, #36]	; 0x24
 8006eea:	60fb      	str	r3, [r7, #12]
 8006eec:	687b      	ldr	r3, [r7, #4]
 8006eee:	681b      	ldr	r3, [r3, #0]
 8006ef0:	681b      	ldr	r3, [r3, #0]
 8006ef2:	f003 0320 	and.w	r3, r3, #32
 8006ef6:	2b00      	cmp	r3, #0
 8006ef8:	d11e      	bne.n	8006f38 <UART_DMAReceiveCplt+0x5a>
 8006efa:	68fb      	ldr	r3, [r7, #12]
 8006efc:	2200      	movs	r2, #0
 8006efe:	85da      	strh	r2, [r3, #46]	; 0x2e
 8006f00:	68fb      	ldr	r3, [r7, #12]
 8006f02:	681b      	ldr	r3, [r3, #0]
 8006f04:	68da      	ldr	r2, [r3, #12]
 8006f06:	68fb      	ldr	r3, [r7, #12]
 8006f08:	681b      	ldr	r3, [r3, #0]
 8006f0a:	f422 7280 	bic.w	r2, r2, #256	; 0x100
 8006f0e:	60da      	str	r2, [r3, #12]
 8006f10:	68fb      	ldr	r3, [r7, #12]
 8006f12:	681b      	ldr	r3, [r3, #0]
 8006f14:	695a      	ldr	r2, [r3, #20]
 8006f16:	68fb      	ldr	r3, [r7, #12]
 8006f18:	681b      	ldr	r3, [r3, #0]
 8006f1a:	f022 0201 	bic.w	r2, r2, #1
 8006f1e:	615a      	str	r2, [r3, #20]
 8006f20:	68fb      	ldr	r3, [r7, #12]
 8006f22:	681b      	ldr	r3, [r3, #0]
 8006f24:	695a      	ldr	r2, [r3, #20]
 8006f26:	68fb      	ldr	r3, [r7, #12]
 8006f28:	681b      	ldr	r3, [r3, #0]
 8006f2a:	f022 0240 	bic.w	r2, r2, #64	; 0x40
 8006f2e:	615a      	str	r2, [r3, #20]
 8006f30:	68fb      	ldr	r3, [r7, #12]
 8006f32:	2220      	movs	r2, #32
 8006f34:	f883 203a 	strb.w	r2, [r3, #58]	; 0x3a
 8006f38:	68f8      	ldr	r0, [r7, #12]
 8006f3a:	f7f9 fc71 	bl	8000820 <HAL_UART_RxCpltCallback>
 8006f3e:	bf00      	nop
 8006f40:	3710      	adds	r7, #16
 8006f42:	46bd      	mov	sp, r7
 8006f44:	bd80      	pop	{r7, pc}

08006f46 <UART_DMARxHalfCplt>:
 8006f46:	b580      	push	{r7, lr}
 8006f48:	b084      	sub	sp, #16
 8006f4a:	af00      	add	r7, sp, #0
 8006f4c:	6078      	str	r0, [r7, #4]
 8006f4e:	687b      	ldr	r3, [r7, #4]
 8006f50:	6a5b      	ldr	r3, [r3, #36]	; 0x24
 8006f52:	60fb      	str	r3, [r7, #12]
 8006f54:	68f8      	ldr	r0, [r7, #12]
 8006f56:	f7ff ffb9 	bl	8006ecc <HAL_UART_RxHalfCpltCallback>
 8006f5a:	bf00      	nop
 8006f5c:	3710      	adds	r7, #16
 8006f5e:	46bd      	mov	sp, r7
 8006f60:	bd80      	pop	{r7, pc}

08006f62 <UART_DMAError>:
 8006f62:	b580      	push	{r7, lr}
 8006f64:	b084      	sub	sp, #16
 8006f66:	af00      	add	r7, sp, #0
 8006f68:	6078      	str	r0, [r7, #4]
 8006f6a:	2300      	movs	r3, #0
 8006f6c:	60fb      	str	r3, [r7, #12]
 8006f6e:	687b      	ldr	r3, [r7, #4]
 8006f70:	6a5b      	ldr	r3, [r3, #36]	; 0x24
 8006f72:	60bb      	str	r3, [r7, #8]
 8006f74:	68bb      	ldr	r3, [r7, #8]
 8006f76:	681b      	ldr	r3, [r3, #0]
 8006f78:	695b      	ldr	r3, [r3, #20]
 8006f7a:	f003 0380 	and.w	r3, r3, #128	; 0x80
 8006f7e:	2b80      	cmp	r3, #128	; 0x80
 8006f80:	bf0c      	ite	eq
 8006f82:	2301      	moveq	r3, #1
 8006f84:	2300      	movne	r3, #0
 8006f86:	b2db      	uxtb	r3, r3
 8006f88:	60fb      	str	r3, [r7, #12]
 8006f8a:	68bb      	ldr	r3, [r7, #8]
 8006f8c:	f893 3039 	ldrb.w	r3, [r3, #57]	; 0x39
 8006f90:	b2db      	uxtb	r3, r3
 8006f92:	2b21      	cmp	r3, #33	; 0x21
 8006f94:	d108      	bne.n	8006fa8 <UART_DMAError+0x46>
 8006f96:	68fb      	ldr	r3, [r7, #12]
 8006f98:	2b00      	cmp	r3, #0
 8006f9a:	d005      	beq.n	8006fa8 <UART_DMAError+0x46>
 8006f9c:	68bb      	ldr	r3, [r7, #8]
 8006f9e:	2200      	movs	r2, #0
 8006fa0:	84da      	strh	r2, [r3, #38]	; 0x26
 8006fa2:	68b8      	ldr	r0, [r7, #8]
 8006fa4:	f000 f871 	bl	800708a <UART_EndTxTransfer>
 8006fa8:	68bb      	ldr	r3, [r7, #8]
 8006faa:	681b      	ldr	r3, [r3, #0]
 8006fac:	695b      	ldr	r3, [r3, #20]
 8006fae:	f003 0340 	and.w	r3, r3, #64	; 0x40
 8006fb2:	2b40      	cmp	r3, #64	; 0x40
 8006fb4:	bf0c      	ite	eq
 8006fb6:	2301      	moveq	r3, #1
 8006fb8:	2300      	movne	r3, #0
 8006fba:	b2db      	uxtb	r3, r3
 8006fbc:	60fb      	str	r3, [r7, #12]
 8006fbe:	68bb      	ldr	r3, [r7, #8]
 8006fc0:	f893 303a 	ldrb.w	r3, [r3, #58]	; 0x3a
 8006fc4:	b2db      	uxtb	r3, r3
 8006fc6:	2b22      	cmp	r3, #34	; 0x22
 8006fc8:	d108      	bne.n	8006fdc <UART_DMAError+0x7a>
 8006fca:	68fb      	ldr	r3, [r7, #12]
 8006fcc:	2b00      	cmp	r3, #0
 8006fce:	d005      	beq.n	8006fdc <UART_DMAError+0x7a>
 8006fd0:	68bb      	ldr	r3, [r7, #8]
 8006fd2:	2200      	movs	r2, #0
 8006fd4:	85da      	strh	r2, [r3, #46]	; 0x2e
 8006fd6:	68b8      	ldr	r0, [r7, #8]
 8006fd8:	f000 f86c 	bl	80070b4 <UART_EndRxTransfer>
 8006fdc:	68bb      	ldr	r3, [r7, #8]
 8006fde:	6bdb      	ldr	r3, [r3, #60]	; 0x3c
 8006fe0:	f043 0210 	orr.w	r2, r3, #16
 8006fe4:	68bb      	ldr	r3, [r7, #8]
 8006fe6:	63da      	str	r2, [r3, #60]	; 0x3c
 8006fe8:	68b8      	ldr	r0, [r7, #8]
 8006fea:	f7f9 fc3b 	bl	8000864 <HAL_UART_ErrorCallback>
 8006fee:	bf00      	nop
 8006ff0:	3710      	adds	r7, #16
 8006ff2:	46bd      	mov	sp, r7
 8006ff4:	bd80      	pop	{r7, pc}

08006ff6 <UART_WaitOnFlagUntilTimeout>:
 8006ff6:	b580      	push	{r7, lr}
 8006ff8:	b084      	sub	sp, #16
 8006ffa:	af00      	add	r7, sp, #0
 8006ffc:	60f8      	str	r0, [r7, #12]
 8006ffe:	60b9      	str	r1, [r7, #8]
 8007000:	603b      	str	r3, [r7, #0]
 8007002:	4613      	mov	r3, r2
 8007004:	71fb      	strb	r3, [r7, #7]
 8007006:	e02c      	b.n	8007062 <UART_WaitOnFlagUntilTimeout+0x6c>
 8007008:	69bb      	ldr	r3, [r7, #24]
 800700a:	f1b3 3fff 	cmp.w	r3, #4294967295
 800700e:	d028      	beq.n	8007062 <UART_WaitOnFlagUntilTimeout+0x6c>
 8007010:	69bb      	ldr	r3, [r7, #24]
 8007012:	2b00      	cmp	r3, #0
 8007014:	d007      	beq.n	8007026 <UART_WaitOnFlagUntilTimeout+0x30>
 8007016:	f7fa feb7 	bl	8001d88 <HAL_GetTick>
 800701a:	4602      	mov	r2, r0
 800701c:	683b      	ldr	r3, [r7, #0]
 800701e:	1ad3      	subs	r3, r2, r3
 8007020:	69ba      	ldr	r2, [r7, #24]
 8007022:	429a      	cmp	r2, r3
 8007024:	d21d      	bcs.n	8007062 <UART_WaitOnFlagUntilTimeout+0x6c>
 8007026:	68fb      	ldr	r3, [r7, #12]
 8007028:	681b      	ldr	r3, [r3, #0]
 800702a:	68da      	ldr	r2, [r3, #12]
 800702c:	68fb      	ldr	r3, [r7, #12]
 800702e:	681b      	ldr	r3, [r3, #0]
 8007030:	f422 72d0 	bic.w	r2, r2, #416	; 0x1a0
 8007034:	60da      	str	r2, [r3, #12]
 8007036:	68fb      	ldr	r3, [r7, #12]
 8007038:	681b      	ldr	r3, [r3, #0]
 800703a:	695a      	ldr	r2, [r3, #20]
 800703c:	68fb      	ldr	r3, [r7, #12]
 800703e:	681b      	ldr	r3, [r3, #0]
 8007040:	f022 0201 	bic.w	r2, r2, #1
 8007044:	615a      	str	r2, [r3, #20]
 8007046:	68fb      	ldr	r3, [r7, #12]
 8007048:	2220      	movs	r2, #32
 800704a:	f883 2039 	strb.w	r2, [r3, #57]	; 0x39
 800704e:	68fb      	ldr	r3, [r7, #12]
 8007050:	2220      	movs	r2, #32
 8007052:	f883 203a 	strb.w	r2, [r3, #58]	; 0x3a
 8007056:	68fb      	ldr	r3, [r7, #12]
 8007058:	2200      	movs	r2, #0
 800705a:	f883 2038 	strb.w	r2, [r3, #56]	; 0x38
 800705e:	2303      	movs	r3, #3
 8007060:	e00f      	b.n	8007082 <UART_WaitOnFlagUntilTimeout+0x8c>
 8007062:	68fb      	ldr	r3, [r7, #12]
 8007064:	681b      	ldr	r3, [r3, #0]
 8007066:	681a      	ldr	r2, [r3, #0]
 8007068:	68bb      	ldr	r3, [r7, #8]
 800706a:	4013      	ands	r3, r2
 800706c:	68ba      	ldr	r2, [r7, #8]
 800706e:	429a      	cmp	r2, r3
 8007070:	bf0c      	ite	eq
 8007072:	2301      	moveq	r3, #1
 8007074:	2300      	movne	r3, #0
 8007076:	b2db      	uxtb	r3, r3
 8007078:	461a      	mov	r2, r3
 800707a:	79fb      	ldrb	r3, [r7, #7]
 800707c:	429a      	cmp	r2, r3
 800707e:	d0c3      	beq.n	8007008 <UART_WaitOnFlagUntilTimeout+0x12>
 8007080:	2300      	movs	r3, #0
 8007082:	4618      	mov	r0, r3
 8007084:	3710      	adds	r7, #16
 8007086:	46bd      	mov	sp, r7
 8007088:	bd80      	pop	{r7, pc}

0800708a <UART_EndTxTransfer>:
 800708a:	b480      	push	{r7}
 800708c:	b083      	sub	sp, #12
 800708e:	af00      	add	r7, sp, #0
 8007090:	6078      	str	r0, [r7, #4]
 8007092:	687b      	ldr	r3, [r7, #4]
 8007094:	681b      	ldr	r3, [r3, #0]
 8007096:	68da      	ldr	r2, [r3, #12]
 8007098:	687b      	ldr	r3, [r7, #4]
 800709a:	681b      	ldr	r3, [r3, #0]
 800709c:	f022 02c0 	bic.w	r2, r2, #192	; 0xc0
 80070a0:	60da      	str	r2, [r3, #12]
 80070a2:	687b      	ldr	r3, [r7, #4]
 80070a4:	2220      	movs	r2, #32
 80070a6:	f883 2039 	strb.w	r2, [r3, #57]	; 0x39
 80070aa:	bf00      	nop
 80070ac:	370c      	adds	r7, #12
 80070ae:	46bd      	mov	sp, r7
 80070b0:	bc80      	pop	{r7}
 80070b2:	4770      	bx	lr

080070b4 <UART_EndRxTransfer>:
 80070b4:	b480      	push	{r7}
 80070b6:	b083      	sub	sp, #12
 80070b8:	af00      	add	r7, sp, #0
 80070ba:	6078      	str	r0, [r7, #4]
 80070bc:	687b      	ldr	r3, [r7, #4]
 80070be:	681b      	ldr	r3, [r3, #0]
 80070c0:	68da      	ldr	r2, [r3, #12]
 80070c2:	687b      	ldr	r3, [r7, #4]
 80070c4:	681b      	ldr	r3, [r3, #0]
 80070c6:	f422 7290 	bic.w	r2, r2, #288	; 0x120
 80070ca:	60da      	str	r2, [r3, #12]
 80070cc:	687b      	ldr	r3, [r7, #4]
 80070ce:	681b      	ldr	r3, [r3, #0]
 80070d0:	695a      	ldr	r2, [r3, #20]
 80070d2:	687b      	ldr	r3, [r7, #4]
 80070d4:	681b      	ldr	r3, [r3, #0]
 80070d6:	f022 0201 	bic.w	r2, r2, #1
 80070da:	615a      	str	r2, [r3, #20]
 80070dc:	687b      	ldr	r3, [r7, #4]
 80070de:	2220      	movs	r2, #32
 80070e0:	f883 203a 	strb.w	r2, [r3, #58]	; 0x3a
 80070e4:	bf00      	nop
 80070e6:	370c      	adds	r7, #12
 80070e8:	46bd      	mov	sp, r7
 80070ea:	bc80      	pop	{r7}
 80070ec:	4770      	bx	lr
	...

080070f0 <UART_SetConfig>:
 80070f0:	b580      	push	{r7, lr}
 80070f2:	b084      	sub	sp, #16
 80070f4:	af00      	add	r7, sp, #0
 80070f6:	6078      	str	r0, [r7, #4]
 80070f8:	687b      	ldr	r3, [r7, #4]
 80070fa:	685b      	ldr	r3, [r3, #4]
 80070fc:	4ab2      	ldr	r2, [pc, #712]	; (80073c8 <UART_SetConfig+0x2d8>)
 80070fe:	4293      	cmp	r3, r2
 8007100:	d904      	bls.n	800710c <UART_SetConfig+0x1c>
 8007102:	f640 31e2 	movw	r1, #3042	; 0xbe2
 8007106:	48b1      	ldr	r0, [pc, #708]	; (80073cc <UART_SetConfig+0x2dc>)
 8007108:	f7fa f938 	bl	800137c <assert_failed>
 800710c:	687b      	ldr	r3, [r7, #4]
 800710e:	68db      	ldr	r3, [r3, #12]
 8007110:	2b00      	cmp	r3, #0
 8007112:	d009      	beq.n	8007128 <UART_SetConfig+0x38>
 8007114:	687b      	ldr	r3, [r7, #4]
 8007116:	68db      	ldr	r3, [r3, #12]
 8007118:	f5b3 5f00 	cmp.w	r3, #8192	; 0x2000
 800711c:	d004      	beq.n	8007128 <UART_SetConfig+0x38>
 800711e:	f640 31e3 	movw	r1, #3043	; 0xbe3
 8007122:	48aa      	ldr	r0, [pc, #680]	; (80073cc <UART_SetConfig+0x2dc>)
 8007124:	f7fa f92a 	bl	800137c <assert_failed>
 8007128:	687b      	ldr	r3, [r7, #4]
 800712a:	691b      	ldr	r3, [r3, #16]
 800712c:	2b00      	cmp	r3, #0
 800712e:	d00e      	beq.n	800714e <UART_SetConfig+0x5e>
 8007130:	687b      	ldr	r3, [r7, #4]
 8007132:	691b      	ldr	r3, [r3, #16]
 8007134:	f5b3 6f80 	cmp.w	r3, #1024	; 0x400
 8007138:	d009      	beq.n	800714e <UART_SetConfig+0x5e>
 800713a:	687b      	ldr	r3, [r7, #4]
 800713c:	691b      	ldr	r3, [r3, #16]
 800713e:	f5b3 6fc0 	cmp.w	r3, #1536	; 0x600
 8007142:	d004      	beq.n	800714e <UART_SetConfig+0x5e>
 8007144:	f640 31e4 	movw	r1, #3044	; 0xbe4
 8007148:	48a0      	ldr	r0, [pc, #640]	; (80073cc <UART_SetConfig+0x2dc>)
 800714a:	f7fa f917 	bl	800137c <assert_failed>
 800714e:	687b      	ldr	r3, [r7, #4]
 8007150:	695a      	ldr	r2, [r3, #20]
 8007152:	f64f 73f3 	movw	r3, #65523	; 0xfff3
 8007156:	4013      	ands	r3, r2
 8007158:	2b00      	cmp	r3, #0
 800715a:	d103      	bne.n	8007164 <UART_SetConfig+0x74>
 800715c:	687b      	ldr	r3, [r7, #4]
 800715e:	695b      	ldr	r3, [r3, #20]
 8007160:	2b00      	cmp	r3, #0
 8007162:	d104      	bne.n	800716e <UART_SetConfig+0x7e>
 8007164:	f640 31e5 	movw	r1, #3045	; 0xbe5
 8007168:	4898      	ldr	r0, [pc, #608]	; (80073cc <UART_SetConfig+0x2dc>)
 800716a:	f7fa f907 	bl	800137c <assert_failed>
 800716e:	687b      	ldr	r3, [r7, #4]
 8007170:	681b      	ldr	r3, [r3, #0]
 8007172:	691b      	ldr	r3, [r3, #16]
 8007174:	f423 5140 	bic.w	r1, r3, #12288	; 0x3000
 8007178:	687b      	ldr	r3, [r7, #4]
 800717a:	68da      	ldr	r2, [r3, #12]
 800717c:	687b      	ldr	r3, [r7, #4]
 800717e:	681b      	ldr	r3, [r3, #0]
 8007180:	430a      	orrs	r2, r1
 8007182:	611a      	str	r2, [r3, #16]
 8007184:	687b      	ldr	r3, [r7, #4]
 8007186:	689a      	ldr	r2, [r3, #8]
 8007188:	687b      	ldr	r3, [r7, #4]
 800718a:	691b      	ldr	r3, [r3, #16]
 800718c:	431a      	orrs	r2, r3
 800718e:	687b      	ldr	r3, [r7, #4]
 8007190:	695b      	ldr	r3, [r3, #20]
 8007192:	431a      	orrs	r2, r3
 8007194:	687b      	ldr	r3, [r7, #4]
 8007196:	69db      	ldr	r3, [r3, #28]
 8007198:	4313      	orrs	r3, r2
 800719a:	60fb      	str	r3, [r7, #12]
 800719c:	687b      	ldr	r3, [r7, #4]
 800719e:	681b      	ldr	r3, [r3, #0]
 80071a0:	68db      	ldr	r3, [r3, #12]
 80071a2:	f423 4316 	bic.w	r3, r3, #38400	; 0x9600
 80071a6:	f023 030c 	bic.w	r3, r3, #12
 80071aa:	687a      	ldr	r2, [r7, #4]
 80071ac:	6812      	ldr	r2, [r2, #0]
 80071ae:	68f9      	ldr	r1, [r7, #12]
 80071b0:	430b      	orrs	r3, r1
 80071b2:	60d3      	str	r3, [r2, #12]
 80071b4:	687b      	ldr	r3, [r7, #4]
 80071b6:	681b      	ldr	r3, [r3, #0]
 80071b8:	695b      	ldr	r3, [r3, #20]
 80071ba:	f423 7140 	bic.w	r1, r3, #768	; 0x300
 80071be:	687b      	ldr	r3, [r7, #4]
 80071c0:	699a      	ldr	r2, [r3, #24]
 80071c2:	687b      	ldr	r3, [r7, #4]
 80071c4:	681b      	ldr	r3, [r3, #0]
 80071c6:	430a      	orrs	r2, r1
 80071c8:	615a      	str	r2, [r3, #20]
 80071ca:	687b      	ldr	r3, [r7, #4]
 80071cc:	69db      	ldr	r3, [r3, #28]
 80071ce:	f5b3 4f00 	cmp.w	r3, #32768	; 0x8000
 80071d2:	f040 80a5 	bne.w	8007320 <UART_SetConfig+0x230>
 80071d6:	687b      	ldr	r3, [r7, #4]
 80071d8:	681b      	ldr	r3, [r3, #0]
 80071da:	4a7d      	ldr	r2, [pc, #500]	; (80073d0 <UART_SetConfig+0x2e0>)
 80071dc:	4293      	cmp	r3, r2
 80071de:	d14f      	bne.n	8007280 <UART_SetConfig+0x190>
 80071e0:	f7fe f842 	bl	8005268 <HAL_RCC_GetPCLK2Freq>
 80071e4:	60b8      	str	r0, [r7, #8]
 80071e6:	68ba      	ldr	r2, [r7, #8]
 80071e8:	4613      	mov	r3, r2
 80071ea:	009b      	lsls	r3, r3, #2
 80071ec:	4413      	add	r3, r2
 80071ee:	009a      	lsls	r2, r3, #2
 80071f0:	441a      	add	r2, r3
 80071f2:	687b      	ldr	r3, [r7, #4]
 80071f4:	685b      	ldr	r3, [r3, #4]
 80071f6:	005b      	lsls	r3, r3, #1
 80071f8:	fbb2 f3f3 	udiv	r3, r2, r3
 80071fc:	4a75      	ldr	r2, [pc, #468]	; (80073d4 <UART_SetConfig+0x2e4>)
 80071fe:	fba2 2303 	umull	r2, r3, r2, r3
 8007202:	095b      	lsrs	r3, r3, #5
 8007204:	0119      	lsls	r1, r3, #4
 8007206:	68ba      	ldr	r2, [r7, #8]
 8007208:	4613      	mov	r3, r2
 800720a:	009b      	lsls	r3, r3, #2
 800720c:	4413      	add	r3, r2
 800720e:	009a      	lsls	r2, r3, #2
 8007210:	441a      	add	r2, r3
 8007212:	687b      	ldr	r3, [r7, #4]
 8007214:	685b      	ldr	r3, [r3, #4]
 8007216:	005b      	lsls	r3, r3, #1
 8007218:	fbb2 f2f3 	udiv	r2, r2, r3
 800721c:	4b6d      	ldr	r3, [pc, #436]	; (80073d4 <UART_SetConfig+0x2e4>)
 800721e:	fba3 0302 	umull	r0, r3, r3, r2
 8007222:	095b      	lsrs	r3, r3, #5
 8007224:	2064      	movs	r0, #100	; 0x64
 8007226:	fb00 f303 	mul.w	r3, r0, r3
 800722a:	1ad3      	subs	r3, r2, r3
 800722c:	00db      	lsls	r3, r3, #3
 800722e:	3332      	adds	r3, #50	; 0x32
 8007230:	4a68      	ldr	r2, [pc, #416]	; (80073d4 <UART_SetConfig+0x2e4>)
 8007232:	fba2 2303 	umull	r2, r3, r2, r3
 8007236:	095b      	lsrs	r3, r3, #5
 8007238:	005b      	lsls	r3, r3, #1
 800723a:	f403 73f8 	and.w	r3, r3, #496	; 0x1f0
 800723e:	4419      	add	r1, r3
 8007240:	68ba      	ldr	r2, [r7, #8]
 8007242:	4613      	mov	r3, r2
 8007244:	009b      	lsls	r3, r3, #2
 8007246:	4413      	add	r3, r2
 8007248:	009a      	lsls	r2, r3, #2
 800724a:	441a      	add	r2, r3
 800724c:	687b      	ldr	r3, [r7, #4]
 800724e:	685b      	ldr	r3, [r3, #4]
 8007250:	005b      	lsls	r3, r3, #1
 8007252:	fbb2 f2f3 	udiv	r2, r2, r3
 8007256:	4b5f      	ldr	r3, [pc, #380]	; (80073d4 <UART_SetConfig+0x2e4>)
 8007258:	fba3 0302 	umull	r0, r3, r3, r2
 800725c:	095b      	lsrs	r3, r3, #5
 800725e:	2064      	movs	r0, #100	; 0x64
 8007260:	fb00 f303 	mul.w	r3, r0, r3
 8007264:	1ad3      	subs	r3, r2, r3
 8007266:	00db      	lsls	r3, r3, #3
 8007268:	3332      	adds	r3, #50	; 0x32
 800726a:	4a5a      	ldr	r2, [pc, #360]	; (80073d4 <UART_SetConfig+0x2e4>)
 800726c:	fba2 2303 	umull	r2, r3, r2, r3
 8007270:	095b      	lsrs	r3, r3, #5
 8007272:	f003 0207 	and.w	r2, r3, #7
 8007276:	687b      	ldr	r3, [r7, #4]
 8007278:	681b      	ldr	r3, [r3, #0]
 800727a:	440a      	add	r2, r1
 800727c:	609a      	str	r2, [r3, #8]
 800727e:	e0f9      	b.n	8007474 <UART_SetConfig+0x384>
 8007280:	f7fd ffde 	bl	8005240 <HAL_RCC_GetPCLK1Freq>
 8007284:	60b8      	str	r0, [r7, #8]
 8007286:	68ba      	ldr	r2, [r7, #8]
 8007288:	4613      	mov	r3, r2
 800728a:	009b      	lsls	r3, r3, #2
 800728c:	4413      	add	r3, r2
 800728e:	009a      	lsls	r2, r3, #2
 8007290:	441a      	add	r2, r3
 8007292:	687b      	ldr	r3, [r7, #4]
 8007294:	685b      	ldr	r3, [r3, #4]
 8007296:	005b      	lsls	r3, r3, #1
 8007298:	fbb2 f3f3 	udiv	r3, r2, r3
 800729c:	4a4d      	ldr	r2, [pc, #308]	; (80073d4 <UART_SetConfig+0x2e4>)
 800729e:	fba2 2303 	umull	r2, r3, r2, r3
 80072a2:	095b      	lsrs	r3, r3, #5
 80072a4:	0119      	lsls	r1, r3, #4
 80072a6:	68ba      	ldr	r2, [r7, #8]
 80072a8:	4613      	mov	r3, r2
 80072aa:	009b      	lsls	r3, r3, #2
 80072ac:	4413      	add	r3, r2
 80072ae:	009a      	lsls	r2, r3, #2
 80072b0:	441a      	add	r2, r3
 80072b2:	687b      	ldr	r3, [r7, #4]
 80072b4:	685b      	ldr	r3, [r3, #4]
 80072b6:	005b      	lsls	r3, r3, #1
 80072b8:	fbb2 f2f3 	udiv	r2, r2, r3
 80072bc:	4b45      	ldr	r3, [pc, #276]	; (80073d4 <UART_SetConfig+0x2e4>)
 80072be:	fba3 0302 	umull	r0, r3, r3, r2
 80072c2:	095b      	lsrs	r3, r3, #5
 80072c4:	2064      	movs	r0, #100	; 0x64
 80072c6:	fb00 f303 	mul.w	r3, r0, r3
 80072ca:	1ad3      	subs	r3, r2, r3
 80072cc:	00db      	lsls	r3, r3, #3
 80072ce:	3332      	adds	r3, #50	; 0x32
 80072d0:	4a40      	ldr	r2, [pc, #256]	; (80073d4 <UART_SetConfig+0x2e4>)
 80072d2:	fba2 2303 	umull	r2, r3, r2, r3
 80072d6:	095b      	lsrs	r3, r3, #5
 80072d8:	005b      	lsls	r3, r3, #1
 80072da:	f403 73f8 	and.w	r3, r3, #496	; 0x1f0
 80072de:	4419      	add	r1, r3
 80072e0:	68ba      	ldr	r2, [r7, #8]
 80072e2:	4613      	mov	r3, r2
 80072e4:	009b      	lsls	r3, r3, #2
 80072e6:	4413      	add	r3, r2
 80072e8:	009a      	lsls	r2, r3, #2
 80072ea:	441a      	add	r2, r3
 80072ec:	687b      	ldr	r3, [r7, #4]
 80072ee:	685b      	ldr	r3, [r3, #4]
 80072f0:	005b      	lsls	r3, r3, #1
 80072f2:	fbb2 f2f3 	udiv	r2, r2, r3
 80072f6:	4b37      	ldr	r3, [pc, #220]	; (80073d4 <UART_SetConfig+0x2e4>)
 80072f8:	fba3 0302 	umull	r0, r3, r3, r2
 80072fc:	095b      	lsrs	r3, r3, #5
 80072fe:	2064      	movs	r0, #100	; 0x64
 8007300:	fb00 f303 	mul.w	r3, r0, r3
 8007304:	1ad3      	subs	r3, r2, r3
 8007306:	00db      	lsls	r3, r3, #3
 8007308:	3332      	adds	r3, #50	; 0x32
 800730a:	4a32      	ldr	r2, [pc, #200]	; (80073d4 <UART_SetConfig+0x2e4>)
 800730c:	fba2 2303 	umull	r2, r3, r2, r3
 8007310:	095b      	lsrs	r3, r3, #5
 8007312:	f003 0207 	and.w	r2, r3, #7
 8007316:	687b      	ldr	r3, [r7, #4]
 8007318:	681b      	ldr	r3, [r3, #0]
 800731a:	440a      	add	r2, r1
 800731c:	609a      	str	r2, [r3, #8]
 800731e:	e0a9      	b.n	8007474 <UART_SetConfig+0x384>
 8007320:	687b      	ldr	r3, [r7, #4]
 8007322:	681b      	ldr	r3, [r3, #0]
 8007324:	4a2a      	ldr	r2, [pc, #168]	; (80073d0 <UART_SetConfig+0x2e0>)
 8007326:	4293      	cmp	r3, r2
 8007328:	d156      	bne.n	80073d8 <UART_SetConfig+0x2e8>
 800732a:	f7fd ff9d 	bl	8005268 <HAL_RCC_GetPCLK2Freq>
 800732e:	60b8      	str	r0, [r7, #8]
 8007330:	68ba      	ldr	r2, [r7, #8]
 8007332:	4613      	mov	r3, r2
 8007334:	009b      	lsls	r3, r3, #2
 8007336:	4413      	add	r3, r2
 8007338:	009a      	lsls	r2, r3, #2
 800733a:	441a      	add	r2, r3
 800733c:	687b      	ldr	r3, [r7, #4]
 800733e:	685b      	ldr	r3, [r3, #4]
 8007340:	009b      	lsls	r3, r3, #2
 8007342:	fbb2 f3f3 	udiv	r3, r2, r3
 8007346:	4a23      	ldr	r2, [pc, #140]	; (80073d4 <UART_SetConfig+0x2e4>)
 8007348:	fba2 2303 	umull	r2, r3, r2, r3
 800734c:	095b      	lsrs	r3, r3, #5
 800734e:	0119      	lsls	r1, r3, #4
 8007350:	68ba      	ldr	r2, [r7, #8]
 8007352:	4613      	mov	r3, r2
 8007354:	009b      	lsls	r3, r3, #2
 8007356:	4413      	add	r3, r2
 8007358:	009a      	lsls	r2, r3, #2
 800735a:	441a      	add	r2, r3
 800735c:	687b      	ldr	r3, [r7, #4]
 800735e:	685b      	ldr	r3, [r3, #4]
 8007360:	009b      	lsls	r3, r3, #2
 8007362:	fbb2 f2f3 	udiv	r2, r2, r3
 8007366:	4b1b      	ldr	r3, [pc, #108]	; (80073d4 <UART_SetConfig+0x2e4>)
 8007368:	fba3 0302 	umull	r0, r3, r3, r2
 800736c:	095b      	lsrs	r3, r3, #5
 800736e:	2064      	movs	r0, #100	; 0x64
 8007370:	fb00 f303 	mul.w	r3, r0, r3
 8007374:	1ad3      	subs	r3, r2, r3
 8007376:	011b      	lsls	r3, r3, #4
 8007378:	3332      	adds	r3, #50	; 0x32
 800737a:	4a16      	ldr	r2, [pc, #88]	; (80073d4 <UART_SetConfig+0x2e4>)
 800737c:	fba2 2303 	umull	r2, r3, r2, r3
 8007380:	095b      	lsrs	r3, r3, #5
 8007382:	f003 03f0 	and.w	r3, r3, #240	; 0xf0
 8007386:	4419      	add	r1, r3
 8007388:	68ba      	ldr	r2, [r7, #8]
 800738a:	4613      	mov	r3, r2
 800738c:	009b      	lsls	r3, r3, #2
 800738e:	4413      	add	r3, r2
 8007390:	009a      	lsls	r2, r3, #2
 8007392:	441a      	add	r2, r3
 8007394:	687b      	ldr	r3, [r7, #4]
 8007396:	685b      	ldr	r3, [r3, #4]
 8007398:	009b      	lsls	r3, r3, #2
 800739a:	fbb2 f2f3 	udiv	r2, r2, r3
 800739e:	4b0d      	ldr	r3, [pc, #52]	; (80073d4 <UART_SetConfig+0x2e4>)
 80073a0:	fba3 0302 	umull	r0, r3, r3, r2
 80073a4:	095b      	lsrs	r3, r3, #5
 80073a6:	2064      	movs	r0, #100	; 0x64
 80073a8:	fb00 f303 	mul.w	r3, r0, r3
 80073ac:	1ad3      	subs	r3, r2, r3
 80073ae:	011b      	lsls	r3, r3, #4
 80073b0:	3332      	adds	r3, #50	; 0x32
 80073b2:	4a08      	ldr	r2, [pc, #32]	; (80073d4 <UART_SetConfig+0x2e4>)
 80073b4:	fba2 2303 	umull	r2, r3, r2, r3
 80073b8:	095b      	lsrs	r3, r3, #5
 80073ba:	f003 020f 	and.w	r2, r3, #15
 80073be:	687b      	ldr	r3, [r7, #4]
 80073c0:	681b      	ldr	r3, [r3, #0]
 80073c2:	440a      	add	r2, r1
 80073c4:	609a      	str	r2, [r3, #8]
 80073c6:	e055      	b.n	8007474 <UART_SetConfig+0x384>
 80073c8:	003d0900 	.word	0x003d0900
 80073cc:	0800a9ec 	.word	0x0800a9ec
 80073d0:	40013800 	.word	0x40013800
 80073d4:	51eb851f 	.word	0x51eb851f
 80073d8:	f7fd ff32 	bl	8005240 <HAL_RCC_GetPCLK1Freq>
 80073dc:	60b8      	str	r0, [r7, #8]
 80073de:	68ba      	ldr	r2, [r7, #8]
 80073e0:	4613      	mov	r3, r2
 80073e2:	009b      	lsls	r3, r3, #2
 80073e4:	4413      	add	r3, r2
 80073e6:	009a      	lsls	r2, r3, #2
 80073e8:	441a      	add	r2, r3
 80073ea:	687b      	ldr	r3, [r7, #4]
 80073ec:	685b      	ldr	r3, [r3, #4]
 80073ee:	009b      	lsls	r3, r3, #2
 80073f0:	fbb2 f3f3 	udiv	r3, r2, r3
 80073f4:	4a21      	ldr	r2, [pc, #132]	; (800747c <UART_SetConfig+0x38c>)
 80073f6:	fba2 2303 	umull	r2, r3, r2, r3
 80073fa:	095b      	lsrs	r3, r3, #5
 80073fc:	0119      	lsls	r1, r3, #4
 80073fe:	68ba      	ldr	r2, [r7, #8]
 8007400:	4613      	mov	r3, r2
 8007402:	009b      	lsls	r3, r3, #2
 8007404:	4413      	add	r3, r2
 8007406:	009a      	lsls	r2, r3, #2
 8007408:	441a      	add	r2, r3
 800740a:	687b      	ldr	r3, [r7, #4]
 800740c:	685b      	ldr	r3, [r3, #4]
 800740e:	009b      	lsls	r3, r3, #2
 8007410:	fbb2 f2f3 	udiv	r2, r2, r3
 8007414:	4b19      	ldr	r3, [pc, #100]	; (800747c <UART_SetConfig+0x38c>)
 8007416:	fba3 0302 	umull	r0, r3, r3, r2
 800741a:	095b      	lsrs	r3, r3, #5
 800741c:	2064      	movs	r0, #100	; 0x64
 800741e:	fb00 f303 	mul.w	r3, r0, r3
 8007422:	1ad3      	subs	r3, r2, r3
 8007424:	011b      	lsls	r3, r3, #4
 8007426:	3332      	adds	r3, #50	; 0x32
 8007428:	4a14      	ldr	r2, [pc, #80]	; (800747c <UART_SetConfig+0x38c>)
 800742a:	fba2 2303 	umull	r2, r3, r2, r3
 800742e:	095b      	lsrs	r3, r3, #5
 8007430:	f003 03f0 	and.w	r3, r3, #240	; 0xf0
 8007434:	4419      	add	r1, r3
 8007436:	68ba      	ldr	r2, [r7, #8]
 8007438:	4613      	mov	r3, r2
 800743a:	009b      	lsls	r3, r3, #2
 800743c:	4413      	add	r3, r2
 800743e:	009a      	lsls	r2, r3, #2
 8007440:	441a      	add	r2, r3
 8007442:	687b      	ldr	r3, [r7, #4]
 8007444:	685b      	ldr	r3, [r3, #4]
 8007446:	009b      	lsls	r3, r3, #2
 8007448:	fbb2 f2f3 	udiv	r2, r2, r3
 800744c:	4b0b      	ldr	r3, [pc, #44]	; (800747c <UART_SetConfig+0x38c>)
 800744e:	fba3 0302 	umull	r0, r3, r3, r2
 8007452:	095b      	lsrs	r3, r3, #5
 8007454:	2064      	movs	r0, #100	; 0x64
 8007456:	fb00 f303 	mul.w	r3, r0, r3
 800745a:	1ad3      	subs	r3, r2, r3
 800745c:	011b      	lsls	r3, r3, #4
 800745e:	3332      	adds	r3, #50	; 0x32
 8007460:	4a06      	ldr	r2, [pc, #24]	; (800747c <UART_SetConfig+0x38c>)
 8007462:	fba2 2303 	umull	r2, r3, r2, r3
 8007466:	095b      	lsrs	r3, r3, #5
 8007468:	f003 020f 	and.w	r2, r3, #15
 800746c:	687b      	ldr	r3, [r7, #4]
 800746e:	681b      	ldr	r3, [r3, #0]
 8007470:	440a      	add	r2, r1
 8007472:	609a      	str	r2, [r3, #8]
 8007474:	bf00      	nop
 8007476:	3710      	adds	r7, #16
 8007478:	46bd      	mov	sp, r7
 800747a:	bd80      	pop	{r7, pc}
 800747c:	51eb851f 	.word	0x51eb851f

08007480 <osKernelInitialize>:
 8007480:	b480      	push	{r7}
 8007482:	b085      	sub	sp, #20
 8007484:	af00      	add	r7, sp, #0
 8007486:	f3ef 8305 	mrs	r3, IPSR
 800748a:	60bb      	str	r3, [r7, #8]
 800748c:	68bb      	ldr	r3, [r7, #8]
 800748e:	2b00      	cmp	r3, #0
 8007490:	d10f      	bne.n	80074b2 <osKernelInitialize+0x32>
 8007492:	f3ef 8310 	mrs	r3, PRIMASK
 8007496:	607b      	str	r3, [r7, #4]
 8007498:	687b      	ldr	r3, [r7, #4]
 800749a:	2b00      	cmp	r3, #0
 800749c:	d109      	bne.n	80074b2 <osKernelInitialize+0x32>
 800749e:	4b10      	ldr	r3, [pc, #64]	; (80074e0 <osKernelInitialize+0x60>)
 80074a0:	681b      	ldr	r3, [r3, #0]
 80074a2:	2b02      	cmp	r3, #2
 80074a4:	d109      	bne.n	80074ba <osKernelInitialize+0x3a>
 80074a6:	f3ef 8311 	mrs	r3, BASEPRI
 80074aa:	603b      	str	r3, [r7, #0]
 80074ac:	683b      	ldr	r3, [r7, #0]
 80074ae:	2b00      	cmp	r3, #0
 80074b0:	d003      	beq.n	80074ba <osKernelInitialize+0x3a>
 80074b2:	f06f 0305 	mvn.w	r3, #5
 80074b6:	60fb      	str	r3, [r7, #12]
 80074b8:	e00c      	b.n	80074d4 <osKernelInitialize+0x54>
 80074ba:	4b09      	ldr	r3, [pc, #36]	; (80074e0 <osKernelInitialize+0x60>)
 80074bc:	681b      	ldr	r3, [r3, #0]
 80074be:	2b00      	cmp	r3, #0
 80074c0:	d105      	bne.n	80074ce <osKernelInitialize+0x4e>
 80074c2:	4b07      	ldr	r3, [pc, #28]	; (80074e0 <osKernelInitialize+0x60>)
 80074c4:	2201      	movs	r2, #1
 80074c6:	601a      	str	r2, [r3, #0]
 80074c8:	2300      	movs	r3, #0
 80074ca:	60fb      	str	r3, [r7, #12]
 80074cc:	e002      	b.n	80074d4 <osKernelInitialize+0x54>
 80074ce:	f04f 33ff 	mov.w	r3, #4294967295
 80074d2:	60fb      	str	r3, [r7, #12]
 80074d4:	68fb      	ldr	r3, [r7, #12]
 80074d6:	4618      	mov	r0, r3
 80074d8:	3714      	adds	r7, #20
 80074da:	46bd      	mov	sp, r7
 80074dc:	bc80      	pop	{r7}
 80074de:	4770      	bx	lr
 80074e0:	2000002c 	.word	0x2000002c

080074e4 <osKernelStart>:
 80074e4:	b580      	push	{r7, lr}
 80074e6:	b084      	sub	sp, #16
 80074e8:	af00      	add	r7, sp, #0
 80074ea:	f3ef 8305 	mrs	r3, IPSR
 80074ee:	60bb      	str	r3, [r7, #8]
 80074f0:	68bb      	ldr	r3, [r7, #8]
 80074f2:	2b00      	cmp	r3, #0
 80074f4:	d10f      	bne.n	8007516 <osKernelStart+0x32>
 80074f6:	f3ef 8310 	mrs	r3, PRIMASK
 80074fa:	607b      	str	r3, [r7, #4]
 80074fc:	687b      	ldr	r3, [r7, #4]
 80074fe:	2b00      	cmp	r3, #0
 8007500:	d109      	bne.n	8007516 <osKernelStart+0x32>
 8007502:	4b11      	ldr	r3, [pc, #68]	; (8007548 <osKernelStart+0x64>)
 8007504:	681b      	ldr	r3, [r3, #0]
 8007506:	2b02      	cmp	r3, #2
 8007508:	d109      	bne.n	800751e <osKernelStart+0x3a>
 800750a:	f3ef 8311 	mrs	r3, BASEPRI
 800750e:	603b      	str	r3, [r7, #0]
 8007510:	683b      	ldr	r3, [r7, #0]
 8007512:	2b00      	cmp	r3, #0
 8007514:	d003      	beq.n	800751e <osKernelStart+0x3a>
 8007516:	f06f 0305 	mvn.w	r3, #5
 800751a:	60fb      	str	r3, [r7, #12]
 800751c:	e00e      	b.n	800753c <osKernelStart+0x58>
 800751e:	4b0a      	ldr	r3, [pc, #40]	; (8007548 <osKernelStart+0x64>)
 8007520:	681b      	ldr	r3, [r3, #0]
 8007522:	2b01      	cmp	r3, #1
 8007524:	d107      	bne.n	8007536 <osKernelStart+0x52>
 8007526:	4b08      	ldr	r3, [pc, #32]	; (8007548 <osKernelStart+0x64>)
 8007528:	2202      	movs	r2, #2
 800752a:	601a      	str	r2, [r3, #0]
 800752c:	f001 fbb2 	bl	8008c94 <vTaskStartScheduler>
 8007530:	2300      	movs	r3, #0
 8007532:	60fb      	str	r3, [r7, #12]
 8007534:	e002      	b.n	800753c <osKernelStart+0x58>
 8007536:	f04f 33ff 	mov.w	r3, #4294967295
 800753a:	60fb      	str	r3, [r7, #12]
 800753c:	68fb      	ldr	r3, [r7, #12]
 800753e:	4618      	mov	r0, r3
 8007540:	3710      	adds	r7, #16
 8007542:	46bd      	mov	sp, r7
 8007544:	bd80      	pop	{r7, pc}
 8007546:	bf00      	nop
 8007548:	2000002c 	.word	0x2000002c

0800754c <osThreadNew>:
 800754c:	b580      	push	{r7, lr}
 800754e:	b092      	sub	sp, #72	; 0x48
 8007550:	af04      	add	r7, sp, #16
 8007552:	60f8      	str	r0, [r7, #12]
 8007554:	60b9      	str	r1, [r7, #8]
 8007556:	607a      	str	r2, [r7, #4]
 8007558:	2300      	movs	r3, #0
 800755a:	617b      	str	r3, [r7, #20]
 800755c:	f3ef 8305 	mrs	r3, IPSR
 8007560:	627b      	str	r3, [r7, #36]	; 0x24
 8007562:	6a7b      	ldr	r3, [r7, #36]	; 0x24
 8007564:	2b00      	cmp	r3, #0
 8007566:	f040 8094 	bne.w	8007692 <osThreadNew+0x146>
 800756a:	f3ef 8310 	mrs	r3, PRIMASK
 800756e:	623b      	str	r3, [r7, #32]
 8007570:	6a3b      	ldr	r3, [r7, #32]
 8007572:	2b00      	cmp	r3, #0
 8007574:	f040 808d 	bne.w	8007692 <osThreadNew+0x146>
 8007578:	4b48      	ldr	r3, [pc, #288]	; (800769c <osThreadNew+0x150>)
 800757a:	681b      	ldr	r3, [r3, #0]
 800757c:	2b02      	cmp	r3, #2
 800757e:	d106      	bne.n	800758e <osThreadNew+0x42>
 8007580:	f3ef 8311 	mrs	r3, BASEPRI
 8007584:	61fb      	str	r3, [r7, #28]
 8007586:	69fb      	ldr	r3, [r7, #28]
 8007588:	2b00      	cmp	r3, #0
 800758a:	f040 8082 	bne.w	8007692 <osThreadNew+0x146>
 800758e:	68fb      	ldr	r3, [r7, #12]
 8007590:	2b00      	cmp	r3, #0
 8007592:	d07e      	beq.n	8007692 <osThreadNew+0x146>
 8007594:	2380      	movs	r3, #128	; 0x80
 8007596:	633b      	str	r3, [r7, #48]	; 0x30
 8007598:	2318      	movs	r3, #24
 800759a:	62fb      	str	r3, [r7, #44]	; 0x2c
 800759c:	2300      	movs	r3, #0
 800759e:	76fb      	strb	r3, [r7, #27]
 80075a0:	f107 031b 	add.w	r3, r7, #27
 80075a4:	637b      	str	r3, [r7, #52]	; 0x34
 80075a6:	f04f 33ff 	mov.w	r3, #4294967295
 80075aa:	62bb      	str	r3, [r7, #40]	; 0x28
 80075ac:	687b      	ldr	r3, [r7, #4]
 80075ae:	2b00      	cmp	r3, #0
 80075b0:	d045      	beq.n	800763e <osThreadNew+0xf2>
 80075b2:	687b      	ldr	r3, [r7, #4]
 80075b4:	681b      	ldr	r3, [r3, #0]
 80075b6:	2b00      	cmp	r3, #0
 80075b8:	d002      	beq.n	80075c0 <osThreadNew+0x74>
 80075ba:	687b      	ldr	r3, [r7, #4]
 80075bc:	681b      	ldr	r3, [r3, #0]
 80075be:	637b      	str	r3, [r7, #52]	; 0x34
 80075c0:	687b      	ldr	r3, [r7, #4]
 80075c2:	699b      	ldr	r3, [r3, #24]
 80075c4:	2b00      	cmp	r3, #0
 80075c6:	d002      	beq.n	80075ce <osThreadNew+0x82>
 80075c8:	687b      	ldr	r3, [r7, #4]
 80075ca:	699b      	ldr	r3, [r3, #24]
 80075cc:	62fb      	str	r3, [r7, #44]	; 0x2c
 80075ce:	6afb      	ldr	r3, [r7, #44]	; 0x2c
 80075d0:	2b00      	cmp	r3, #0
 80075d2:	d008      	beq.n	80075e6 <osThreadNew+0x9a>
 80075d4:	6afb      	ldr	r3, [r7, #44]	; 0x2c
 80075d6:	2b38      	cmp	r3, #56	; 0x38
 80075d8:	d805      	bhi.n	80075e6 <osThreadNew+0x9a>
 80075da:	687b      	ldr	r3, [r7, #4]
 80075dc:	685b      	ldr	r3, [r3, #4]
 80075de:	f003 0301 	and.w	r3, r3, #1
 80075e2:	2b00      	cmp	r3, #0
 80075e4:	d001      	beq.n	80075ea <osThreadNew+0x9e>
 80075e6:	2300      	movs	r3, #0
 80075e8:	e054      	b.n	8007694 <osThreadNew+0x148>
 80075ea:	687b      	ldr	r3, [r7, #4]
 80075ec:	695b      	ldr	r3, [r3, #20]
 80075ee:	2b00      	cmp	r3, #0
 80075f0:	d003      	beq.n	80075fa <osThreadNew+0xae>
 80075f2:	687b      	ldr	r3, [r7, #4]
 80075f4:	695b      	ldr	r3, [r3, #20]
 80075f6:	089b      	lsrs	r3, r3, #2
 80075f8:	633b      	str	r3, [r7, #48]	; 0x30
 80075fa:	687b      	ldr	r3, [r7, #4]
 80075fc:	689b      	ldr	r3, [r3, #8]
 80075fe:	2b00      	cmp	r3, #0
 8007600:	d00e      	beq.n	8007620 <osThreadNew+0xd4>
 8007602:	687b      	ldr	r3, [r7, #4]
 8007604:	68db      	ldr	r3, [r3, #12]
 8007606:	2b5b      	cmp	r3, #91	; 0x5b
 8007608:	d90a      	bls.n	8007620 <osThreadNew+0xd4>
 800760a:	687b      	ldr	r3, [r7, #4]
 800760c:	691b      	ldr	r3, [r3, #16]
 800760e:	2b00      	cmp	r3, #0
 8007610:	d006      	beq.n	8007620 <osThreadNew+0xd4>
 8007612:	687b      	ldr	r3, [r7, #4]
 8007614:	695b      	ldr	r3, [r3, #20]
 8007616:	2b00      	cmp	r3, #0
 8007618:	d002      	beq.n	8007620 <osThreadNew+0xd4>
 800761a:	2301      	movs	r3, #1
 800761c:	62bb      	str	r3, [r7, #40]	; 0x28
 800761e:	e010      	b.n	8007642 <osThreadNew+0xf6>
 8007620:	687b      	ldr	r3, [r7, #4]
 8007622:	689b      	ldr	r3, [r3, #8]
 8007624:	2b00      	cmp	r3, #0
 8007626:	d10c      	bne.n	8007642 <osThreadNew+0xf6>
 8007628:	687b      	ldr	r3, [r7, #4]
 800762a:	68db      	ldr	r3, [r3, #12]
 800762c:	2b00      	cmp	r3, #0
 800762e:	d108      	bne.n	8007642 <osThreadNew+0xf6>
 8007630:	687b      	ldr	r3, [r7, #4]
 8007632:	691b      	ldr	r3, [r3, #16]
 8007634:	2b00      	cmp	r3, #0
 8007636:	d104      	bne.n	8007642 <osThreadNew+0xf6>
 8007638:	2300      	movs	r3, #0
 800763a:	62bb      	str	r3, [r7, #40]	; 0x28
 800763c:	e001      	b.n	8007642 <osThreadNew+0xf6>
 800763e:	2300      	movs	r3, #0
 8007640:	62bb      	str	r3, [r7, #40]	; 0x28
 8007642:	6abb      	ldr	r3, [r7, #40]	; 0x28
 8007644:	2b01      	cmp	r3, #1
 8007646:	d110      	bne.n	800766a <osThreadNew+0x11e>
 8007648:	687b      	ldr	r3, [r7, #4]
 800764a:	691b      	ldr	r3, [r3, #16]
 800764c:	687a      	ldr	r2, [r7, #4]
 800764e:	6892      	ldr	r2, [r2, #8]
 8007650:	9202      	str	r2, [sp, #8]
 8007652:	9301      	str	r3, [sp, #4]
 8007654:	6afb      	ldr	r3, [r7, #44]	; 0x2c
 8007656:	9300      	str	r3, [sp, #0]
 8007658:	68bb      	ldr	r3, [r7, #8]
 800765a:	6b3a      	ldr	r2, [r7, #48]	; 0x30
 800765c:	6b79      	ldr	r1, [r7, #52]	; 0x34
 800765e:	68f8      	ldr	r0, [r7, #12]
 8007660:	f001 f844 	bl	80086ec <xTaskCreateStatic>
 8007664:	4603      	mov	r3, r0
 8007666:	617b      	str	r3, [r7, #20]
 8007668:	e013      	b.n	8007692 <osThreadNew+0x146>
 800766a:	6abb      	ldr	r3, [r7, #40]	; 0x28
 800766c:	2b00      	cmp	r3, #0
 800766e:	d110      	bne.n	8007692 <osThreadNew+0x146>
 8007670:	6b3b      	ldr	r3, [r7, #48]	; 0x30
 8007672:	b29a      	uxth	r2, r3
 8007674:	f107 0314 	add.w	r3, r7, #20
 8007678:	9301      	str	r3, [sp, #4]
 800767a:	6afb      	ldr	r3, [r7, #44]	; 0x2c
 800767c:	9300      	str	r3, [sp, #0]
 800767e:	68bb      	ldr	r3, [r7, #8]
 8007680:	6b79      	ldr	r1, [r7, #52]	; 0x34
 8007682:	68f8      	ldr	r0, [r7, #12]
 8007684:	f001 f88b 	bl	800879e <xTaskCreate>
 8007688:	4603      	mov	r3, r0
 800768a:	2b01      	cmp	r3, #1
 800768c:	d001      	beq.n	8007692 <osThreadNew+0x146>
 800768e:	2300      	movs	r3, #0
 8007690:	617b      	str	r3, [r7, #20]
 8007692:	697b      	ldr	r3, [r7, #20]
 8007694:	4618      	mov	r0, r3
 8007696:	3738      	adds	r7, #56	; 0x38
 8007698:	46bd      	mov	sp, r7
 800769a:	bd80      	pop	{r7, pc}
 800769c:	2000002c 	.word	0x2000002c

080076a0 <osDelay>:
 80076a0:	b580      	push	{r7, lr}
 80076a2:	b086      	sub	sp, #24
 80076a4:	af00      	add	r7, sp, #0
 80076a6:	6078      	str	r0, [r7, #4]
 80076a8:	f3ef 8305 	mrs	r3, IPSR
 80076ac:	613b      	str	r3, [r7, #16]
 80076ae:	693b      	ldr	r3, [r7, #16]
 80076b0:	2b00      	cmp	r3, #0
 80076b2:	d10f      	bne.n	80076d4 <osDelay+0x34>
 80076b4:	f3ef 8310 	mrs	r3, PRIMASK
 80076b8:	60fb      	str	r3, [r7, #12]
 80076ba:	68fb      	ldr	r3, [r7, #12]
 80076bc:	2b00      	cmp	r3, #0
 80076be:	d109      	bne.n	80076d4 <osDelay+0x34>
 80076c0:	4b0d      	ldr	r3, [pc, #52]	; (80076f8 <osDelay+0x58>)
 80076c2:	681b      	ldr	r3, [r3, #0]
 80076c4:	2b02      	cmp	r3, #2
 80076c6:	d109      	bne.n	80076dc <osDelay+0x3c>
 80076c8:	f3ef 8311 	mrs	r3, BASEPRI
 80076cc:	60bb      	str	r3, [r7, #8]
 80076ce:	68bb      	ldr	r3, [r7, #8]
 80076d0:	2b00      	cmp	r3, #0
 80076d2:	d003      	beq.n	80076dc <osDelay+0x3c>
 80076d4:	f06f 0305 	mvn.w	r3, #5
 80076d8:	617b      	str	r3, [r7, #20]
 80076da:	e007      	b.n	80076ec <osDelay+0x4c>
 80076dc:	2300      	movs	r3, #0
 80076de:	617b      	str	r3, [r7, #20]
 80076e0:	687b      	ldr	r3, [r7, #4]
 80076e2:	2b00      	cmp	r3, #0
 80076e4:	d002      	beq.n	80076ec <osDelay+0x4c>
 80076e6:	6878      	ldr	r0, [r7, #4]
 80076e8:	f001 f994 	bl	8008a14 <vTaskDelay>
 80076ec:	697b      	ldr	r3, [r7, #20]
 80076ee:	4618      	mov	r0, r3
 80076f0:	3718      	adds	r7, #24
 80076f2:	46bd      	mov	sp, r7
 80076f4:	bd80      	pop	{r7, pc}
 80076f6:	bf00      	nop
 80076f8:	2000002c 	.word	0x2000002c

080076fc <vApplicationGetIdleTaskMemory>:
 80076fc:	b480      	push	{r7}
 80076fe:	b085      	sub	sp, #20
 8007700:	af00      	add	r7, sp, #0
 8007702:	60f8      	str	r0, [r7, #12]
 8007704:	60b9      	str	r1, [r7, #8]
 8007706:	607a      	str	r2, [r7, #4]
 8007708:	68fb      	ldr	r3, [r7, #12]
 800770a:	4a06      	ldr	r2, [pc, #24]	; (8007724 <vApplicationGetIdleTaskMemory+0x28>)
 800770c:	601a      	str	r2, [r3, #0]
 800770e:	68bb      	ldr	r3, [r7, #8]
 8007710:	4a05      	ldr	r2, [pc, #20]	; (8007728 <vApplicationGetIdleTaskMemory+0x2c>)
 8007712:	601a      	str	r2, [r3, #0]
 8007714:	687b      	ldr	r3, [r7, #4]
 8007716:	2280      	movs	r2, #128	; 0x80
 8007718:	601a      	str	r2, [r3, #0]
 800771a:	bf00      	nop
 800771c:	3714      	adds	r7, #20
 800771e:	46bd      	mov	sp, r7
 8007720:	bc80      	pop	{r7}
 8007722:	4770      	bx	lr
 8007724:	20000030 	.word	0x20000030
 8007728:	2000008c 	.word	0x2000008c

0800772c <vApplicationGetTimerTaskMemory>:
 800772c:	b480      	push	{r7}
 800772e:	b085      	sub	sp, #20
 8007730:	af00      	add	r7, sp, #0
 8007732:	60f8      	str	r0, [r7, #12]
 8007734:	60b9      	str	r1, [r7, #8]
 8007736:	607a      	str	r2, [r7, #4]
 8007738:	68fb      	ldr	r3, [r7, #12]
 800773a:	4a07      	ldr	r2, [pc, #28]	; (8007758 <vApplicationGetTimerTaskMemory+0x2c>)
 800773c:	601a      	str	r2, [r3, #0]
 800773e:	68bb      	ldr	r3, [r7, #8]
 8007740:	4a06      	ldr	r2, [pc, #24]	; (800775c <vApplicationGetTimerTaskMemory+0x30>)
 8007742:	601a      	str	r2, [r3, #0]
 8007744:	687b      	ldr	r3, [r7, #4]
 8007746:	f44f 7280 	mov.w	r2, #256	; 0x100
 800774a:	601a      	str	r2, [r3, #0]
 800774c:	bf00      	nop
 800774e:	3714      	adds	r7, #20
 8007750:	46bd      	mov	sp, r7
 8007752:	bc80      	pop	{r7}
 8007754:	4770      	bx	lr
 8007756:	bf00      	nop
 8007758:	2000028c 	.word	0x2000028c
 800775c:	200002e8 	.word	0x200002e8

08007760 <xEventGroupCreate>:
 8007760:	b580      	push	{r7, lr}
 8007762:	b082      	sub	sp, #8
 8007764:	af00      	add	r7, sp, #0
 8007766:	2020      	movs	r0, #32
 8007768:	f002 fdec 	bl	800a344 <pvPortMalloc>
 800776c:	6078      	str	r0, [r7, #4]
 800776e:	687b      	ldr	r3, [r7, #4]
 8007770:	2b00      	cmp	r3, #0
 8007772:	d00a      	beq.n	800778a <xEventGroupCreate+0x2a>
 8007774:	687b      	ldr	r3, [r7, #4]
 8007776:	2200      	movs	r2, #0
 8007778:	601a      	str	r2, [r3, #0]
 800777a:	687b      	ldr	r3, [r7, #4]
 800777c:	3304      	adds	r3, #4
 800777e:	4618      	mov	r0, r3
 8007780:	f000 f9f4 	bl	8007b6c <vListInitialise>
 8007784:	687b      	ldr	r3, [r7, #4]
 8007786:	2200      	movs	r2, #0
 8007788:	771a      	strb	r2, [r3, #28]
 800778a:	687b      	ldr	r3, [r7, #4]
 800778c:	4618      	mov	r0, r3
 800778e:	3708      	adds	r7, #8
 8007790:	46bd      	mov	sp, r7
 8007792:	bd80      	pop	{r7, pc}

08007794 <xEventGroupWaitBits>:
 8007794:	b580      	push	{r7, lr}
 8007796:	b090      	sub	sp, #64	; 0x40
 8007798:	af00      	add	r7, sp, #0
 800779a:	60f8      	str	r0, [r7, #12]
 800779c:	60b9      	str	r1, [r7, #8]
 800779e:	607a      	str	r2, [r7, #4]
 80077a0:	603b      	str	r3, [r7, #0]
 80077a2:	68fb      	ldr	r3, [r7, #12]
 80077a4:	637b      	str	r3, [r7, #52]	; 0x34
 80077a6:	2300      	movs	r3, #0
 80077a8:	63bb      	str	r3, [r7, #56]	; 0x38
 80077aa:	2300      	movs	r3, #0
 80077ac:	633b      	str	r3, [r7, #48]	; 0x30
 80077ae:	68fb      	ldr	r3, [r7, #12]
 80077b0:	2b00      	cmp	r3, #0
 80077b2:	d109      	bne.n	80077c8 <xEventGroupWaitBits+0x34>
 80077b4:	f04f 0350 	mov.w	r3, #80	; 0x50
 80077b8:	f383 8811 	msr	BASEPRI, r3
 80077bc:	f3bf 8f6f 	isb	sy
 80077c0:	f3bf 8f4f 	dsb	sy
 80077c4:	623b      	str	r3, [r7, #32]
 80077c6:	e7fe      	b.n	80077c6 <xEventGroupWaitBits+0x32>
 80077c8:	68bb      	ldr	r3, [r7, #8]
 80077ca:	f003 437f 	and.w	r3, r3, #4278190080	; 0xff000000
 80077ce:	2b00      	cmp	r3, #0
 80077d0:	d009      	beq.n	80077e6 <xEventGroupWaitBits+0x52>
 80077d2:	f04f 0350 	mov.w	r3, #80	; 0x50
 80077d6:	f383 8811 	msr	BASEPRI, r3
 80077da:	f3bf 8f6f 	isb	sy
 80077de:	f3bf 8f4f 	dsb	sy
 80077e2:	61fb      	str	r3, [r7, #28]
 80077e4:	e7fe      	b.n	80077e4 <xEventGroupWaitBits+0x50>
 80077e6:	68bb      	ldr	r3, [r7, #8]
 80077e8:	2b00      	cmp	r3, #0
 80077ea:	d109      	bne.n	8007800 <xEventGroupWaitBits+0x6c>
 80077ec:	f04f 0350 	mov.w	r3, #80	; 0x50
 80077f0:	f383 8811 	msr	BASEPRI, r3
 80077f4:	f3bf 8f6f 	isb	sy
 80077f8:	f3bf 8f4f 	dsb	sy
 80077fc:	61bb      	str	r3, [r7, #24]
 80077fe:	e7fe      	b.n	80077fe <xEventGroupWaitBits+0x6a>
 8007800:	f001 ff4c 	bl	800969c <xTaskGetSchedulerState>
 8007804:	4603      	mov	r3, r0
 8007806:	2b00      	cmp	r3, #0
 8007808:	d102      	bne.n	8007810 <xEventGroupWaitBits+0x7c>
 800780a:	6cbb      	ldr	r3, [r7, #72]	; 0x48
 800780c:	2b00      	cmp	r3, #0
 800780e:	d101      	bne.n	8007814 <xEventGroupWaitBits+0x80>
 8007810:	2301      	movs	r3, #1
 8007812:	e000      	b.n	8007816 <xEventGroupWaitBits+0x82>
 8007814:	2300      	movs	r3, #0
 8007816:	2b00      	cmp	r3, #0
 8007818:	d109      	bne.n	800782e <xEventGroupWaitBits+0x9a>
 800781a:	f04f 0350 	mov.w	r3, #80	; 0x50
 800781e:	f383 8811 	msr	BASEPRI, r3
 8007822:	f3bf 8f6f 	isb	sy
 8007826:	f3bf 8f4f 	dsb	sy
 800782a:	617b      	str	r3, [r7, #20]
 800782c:	e7fe      	b.n	800782c <xEventGroupWaitBits+0x98>
 800782e:	f001 fa95 	bl	8008d5c <vTaskSuspendAll>
 8007832:	6b7b      	ldr	r3, [r7, #52]	; 0x34
 8007834:	681b      	ldr	r3, [r3, #0]
 8007836:	62fb      	str	r3, [r7, #44]	; 0x2c
 8007838:	683a      	ldr	r2, [r7, #0]
 800783a:	68b9      	ldr	r1, [r7, #8]
 800783c:	6af8      	ldr	r0, [r7, #44]	; 0x2c
 800783e:	f000 f960 	bl	8007b02 <prvTestWaitCondition>
 8007842:	62b8      	str	r0, [r7, #40]	; 0x28
 8007844:	6abb      	ldr	r3, [r7, #40]	; 0x28
 8007846:	2b00      	cmp	r3, #0
 8007848:	d00e      	beq.n	8007868 <xEventGroupWaitBits+0xd4>
 800784a:	6afb      	ldr	r3, [r7, #44]	; 0x2c
 800784c:	63fb      	str	r3, [r7, #60]	; 0x3c
 800784e:	2300      	movs	r3, #0
 8007850:	64bb      	str	r3, [r7, #72]	; 0x48
 8007852:	687b      	ldr	r3, [r7, #4]
 8007854:	2b00      	cmp	r3, #0
 8007856:	d028      	beq.n	80078aa <xEventGroupWaitBits+0x116>
 8007858:	6b7b      	ldr	r3, [r7, #52]	; 0x34
 800785a:	681a      	ldr	r2, [r3, #0]
 800785c:	68bb      	ldr	r3, [r7, #8]
 800785e:	43db      	mvns	r3, r3
 8007860:	401a      	ands	r2, r3
 8007862:	6b7b      	ldr	r3, [r7, #52]	; 0x34
 8007864:	601a      	str	r2, [r3, #0]
 8007866:	e020      	b.n	80078aa <xEventGroupWaitBits+0x116>
 8007868:	6cbb      	ldr	r3, [r7, #72]	; 0x48
 800786a:	2b00      	cmp	r3, #0
 800786c:	d104      	bne.n	8007878 <xEventGroupWaitBits+0xe4>
 800786e:	6afb      	ldr	r3, [r7, #44]	; 0x2c
 8007870:	63fb      	str	r3, [r7, #60]	; 0x3c
 8007872:	2301      	movs	r3, #1
 8007874:	633b      	str	r3, [r7, #48]	; 0x30
 8007876:	e018      	b.n	80078aa <xEventGroupWaitBits+0x116>
 8007878:	687b      	ldr	r3, [r7, #4]
 800787a:	2b00      	cmp	r3, #0
 800787c:	d003      	beq.n	8007886 <xEventGroupWaitBits+0xf2>
 800787e:	6bbb      	ldr	r3, [r7, #56]	; 0x38
 8007880:	f043 7380 	orr.w	r3, r3, #16777216	; 0x1000000
 8007884:	63bb      	str	r3, [r7, #56]	; 0x38
 8007886:	683b      	ldr	r3, [r7, #0]
 8007888:	2b00      	cmp	r3, #0
 800788a:	d003      	beq.n	8007894 <xEventGroupWaitBits+0x100>
 800788c:	6bbb      	ldr	r3, [r7, #56]	; 0x38
 800788e:	f043 6380 	orr.w	r3, r3, #67108864	; 0x4000000
 8007892:	63bb      	str	r3, [r7, #56]	; 0x38
 8007894:	6b7b      	ldr	r3, [r7, #52]	; 0x34
 8007896:	1d18      	adds	r0, r3, #4
 8007898:	68ba      	ldr	r2, [r7, #8]
 800789a:	6bbb      	ldr	r3, [r7, #56]	; 0x38
 800789c:	4313      	orrs	r3, r2
 800789e:	6cba      	ldr	r2, [r7, #72]	; 0x48
 80078a0:	4619      	mov	r1, r3
 80078a2:	f001 fc7b 	bl	800919c <vTaskPlaceOnUnorderedEventList>
 80078a6:	2300      	movs	r3, #0
 80078a8:	63fb      	str	r3, [r7, #60]	; 0x3c
 80078aa:	f001 fa65 	bl	8008d78 <xTaskResumeAll>
 80078ae:	6278      	str	r0, [r7, #36]	; 0x24
 80078b0:	6cbb      	ldr	r3, [r7, #72]	; 0x48
 80078b2:	2b00      	cmp	r3, #0
 80078b4:	d031      	beq.n	800791a <xEventGroupWaitBits+0x186>
 80078b6:	6a7b      	ldr	r3, [r7, #36]	; 0x24
 80078b8:	2b00      	cmp	r3, #0
 80078ba:	d107      	bne.n	80078cc <xEventGroupWaitBits+0x138>
 80078bc:	4b19      	ldr	r3, [pc, #100]	; (8007924 <xEventGroupWaitBits+0x190>)
 80078be:	f04f 5280 	mov.w	r2, #268435456	; 0x10000000
 80078c2:	601a      	str	r2, [r3, #0]
 80078c4:	f3bf 8f4f 	dsb	sy
 80078c8:	f3bf 8f6f 	isb	sy
 80078cc:	f001 ff70 	bl	80097b0 <uxTaskResetEventItemValue>
 80078d0:	63f8      	str	r0, [r7, #60]	; 0x3c
 80078d2:	6bfb      	ldr	r3, [r7, #60]	; 0x3c
 80078d4:	f003 7300 	and.w	r3, r3, #33554432	; 0x2000000
 80078d8:	2b00      	cmp	r3, #0
 80078da:	d11a      	bne.n	8007912 <xEventGroupWaitBits+0x17e>
 80078dc:	f002 fc3c 	bl	800a158 <vPortEnterCritical>
 80078e0:	6b7b      	ldr	r3, [r7, #52]	; 0x34
 80078e2:	681b      	ldr	r3, [r3, #0]
 80078e4:	63fb      	str	r3, [r7, #60]	; 0x3c
 80078e6:	683a      	ldr	r2, [r7, #0]
 80078e8:	68b9      	ldr	r1, [r7, #8]
 80078ea:	6bf8      	ldr	r0, [r7, #60]	; 0x3c
 80078ec:	f000 f909 	bl	8007b02 <prvTestWaitCondition>
 80078f0:	4603      	mov	r3, r0
 80078f2:	2b00      	cmp	r3, #0
 80078f4:	d009      	beq.n	800790a <xEventGroupWaitBits+0x176>
 80078f6:	687b      	ldr	r3, [r7, #4]
 80078f8:	2b00      	cmp	r3, #0
 80078fa:	d006      	beq.n	800790a <xEventGroupWaitBits+0x176>
 80078fc:	6b7b      	ldr	r3, [r7, #52]	; 0x34
 80078fe:	681a      	ldr	r2, [r3, #0]
 8007900:	68bb      	ldr	r3, [r7, #8]
 8007902:	43db      	mvns	r3, r3
 8007904:	401a      	ands	r2, r3
 8007906:	6b7b      	ldr	r3, [r7, #52]	; 0x34
 8007908:	601a      	str	r2, [r3, #0]
 800790a:	2301      	movs	r3, #1
 800790c:	633b      	str	r3, [r7, #48]	; 0x30
 800790e:	f002 fc51 	bl	800a1b4 <vPortExitCritical>
 8007912:	6bfb      	ldr	r3, [r7, #60]	; 0x3c
 8007914:	f023 437f 	bic.w	r3, r3, #4278190080	; 0xff000000
 8007918:	63fb      	str	r3, [r7, #60]	; 0x3c
 800791a:	6bfb      	ldr	r3, [r7, #60]	; 0x3c
 800791c:	4618      	mov	r0, r3
 800791e:	3740      	adds	r7, #64	; 0x40
 8007920:	46bd      	mov	sp, r7
 8007922:	bd80      	pop	{r7, pc}
 8007924:	e000ed04 	.word	0xe000ed04

08007928 <xEventGroupClearBits>:
 8007928:	b580      	push	{r7, lr}
 800792a:	b086      	sub	sp, #24
 800792c:	af00      	add	r7, sp, #0
 800792e:	6078      	str	r0, [r7, #4]
 8007930:	6039      	str	r1, [r7, #0]
 8007932:	687b      	ldr	r3, [r7, #4]
 8007934:	617b      	str	r3, [r7, #20]
 8007936:	687b      	ldr	r3, [r7, #4]
 8007938:	2b00      	cmp	r3, #0
 800793a:	d109      	bne.n	8007950 <xEventGroupClearBits+0x28>
 800793c:	f04f 0350 	mov.w	r3, #80	; 0x50
 8007940:	f383 8811 	msr	BASEPRI, r3
 8007944:	f3bf 8f6f 	isb	sy
 8007948:	f3bf 8f4f 	dsb	sy
 800794c:	60fb      	str	r3, [r7, #12]
 800794e:	e7fe      	b.n	800794e <xEventGroupClearBits+0x26>
 8007950:	683b      	ldr	r3, [r7, #0]
 8007952:	f003 437f 	and.w	r3, r3, #4278190080	; 0xff000000
 8007956:	2b00      	cmp	r3, #0
 8007958:	d009      	beq.n	800796e <xEventGroupClearBits+0x46>
 800795a:	f04f 0350 	mov.w	r3, #80	; 0x50
 800795e:	f383 8811 	msr	BASEPRI, r3
 8007962:	f3bf 8f6f 	isb	sy
 8007966:	f3bf 8f4f 	dsb	sy
 800796a:	60bb      	str	r3, [r7, #8]
 800796c:	e7fe      	b.n	800796c <xEventGroupClearBits+0x44>
 800796e:	f002 fbf3 	bl	800a158 <vPortEnterCritical>
 8007972:	697b      	ldr	r3, [r7, #20]
 8007974:	681b      	ldr	r3, [r3, #0]
 8007976:	613b      	str	r3, [r7, #16]
 8007978:	697b      	ldr	r3, [r7, #20]
 800797a:	681a      	ldr	r2, [r3, #0]
 800797c:	683b      	ldr	r3, [r7, #0]
 800797e:	43db      	mvns	r3, r3
 8007980:	401a      	ands	r2, r3
 8007982:	697b      	ldr	r3, [r7, #20]
 8007984:	601a      	str	r2, [r3, #0]
 8007986:	f002 fc15 	bl	800a1b4 <vPortExitCritical>
 800798a:	693b      	ldr	r3, [r7, #16]
 800798c:	4618      	mov	r0, r3
 800798e:	3718      	adds	r7, #24
 8007990:	46bd      	mov	sp, r7
 8007992:	bd80      	pop	{r7, pc}

08007994 <xEventGroupClearBitsFromISR>:
 8007994:	b580      	push	{r7, lr}
 8007996:	b084      	sub	sp, #16
 8007998:	af00      	add	r7, sp, #0
 800799a:	6078      	str	r0, [r7, #4]
 800799c:	6039      	str	r1, [r7, #0]
 800799e:	2300      	movs	r3, #0
 80079a0:	683a      	ldr	r2, [r7, #0]
 80079a2:	6879      	ldr	r1, [r7, #4]
 80079a4:	4804      	ldr	r0, [pc, #16]	; (80079b8 <xEventGroupClearBitsFromISR+0x24>)
 80079a6:	f002 facd 	bl	8009f44 <xTimerPendFunctionCallFromISR>
 80079aa:	60f8      	str	r0, [r7, #12]
 80079ac:	68fb      	ldr	r3, [r7, #12]
 80079ae:	4618      	mov	r0, r3
 80079b0:	3710      	adds	r7, #16
 80079b2:	46bd      	mov	sp, r7
 80079b4:	bd80      	pop	{r7, pc}
 80079b6:	bf00      	nop
 80079b8:	08007ae9 	.word	0x08007ae9

080079bc <xEventGroupSetBits>:
 80079bc:	b580      	push	{r7, lr}
 80079be:	b08e      	sub	sp, #56	; 0x38
 80079c0:	af00      	add	r7, sp, #0
 80079c2:	6078      	str	r0, [r7, #4]
 80079c4:	6039      	str	r1, [r7, #0]
 80079c6:	2300      	movs	r3, #0
 80079c8:	633b      	str	r3, [r7, #48]	; 0x30
 80079ca:	687b      	ldr	r3, [r7, #4]
 80079cc:	62bb      	str	r3, [r7, #40]	; 0x28
 80079ce:	2300      	movs	r3, #0
 80079d0:	62fb      	str	r3, [r7, #44]	; 0x2c
 80079d2:	687b      	ldr	r3, [r7, #4]
 80079d4:	2b00      	cmp	r3, #0
 80079d6:	d109      	bne.n	80079ec <xEventGroupSetBits+0x30>
 80079d8:	f04f 0350 	mov.w	r3, #80	; 0x50
 80079dc:	f383 8811 	msr	BASEPRI, r3
 80079e0:	f3bf 8f6f 	isb	sy
 80079e4:	f3bf 8f4f 	dsb	sy
 80079e8:	613b      	str	r3, [r7, #16]
 80079ea:	e7fe      	b.n	80079ea <xEventGroupSetBits+0x2e>
 80079ec:	683b      	ldr	r3, [r7, #0]
 80079ee:	f003 437f 	and.w	r3, r3, #4278190080	; 0xff000000
 80079f2:	2b00      	cmp	r3, #0
 80079f4:	d009      	beq.n	8007a0a <xEventGroupSetBits+0x4e>
 80079f6:	f04f 0350 	mov.w	r3, #80	; 0x50
 80079fa:	f383 8811 	msr	BASEPRI, r3
 80079fe:	f3bf 8f6f 	isb	sy
 8007a02:	f3bf 8f4f 	dsb	sy
 8007a06:	60fb      	str	r3, [r7, #12]
 8007a08:	e7fe      	b.n	8007a08 <xEventGroupSetBits+0x4c>
 8007a0a:	6abb      	ldr	r3, [r7, #40]	; 0x28
 8007a0c:	3304      	adds	r3, #4
 8007a0e:	627b      	str	r3, [r7, #36]	; 0x24
 8007a10:	6a7b      	ldr	r3, [r7, #36]	; 0x24
 8007a12:	3308      	adds	r3, #8
 8007a14:	623b      	str	r3, [r7, #32]
 8007a16:	f001 f9a1 	bl	8008d5c <vTaskSuspendAll>
 8007a1a:	6a7b      	ldr	r3, [r7, #36]	; 0x24
 8007a1c:	68db      	ldr	r3, [r3, #12]
 8007a1e:	637b      	str	r3, [r7, #52]	; 0x34
 8007a20:	6abb      	ldr	r3, [r7, #40]	; 0x28
 8007a22:	681a      	ldr	r2, [r3, #0]
 8007a24:	683b      	ldr	r3, [r7, #0]
 8007a26:	431a      	orrs	r2, r3
 8007a28:	6abb      	ldr	r3, [r7, #40]	; 0x28
 8007a2a:	601a      	str	r2, [r3, #0]
 8007a2c:	e03c      	b.n	8007aa8 <xEventGroupSetBits+0xec>
 8007a2e:	6b7b      	ldr	r3, [r7, #52]	; 0x34
 8007a30:	685b      	ldr	r3, [r3, #4]
 8007a32:	61fb      	str	r3, [r7, #28]
 8007a34:	6b7b      	ldr	r3, [r7, #52]	; 0x34
 8007a36:	681b      	ldr	r3, [r3, #0]
 8007a38:	61bb      	str	r3, [r7, #24]
 8007a3a:	2300      	movs	r3, #0
 8007a3c:	62fb      	str	r3, [r7, #44]	; 0x2c
 8007a3e:	69bb      	ldr	r3, [r7, #24]
 8007a40:	f003 437f 	and.w	r3, r3, #4278190080	; 0xff000000
 8007a44:	617b      	str	r3, [r7, #20]
 8007a46:	69bb      	ldr	r3, [r7, #24]
 8007a48:	f023 437f 	bic.w	r3, r3, #4278190080	; 0xff000000
 8007a4c:	61bb      	str	r3, [r7, #24]
 8007a4e:	697b      	ldr	r3, [r7, #20]
 8007a50:	f003 6380 	and.w	r3, r3, #67108864	; 0x4000000
 8007a54:	2b00      	cmp	r3, #0
 8007a56:	d108      	bne.n	8007a6a <xEventGroupSetBits+0xae>
 8007a58:	6abb      	ldr	r3, [r7, #40]	; 0x28
 8007a5a:	681a      	ldr	r2, [r3, #0]
 8007a5c:	69bb      	ldr	r3, [r7, #24]
 8007a5e:	4013      	ands	r3, r2
 8007a60:	2b00      	cmp	r3, #0
 8007a62:	d00b      	beq.n	8007a7c <xEventGroupSetBits+0xc0>
 8007a64:	2301      	movs	r3, #1
 8007a66:	62fb      	str	r3, [r7, #44]	; 0x2c
 8007a68:	e008      	b.n	8007a7c <xEventGroupSetBits+0xc0>
 8007a6a:	6abb      	ldr	r3, [r7, #40]	; 0x28
 8007a6c:	681a      	ldr	r2, [r3, #0]
 8007a6e:	69bb      	ldr	r3, [r7, #24]
 8007a70:	4013      	ands	r3, r2
 8007a72:	69ba      	ldr	r2, [r7, #24]
 8007a74:	429a      	cmp	r2, r3
 8007a76:	d101      	bne.n	8007a7c <xEventGroupSetBits+0xc0>
 8007a78:	2301      	movs	r3, #1
 8007a7a:	62fb      	str	r3, [r7, #44]	; 0x2c
 8007a7c:	6afb      	ldr	r3, [r7, #44]	; 0x2c
 8007a7e:	2b00      	cmp	r3, #0
 8007a80:	d010      	beq.n	8007aa4 <xEventGroupSetBits+0xe8>
 8007a82:	697b      	ldr	r3, [r7, #20]
 8007a84:	f003 7380 	and.w	r3, r3, #16777216	; 0x1000000
 8007a88:	2b00      	cmp	r3, #0
 8007a8a:	d003      	beq.n	8007a94 <xEventGroupSetBits+0xd8>
 8007a8c:	6b3a      	ldr	r2, [r7, #48]	; 0x30
 8007a8e:	69bb      	ldr	r3, [r7, #24]
 8007a90:	4313      	orrs	r3, r2
 8007a92:	633b      	str	r3, [r7, #48]	; 0x30
 8007a94:	6abb      	ldr	r3, [r7, #40]	; 0x28
 8007a96:	681b      	ldr	r3, [r3, #0]
 8007a98:	f043 7300 	orr.w	r3, r3, #33554432	; 0x2000000
 8007a9c:	4619      	mov	r1, r3
 8007a9e:	6b78      	ldr	r0, [r7, #52]	; 0x34
 8007aa0:	f001 fc42 	bl	8009328 <vTaskRemoveFromUnorderedEventList>
 8007aa4:	69fb      	ldr	r3, [r7, #28]
 8007aa6:	637b      	str	r3, [r7, #52]	; 0x34
 8007aa8:	6b7a      	ldr	r2, [r7, #52]	; 0x34
 8007aaa:	6a3b      	ldr	r3, [r7, #32]
 8007aac:	429a      	cmp	r2, r3
 8007aae:	d1be      	bne.n	8007a2e <xEventGroupSetBits+0x72>
 8007ab0:	6abb      	ldr	r3, [r7, #40]	; 0x28
 8007ab2:	681a      	ldr	r2, [r3, #0]
 8007ab4:	6b3b      	ldr	r3, [r7, #48]	; 0x30
 8007ab6:	43db      	mvns	r3, r3
 8007ab8:	401a      	ands	r2, r3
 8007aba:	6abb      	ldr	r3, [r7, #40]	; 0x28
 8007abc:	601a      	str	r2, [r3, #0]
 8007abe:	f001 f95b 	bl	8008d78 <xTaskResumeAll>
 8007ac2:	6abb      	ldr	r3, [r7, #40]	; 0x28
 8007ac4:	681b      	ldr	r3, [r3, #0]
 8007ac6:	4618      	mov	r0, r3
 8007ac8:	3738      	adds	r7, #56	; 0x38
 8007aca:	46bd      	mov	sp, r7
 8007acc:	bd80      	pop	{r7, pc}

08007ace <vEventGroupSetBitsCallback>:
 8007ace:	b580      	push	{r7, lr}
 8007ad0:	b082      	sub	sp, #8
 8007ad2:	af00      	add	r7, sp, #0
 8007ad4:	6078      	str	r0, [r7, #4]
 8007ad6:	6039      	str	r1, [r7, #0]
 8007ad8:	6839      	ldr	r1, [r7, #0]
 8007ada:	6878      	ldr	r0, [r7, #4]
 8007adc:	f7ff ff6e 	bl	80079bc <xEventGroupSetBits>
 8007ae0:	bf00      	nop
 8007ae2:	3708      	adds	r7, #8
 8007ae4:	46bd      	mov	sp, r7
 8007ae6:	bd80      	pop	{r7, pc}

08007ae8 <vEventGroupClearBitsCallback>:
 8007ae8:	b580      	push	{r7, lr}
 8007aea:	b082      	sub	sp, #8
 8007aec:	af00      	add	r7, sp, #0
 8007aee:	6078      	str	r0, [r7, #4]
 8007af0:	6039      	str	r1, [r7, #0]
 8007af2:	6839      	ldr	r1, [r7, #0]
 8007af4:	6878      	ldr	r0, [r7, #4]
 8007af6:	f7ff ff17 	bl	8007928 <xEventGroupClearBits>
 8007afa:	bf00      	nop
 8007afc:	3708      	adds	r7, #8
 8007afe:	46bd      	mov	sp, r7
 8007b00:	bd80      	pop	{r7, pc}

08007b02 <prvTestWaitCondition>:
 8007b02:	b480      	push	{r7}
 8007b04:	b087      	sub	sp, #28
 8007b06:	af00      	add	r7, sp, #0
 8007b08:	60f8      	str	r0, [r7, #12]
 8007b0a:	60b9      	str	r1, [r7, #8]
 8007b0c:	607a      	str	r2, [r7, #4]
 8007b0e:	2300      	movs	r3, #0
 8007b10:	617b      	str	r3, [r7, #20]
 8007b12:	687b      	ldr	r3, [r7, #4]
 8007b14:	2b00      	cmp	r3, #0
 8007b16:	d107      	bne.n	8007b28 <prvTestWaitCondition+0x26>
 8007b18:	68fa      	ldr	r2, [r7, #12]
 8007b1a:	68bb      	ldr	r3, [r7, #8]
 8007b1c:	4013      	ands	r3, r2
 8007b1e:	2b00      	cmp	r3, #0
 8007b20:	d00a      	beq.n	8007b38 <prvTestWaitCondition+0x36>
 8007b22:	2301      	movs	r3, #1
 8007b24:	617b      	str	r3, [r7, #20]
 8007b26:	e007      	b.n	8007b38 <prvTestWaitCondition+0x36>
 8007b28:	68fa      	ldr	r2, [r7, #12]
 8007b2a:	68bb      	ldr	r3, [r7, #8]
 8007b2c:	4013      	ands	r3, r2
 8007b2e:	68ba      	ldr	r2, [r7, #8]
 8007b30:	429a      	cmp	r2, r3
 8007b32:	d101      	bne.n	8007b38 <prvTestWaitCondition+0x36>
 8007b34:	2301      	movs	r3, #1
 8007b36:	617b      	str	r3, [r7, #20]
 8007b38:	697b      	ldr	r3, [r7, #20]
 8007b3a:	4618      	mov	r0, r3
 8007b3c:	371c      	adds	r7, #28
 8007b3e:	46bd      	mov	sp, r7
 8007b40:	bc80      	pop	{r7}
 8007b42:	4770      	bx	lr

08007b44 <xEventGroupSetBitsFromISR>:
 8007b44:	b580      	push	{r7, lr}
 8007b46:	b086      	sub	sp, #24
 8007b48:	af00      	add	r7, sp, #0
 8007b4a:	60f8      	str	r0, [r7, #12]
 8007b4c:	60b9      	str	r1, [r7, #8]
 8007b4e:	607a      	str	r2, [r7, #4]
 8007b50:	687b      	ldr	r3, [r7, #4]
 8007b52:	68ba      	ldr	r2, [r7, #8]
 8007b54:	68f9      	ldr	r1, [r7, #12]
 8007b56:	4804      	ldr	r0, [pc, #16]	; (8007b68 <xEventGroupSetBitsFromISR+0x24>)
 8007b58:	f002 f9f4 	bl	8009f44 <xTimerPendFunctionCallFromISR>
 8007b5c:	6178      	str	r0, [r7, #20]
 8007b5e:	697b      	ldr	r3, [r7, #20]
 8007b60:	4618      	mov	r0, r3
 8007b62:	3718      	adds	r7, #24
 8007b64:	46bd      	mov	sp, r7
 8007b66:	bd80      	pop	{r7, pc}
 8007b68:	08007acf 	.word	0x08007acf

08007b6c <vListInitialise>:
 8007b6c:	b480      	push	{r7}
 8007b6e:	b083      	sub	sp, #12
 8007b70:	af00      	add	r7, sp, #0
 8007b72:	6078      	str	r0, [r7, #4]
 8007b74:	687b      	ldr	r3, [r7, #4]
 8007b76:	f103 0208 	add.w	r2, r3, #8
 8007b7a:	687b      	ldr	r3, [r7, #4]
 8007b7c:	605a      	str	r2, [r3, #4]
 8007b7e:	687b      	ldr	r3, [r7, #4]
 8007b80:	f04f 32ff 	mov.w	r2, #4294967295
 8007b84:	609a      	str	r2, [r3, #8]
 8007b86:	687b      	ldr	r3, [r7, #4]
 8007b88:	f103 0208 	add.w	r2, r3, #8
 8007b8c:	687b      	ldr	r3, [r7, #4]
 8007b8e:	60da      	str	r2, [r3, #12]
 8007b90:	687b      	ldr	r3, [r7, #4]
 8007b92:	f103 0208 	add.w	r2, r3, #8
 8007b96:	687b      	ldr	r3, [r7, #4]
 8007b98:	611a      	str	r2, [r3, #16]
 8007b9a:	687b      	ldr	r3, [r7, #4]
 8007b9c:	2200      	movs	r2, #0
 8007b9e:	601a      	str	r2, [r3, #0]
 8007ba0:	bf00      	nop
 8007ba2:	370c      	adds	r7, #12
 8007ba4:	46bd      	mov	sp, r7
 8007ba6:	bc80      	pop	{r7}
 8007ba8:	4770      	bx	lr

08007baa <vListInitialiseItem>:
 8007baa:	b480      	push	{r7}
 8007bac:	b083      	sub	sp, #12
 8007bae:	af00      	add	r7, sp, #0
 8007bb0:	6078      	str	r0, [r7, #4]
 8007bb2:	687b      	ldr	r3, [r7, #4]
 8007bb4:	2200      	movs	r2, #0
 8007bb6:	611a      	str	r2, [r3, #16]
 8007bb8:	bf00      	nop
 8007bba:	370c      	adds	r7, #12
 8007bbc:	46bd      	mov	sp, r7
 8007bbe:	bc80      	pop	{r7}
 8007bc0:	4770      	bx	lr

08007bc2 <vListInsertEnd>:
 8007bc2:	b480      	push	{r7}
 8007bc4:	b085      	sub	sp, #20
 8007bc6:	af00      	add	r7, sp, #0
 8007bc8:	6078      	str	r0, [r7, #4]
 8007bca:	6039      	str	r1, [r7, #0]
 8007bcc:	687b      	ldr	r3, [r7, #4]
 8007bce:	685b      	ldr	r3, [r3, #4]
 8007bd0:	60fb      	str	r3, [r7, #12]
 8007bd2:	683b      	ldr	r3, [r7, #0]
 8007bd4:	68fa      	ldr	r2, [r7, #12]
 8007bd6:	605a      	str	r2, [r3, #4]
 8007bd8:	68fb      	ldr	r3, [r7, #12]
 8007bda:	689a      	ldr	r2, [r3, #8]
 8007bdc:	683b      	ldr	r3, [r7, #0]
 8007bde:	609a      	str	r2, [r3, #8]
 8007be0:	68fb      	ldr	r3, [r7, #12]
 8007be2:	689b      	ldr	r3, [r3, #8]
 8007be4:	683a      	ldr	r2, [r7, #0]
 8007be6:	605a      	str	r2, [r3, #4]
 8007be8:	68fb      	ldr	r3, [r7, #12]
 8007bea:	683a      	ldr	r2, [r7, #0]
 8007bec:	609a      	str	r2, [r3, #8]
 8007bee:	683b      	ldr	r3, [r7, #0]
 8007bf0:	687a      	ldr	r2, [r7, #4]
 8007bf2:	611a      	str	r2, [r3, #16]
 8007bf4:	687b      	ldr	r3, [r7, #4]
 8007bf6:	681b      	ldr	r3, [r3, #0]
 8007bf8:	1c5a      	adds	r2, r3, #1
 8007bfa:	687b      	ldr	r3, [r7, #4]
 8007bfc:	601a      	str	r2, [r3, #0]
 8007bfe:	bf00      	nop
 8007c00:	3714      	adds	r7, #20
 8007c02:	46bd      	mov	sp, r7
 8007c04:	bc80      	pop	{r7}
 8007c06:	4770      	bx	lr

08007c08 <vListInsert>:
 8007c08:	b480      	push	{r7}
 8007c0a:	b085      	sub	sp, #20
 8007c0c:	af00      	add	r7, sp, #0
 8007c0e:	6078      	str	r0, [r7, #4]
 8007c10:	6039      	str	r1, [r7, #0]
 8007c12:	683b      	ldr	r3, [r7, #0]
 8007c14:	681b      	ldr	r3, [r3, #0]
 8007c16:	60bb      	str	r3, [r7, #8]
 8007c18:	68bb      	ldr	r3, [r7, #8]
 8007c1a:	f1b3 3fff 	cmp.w	r3, #4294967295
 8007c1e:	d103      	bne.n	8007c28 <vListInsert+0x20>
 8007c20:	687b      	ldr	r3, [r7, #4]
 8007c22:	691b      	ldr	r3, [r3, #16]
 8007c24:	60fb      	str	r3, [r7, #12]
 8007c26:	e00c      	b.n	8007c42 <vListInsert+0x3a>
 8007c28:	687b      	ldr	r3, [r7, #4]
 8007c2a:	3308      	adds	r3, #8
 8007c2c:	60fb      	str	r3, [r7, #12]
 8007c2e:	e002      	b.n	8007c36 <vListInsert+0x2e>
 8007c30:	68fb      	ldr	r3, [r7, #12]
 8007c32:	685b      	ldr	r3, [r3, #4]
 8007c34:	60fb      	str	r3, [r7, #12]
 8007c36:	68fb      	ldr	r3, [r7, #12]
 8007c38:	685b      	ldr	r3, [r3, #4]
 8007c3a:	681b      	ldr	r3, [r3, #0]
 8007c3c:	68ba      	ldr	r2, [r7, #8]
 8007c3e:	429a      	cmp	r2, r3
 8007c40:	d2f6      	bcs.n	8007c30 <vListInsert+0x28>
 8007c42:	68fb      	ldr	r3, [r7, #12]
 8007c44:	685a      	ldr	r2, [r3, #4]
 8007c46:	683b      	ldr	r3, [r7, #0]
 8007c48:	605a      	str	r2, [r3, #4]
 8007c4a:	683b      	ldr	r3, [r7, #0]
 8007c4c:	685b      	ldr	r3, [r3, #4]
 8007c4e:	683a      	ldr	r2, [r7, #0]
 8007c50:	609a      	str	r2, [r3, #8]
 8007c52:	683b      	ldr	r3, [r7, #0]
 8007c54:	68fa      	ldr	r2, [r7, #12]
 8007c56:	609a      	str	r2, [r3, #8]
 8007c58:	68fb      	ldr	r3, [r7, #12]
 8007c5a:	683a      	ldr	r2, [r7, #0]
 8007c5c:	605a      	str	r2, [r3, #4]
 8007c5e:	683b      	ldr	r3, [r7, #0]
 8007c60:	687a      	ldr	r2, [r7, #4]
 8007c62:	611a      	str	r2, [r3, #16]
 8007c64:	687b      	ldr	r3, [r7, #4]
 8007c66:	681b      	ldr	r3, [r3, #0]
 8007c68:	1c5a      	adds	r2, r3, #1
 8007c6a:	687b      	ldr	r3, [r7, #4]
 8007c6c:	601a      	str	r2, [r3, #0]
 8007c6e:	bf00      	nop
 8007c70:	3714      	adds	r7, #20
 8007c72:	46bd      	mov	sp, r7
 8007c74:	bc80      	pop	{r7}
 8007c76:	4770      	bx	lr

08007c78 <uxListRemove>:
 8007c78:	b480      	push	{r7}
 8007c7a:	b085      	sub	sp, #20
 8007c7c:	af00      	add	r7, sp, #0
 8007c7e:	6078      	str	r0, [r7, #4]
 8007c80:	687b      	ldr	r3, [r7, #4]
 8007c82:	691b      	ldr	r3, [r3, #16]
 8007c84:	60fb      	str	r3, [r7, #12]
 8007c86:	687b      	ldr	r3, [r7, #4]
 8007c88:	685b      	ldr	r3, [r3, #4]
 8007c8a:	687a      	ldr	r2, [r7, #4]
 8007c8c:	6892      	ldr	r2, [r2, #8]
 8007c8e:	609a      	str	r2, [r3, #8]
 8007c90:	687b      	ldr	r3, [r7, #4]
 8007c92:	689b      	ldr	r3, [r3, #8]
 8007c94:	687a      	ldr	r2, [r7, #4]
 8007c96:	6852      	ldr	r2, [r2, #4]
 8007c98:	605a      	str	r2, [r3, #4]
 8007c9a:	68fb      	ldr	r3, [r7, #12]
 8007c9c:	685b      	ldr	r3, [r3, #4]
 8007c9e:	687a      	ldr	r2, [r7, #4]
 8007ca0:	429a      	cmp	r2, r3
 8007ca2:	d103      	bne.n	8007cac <uxListRemove+0x34>
 8007ca4:	687b      	ldr	r3, [r7, #4]
 8007ca6:	689a      	ldr	r2, [r3, #8]
 8007ca8:	68fb      	ldr	r3, [r7, #12]
 8007caa:	605a      	str	r2, [r3, #4]
 8007cac:	687b      	ldr	r3, [r7, #4]
 8007cae:	2200      	movs	r2, #0
 8007cb0:	611a      	str	r2, [r3, #16]
 8007cb2:	68fb      	ldr	r3, [r7, #12]
 8007cb4:	681b      	ldr	r3, [r3, #0]
 8007cb6:	1e5a      	subs	r2, r3, #1
 8007cb8:	68fb      	ldr	r3, [r7, #12]
 8007cba:	601a      	str	r2, [r3, #0]
 8007cbc:	68fb      	ldr	r3, [r7, #12]
 8007cbe:	681b      	ldr	r3, [r3, #0]
 8007cc0:	4618      	mov	r0, r3
 8007cc2:	3714      	adds	r7, #20
 8007cc4:	46bd      	mov	sp, r7
 8007cc6:	bc80      	pop	{r7}
 8007cc8:	4770      	bx	lr
	...

08007ccc <xQueueGenericReset>:
 8007ccc:	b580      	push	{r7, lr}
 8007cce:	b084      	sub	sp, #16
 8007cd0:	af00      	add	r7, sp, #0
 8007cd2:	6078      	str	r0, [r7, #4]
 8007cd4:	6039      	str	r1, [r7, #0]
 8007cd6:	687b      	ldr	r3, [r7, #4]
 8007cd8:	60fb      	str	r3, [r7, #12]
 8007cda:	68fb      	ldr	r3, [r7, #12]
 8007cdc:	2b00      	cmp	r3, #0
 8007cde:	d109      	bne.n	8007cf4 <xQueueGenericReset+0x28>
 8007ce0:	f04f 0350 	mov.w	r3, #80	; 0x50
 8007ce4:	f383 8811 	msr	BASEPRI, r3
 8007ce8:	f3bf 8f6f 	isb	sy
 8007cec:	f3bf 8f4f 	dsb	sy
 8007cf0:	60bb      	str	r3, [r7, #8]
 8007cf2:	e7fe      	b.n	8007cf2 <xQueueGenericReset+0x26>
 8007cf4:	f002 fa30 	bl	800a158 <vPortEnterCritical>
 8007cf8:	68fb      	ldr	r3, [r7, #12]
 8007cfa:	681a      	ldr	r2, [r3, #0]
 8007cfc:	68fb      	ldr	r3, [r7, #12]
 8007cfe:	6bdb      	ldr	r3, [r3, #60]	; 0x3c
 8007d00:	68f9      	ldr	r1, [r7, #12]
 8007d02:	6c09      	ldr	r1, [r1, #64]	; 0x40
 8007d04:	fb01 f303 	mul.w	r3, r1, r3
 8007d08:	441a      	add	r2, r3
 8007d0a:	68fb      	ldr	r3, [r7, #12]
 8007d0c:	605a      	str	r2, [r3, #4]
 8007d0e:	68fb      	ldr	r3, [r7, #12]
 8007d10:	2200      	movs	r2, #0
 8007d12:	639a      	str	r2, [r3, #56]	; 0x38
 8007d14:	68fb      	ldr	r3, [r7, #12]
 8007d16:	681a      	ldr	r2, [r3, #0]
 8007d18:	68fb      	ldr	r3, [r7, #12]
 8007d1a:	609a      	str	r2, [r3, #8]
 8007d1c:	68fb      	ldr	r3, [r7, #12]
 8007d1e:	681a      	ldr	r2, [r3, #0]
 8007d20:	68fb      	ldr	r3, [r7, #12]
 8007d22:	6bdb      	ldr	r3, [r3, #60]	; 0x3c
 8007d24:	3b01      	subs	r3, #1
 8007d26:	68f9      	ldr	r1, [r7, #12]
 8007d28:	6c09      	ldr	r1, [r1, #64]	; 0x40
 8007d2a:	fb01 f303 	mul.w	r3, r1, r3
 8007d2e:	441a      	add	r2, r3
 8007d30:	68fb      	ldr	r3, [r7, #12]
 8007d32:	60da      	str	r2, [r3, #12]
 8007d34:	68fb      	ldr	r3, [r7, #12]
 8007d36:	22ff      	movs	r2, #255	; 0xff
 8007d38:	f883 2044 	strb.w	r2, [r3, #68]	; 0x44
 8007d3c:	68fb      	ldr	r3, [r7, #12]
 8007d3e:	22ff      	movs	r2, #255	; 0xff
 8007d40:	f883 2045 	strb.w	r2, [r3, #69]	; 0x45
 8007d44:	683b      	ldr	r3, [r7, #0]
 8007d46:	2b00      	cmp	r3, #0
 8007d48:	d114      	bne.n	8007d74 <xQueueGenericReset+0xa8>
 8007d4a:	68fb      	ldr	r3, [r7, #12]
 8007d4c:	691b      	ldr	r3, [r3, #16]
 8007d4e:	2b00      	cmp	r3, #0
 8007d50:	d01a      	beq.n	8007d88 <xQueueGenericReset+0xbc>
 8007d52:	68fb      	ldr	r3, [r7, #12]
 8007d54:	3310      	adds	r3, #16
 8007d56:	4618      	mov	r0, r3
 8007d58:	f001 fa84 	bl	8009264 <xTaskRemoveFromEventList>
 8007d5c:	4603      	mov	r3, r0
 8007d5e:	2b00      	cmp	r3, #0
 8007d60:	d012      	beq.n	8007d88 <xQueueGenericReset+0xbc>
 8007d62:	4b0d      	ldr	r3, [pc, #52]	; (8007d98 <xQueueGenericReset+0xcc>)
 8007d64:	f04f 5280 	mov.w	r2, #268435456	; 0x10000000
 8007d68:	601a      	str	r2, [r3, #0]
 8007d6a:	f3bf 8f4f 	dsb	sy
 8007d6e:	f3bf 8f6f 	isb	sy
 8007d72:	e009      	b.n	8007d88 <xQueueGenericReset+0xbc>
 8007d74:	68fb      	ldr	r3, [r7, #12]
 8007d76:	3310      	adds	r3, #16
 8007d78:	4618      	mov	r0, r3
 8007d7a:	f7ff fef7 	bl	8007b6c <vListInitialise>
 8007d7e:	68fb      	ldr	r3, [r7, #12]
 8007d80:	3324      	adds	r3, #36	; 0x24
 8007d82:	4618      	mov	r0, r3
 8007d84:	f7ff fef2 	bl	8007b6c <vListInitialise>
 8007d88:	f002 fa14 	bl	800a1b4 <vPortExitCritical>
 8007d8c:	2301      	movs	r3, #1
 8007d8e:	4618      	mov	r0, r3
 8007d90:	3710      	adds	r7, #16
 8007d92:	46bd      	mov	sp, r7
 8007d94:	bd80      	pop	{r7, pc}
 8007d96:	bf00      	nop
 8007d98:	e000ed04 	.word	0xe000ed04

08007d9c <xQueueGenericCreateStatic>:
 8007d9c:	b580      	push	{r7, lr}
 8007d9e:	b08e      	sub	sp, #56	; 0x38
 8007da0:	af02      	add	r7, sp, #8
 8007da2:	60f8      	str	r0, [r7, #12]
 8007da4:	60b9      	str	r1, [r7, #8]
 8007da6:	607a      	str	r2, [r7, #4]
 8007da8:	603b      	str	r3, [r7, #0]
 8007daa:	68fb      	ldr	r3, [r7, #12]
 8007dac:	2b00      	cmp	r3, #0
 8007dae:	d109      	bne.n	8007dc4 <xQueueGenericCreateStatic+0x28>
 8007db0:	f04f 0350 	mov.w	r3, #80	; 0x50
 8007db4:	f383 8811 	msr	BASEPRI, r3
 8007db8:	f3bf 8f6f 	isb	sy
 8007dbc:	f3bf 8f4f 	dsb	sy
 8007dc0:	62bb      	str	r3, [r7, #40]	; 0x28
 8007dc2:	e7fe      	b.n	8007dc2 <xQueueGenericCreateStatic+0x26>
 8007dc4:	683b      	ldr	r3, [r7, #0]
 8007dc6:	2b00      	cmp	r3, #0
 8007dc8:	d109      	bne.n	8007dde <xQueueGenericCreateStatic+0x42>
 8007dca:	f04f 0350 	mov.w	r3, #80	; 0x50
 8007dce:	f383 8811 	msr	BASEPRI, r3
 8007dd2:	f3bf 8f6f 	isb	sy
 8007dd6:	f3bf 8f4f 	dsb	sy
 8007dda:	627b      	str	r3, [r7, #36]	; 0x24
 8007ddc:	e7fe      	b.n	8007ddc <xQueueGenericCreateStatic+0x40>
 8007dde:	687b      	ldr	r3, [r7, #4]
 8007de0:	2b00      	cmp	r3, #0
 8007de2:	d002      	beq.n	8007dea <xQueueGenericCreateStatic+0x4e>
 8007de4:	68bb      	ldr	r3, [r7, #8]
 8007de6:	2b00      	cmp	r3, #0
 8007de8:	d001      	beq.n	8007dee <xQueueGenericCreateStatic+0x52>
 8007dea:	2301      	movs	r3, #1
 8007dec:	e000      	b.n	8007df0 <xQueueGenericCreateStatic+0x54>
 8007dee:	2300      	movs	r3, #0
 8007df0:	2b00      	cmp	r3, #0
 8007df2:	d109      	bne.n	8007e08 <xQueueGenericCreateStatic+0x6c>
 8007df4:	f04f 0350 	mov.w	r3, #80	; 0x50
 8007df8:	f383 8811 	msr	BASEPRI, r3
 8007dfc:	f3bf 8f6f 	isb	sy
 8007e00:	f3bf 8f4f 	dsb	sy
 8007e04:	623b      	str	r3, [r7, #32]
 8007e06:	e7fe      	b.n	8007e06 <xQueueGenericCreateStatic+0x6a>
 8007e08:	687b      	ldr	r3, [r7, #4]
 8007e0a:	2b00      	cmp	r3, #0
 8007e0c:	d102      	bne.n	8007e14 <xQueueGenericCreateStatic+0x78>
 8007e0e:	68bb      	ldr	r3, [r7, #8]
 8007e10:	2b00      	cmp	r3, #0
 8007e12:	d101      	bne.n	8007e18 <xQueueGenericCreateStatic+0x7c>
 8007e14:	2301      	movs	r3, #1
 8007e16:	e000      	b.n	8007e1a <xQueueGenericCreateStatic+0x7e>
 8007e18:	2300      	movs	r3, #0
 8007e1a:	2b00      	cmp	r3, #0
 8007e1c:	d109      	bne.n	8007e32 <xQueueGenericCreateStatic+0x96>
 8007e1e:	f04f 0350 	mov.w	r3, #80	; 0x50
 8007e22:	f383 8811 	msr	BASEPRI, r3
 8007e26:	f3bf 8f6f 	isb	sy
 8007e2a:	f3bf 8f4f 	dsb	sy
 8007e2e:	61fb      	str	r3, [r7, #28]
 8007e30:	e7fe      	b.n	8007e30 <xQueueGenericCreateStatic+0x94>
 8007e32:	2350      	movs	r3, #80	; 0x50
 8007e34:	617b      	str	r3, [r7, #20]
 8007e36:	697b      	ldr	r3, [r7, #20]
 8007e38:	2b50      	cmp	r3, #80	; 0x50
 8007e3a:	d009      	beq.n	8007e50 <xQueueGenericCreateStatic+0xb4>
 8007e3c:	f04f 0350 	mov.w	r3, #80	; 0x50
 8007e40:	f383 8811 	msr	BASEPRI, r3
 8007e44:	f3bf 8f6f 	isb	sy
 8007e48:	f3bf 8f4f 	dsb	sy
 8007e4c:	61bb      	str	r3, [r7, #24]
 8007e4e:	e7fe      	b.n	8007e4e <xQueueGenericCreateStatic+0xb2>
 8007e50:	683b      	ldr	r3, [r7, #0]
 8007e52:	62fb      	str	r3, [r7, #44]	; 0x2c
 8007e54:	6afb      	ldr	r3, [r7, #44]	; 0x2c
 8007e56:	2b00      	cmp	r3, #0
 8007e58:	d00d      	beq.n	8007e76 <xQueueGenericCreateStatic+0xda>
 8007e5a:	6afb      	ldr	r3, [r7, #44]	; 0x2c
 8007e5c:	2201      	movs	r2, #1
 8007e5e:	f883 2046 	strb.w	r2, [r3, #70]	; 0x46
 8007e62:	f897 2038 	ldrb.w	r2, [r7, #56]	; 0x38
 8007e66:	6afb      	ldr	r3, [r7, #44]	; 0x2c
 8007e68:	9300      	str	r3, [sp, #0]
 8007e6a:	4613      	mov	r3, r2
 8007e6c:	687a      	ldr	r2, [r7, #4]
 8007e6e:	68b9      	ldr	r1, [r7, #8]
 8007e70:	68f8      	ldr	r0, [r7, #12]
 8007e72:	f000 f842 	bl	8007efa <prvInitialiseNewQueue>
 8007e76:	6afb      	ldr	r3, [r7, #44]	; 0x2c
 8007e78:	4618      	mov	r0, r3
 8007e7a:	3730      	adds	r7, #48	; 0x30
 8007e7c:	46bd      	mov	sp, r7
 8007e7e:	bd80      	pop	{r7, pc}

08007e80 <xQueueGenericCreate>:
 8007e80:	b580      	push	{r7, lr}
 8007e82:	b08a      	sub	sp, #40	; 0x28
 8007e84:	af02      	add	r7, sp, #8
 8007e86:	60f8      	str	r0, [r7, #12]
 8007e88:	60b9      	str	r1, [r7, #8]
 8007e8a:	4613      	mov	r3, r2
 8007e8c:	71fb      	strb	r3, [r7, #7]
 8007e8e:	68fb      	ldr	r3, [r7, #12]
 8007e90:	2b00      	cmp	r3, #0
 8007e92:	d109      	bne.n	8007ea8 <xQueueGenericCreate+0x28>
 8007e94:	f04f 0350 	mov.w	r3, #80	; 0x50
 8007e98:	f383 8811 	msr	BASEPRI, r3
 8007e9c:	f3bf 8f6f 	isb	sy
 8007ea0:	f3bf 8f4f 	dsb	sy
 8007ea4:	613b      	str	r3, [r7, #16]
 8007ea6:	e7fe      	b.n	8007ea6 <xQueueGenericCreate+0x26>
 8007ea8:	68bb      	ldr	r3, [r7, #8]
 8007eaa:	2b00      	cmp	r3, #0
 8007eac:	d102      	bne.n	8007eb4 <xQueueGenericCreate+0x34>
 8007eae:	2300      	movs	r3, #0
 8007eb0:	61fb      	str	r3, [r7, #28]
 8007eb2:	e004      	b.n	8007ebe <xQueueGenericCreate+0x3e>
 8007eb4:	68fb      	ldr	r3, [r7, #12]
 8007eb6:	68ba      	ldr	r2, [r7, #8]
 8007eb8:	fb02 f303 	mul.w	r3, r2, r3
 8007ebc:	61fb      	str	r3, [r7, #28]
 8007ebe:	69fb      	ldr	r3, [r7, #28]
 8007ec0:	3350      	adds	r3, #80	; 0x50
 8007ec2:	4618      	mov	r0, r3
 8007ec4:	f002 fa3e 	bl	800a344 <pvPortMalloc>
 8007ec8:	61b8      	str	r0, [r7, #24]
 8007eca:	69bb      	ldr	r3, [r7, #24]
 8007ecc:	2b00      	cmp	r3, #0
 8007ece:	d00f      	beq.n	8007ef0 <xQueueGenericCreate+0x70>
 8007ed0:	69bb      	ldr	r3, [r7, #24]
 8007ed2:	3350      	adds	r3, #80	; 0x50
 8007ed4:	617b      	str	r3, [r7, #20]
 8007ed6:	69bb      	ldr	r3, [r7, #24]
 8007ed8:	2200      	movs	r2, #0
 8007eda:	f883 2046 	strb.w	r2, [r3, #70]	; 0x46
 8007ede:	79fa      	ldrb	r2, [r7, #7]
 8007ee0:	69bb      	ldr	r3, [r7, #24]
 8007ee2:	9300      	str	r3, [sp, #0]
 8007ee4:	4613      	mov	r3, r2
 8007ee6:	697a      	ldr	r2, [r7, #20]
 8007ee8:	68b9      	ldr	r1, [r7, #8]
 8007eea:	68f8      	ldr	r0, [r7, #12]
 8007eec:	f000 f805 	bl	8007efa <prvInitialiseNewQueue>
 8007ef0:	69bb      	ldr	r3, [r7, #24]
 8007ef2:	4618      	mov	r0, r3
 8007ef4:	3720      	adds	r7, #32
 8007ef6:	46bd      	mov	sp, r7
 8007ef8:	bd80      	pop	{r7, pc}

08007efa <prvInitialiseNewQueue>:
 8007efa:	b580      	push	{r7, lr}
 8007efc:	b084      	sub	sp, #16
 8007efe:	af00      	add	r7, sp, #0
 8007f00:	60f8      	str	r0, [r7, #12]
 8007f02:	60b9      	str	r1, [r7, #8]
 8007f04:	607a      	str	r2, [r7, #4]
 8007f06:	70fb      	strb	r3, [r7, #3]
 8007f08:	68bb      	ldr	r3, [r7, #8]
 8007f0a:	2b00      	cmp	r3, #0
 8007f0c:	d103      	bne.n	8007f16 <prvInitialiseNewQueue+0x1c>
 8007f0e:	69bb      	ldr	r3, [r7, #24]
 8007f10:	69ba      	ldr	r2, [r7, #24]
 8007f12:	601a      	str	r2, [r3, #0]
 8007f14:	e002      	b.n	8007f1c <prvInitialiseNewQueue+0x22>
 8007f16:	69bb      	ldr	r3, [r7, #24]
 8007f18:	687a      	ldr	r2, [r7, #4]
 8007f1a:	601a      	str	r2, [r3, #0]
 8007f1c:	69bb      	ldr	r3, [r7, #24]
 8007f1e:	68fa      	ldr	r2, [r7, #12]
 8007f20:	63da      	str	r2, [r3, #60]	; 0x3c
 8007f22:	69bb      	ldr	r3, [r7, #24]
 8007f24:	68ba      	ldr	r2, [r7, #8]
 8007f26:	641a      	str	r2, [r3, #64]	; 0x40
 8007f28:	2101      	movs	r1, #1
 8007f2a:	69b8      	ldr	r0, [r7, #24]
 8007f2c:	f7ff fece 	bl	8007ccc <xQueueGenericReset>
 8007f30:	69bb      	ldr	r3, [r7, #24]
 8007f32:	78fa      	ldrb	r2, [r7, #3]
 8007f34:	f883 204c 	strb.w	r2, [r3, #76]	; 0x4c
 8007f38:	bf00      	nop
 8007f3a:	3710      	adds	r7, #16
 8007f3c:	46bd      	mov	sp, r7
 8007f3e:	bd80      	pop	{r7, pc}

08007f40 <xQueueGenericSend>:
 8007f40:	b580      	push	{r7, lr}
 8007f42:	b08e      	sub	sp, #56	; 0x38
 8007f44:	af00      	add	r7, sp, #0
 8007f46:	60f8      	str	r0, [r7, #12]
 8007f48:	60b9      	str	r1, [r7, #8]
 8007f4a:	607a      	str	r2, [r7, #4]
 8007f4c:	603b      	str	r3, [r7, #0]
 8007f4e:	2300      	movs	r3, #0
 8007f50:	637b      	str	r3, [r7, #52]	; 0x34
 8007f52:	68fb      	ldr	r3, [r7, #12]
 8007f54:	633b      	str	r3, [r7, #48]	; 0x30
 8007f56:	6b3b      	ldr	r3, [r7, #48]	; 0x30
 8007f58:	2b00      	cmp	r3, #0
 8007f5a:	d109      	bne.n	8007f70 <xQueueGenericSend+0x30>
 8007f5c:	f04f 0350 	mov.w	r3, #80	; 0x50
 8007f60:	f383 8811 	msr	BASEPRI, r3
 8007f64:	f3bf 8f6f 	isb	sy
 8007f68:	f3bf 8f4f 	dsb	sy
 8007f6c:	62bb      	str	r3, [r7, #40]	; 0x28
 8007f6e:	e7fe      	b.n	8007f6e <xQueueGenericSend+0x2e>
 8007f70:	68bb      	ldr	r3, [r7, #8]
 8007f72:	2b00      	cmp	r3, #0
 8007f74:	d103      	bne.n	8007f7e <xQueueGenericSend+0x3e>
 8007f76:	6b3b      	ldr	r3, [r7, #48]	; 0x30
 8007f78:	6c1b      	ldr	r3, [r3, #64]	; 0x40
 8007f7a:	2b00      	cmp	r3, #0
 8007f7c:	d101      	bne.n	8007f82 <xQueueGenericSend+0x42>
 8007f7e:	2301      	movs	r3, #1
 8007f80:	e000      	b.n	8007f84 <xQueueGenericSend+0x44>
 8007f82:	2300      	movs	r3, #0
 8007f84:	2b00      	cmp	r3, #0
 8007f86:	d109      	bne.n	8007f9c <xQueueGenericSend+0x5c>
 8007f88:	f04f 0350 	mov.w	r3, #80	; 0x50
 8007f8c:	f383 8811 	msr	BASEPRI, r3
 8007f90:	f3bf 8f6f 	isb	sy
 8007f94:	f3bf 8f4f 	dsb	sy
 8007f98:	627b      	str	r3, [r7, #36]	; 0x24
 8007f9a:	e7fe      	b.n	8007f9a <xQueueGenericSend+0x5a>
 8007f9c:	683b      	ldr	r3, [r7, #0]
 8007f9e:	2b02      	cmp	r3, #2
 8007fa0:	d103      	bne.n	8007faa <xQueueGenericSend+0x6a>
 8007fa2:	6b3b      	ldr	r3, [r7, #48]	; 0x30
 8007fa4:	6bdb      	ldr	r3, [r3, #60]	; 0x3c
 8007fa6:	2b01      	cmp	r3, #1
 8007fa8:	d101      	bne.n	8007fae <xQueueGenericSend+0x6e>
 8007faa:	2301      	movs	r3, #1
 8007fac:	e000      	b.n	8007fb0 <xQueueGenericSend+0x70>
 8007fae:	2300      	movs	r3, #0
 8007fb0:	2b00      	cmp	r3, #0
 8007fb2:	d109      	bne.n	8007fc8 <xQueueGenericSend+0x88>
 8007fb4:	f04f 0350 	mov.w	r3, #80	; 0x50
 8007fb8:	f383 8811 	msr	BASEPRI, r3
 8007fbc:	f3bf 8f6f 	isb	sy
 8007fc0:	f3bf 8f4f 	dsb	sy
 8007fc4:	623b      	str	r3, [r7, #32]
 8007fc6:	e7fe      	b.n	8007fc6 <xQueueGenericSend+0x86>
 8007fc8:	f001 fb68 	bl	800969c <xTaskGetSchedulerState>
 8007fcc:	4603      	mov	r3, r0
 8007fce:	2b00      	cmp	r3, #0
 8007fd0:	d102      	bne.n	8007fd8 <xQueueGenericSend+0x98>
 8007fd2:	687b      	ldr	r3, [r7, #4]
 8007fd4:	2b00      	cmp	r3, #0
 8007fd6:	d101      	bne.n	8007fdc <xQueueGenericSend+0x9c>
 8007fd8:	2301      	movs	r3, #1
 8007fda:	e000      	b.n	8007fde <xQueueGenericSend+0x9e>
 8007fdc:	2300      	movs	r3, #0
 8007fde:	2b00      	cmp	r3, #0
 8007fe0:	d109      	bne.n	8007ff6 <xQueueGenericSend+0xb6>
 8007fe2:	f04f 0350 	mov.w	r3, #80	; 0x50
 8007fe6:	f383 8811 	msr	BASEPRI, r3
 8007fea:	f3bf 8f6f 	isb	sy
 8007fee:	f3bf 8f4f 	dsb	sy
 8007ff2:	61fb      	str	r3, [r7, #28]
 8007ff4:	e7fe      	b.n	8007ff4 <xQueueGenericSend+0xb4>
 8007ff6:	f002 f8af 	bl	800a158 <vPortEnterCritical>
 8007ffa:	6b3b      	ldr	r3, [r7, #48]	; 0x30
 8007ffc:	6b9a      	ldr	r2, [r3, #56]	; 0x38
 8007ffe:	6b3b      	ldr	r3, [r7, #48]	; 0x30
 8008000:	6bdb      	ldr	r3, [r3, #60]	; 0x3c
 8008002:	429a      	cmp	r2, r3
 8008004:	d302      	bcc.n	800800c <xQueueGenericSend+0xcc>
 8008006:	683b      	ldr	r3, [r7, #0]
 8008008:	2b02      	cmp	r3, #2
 800800a:	d129      	bne.n	8008060 <xQueueGenericSend+0x120>
 800800c:	683a      	ldr	r2, [r7, #0]
 800800e:	68b9      	ldr	r1, [r7, #8]
 8008010:	6b38      	ldr	r0, [r7, #48]	; 0x30
 8008012:	f000 f9ff 	bl	8008414 <prvCopyDataToQueue>
 8008016:	62f8      	str	r0, [r7, #44]	; 0x2c
 8008018:	6b3b      	ldr	r3, [r7, #48]	; 0x30
 800801a:	6a5b      	ldr	r3, [r3, #36]	; 0x24
 800801c:	2b00      	cmp	r3, #0
 800801e:	d010      	beq.n	8008042 <xQueueGenericSend+0x102>
 8008020:	6b3b      	ldr	r3, [r7, #48]	; 0x30
 8008022:	3324      	adds	r3, #36	; 0x24
 8008024:	4618      	mov	r0, r3
 8008026:	f001 f91d 	bl	8009264 <xTaskRemoveFromEventList>
 800802a:	4603      	mov	r3, r0
 800802c:	2b00      	cmp	r3, #0
 800802e:	d013      	beq.n	8008058 <xQueueGenericSend+0x118>
 8008030:	4b3f      	ldr	r3, [pc, #252]	; (8008130 <xQueueGenericSend+0x1f0>)
 8008032:	f04f 5280 	mov.w	r2, #268435456	; 0x10000000
 8008036:	601a      	str	r2, [r3, #0]
 8008038:	f3bf 8f4f 	dsb	sy
 800803c:	f3bf 8f6f 	isb	sy
 8008040:	e00a      	b.n	8008058 <xQueueGenericSend+0x118>
 8008042:	6afb      	ldr	r3, [r7, #44]	; 0x2c
 8008044:	2b00      	cmp	r3, #0
 8008046:	d007      	beq.n	8008058 <xQueueGenericSend+0x118>
 8008048:	4b39      	ldr	r3, [pc, #228]	; (8008130 <xQueueGenericSend+0x1f0>)
 800804a:	f04f 5280 	mov.w	r2, #268435456	; 0x10000000
 800804e:	601a      	str	r2, [r3, #0]
 8008050:	f3bf 8f4f 	dsb	sy
 8008054:	f3bf 8f6f 	isb	sy
 8008058:	f002 f8ac 	bl	800a1b4 <vPortExitCritical>
 800805c:	2301      	movs	r3, #1
 800805e:	e063      	b.n	8008128 <xQueueGenericSend+0x1e8>
 8008060:	687b      	ldr	r3, [r7, #4]
 8008062:	2b00      	cmp	r3, #0
 8008064:	d103      	bne.n	800806e <xQueueGenericSend+0x12e>
 8008066:	f002 f8a5 	bl	800a1b4 <vPortExitCritical>
 800806a:	2300      	movs	r3, #0
 800806c:	e05c      	b.n	8008128 <xQueueGenericSend+0x1e8>
 800806e:	6b7b      	ldr	r3, [r7, #52]	; 0x34
 8008070:	2b00      	cmp	r3, #0
 8008072:	d106      	bne.n	8008082 <xQueueGenericSend+0x142>
 8008074:	f107 0314 	add.w	r3, r7, #20
 8008078:	4618      	mov	r0, r3
 800807a:	f001 f9b5 	bl	80093e8 <vTaskInternalSetTimeOutState>
 800807e:	2301      	movs	r3, #1
 8008080:	637b      	str	r3, [r7, #52]	; 0x34
 8008082:	f002 f897 	bl	800a1b4 <vPortExitCritical>
 8008086:	f000 fe69 	bl	8008d5c <vTaskSuspendAll>
 800808a:	f002 f865 	bl	800a158 <vPortEnterCritical>
 800808e:	6b3b      	ldr	r3, [r7, #48]	; 0x30
 8008090:	f893 3044 	ldrb.w	r3, [r3, #68]	; 0x44
 8008094:	b25b      	sxtb	r3, r3
 8008096:	f1b3 3fff 	cmp.w	r3, #4294967295
 800809a:	d103      	bne.n	80080a4 <xQueueGenericSend+0x164>
 800809c:	6b3b      	ldr	r3, [r7, #48]	; 0x30
 800809e:	2200      	movs	r2, #0
 80080a0:	f883 2044 	strb.w	r2, [r3, #68]	; 0x44
 80080a4:	6b3b      	ldr	r3, [r7, #48]	; 0x30
 80080a6:	f893 3045 	ldrb.w	r3, [r3, #69]	; 0x45
 80080aa:	b25b      	sxtb	r3, r3
 80080ac:	f1b3 3fff 	cmp.w	r3, #4294967295
 80080b0:	d103      	bne.n	80080ba <xQueueGenericSend+0x17a>
 80080b2:	6b3b      	ldr	r3, [r7, #48]	; 0x30
 80080b4:	2200      	movs	r2, #0
 80080b6:	f883 2045 	strb.w	r2, [r3, #69]	; 0x45
 80080ba:	f002 f87b 	bl	800a1b4 <vPortExitCritical>
 80080be:	1d3a      	adds	r2, r7, #4
 80080c0:	f107 0314 	add.w	r3, r7, #20
 80080c4:	4611      	mov	r1, r2
 80080c6:	4618      	mov	r0, r3
 80080c8:	f001 f9a4 	bl	8009414 <xTaskCheckForTimeOut>
 80080cc:	4603      	mov	r3, r0
 80080ce:	2b00      	cmp	r3, #0
 80080d0:	d124      	bne.n	800811c <xQueueGenericSend+0x1dc>
 80080d2:	6b38      	ldr	r0, [r7, #48]	; 0x30
 80080d4:	f000 fa96 	bl	8008604 <prvIsQueueFull>
 80080d8:	4603      	mov	r3, r0
 80080da:	2b00      	cmp	r3, #0
 80080dc:	d018      	beq.n	8008110 <xQueueGenericSend+0x1d0>
 80080de:	6b3b      	ldr	r3, [r7, #48]	; 0x30
 80080e0:	3310      	adds	r3, #16
 80080e2:	687a      	ldr	r2, [r7, #4]
 80080e4:	4611      	mov	r1, r2
 80080e6:	4618      	mov	r0, r3
 80080e8:	f001 f834 	bl	8009154 <vTaskPlaceOnEventList>
 80080ec:	6b38      	ldr	r0, [r7, #48]	; 0x30
 80080ee:	f000 fa21 	bl	8008534 <prvUnlockQueue>
 80080f2:	f000 fe41 	bl	8008d78 <xTaskResumeAll>
 80080f6:	4603      	mov	r3, r0
 80080f8:	2b00      	cmp	r3, #0
 80080fa:	f47f af7c 	bne.w	8007ff6 <xQueueGenericSend+0xb6>
 80080fe:	4b0c      	ldr	r3, [pc, #48]	; (8008130 <xQueueGenericSend+0x1f0>)
 8008100:	f04f 5280 	mov.w	r2, #268435456	; 0x10000000
 8008104:	601a      	str	r2, [r3, #0]
 8008106:	f3bf 8f4f 	dsb	sy
 800810a:	f3bf 8f6f 	isb	sy
 800810e:	e772      	b.n	8007ff6 <xQueueGenericSend+0xb6>
 8008110:	6b38      	ldr	r0, [r7, #48]	; 0x30
 8008112:	f000 fa0f 	bl	8008534 <prvUnlockQueue>
 8008116:	f000 fe2f 	bl	8008d78 <xTaskResumeAll>
 800811a:	e76c      	b.n	8007ff6 <xQueueGenericSend+0xb6>
 800811c:	6b38      	ldr	r0, [r7, #48]	; 0x30
 800811e:	f000 fa09 	bl	8008534 <prvUnlockQueue>
 8008122:	f000 fe29 	bl	8008d78 <xTaskResumeAll>
 8008126:	2300      	movs	r3, #0
 8008128:	4618      	mov	r0, r3
 800812a:	3738      	adds	r7, #56	; 0x38
 800812c:	46bd      	mov	sp, r7
 800812e:	bd80      	pop	{r7, pc}
 8008130:	e000ed04 	.word	0xe000ed04

08008134 <xQueueGenericSendFromISR>:
 8008134:	b580      	push	{r7, lr}
 8008136:	b08e      	sub	sp, #56	; 0x38
 8008138:	af00      	add	r7, sp, #0
 800813a:	60f8      	str	r0, [r7, #12]
 800813c:	60b9      	str	r1, [r7, #8]
 800813e:	607a      	str	r2, [r7, #4]
 8008140:	603b      	str	r3, [r7, #0]
 8008142:	68fb      	ldr	r3, [r7, #12]
 8008144:	633b      	str	r3, [r7, #48]	; 0x30
 8008146:	6b3b      	ldr	r3, [r7, #48]	; 0x30
 8008148:	2b00      	cmp	r3, #0
 800814a:	d109      	bne.n	8008160 <xQueueGenericSendFromISR+0x2c>
 800814c:	f04f 0350 	mov.w	r3, #80	; 0x50
 8008150:	f383 8811 	msr	BASEPRI, r3
 8008154:	f3bf 8f6f 	isb	sy
 8008158:	f3bf 8f4f 	dsb	sy
 800815c:	627b      	str	r3, [r7, #36]	; 0x24
 800815e:	e7fe      	b.n	800815e <xQueueGenericSendFromISR+0x2a>
 8008160:	68bb      	ldr	r3, [r7, #8]
 8008162:	2b00      	cmp	r3, #0
 8008164:	d103      	bne.n	800816e <xQueueGenericSendFromISR+0x3a>
 8008166:	6b3b      	ldr	r3, [r7, #48]	; 0x30
 8008168:	6c1b      	ldr	r3, [r3, #64]	; 0x40
 800816a:	2b00      	cmp	r3, #0
 800816c:	d101      	bne.n	8008172 <xQueueGenericSendFromISR+0x3e>
 800816e:	2301      	movs	r3, #1
 8008170:	e000      	b.n	8008174 <xQueueGenericSendFromISR+0x40>
 8008172:	2300      	movs	r3, #0
 8008174:	2b00      	cmp	r3, #0
 8008176:	d109      	bne.n	800818c <xQueueGenericSendFromISR+0x58>
 8008178:	f04f 0350 	mov.w	r3, #80	; 0x50
 800817c:	f383 8811 	msr	BASEPRI, r3
 8008180:	f3bf 8f6f 	isb	sy
 8008184:	f3bf 8f4f 	dsb	sy
 8008188:	623b      	str	r3, [r7, #32]
 800818a:	e7fe      	b.n	800818a <xQueueGenericSendFromISR+0x56>
 800818c:	683b      	ldr	r3, [r7, #0]
 800818e:	2b02      	cmp	r3, #2
 8008190:	d103      	bne.n	800819a <xQueueGenericSendFromISR+0x66>
 8008192:	6b3b      	ldr	r3, [r7, #48]	; 0x30
 8008194:	6bdb      	ldr	r3, [r3, #60]	; 0x3c
 8008196:	2b01      	cmp	r3, #1
 8008198:	d101      	bne.n	800819e <xQueueGenericSendFromISR+0x6a>
 800819a:	2301      	movs	r3, #1
 800819c:	e000      	b.n	80081a0 <xQueueGenericSendFromISR+0x6c>
 800819e:	2300      	movs	r3, #0
 80081a0:	2b00      	cmp	r3, #0
 80081a2:	d109      	bne.n	80081b8 <xQueueGenericSendFromISR+0x84>
 80081a4:	f04f 0350 	mov.w	r3, #80	; 0x50
 80081a8:	f383 8811 	msr	BASEPRI, r3
 80081ac:	f3bf 8f6f 	isb	sy
 80081b0:	f3bf 8f4f 	dsb	sy
 80081b4:	61fb      	str	r3, [r7, #28]
 80081b6:	e7fe      	b.n	80081b6 <xQueueGenericSendFromISR+0x82>
 80081b8:	f002 f888 	bl	800a2cc <vPortValidateInterruptPriority>
 80081bc:	f3ef 8211 	mrs	r2, BASEPRI
 80081c0:	f04f 0350 	mov.w	r3, #80	; 0x50
 80081c4:	f383 8811 	msr	BASEPRI, r3
 80081c8:	f3bf 8f6f 	isb	sy
 80081cc:	f3bf 8f4f 	dsb	sy
 80081d0:	61ba      	str	r2, [r7, #24]
 80081d2:	617b      	str	r3, [r7, #20]
 80081d4:	69bb      	ldr	r3, [r7, #24]
 80081d6:	62fb      	str	r3, [r7, #44]	; 0x2c
 80081d8:	6b3b      	ldr	r3, [r7, #48]	; 0x30
 80081da:	6b9a      	ldr	r2, [r3, #56]	; 0x38
 80081dc:	6b3b      	ldr	r3, [r7, #48]	; 0x30
 80081de:	6bdb      	ldr	r3, [r3, #60]	; 0x3c
 80081e0:	429a      	cmp	r2, r3
 80081e2:	d302      	bcc.n	80081ea <xQueueGenericSendFromISR+0xb6>
 80081e4:	683b      	ldr	r3, [r7, #0]
 80081e6:	2b02      	cmp	r3, #2
 80081e8:	d12c      	bne.n	8008244 <xQueueGenericSendFromISR+0x110>
 80081ea:	6b3b      	ldr	r3, [r7, #48]	; 0x30
 80081ec:	f893 3045 	ldrb.w	r3, [r3, #69]	; 0x45
 80081f0:	f887 302b 	strb.w	r3, [r7, #43]	; 0x2b
 80081f4:	683a      	ldr	r2, [r7, #0]
 80081f6:	68b9      	ldr	r1, [r7, #8]
 80081f8:	6b38      	ldr	r0, [r7, #48]	; 0x30
 80081fa:	f000 f90b 	bl	8008414 <prvCopyDataToQueue>
 80081fe:	f997 302b 	ldrsb.w	r3, [r7, #43]	; 0x2b
 8008202:	f1b3 3fff 	cmp.w	r3, #4294967295
 8008206:	d112      	bne.n	800822e <xQueueGenericSendFromISR+0xfa>
 8008208:	6b3b      	ldr	r3, [r7, #48]	; 0x30
 800820a:	6a5b      	ldr	r3, [r3, #36]	; 0x24
 800820c:	2b00      	cmp	r3, #0
 800820e:	d016      	beq.n	800823e <xQueueGenericSendFromISR+0x10a>
 8008210:	6b3b      	ldr	r3, [r7, #48]	; 0x30
 8008212:	3324      	adds	r3, #36	; 0x24
 8008214:	4618      	mov	r0, r3
 8008216:	f001 f825 	bl	8009264 <xTaskRemoveFromEventList>
 800821a:	4603      	mov	r3, r0
 800821c:	2b00      	cmp	r3, #0
 800821e:	d00e      	beq.n	800823e <xQueueGenericSendFromISR+0x10a>
 8008220:	687b      	ldr	r3, [r7, #4]
 8008222:	2b00      	cmp	r3, #0
 8008224:	d00b      	beq.n	800823e <xQueueGenericSendFromISR+0x10a>
 8008226:	687b      	ldr	r3, [r7, #4]
 8008228:	2201      	movs	r2, #1
 800822a:	601a      	str	r2, [r3, #0]
 800822c:	e007      	b.n	800823e <xQueueGenericSendFromISR+0x10a>
 800822e:	f897 302b 	ldrb.w	r3, [r7, #43]	; 0x2b
 8008232:	3301      	adds	r3, #1
 8008234:	b2db      	uxtb	r3, r3
 8008236:	b25a      	sxtb	r2, r3
 8008238:	6b3b      	ldr	r3, [r7, #48]	; 0x30
 800823a:	f883 2045 	strb.w	r2, [r3, #69]	; 0x45
 800823e:	2301      	movs	r3, #1
 8008240:	637b      	str	r3, [r7, #52]	; 0x34
 8008242:	e001      	b.n	8008248 <xQueueGenericSendFromISR+0x114>
 8008244:	2300      	movs	r3, #0
 8008246:	637b      	str	r3, [r7, #52]	; 0x34
 8008248:	6afb      	ldr	r3, [r7, #44]	; 0x2c
 800824a:	613b      	str	r3, [r7, #16]
 800824c:	693b      	ldr	r3, [r7, #16]
 800824e:	f383 8811 	msr	BASEPRI, r3
 8008252:	6b7b      	ldr	r3, [r7, #52]	; 0x34
 8008254:	4618      	mov	r0, r3
 8008256:	3738      	adds	r7, #56	; 0x38
 8008258:	46bd      	mov	sp, r7
 800825a:	bd80      	pop	{r7, pc}

0800825c <xQueueReceive>:
 800825c:	b580      	push	{r7, lr}
 800825e:	b08c      	sub	sp, #48	; 0x30
 8008260:	af00      	add	r7, sp, #0
 8008262:	60f8      	str	r0, [r7, #12]
 8008264:	60b9      	str	r1, [r7, #8]
 8008266:	607a      	str	r2, [r7, #4]
 8008268:	2300      	movs	r3, #0
 800826a:	62fb      	str	r3, [r7, #44]	; 0x2c
 800826c:	68fb      	ldr	r3, [r7, #12]
 800826e:	62bb      	str	r3, [r7, #40]	; 0x28
 8008270:	6abb      	ldr	r3, [r7, #40]	; 0x28
 8008272:	2b00      	cmp	r3, #0
 8008274:	d109      	bne.n	800828a <xQueueReceive+0x2e>
 8008276:	f04f 0350 	mov.w	r3, #80	; 0x50
 800827a:	f383 8811 	msr	BASEPRI, r3
 800827e:	f3bf 8f6f 	isb	sy
 8008282:	f3bf 8f4f 	dsb	sy
 8008286:	623b      	str	r3, [r7, #32]
 8008288:	e7fe      	b.n	8008288 <xQueueReceive+0x2c>
 800828a:	68bb      	ldr	r3, [r7, #8]
 800828c:	2b00      	cmp	r3, #0
 800828e:	d103      	bne.n	8008298 <xQueueReceive+0x3c>
 8008290:	6abb      	ldr	r3, [r7, #40]	; 0x28
 8008292:	6c1b      	ldr	r3, [r3, #64]	; 0x40
 8008294:	2b00      	cmp	r3, #0
 8008296:	d101      	bne.n	800829c <xQueueReceive+0x40>
 8008298:	2301      	movs	r3, #1
 800829a:	e000      	b.n	800829e <xQueueReceive+0x42>
 800829c:	2300      	movs	r3, #0
 800829e:	2b00      	cmp	r3, #0
 80082a0:	d109      	bne.n	80082b6 <xQueueReceive+0x5a>
 80082a2:	f04f 0350 	mov.w	r3, #80	; 0x50
 80082a6:	f383 8811 	msr	BASEPRI, r3
 80082aa:	f3bf 8f6f 	isb	sy
 80082ae:	f3bf 8f4f 	dsb	sy
 80082b2:	61fb      	str	r3, [r7, #28]
 80082b4:	e7fe      	b.n	80082b4 <xQueueReceive+0x58>
 80082b6:	f001 f9f1 	bl	800969c <xTaskGetSchedulerState>
 80082ba:	4603      	mov	r3, r0
 80082bc:	2b00      	cmp	r3, #0
 80082be:	d102      	bne.n	80082c6 <xQueueReceive+0x6a>
 80082c0:	687b      	ldr	r3, [r7, #4]
 80082c2:	2b00      	cmp	r3, #0
 80082c4:	d101      	bne.n	80082ca <xQueueReceive+0x6e>
 80082c6:	2301      	movs	r3, #1
 80082c8:	e000      	b.n	80082cc <xQueueReceive+0x70>
 80082ca:	2300      	movs	r3, #0
 80082cc:	2b00      	cmp	r3, #0
 80082ce:	d109      	bne.n	80082e4 <xQueueReceive+0x88>
 80082d0:	f04f 0350 	mov.w	r3, #80	; 0x50
 80082d4:	f383 8811 	msr	BASEPRI, r3
 80082d8:	f3bf 8f6f 	isb	sy
 80082dc:	f3bf 8f4f 	dsb	sy
 80082e0:	61bb      	str	r3, [r7, #24]
 80082e2:	e7fe      	b.n	80082e2 <xQueueReceive+0x86>
 80082e4:	f001 ff38 	bl	800a158 <vPortEnterCritical>
 80082e8:	6abb      	ldr	r3, [r7, #40]	; 0x28
 80082ea:	6b9b      	ldr	r3, [r3, #56]	; 0x38
 80082ec:	627b      	str	r3, [r7, #36]	; 0x24
 80082ee:	6a7b      	ldr	r3, [r7, #36]	; 0x24
 80082f0:	2b00      	cmp	r3, #0
 80082f2:	d01f      	beq.n	8008334 <xQueueReceive+0xd8>
 80082f4:	68b9      	ldr	r1, [r7, #8]
 80082f6:	6ab8      	ldr	r0, [r7, #40]	; 0x28
 80082f8:	f000 f8f6 	bl	80084e8 <prvCopyDataFromQueue>
 80082fc:	6a7b      	ldr	r3, [r7, #36]	; 0x24
 80082fe:	1e5a      	subs	r2, r3, #1
 8008300:	6abb      	ldr	r3, [r7, #40]	; 0x28
 8008302:	639a      	str	r2, [r3, #56]	; 0x38
 8008304:	6abb      	ldr	r3, [r7, #40]	; 0x28
 8008306:	691b      	ldr	r3, [r3, #16]
 8008308:	2b00      	cmp	r3, #0
 800830a:	d00f      	beq.n	800832c <xQueueReceive+0xd0>
 800830c:	6abb      	ldr	r3, [r7, #40]	; 0x28
 800830e:	3310      	adds	r3, #16
 8008310:	4618      	mov	r0, r3
 8008312:	f000 ffa7 	bl	8009264 <xTaskRemoveFromEventList>
 8008316:	4603      	mov	r3, r0
 8008318:	2b00      	cmp	r3, #0
 800831a:	d007      	beq.n	800832c <xQueueReceive+0xd0>
 800831c:	4b3c      	ldr	r3, [pc, #240]	; (8008410 <xQueueReceive+0x1b4>)
 800831e:	f04f 5280 	mov.w	r2, #268435456	; 0x10000000
 8008322:	601a      	str	r2, [r3, #0]
 8008324:	f3bf 8f4f 	dsb	sy
 8008328:	f3bf 8f6f 	isb	sy
 800832c:	f001 ff42 	bl	800a1b4 <vPortExitCritical>
 8008330:	2301      	movs	r3, #1
 8008332:	e069      	b.n	8008408 <xQueueReceive+0x1ac>
 8008334:	687b      	ldr	r3, [r7, #4]
 8008336:	2b00      	cmp	r3, #0
 8008338:	d103      	bne.n	8008342 <xQueueReceive+0xe6>
 800833a:	f001 ff3b 	bl	800a1b4 <vPortExitCritical>
 800833e:	2300      	movs	r3, #0
 8008340:	e062      	b.n	8008408 <xQueueReceive+0x1ac>
 8008342:	6afb      	ldr	r3, [r7, #44]	; 0x2c
 8008344:	2b00      	cmp	r3, #0
 8008346:	d106      	bne.n	8008356 <xQueueReceive+0xfa>
 8008348:	f107 0310 	add.w	r3, r7, #16
 800834c:	4618      	mov	r0, r3
 800834e:	f001 f84b 	bl	80093e8 <vTaskInternalSetTimeOutState>
 8008352:	2301      	movs	r3, #1
 8008354:	62fb      	str	r3, [r7, #44]	; 0x2c
 8008356:	f001 ff2d 	bl	800a1b4 <vPortExitCritical>
 800835a:	f000 fcff 	bl	8008d5c <vTaskSuspendAll>
 800835e:	f001 fefb 	bl	800a158 <vPortEnterCritical>
 8008362:	6abb      	ldr	r3, [r7, #40]	; 0x28
 8008364:	f893 3044 	ldrb.w	r3, [r3, #68]	; 0x44
 8008368:	b25b      	sxtb	r3, r3
 800836a:	f1b3 3fff 	cmp.w	r3, #4294967295
 800836e:	d103      	bne.n	8008378 <xQueueReceive+0x11c>
 8008370:	6abb      	ldr	r3, [r7, #40]	; 0x28
 8008372:	2200      	movs	r2, #0
 8008374:	f883 2044 	strb.w	r2, [r3, #68]	; 0x44
 8008378:	6abb      	ldr	r3, [r7, #40]	; 0x28
 800837a:	f893 3045 	ldrb.w	r3, [r3, #69]	; 0x45
 800837e:	b25b      	sxtb	r3, r3
 8008380:	f1b3 3fff 	cmp.w	r3, #4294967295
 8008384:	d103      	bne.n	800838e <xQueueReceive+0x132>
 8008386:	6abb      	ldr	r3, [r7, #40]	; 0x28
 8008388:	2200      	movs	r2, #0
 800838a:	f883 2045 	strb.w	r2, [r3, #69]	; 0x45
 800838e:	f001 ff11 	bl	800a1b4 <vPortExitCritical>
 8008392:	1d3a      	adds	r2, r7, #4
 8008394:	f107 0310 	add.w	r3, r7, #16
 8008398:	4611      	mov	r1, r2
 800839a:	4618      	mov	r0, r3
 800839c:	f001 f83a 	bl	8009414 <xTaskCheckForTimeOut>
 80083a0:	4603      	mov	r3, r0
 80083a2:	2b00      	cmp	r3, #0
 80083a4:	d123      	bne.n	80083ee <xQueueReceive+0x192>
 80083a6:	6ab8      	ldr	r0, [r7, #40]	; 0x28
 80083a8:	f000 f916 	bl	80085d8 <prvIsQueueEmpty>
 80083ac:	4603      	mov	r3, r0
 80083ae:	2b00      	cmp	r3, #0
 80083b0:	d017      	beq.n	80083e2 <xQueueReceive+0x186>
 80083b2:	6abb      	ldr	r3, [r7, #40]	; 0x28
 80083b4:	3324      	adds	r3, #36	; 0x24
 80083b6:	687a      	ldr	r2, [r7, #4]
 80083b8:	4611      	mov	r1, r2
 80083ba:	4618      	mov	r0, r3
 80083bc:	f000 feca 	bl	8009154 <vTaskPlaceOnEventList>
 80083c0:	6ab8      	ldr	r0, [r7, #40]	; 0x28
 80083c2:	f000 f8b7 	bl	8008534 <prvUnlockQueue>
 80083c6:	f000 fcd7 	bl	8008d78 <xTaskResumeAll>
 80083ca:	4603      	mov	r3, r0
 80083cc:	2b00      	cmp	r3, #0
 80083ce:	d189      	bne.n	80082e4 <xQueueReceive+0x88>
 80083d0:	4b0f      	ldr	r3, [pc, #60]	; (8008410 <xQueueReceive+0x1b4>)
 80083d2:	f04f 5280 	mov.w	r2, #268435456	; 0x10000000
 80083d6:	601a      	str	r2, [r3, #0]
 80083d8:	f3bf 8f4f 	dsb	sy
 80083dc:	f3bf 8f6f 	isb	sy
 80083e0:	e780      	b.n	80082e4 <xQueueReceive+0x88>
 80083e2:	6ab8      	ldr	r0, [r7, #40]	; 0x28
 80083e4:	f000 f8a6 	bl	8008534 <prvUnlockQueue>
 80083e8:	f000 fcc6 	bl	8008d78 <xTaskResumeAll>
 80083ec:	e77a      	b.n	80082e4 <xQueueReceive+0x88>
 80083ee:	6ab8      	ldr	r0, [r7, #40]	; 0x28
 80083f0:	f000 f8a0 	bl	8008534 <prvUnlockQueue>
 80083f4:	f000 fcc0 	bl	8008d78 <xTaskResumeAll>
 80083f8:	6ab8      	ldr	r0, [r7, #40]	; 0x28
 80083fa:	f000 f8ed 	bl	80085d8 <prvIsQueueEmpty>
 80083fe:	4603      	mov	r3, r0
 8008400:	2b00      	cmp	r3, #0
 8008402:	f43f af6f 	beq.w	80082e4 <xQueueReceive+0x88>
 8008406:	2300      	movs	r3, #0
 8008408:	4618      	mov	r0, r3
 800840a:	3730      	adds	r7, #48	; 0x30
 800840c:	46bd      	mov	sp, r7
 800840e:	bd80      	pop	{r7, pc}
 8008410:	e000ed04 	.word	0xe000ed04

08008414 <prvCopyDataToQueue>:
 8008414:	b580      	push	{r7, lr}
 8008416:	b086      	sub	sp, #24
 8008418:	af00      	add	r7, sp, #0
 800841a:	60f8      	str	r0, [r7, #12]
 800841c:	60b9      	str	r1, [r7, #8]
 800841e:	607a      	str	r2, [r7, #4]
 8008420:	2300      	movs	r3, #0
 8008422:	617b      	str	r3, [r7, #20]
 8008424:	68fb      	ldr	r3, [r7, #12]
 8008426:	6b9b      	ldr	r3, [r3, #56]	; 0x38
 8008428:	613b      	str	r3, [r7, #16]
 800842a:	68fb      	ldr	r3, [r7, #12]
 800842c:	6c1b      	ldr	r3, [r3, #64]	; 0x40
 800842e:	2b00      	cmp	r3, #0
 8008430:	d10d      	bne.n	800844e <prvCopyDataToQueue+0x3a>
 8008432:	68fb      	ldr	r3, [r7, #12]
 8008434:	681b      	ldr	r3, [r3, #0]
 8008436:	2b00      	cmp	r3, #0
 8008438:	d14d      	bne.n	80084d6 <prvCopyDataToQueue+0xc2>
 800843a:	68fb      	ldr	r3, [r7, #12]
 800843c:	685b      	ldr	r3, [r3, #4]
 800843e:	4618      	mov	r0, r3
 8008440:	f001 f94a 	bl	80096d8 <xTaskPriorityDisinherit>
 8008444:	6178      	str	r0, [r7, #20]
 8008446:	68fb      	ldr	r3, [r7, #12]
 8008448:	2200      	movs	r2, #0
 800844a:	605a      	str	r2, [r3, #4]
 800844c:	e043      	b.n	80084d6 <prvCopyDataToQueue+0xc2>
 800844e:	687b      	ldr	r3, [r7, #4]
 8008450:	2b00      	cmp	r3, #0
 8008452:	d119      	bne.n	8008488 <prvCopyDataToQueue+0x74>
 8008454:	68fb      	ldr	r3, [r7, #12]
 8008456:	6898      	ldr	r0, [r3, #8]
 8008458:	68fb      	ldr	r3, [r7, #12]
 800845a:	6c1b      	ldr	r3, [r3, #64]	; 0x40
 800845c:	461a      	mov	r2, r3
 800845e:	68b9      	ldr	r1, [r7, #8]
 8008460:	f002 f96c 	bl	800a73c <memcpy>
 8008464:	68fb      	ldr	r3, [r7, #12]
 8008466:	689a      	ldr	r2, [r3, #8]
 8008468:	68fb      	ldr	r3, [r7, #12]
 800846a:	6c1b      	ldr	r3, [r3, #64]	; 0x40
 800846c:	441a      	add	r2, r3
 800846e:	68fb      	ldr	r3, [r7, #12]
 8008470:	609a      	str	r2, [r3, #8]
 8008472:	68fb      	ldr	r3, [r7, #12]
 8008474:	689a      	ldr	r2, [r3, #8]
 8008476:	68fb      	ldr	r3, [r7, #12]
 8008478:	685b      	ldr	r3, [r3, #4]
 800847a:	429a      	cmp	r2, r3
 800847c:	d32b      	bcc.n	80084d6 <prvCopyDataToQueue+0xc2>
 800847e:	68fb      	ldr	r3, [r7, #12]
 8008480:	681a      	ldr	r2, [r3, #0]
 8008482:	68fb      	ldr	r3, [r7, #12]
 8008484:	609a      	str	r2, [r3, #8]
 8008486:	e026      	b.n	80084d6 <prvCopyDataToQueue+0xc2>
 8008488:	68fb      	ldr	r3, [r7, #12]
 800848a:	68d8      	ldr	r0, [r3, #12]
 800848c:	68fb      	ldr	r3, [r7, #12]
 800848e:	6c1b      	ldr	r3, [r3, #64]	; 0x40
 8008490:	461a      	mov	r2, r3
 8008492:	68b9      	ldr	r1, [r7, #8]
 8008494:	f002 f952 	bl	800a73c <memcpy>
 8008498:	68fb      	ldr	r3, [r7, #12]
 800849a:	68da      	ldr	r2, [r3, #12]
 800849c:	68fb      	ldr	r3, [r7, #12]
 800849e:	6c1b      	ldr	r3, [r3, #64]	; 0x40
 80084a0:	425b      	negs	r3, r3
 80084a2:	441a      	add	r2, r3
 80084a4:	68fb      	ldr	r3, [r7, #12]
 80084a6:	60da      	str	r2, [r3, #12]
 80084a8:	68fb      	ldr	r3, [r7, #12]
 80084aa:	68da      	ldr	r2, [r3, #12]
 80084ac:	68fb      	ldr	r3, [r7, #12]
 80084ae:	681b      	ldr	r3, [r3, #0]
 80084b0:	429a      	cmp	r2, r3
 80084b2:	d207      	bcs.n	80084c4 <prvCopyDataToQueue+0xb0>
 80084b4:	68fb      	ldr	r3, [r7, #12]
 80084b6:	685a      	ldr	r2, [r3, #4]
 80084b8:	68fb      	ldr	r3, [r7, #12]
 80084ba:	6c1b      	ldr	r3, [r3, #64]	; 0x40
 80084bc:	425b      	negs	r3, r3
 80084be:	441a      	add	r2, r3
 80084c0:	68fb      	ldr	r3, [r7, #12]
 80084c2:	60da      	str	r2, [r3, #12]
 80084c4:	687b      	ldr	r3, [r7, #4]
 80084c6:	2b02      	cmp	r3, #2
 80084c8:	d105      	bne.n	80084d6 <prvCopyDataToQueue+0xc2>
 80084ca:	693b      	ldr	r3, [r7, #16]
 80084cc:	2b00      	cmp	r3, #0
 80084ce:	d002      	beq.n	80084d6 <prvCopyDataToQueue+0xc2>
 80084d0:	693b      	ldr	r3, [r7, #16]
 80084d2:	3b01      	subs	r3, #1
 80084d4:	613b      	str	r3, [r7, #16]
 80084d6:	693b      	ldr	r3, [r7, #16]
 80084d8:	1c5a      	adds	r2, r3, #1
 80084da:	68fb      	ldr	r3, [r7, #12]
 80084dc:	639a      	str	r2, [r3, #56]	; 0x38
 80084de:	697b      	ldr	r3, [r7, #20]
 80084e0:	4618      	mov	r0, r3
 80084e2:	3718      	adds	r7, #24
 80084e4:	46bd      	mov	sp, r7
 80084e6:	bd80      	pop	{r7, pc}

080084e8 <prvCopyDataFromQueue>:
 80084e8:	b580      	push	{r7, lr}
 80084ea:	b082      	sub	sp, #8
 80084ec:	af00      	add	r7, sp, #0
 80084ee:	6078      	str	r0, [r7, #4]
 80084f0:	6039      	str	r1, [r7, #0]
 80084f2:	687b      	ldr	r3, [r7, #4]
 80084f4:	6c1b      	ldr	r3, [r3, #64]	; 0x40
 80084f6:	2b00      	cmp	r3, #0
 80084f8:	d018      	beq.n	800852c <prvCopyDataFromQueue+0x44>
 80084fa:	687b      	ldr	r3, [r7, #4]
 80084fc:	68da      	ldr	r2, [r3, #12]
 80084fe:	687b      	ldr	r3, [r7, #4]
 8008500:	6c1b      	ldr	r3, [r3, #64]	; 0x40
 8008502:	441a      	add	r2, r3
 8008504:	687b      	ldr	r3, [r7, #4]
 8008506:	60da      	str	r2, [r3, #12]
 8008508:	687b      	ldr	r3, [r7, #4]
 800850a:	68da      	ldr	r2, [r3, #12]
 800850c:	687b      	ldr	r3, [r7, #4]
 800850e:	685b      	ldr	r3, [r3, #4]
 8008510:	429a      	cmp	r2, r3
 8008512:	d303      	bcc.n	800851c <prvCopyDataFromQueue+0x34>
 8008514:	687b      	ldr	r3, [r7, #4]
 8008516:	681a      	ldr	r2, [r3, #0]
 8008518:	687b      	ldr	r3, [r7, #4]
 800851a:	60da      	str	r2, [r3, #12]
 800851c:	687b      	ldr	r3, [r7, #4]
 800851e:	68d9      	ldr	r1, [r3, #12]
 8008520:	687b      	ldr	r3, [r7, #4]
 8008522:	6c1b      	ldr	r3, [r3, #64]	; 0x40
 8008524:	461a      	mov	r2, r3
 8008526:	6838      	ldr	r0, [r7, #0]
 8008528:	f002 f908 	bl	800a73c <memcpy>
 800852c:	bf00      	nop
 800852e:	3708      	adds	r7, #8
 8008530:	46bd      	mov	sp, r7
 8008532:	bd80      	pop	{r7, pc}

08008534 <prvUnlockQueue>:
 8008534:	b580      	push	{r7, lr}
 8008536:	b084      	sub	sp, #16
 8008538:	af00      	add	r7, sp, #0
 800853a:	6078      	str	r0, [r7, #4]
 800853c:	f001 fe0c 	bl	800a158 <vPortEnterCritical>
 8008540:	687b      	ldr	r3, [r7, #4]
 8008542:	f893 3045 	ldrb.w	r3, [r3, #69]	; 0x45
 8008546:	73fb      	strb	r3, [r7, #15]
 8008548:	e011      	b.n	800856e <prvUnlockQueue+0x3a>
 800854a:	687b      	ldr	r3, [r7, #4]
 800854c:	6a5b      	ldr	r3, [r3, #36]	; 0x24
 800854e:	2b00      	cmp	r3, #0
 8008550:	d012      	beq.n	8008578 <prvUnlockQueue+0x44>
 8008552:	687b      	ldr	r3, [r7, #4]
 8008554:	3324      	adds	r3, #36	; 0x24
 8008556:	4618      	mov	r0, r3
 8008558:	f000 fe84 	bl	8009264 <xTaskRemoveFromEventList>
 800855c:	4603      	mov	r3, r0
 800855e:	2b00      	cmp	r3, #0
 8008560:	d001      	beq.n	8008566 <prvUnlockQueue+0x32>
 8008562:	f000 ffb7 	bl	80094d4 <vTaskMissedYield>
 8008566:	7bfb      	ldrb	r3, [r7, #15]
 8008568:	3b01      	subs	r3, #1
 800856a:	b2db      	uxtb	r3, r3
 800856c:	73fb      	strb	r3, [r7, #15]
 800856e:	f997 300f 	ldrsb.w	r3, [r7, #15]
 8008572:	2b00      	cmp	r3, #0
 8008574:	dce9      	bgt.n	800854a <prvUnlockQueue+0x16>
 8008576:	e000      	b.n	800857a <prvUnlockQueue+0x46>
 8008578:	bf00      	nop
 800857a:	687b      	ldr	r3, [r7, #4]
 800857c:	22ff      	movs	r2, #255	; 0xff
 800857e:	f883 2045 	strb.w	r2, [r3, #69]	; 0x45
 8008582:	f001 fe17 	bl	800a1b4 <vPortExitCritical>
 8008586:	f001 fde7 	bl	800a158 <vPortEnterCritical>
 800858a:	687b      	ldr	r3, [r7, #4]
 800858c:	f893 3044 	ldrb.w	r3, [r3, #68]	; 0x44
 8008590:	73bb      	strb	r3, [r7, #14]
 8008592:	e011      	b.n	80085b8 <prvUnlockQueue+0x84>
 8008594:	687b      	ldr	r3, [r7, #4]
 8008596:	691b      	ldr	r3, [r3, #16]
 8008598:	2b00      	cmp	r3, #0
 800859a:	d012      	beq.n	80085c2 <prvUnlockQueue+0x8e>
 800859c:	687b      	ldr	r3, [r7, #4]
 800859e:	3310      	adds	r3, #16
 80085a0:	4618      	mov	r0, r3
 80085a2:	f000 fe5f 	bl	8009264 <xTaskRemoveFromEventList>
 80085a6:	4603      	mov	r3, r0
 80085a8:	2b00      	cmp	r3, #0
 80085aa:	d001      	beq.n	80085b0 <prvUnlockQueue+0x7c>
 80085ac:	f000 ff92 	bl	80094d4 <vTaskMissedYield>
 80085b0:	7bbb      	ldrb	r3, [r7, #14]
 80085b2:	3b01      	subs	r3, #1
 80085b4:	b2db      	uxtb	r3, r3
 80085b6:	73bb      	strb	r3, [r7, #14]
 80085b8:	f997 300e 	ldrsb.w	r3, [r7, #14]
 80085bc:	2b00      	cmp	r3, #0
 80085be:	dce9      	bgt.n	8008594 <prvUnlockQueue+0x60>
 80085c0:	e000      	b.n	80085c4 <prvUnlockQueue+0x90>
 80085c2:	bf00      	nop
 80085c4:	687b      	ldr	r3, [r7, #4]
 80085c6:	22ff      	movs	r2, #255	; 0xff
 80085c8:	f883 2044 	strb.w	r2, [r3, #68]	; 0x44
 80085cc:	f001 fdf2 	bl	800a1b4 <vPortExitCritical>
 80085d0:	bf00      	nop
 80085d2:	3710      	adds	r7, #16
 80085d4:	46bd      	mov	sp, r7
 80085d6:	bd80      	pop	{r7, pc}

080085d8 <prvIsQueueEmpty>:
 80085d8:	b580      	push	{r7, lr}
 80085da:	b084      	sub	sp, #16
 80085dc:	af00      	add	r7, sp, #0
 80085de:	6078      	str	r0, [r7, #4]
 80085e0:	f001 fdba 	bl	800a158 <vPortEnterCritical>
 80085e4:	687b      	ldr	r3, [r7, #4]
 80085e6:	6b9b      	ldr	r3, [r3, #56]	; 0x38
 80085e8:	2b00      	cmp	r3, #0
 80085ea:	d102      	bne.n	80085f2 <prvIsQueueEmpty+0x1a>
 80085ec:	2301      	movs	r3, #1
 80085ee:	60fb      	str	r3, [r7, #12]
 80085f0:	e001      	b.n	80085f6 <prvIsQueueEmpty+0x1e>
 80085f2:	2300      	movs	r3, #0
 80085f4:	60fb      	str	r3, [r7, #12]
 80085f6:	f001 fddd 	bl	800a1b4 <vPortExitCritical>
 80085fa:	68fb      	ldr	r3, [r7, #12]
 80085fc:	4618      	mov	r0, r3
 80085fe:	3710      	adds	r7, #16
 8008600:	46bd      	mov	sp, r7
 8008602:	bd80      	pop	{r7, pc}

08008604 <prvIsQueueFull>:
 8008604:	b580      	push	{r7, lr}
 8008606:	b084      	sub	sp, #16
 8008608:	af00      	add	r7, sp, #0
 800860a:	6078      	str	r0, [r7, #4]
 800860c:	f001 fda4 	bl	800a158 <vPortEnterCritical>
 8008610:	687b      	ldr	r3, [r7, #4]
 8008612:	6b9a      	ldr	r2, [r3, #56]	; 0x38
 8008614:	687b      	ldr	r3, [r7, #4]
 8008616:	6bdb      	ldr	r3, [r3, #60]	; 0x3c
 8008618:	429a      	cmp	r2, r3
 800861a:	d102      	bne.n	8008622 <prvIsQueueFull+0x1e>
 800861c:	2301      	movs	r3, #1
 800861e:	60fb      	str	r3, [r7, #12]
 8008620:	e001      	b.n	8008626 <prvIsQueueFull+0x22>
 8008622:	2300      	movs	r3, #0
 8008624:	60fb      	str	r3, [r7, #12]
 8008626:	f001 fdc5 	bl	800a1b4 <vPortExitCritical>
 800862a:	68fb      	ldr	r3, [r7, #12]
 800862c:	4618      	mov	r0, r3
 800862e:	3710      	adds	r7, #16
 8008630:	46bd      	mov	sp, r7
 8008632:	bd80      	pop	{r7, pc}

08008634 <vQueueAddToRegistry>:
 8008634:	b480      	push	{r7}
 8008636:	b085      	sub	sp, #20
 8008638:	af00      	add	r7, sp, #0
 800863a:	6078      	str	r0, [r7, #4]
 800863c:	6039      	str	r1, [r7, #0]
 800863e:	2300      	movs	r3, #0
 8008640:	60fb      	str	r3, [r7, #12]
 8008642:	e014      	b.n	800866e <vQueueAddToRegistry+0x3a>
 8008644:	4a0e      	ldr	r2, [pc, #56]	; (8008680 <vQueueAddToRegistry+0x4c>)
 8008646:	68fb      	ldr	r3, [r7, #12]
 8008648:	f852 3033 	ldr.w	r3, [r2, r3, lsl #3]
 800864c:	2b00      	cmp	r3, #0
 800864e:	d10b      	bne.n	8008668 <vQueueAddToRegistry+0x34>
 8008650:	490b      	ldr	r1, [pc, #44]	; (8008680 <vQueueAddToRegistry+0x4c>)
 8008652:	68fb      	ldr	r3, [r7, #12]
 8008654:	683a      	ldr	r2, [r7, #0]
 8008656:	f841 2033 	str.w	r2, [r1, r3, lsl #3]
 800865a:	4a09      	ldr	r2, [pc, #36]	; (8008680 <vQueueAddToRegistry+0x4c>)
 800865c:	68fb      	ldr	r3, [r7, #12]
 800865e:	00db      	lsls	r3, r3, #3
 8008660:	4413      	add	r3, r2
 8008662:	687a      	ldr	r2, [r7, #4]
 8008664:	605a      	str	r2, [r3, #4]
 8008666:	e005      	b.n	8008674 <vQueueAddToRegistry+0x40>
 8008668:	68fb      	ldr	r3, [r7, #12]
 800866a:	3301      	adds	r3, #1
 800866c:	60fb      	str	r3, [r7, #12]
 800866e:	68fb      	ldr	r3, [r7, #12]
 8008670:	2b07      	cmp	r3, #7
 8008672:	d9e7      	bls.n	8008644 <vQueueAddToRegistry+0x10>
 8008674:	bf00      	nop
 8008676:	3714      	adds	r7, #20
 8008678:	46bd      	mov	sp, r7
 800867a:	bc80      	pop	{r7}
 800867c:	4770      	bx	lr
 800867e:	bf00      	nop
 8008680:	2000385c 	.word	0x2000385c

08008684 <vQueueWaitForMessageRestricted>:
 8008684:	b580      	push	{r7, lr}
 8008686:	b086      	sub	sp, #24
 8008688:	af00      	add	r7, sp, #0
 800868a:	60f8      	str	r0, [r7, #12]
 800868c:	60b9      	str	r1, [r7, #8]
 800868e:	607a      	str	r2, [r7, #4]
 8008690:	68fb      	ldr	r3, [r7, #12]
 8008692:	617b      	str	r3, [r7, #20]
 8008694:	f001 fd60 	bl	800a158 <vPortEnterCritical>
 8008698:	697b      	ldr	r3, [r7, #20]
 800869a:	f893 3044 	ldrb.w	r3, [r3, #68]	; 0x44
 800869e:	b25b      	sxtb	r3, r3
 80086a0:	f1b3 3fff 	cmp.w	r3, #4294967295
 80086a4:	d103      	bne.n	80086ae <vQueueWaitForMessageRestricted+0x2a>
 80086a6:	697b      	ldr	r3, [r7, #20]
 80086a8:	2200      	movs	r2, #0
 80086aa:	f883 2044 	strb.w	r2, [r3, #68]	; 0x44
 80086ae:	697b      	ldr	r3, [r7, #20]
 80086b0:	f893 3045 	ldrb.w	r3, [r3, #69]	; 0x45
 80086b4:	b25b      	sxtb	r3, r3
 80086b6:	f1b3 3fff 	cmp.w	r3, #4294967295
 80086ba:	d103      	bne.n	80086c4 <vQueueWaitForMessageRestricted+0x40>
 80086bc:	697b      	ldr	r3, [r7, #20]
 80086be:	2200      	movs	r2, #0
 80086c0:	f883 2045 	strb.w	r2, [r3, #69]	; 0x45
 80086c4:	f001 fd76 	bl	800a1b4 <vPortExitCritical>
 80086c8:	697b      	ldr	r3, [r7, #20]
 80086ca:	6b9b      	ldr	r3, [r3, #56]	; 0x38
 80086cc:	2b00      	cmp	r3, #0
 80086ce:	d106      	bne.n	80086de <vQueueWaitForMessageRestricted+0x5a>
 80086d0:	697b      	ldr	r3, [r7, #20]
 80086d2:	3324      	adds	r3, #36	; 0x24
 80086d4:	687a      	ldr	r2, [r7, #4]
 80086d6:	68b9      	ldr	r1, [r7, #8]
 80086d8:	4618      	mov	r0, r3
 80086da:	f000 fd99 	bl	8009210 <vTaskPlaceOnEventListRestricted>
 80086de:	6978      	ldr	r0, [r7, #20]
 80086e0:	f7ff ff28 	bl	8008534 <prvUnlockQueue>
 80086e4:	bf00      	nop
 80086e6:	3718      	adds	r7, #24
 80086e8:	46bd      	mov	sp, r7
 80086ea:	bd80      	pop	{r7, pc}

080086ec <xTaskCreateStatic>:
 80086ec:	b580      	push	{r7, lr}
 80086ee:	b08e      	sub	sp, #56	; 0x38
 80086f0:	af04      	add	r7, sp, #16
 80086f2:	60f8      	str	r0, [r7, #12]
 80086f4:	60b9      	str	r1, [r7, #8]
 80086f6:	607a      	str	r2, [r7, #4]
 80086f8:	603b      	str	r3, [r7, #0]
 80086fa:	6b7b      	ldr	r3, [r7, #52]	; 0x34
 80086fc:	2b00      	cmp	r3, #0
 80086fe:	d109      	bne.n	8008714 <xTaskCreateStatic+0x28>
 8008700:	f04f 0350 	mov.w	r3, #80	; 0x50
 8008704:	f383 8811 	msr	BASEPRI, r3
 8008708:	f3bf 8f6f 	isb	sy
 800870c:	f3bf 8f4f 	dsb	sy
 8008710:	623b      	str	r3, [r7, #32]
 8008712:	e7fe      	b.n	8008712 <xTaskCreateStatic+0x26>
 8008714:	6bbb      	ldr	r3, [r7, #56]	; 0x38
 8008716:	2b00      	cmp	r3, #0
 8008718:	d109      	bne.n	800872e <xTaskCreateStatic+0x42>
 800871a:	f04f 0350 	mov.w	r3, #80	; 0x50
 800871e:	f383 8811 	msr	BASEPRI, r3
 8008722:	f3bf 8f6f 	isb	sy
 8008726:	f3bf 8f4f 	dsb	sy
 800872a:	61fb      	str	r3, [r7, #28]
 800872c:	e7fe      	b.n	800872c <xTaskCreateStatic+0x40>
 800872e:	235c      	movs	r3, #92	; 0x5c
 8008730:	613b      	str	r3, [r7, #16]
 8008732:	693b      	ldr	r3, [r7, #16]
 8008734:	2b5c      	cmp	r3, #92	; 0x5c
 8008736:	d009      	beq.n	800874c <xTaskCreateStatic+0x60>
 8008738:	f04f 0350 	mov.w	r3, #80	; 0x50
 800873c:	f383 8811 	msr	BASEPRI, r3
 8008740:	f3bf 8f6f 	isb	sy
 8008744:	f3bf 8f4f 	dsb	sy
 8008748:	61bb      	str	r3, [r7, #24]
 800874a:	e7fe      	b.n	800874a <xTaskCreateStatic+0x5e>
 800874c:	6bbb      	ldr	r3, [r7, #56]	; 0x38
 800874e:	2b00      	cmp	r3, #0
 8008750:	d01e      	beq.n	8008790 <xTaskCreateStatic+0xa4>
 8008752:	6b7b      	ldr	r3, [r7, #52]	; 0x34
 8008754:	2b00      	cmp	r3, #0
 8008756:	d01b      	beq.n	8008790 <xTaskCreateStatic+0xa4>
 8008758:	6bbb      	ldr	r3, [r7, #56]	; 0x38
 800875a:	627b      	str	r3, [r7, #36]	; 0x24
 800875c:	6a7b      	ldr	r3, [r7, #36]	; 0x24
 800875e:	6b7a      	ldr	r2, [r7, #52]	; 0x34
 8008760:	631a      	str	r2, [r3, #48]	; 0x30
 8008762:	6a7b      	ldr	r3, [r7, #36]	; 0x24
 8008764:	2202      	movs	r2, #2
 8008766:	f883 2059 	strb.w	r2, [r3, #89]	; 0x59
 800876a:	2300      	movs	r3, #0
 800876c:	9303      	str	r3, [sp, #12]
 800876e:	6a7b      	ldr	r3, [r7, #36]	; 0x24
 8008770:	9302      	str	r3, [sp, #8]
 8008772:	f107 0314 	add.w	r3, r7, #20
 8008776:	9301      	str	r3, [sp, #4]
 8008778:	6b3b      	ldr	r3, [r7, #48]	; 0x30
 800877a:	9300      	str	r3, [sp, #0]
 800877c:	683b      	ldr	r3, [r7, #0]
 800877e:	687a      	ldr	r2, [r7, #4]
 8008780:	68b9      	ldr	r1, [r7, #8]
 8008782:	68f8      	ldr	r0, [r7, #12]
 8008784:	f000 f850 	bl	8008828 <prvInitialiseNewTask>
 8008788:	6a78      	ldr	r0, [r7, #36]	; 0x24
 800878a:	f000 f8d3 	bl	8008934 <prvAddNewTaskToReadyList>
 800878e:	e001      	b.n	8008794 <xTaskCreateStatic+0xa8>
 8008790:	2300      	movs	r3, #0
 8008792:	617b      	str	r3, [r7, #20]
 8008794:	697b      	ldr	r3, [r7, #20]
 8008796:	4618      	mov	r0, r3
 8008798:	3728      	adds	r7, #40	; 0x28
 800879a:	46bd      	mov	sp, r7
 800879c:	bd80      	pop	{r7, pc}

0800879e <xTaskCreate>:
 800879e:	b580      	push	{r7, lr}
 80087a0:	b08c      	sub	sp, #48	; 0x30
 80087a2:	af04      	add	r7, sp, #16
 80087a4:	60f8      	str	r0, [r7, #12]
 80087a6:	60b9      	str	r1, [r7, #8]
 80087a8:	603b      	str	r3, [r7, #0]
 80087aa:	4613      	mov	r3, r2
 80087ac:	80fb      	strh	r3, [r7, #6]
 80087ae:	88fb      	ldrh	r3, [r7, #6]
 80087b0:	009b      	lsls	r3, r3, #2
 80087b2:	4618      	mov	r0, r3
 80087b4:	f001 fdc6 	bl	800a344 <pvPortMalloc>
 80087b8:	6178      	str	r0, [r7, #20]
 80087ba:	697b      	ldr	r3, [r7, #20]
 80087bc:	2b00      	cmp	r3, #0
 80087be:	d00e      	beq.n	80087de <xTaskCreate+0x40>
 80087c0:	205c      	movs	r0, #92	; 0x5c
 80087c2:	f001 fdbf 	bl	800a344 <pvPortMalloc>
 80087c6:	61f8      	str	r0, [r7, #28]
 80087c8:	69fb      	ldr	r3, [r7, #28]
 80087ca:	2b00      	cmp	r3, #0
 80087cc:	d003      	beq.n	80087d6 <xTaskCreate+0x38>
 80087ce:	69fb      	ldr	r3, [r7, #28]
 80087d0:	697a      	ldr	r2, [r7, #20]
 80087d2:	631a      	str	r2, [r3, #48]	; 0x30
 80087d4:	e005      	b.n	80087e2 <xTaskCreate+0x44>
 80087d6:	6978      	ldr	r0, [r7, #20]
 80087d8:	f001 fe7a 	bl	800a4d0 <vPortFree>
 80087dc:	e001      	b.n	80087e2 <xTaskCreate+0x44>
 80087de:	2300      	movs	r3, #0
 80087e0:	61fb      	str	r3, [r7, #28]
 80087e2:	69fb      	ldr	r3, [r7, #28]
 80087e4:	2b00      	cmp	r3, #0
 80087e6:	d017      	beq.n	8008818 <xTaskCreate+0x7a>
 80087e8:	69fb      	ldr	r3, [r7, #28]
 80087ea:	2200      	movs	r2, #0
 80087ec:	f883 2059 	strb.w	r2, [r3, #89]	; 0x59
 80087f0:	88fa      	ldrh	r2, [r7, #6]
 80087f2:	2300      	movs	r3, #0
 80087f4:	9303      	str	r3, [sp, #12]
 80087f6:	69fb      	ldr	r3, [r7, #28]
 80087f8:	9302      	str	r3, [sp, #8]
 80087fa:	6afb      	ldr	r3, [r7, #44]	; 0x2c
 80087fc:	9301      	str	r3, [sp, #4]
 80087fe:	6abb      	ldr	r3, [r7, #40]	; 0x28
 8008800:	9300      	str	r3, [sp, #0]
 8008802:	683b      	ldr	r3, [r7, #0]
 8008804:	68b9      	ldr	r1, [r7, #8]
 8008806:	68f8      	ldr	r0, [r7, #12]
 8008808:	f000 f80e 	bl	8008828 <prvInitialiseNewTask>
 800880c:	69f8      	ldr	r0, [r7, #28]
 800880e:	f000 f891 	bl	8008934 <prvAddNewTaskToReadyList>
 8008812:	2301      	movs	r3, #1
 8008814:	61bb      	str	r3, [r7, #24]
 8008816:	e002      	b.n	800881e <xTaskCreate+0x80>
 8008818:	f04f 33ff 	mov.w	r3, #4294967295
 800881c:	61bb      	str	r3, [r7, #24]
 800881e:	69bb      	ldr	r3, [r7, #24]
 8008820:	4618      	mov	r0, r3
 8008822:	3720      	adds	r7, #32
 8008824:	46bd      	mov	sp, r7
 8008826:	bd80      	pop	{r7, pc}

08008828 <prvInitialiseNewTask>:
 8008828:	b580      	push	{r7, lr}
 800882a:	b088      	sub	sp, #32
 800882c:	af00      	add	r7, sp, #0
 800882e:	60f8      	str	r0, [r7, #12]
 8008830:	60b9      	str	r1, [r7, #8]
 8008832:	607a      	str	r2, [r7, #4]
 8008834:	603b      	str	r3, [r7, #0]
 8008836:	6b3b      	ldr	r3, [r7, #48]	; 0x30
 8008838:	6b18      	ldr	r0, [r3, #48]	; 0x30
 800883a:	687b      	ldr	r3, [r7, #4]
 800883c:	009b      	lsls	r3, r3, #2
 800883e:	461a      	mov	r2, r3
 8008840:	21a5      	movs	r1, #165	; 0xa5
 8008842:	f001 ff86 	bl	800a752 <memset>
 8008846:	6b3b      	ldr	r3, [r7, #48]	; 0x30
 8008848:	6b1a      	ldr	r2, [r3, #48]	; 0x30
 800884a:	687b      	ldr	r3, [r7, #4]
 800884c:	f103 4380 	add.w	r3, r3, #1073741824	; 0x40000000
 8008850:	3b01      	subs	r3, #1
 8008852:	009b      	lsls	r3, r3, #2
 8008854:	4413      	add	r3, r2
 8008856:	61bb      	str	r3, [r7, #24]
 8008858:	69bb      	ldr	r3, [r7, #24]
 800885a:	f023 0307 	bic.w	r3, r3, #7
 800885e:	61bb      	str	r3, [r7, #24]
 8008860:	69bb      	ldr	r3, [r7, #24]
 8008862:	f003 0307 	and.w	r3, r3, #7
 8008866:	2b00      	cmp	r3, #0
 8008868:	d009      	beq.n	800887e <prvInitialiseNewTask+0x56>
 800886a:	f04f 0350 	mov.w	r3, #80	; 0x50
 800886e:	f383 8811 	msr	BASEPRI, r3
 8008872:	f3bf 8f6f 	isb	sy
 8008876:	f3bf 8f4f 	dsb	sy
 800887a:	617b      	str	r3, [r7, #20]
 800887c:	e7fe      	b.n	800887c <prvInitialiseNewTask+0x54>
 800887e:	2300      	movs	r3, #0
 8008880:	61fb      	str	r3, [r7, #28]
 8008882:	e012      	b.n	80088aa <prvInitialiseNewTask+0x82>
 8008884:	68ba      	ldr	r2, [r7, #8]
 8008886:	69fb      	ldr	r3, [r7, #28]
 8008888:	4413      	add	r3, r2
 800888a:	7819      	ldrb	r1, [r3, #0]
 800888c:	6b3a      	ldr	r2, [r7, #48]	; 0x30
 800888e:	69fb      	ldr	r3, [r7, #28]
 8008890:	4413      	add	r3, r2
 8008892:	3334      	adds	r3, #52	; 0x34
 8008894:	460a      	mov	r2, r1
 8008896:	701a      	strb	r2, [r3, #0]
 8008898:	68ba      	ldr	r2, [r7, #8]
 800889a:	69fb      	ldr	r3, [r7, #28]
 800889c:	4413      	add	r3, r2
 800889e:	781b      	ldrb	r3, [r3, #0]
 80088a0:	2b00      	cmp	r3, #0
 80088a2:	d006      	beq.n	80088b2 <prvInitialiseNewTask+0x8a>
 80088a4:	69fb      	ldr	r3, [r7, #28]
 80088a6:	3301      	adds	r3, #1
 80088a8:	61fb      	str	r3, [r7, #28]
 80088aa:	69fb      	ldr	r3, [r7, #28]
 80088ac:	2b0f      	cmp	r3, #15
 80088ae:	d9e9      	bls.n	8008884 <prvInitialiseNewTask+0x5c>
 80088b0:	e000      	b.n	80088b4 <prvInitialiseNewTask+0x8c>
 80088b2:	bf00      	nop
 80088b4:	6b3b      	ldr	r3, [r7, #48]	; 0x30
 80088b6:	2200      	movs	r2, #0
 80088b8:	f883 2043 	strb.w	r2, [r3, #67]	; 0x43
 80088bc:	6abb      	ldr	r3, [r7, #40]	; 0x28
 80088be:	2b37      	cmp	r3, #55	; 0x37
 80088c0:	d901      	bls.n	80088c6 <prvInitialiseNewTask+0x9e>
 80088c2:	2337      	movs	r3, #55	; 0x37
 80088c4:	62bb      	str	r3, [r7, #40]	; 0x28
 80088c6:	6b3b      	ldr	r3, [r7, #48]	; 0x30
 80088c8:	6aba      	ldr	r2, [r7, #40]	; 0x28
 80088ca:	62da      	str	r2, [r3, #44]	; 0x2c
 80088cc:	6b3b      	ldr	r3, [r7, #48]	; 0x30
 80088ce:	6aba      	ldr	r2, [r7, #40]	; 0x28
 80088d0:	64da      	str	r2, [r3, #76]	; 0x4c
 80088d2:	6b3b      	ldr	r3, [r7, #48]	; 0x30
 80088d4:	2200      	movs	r2, #0
 80088d6:	651a      	str	r2, [r3, #80]	; 0x50
 80088d8:	6b3b      	ldr	r3, [r7, #48]	; 0x30
 80088da:	3304      	adds	r3, #4
 80088dc:	4618      	mov	r0, r3
 80088de:	f7ff f964 	bl	8007baa <vListInitialiseItem>
 80088e2:	6b3b      	ldr	r3, [r7, #48]	; 0x30
 80088e4:	3318      	adds	r3, #24
 80088e6:	4618      	mov	r0, r3
 80088e8:	f7ff f95f 	bl	8007baa <vListInitialiseItem>
 80088ec:	6b3b      	ldr	r3, [r7, #48]	; 0x30
 80088ee:	6b3a      	ldr	r2, [r7, #48]	; 0x30
 80088f0:	611a      	str	r2, [r3, #16]
 80088f2:	6abb      	ldr	r3, [r7, #40]	; 0x28
 80088f4:	f1c3 0238 	rsb	r2, r3, #56	; 0x38
 80088f8:	6b3b      	ldr	r3, [r7, #48]	; 0x30
 80088fa:	619a      	str	r2, [r3, #24]
 80088fc:	6b3b      	ldr	r3, [r7, #48]	; 0x30
 80088fe:	6b3a      	ldr	r2, [r7, #48]	; 0x30
 8008900:	625a      	str	r2, [r3, #36]	; 0x24
 8008902:	6b3b      	ldr	r3, [r7, #48]	; 0x30
 8008904:	2200      	movs	r2, #0
 8008906:	655a      	str	r2, [r3, #84]	; 0x54
 8008908:	6b3b      	ldr	r3, [r7, #48]	; 0x30
 800890a:	2200      	movs	r2, #0
 800890c:	f883 2058 	strb.w	r2, [r3, #88]	; 0x58
 8008910:	683a      	ldr	r2, [r7, #0]
 8008912:	68f9      	ldr	r1, [r7, #12]
 8008914:	69b8      	ldr	r0, [r7, #24]
 8008916:	f001 fb35 	bl	8009f84 <pxPortInitialiseStack>
 800891a:	4602      	mov	r2, r0
 800891c:	6b3b      	ldr	r3, [r7, #48]	; 0x30
 800891e:	601a      	str	r2, [r3, #0]
 8008920:	6afb      	ldr	r3, [r7, #44]	; 0x2c
 8008922:	2b00      	cmp	r3, #0
 8008924:	d002      	beq.n	800892c <prvInitialiseNewTask+0x104>
 8008926:	6afb      	ldr	r3, [r7, #44]	; 0x2c
 8008928:	6b3a      	ldr	r2, [r7, #48]	; 0x30
 800892a:	601a      	str	r2, [r3, #0]
 800892c:	bf00      	nop
 800892e:	3720      	adds	r7, #32
 8008930:	46bd      	mov	sp, r7
 8008932:	bd80      	pop	{r7, pc}

08008934 <prvAddNewTaskToReadyList>:
 8008934:	b580      	push	{r7, lr}
 8008936:	b082      	sub	sp, #8
 8008938:	af00      	add	r7, sp, #0
 800893a:	6078      	str	r0, [r7, #4]
 800893c:	f001 fc0c 	bl	800a158 <vPortEnterCritical>
 8008940:	4b2d      	ldr	r3, [pc, #180]	; (80089f8 <prvAddNewTaskToReadyList+0xc4>)
 8008942:	681b      	ldr	r3, [r3, #0]
 8008944:	3301      	adds	r3, #1
 8008946:	4a2c      	ldr	r2, [pc, #176]	; (80089f8 <prvAddNewTaskToReadyList+0xc4>)
 8008948:	6013      	str	r3, [r2, #0]
 800894a:	4b2c      	ldr	r3, [pc, #176]	; (80089fc <prvAddNewTaskToReadyList+0xc8>)
 800894c:	681b      	ldr	r3, [r3, #0]
 800894e:	2b00      	cmp	r3, #0
 8008950:	d109      	bne.n	8008966 <prvAddNewTaskToReadyList+0x32>
 8008952:	4a2a      	ldr	r2, [pc, #168]	; (80089fc <prvAddNewTaskToReadyList+0xc8>)
 8008954:	687b      	ldr	r3, [r7, #4]
 8008956:	6013      	str	r3, [r2, #0]
 8008958:	4b27      	ldr	r3, [pc, #156]	; (80089f8 <prvAddNewTaskToReadyList+0xc4>)
 800895a:	681b      	ldr	r3, [r3, #0]
 800895c:	2b01      	cmp	r3, #1
 800895e:	d110      	bne.n	8008982 <prvAddNewTaskToReadyList+0x4e>
 8008960:	f000 fdde 	bl	8009520 <prvInitialiseTaskLists>
 8008964:	e00d      	b.n	8008982 <prvAddNewTaskToReadyList+0x4e>
 8008966:	4b26      	ldr	r3, [pc, #152]	; (8008a00 <prvAddNewTaskToReadyList+0xcc>)
 8008968:	681b      	ldr	r3, [r3, #0]
 800896a:	2b00      	cmp	r3, #0
 800896c:	d109      	bne.n	8008982 <prvAddNewTaskToReadyList+0x4e>
 800896e:	4b23      	ldr	r3, [pc, #140]	; (80089fc <prvAddNewTaskToReadyList+0xc8>)
 8008970:	681b      	ldr	r3, [r3, #0]
 8008972:	6ada      	ldr	r2, [r3, #44]	; 0x2c
 8008974:	687b      	ldr	r3, [r7, #4]
 8008976:	6adb      	ldr	r3, [r3, #44]	; 0x2c
 8008978:	429a      	cmp	r2, r3
 800897a:	d802      	bhi.n	8008982 <prvAddNewTaskToReadyList+0x4e>
 800897c:	4a1f      	ldr	r2, [pc, #124]	; (80089fc <prvAddNewTaskToReadyList+0xc8>)
 800897e:	687b      	ldr	r3, [r7, #4]
 8008980:	6013      	str	r3, [r2, #0]
 8008982:	4b20      	ldr	r3, [pc, #128]	; (8008a04 <prvAddNewTaskToReadyList+0xd0>)
 8008984:	681b      	ldr	r3, [r3, #0]
 8008986:	3301      	adds	r3, #1
 8008988:	4a1e      	ldr	r2, [pc, #120]	; (8008a04 <prvAddNewTaskToReadyList+0xd0>)
 800898a:	6013      	str	r3, [r2, #0]
 800898c:	4b1d      	ldr	r3, [pc, #116]	; (8008a04 <prvAddNewTaskToReadyList+0xd0>)
 800898e:	681a      	ldr	r2, [r3, #0]
 8008990:	687b      	ldr	r3, [r7, #4]
 8008992:	645a      	str	r2, [r3, #68]	; 0x44
 8008994:	687b      	ldr	r3, [r7, #4]
 8008996:	6ada      	ldr	r2, [r3, #44]	; 0x2c
 8008998:	4b1b      	ldr	r3, [pc, #108]	; (8008a08 <prvAddNewTaskToReadyList+0xd4>)
 800899a:	681b      	ldr	r3, [r3, #0]
 800899c:	429a      	cmp	r2, r3
 800899e:	d903      	bls.n	80089a8 <prvAddNewTaskToReadyList+0x74>
 80089a0:	687b      	ldr	r3, [r7, #4]
 80089a2:	6adb      	ldr	r3, [r3, #44]	; 0x2c
 80089a4:	4a18      	ldr	r2, [pc, #96]	; (8008a08 <prvAddNewTaskToReadyList+0xd4>)
 80089a6:	6013      	str	r3, [r2, #0]
 80089a8:	687b      	ldr	r3, [r7, #4]
 80089aa:	6ada      	ldr	r2, [r3, #44]	; 0x2c
 80089ac:	4613      	mov	r3, r2
 80089ae:	009b      	lsls	r3, r3, #2
 80089b0:	4413      	add	r3, r2
 80089b2:	009b      	lsls	r3, r3, #2
 80089b4:	4a15      	ldr	r2, [pc, #84]	; (8008a0c <prvAddNewTaskToReadyList+0xd8>)
 80089b6:	441a      	add	r2, r3
 80089b8:	687b      	ldr	r3, [r7, #4]
 80089ba:	3304      	adds	r3, #4
 80089bc:	4619      	mov	r1, r3
 80089be:	4610      	mov	r0, r2
 80089c0:	f7ff f8ff 	bl	8007bc2 <vListInsertEnd>
 80089c4:	f001 fbf6 	bl	800a1b4 <vPortExitCritical>
 80089c8:	4b0d      	ldr	r3, [pc, #52]	; (8008a00 <prvAddNewTaskToReadyList+0xcc>)
 80089ca:	681b      	ldr	r3, [r3, #0]
 80089cc:	2b00      	cmp	r3, #0
 80089ce:	d00e      	beq.n	80089ee <prvAddNewTaskToReadyList+0xba>
 80089d0:	4b0a      	ldr	r3, [pc, #40]	; (80089fc <prvAddNewTaskToReadyList+0xc8>)
 80089d2:	681b      	ldr	r3, [r3, #0]
 80089d4:	6ada      	ldr	r2, [r3, #44]	; 0x2c
 80089d6:	687b      	ldr	r3, [r7, #4]
 80089d8:	6adb      	ldr	r3, [r3, #44]	; 0x2c
 80089da:	429a      	cmp	r2, r3
 80089dc:	d207      	bcs.n	80089ee <prvAddNewTaskToReadyList+0xba>
 80089de:	4b0c      	ldr	r3, [pc, #48]	; (8008a10 <prvAddNewTaskToReadyList+0xdc>)
 80089e0:	f04f 5280 	mov.w	r2, #268435456	; 0x10000000
 80089e4:	601a      	str	r2, [r3, #0]
 80089e6:	f3bf 8f4f 	dsb	sy
 80089ea:	f3bf 8f6f 	isb	sy
 80089ee:	bf00      	nop
 80089f0:	3708      	adds	r7, #8
 80089f2:	46bd      	mov	sp, r7
 80089f4:	bd80      	pop	{r7, pc}
 80089f6:	bf00      	nop
 80089f8:	20000bbc 	.word	0x20000bbc
 80089fc:	200006e8 	.word	0x200006e8
 8008a00:	20000bc8 	.word	0x20000bc8
 8008a04:	20000bd8 	.word	0x20000bd8
 8008a08:	20000bc4 	.word	0x20000bc4
 8008a0c:	200006ec 	.word	0x200006ec
 8008a10:	e000ed04 	.word	0xe000ed04

08008a14 <vTaskDelay>:
 8008a14:	b580      	push	{r7, lr}
 8008a16:	b084      	sub	sp, #16
 8008a18:	af00      	add	r7, sp, #0
 8008a1a:	6078      	str	r0, [r7, #4]
 8008a1c:	2300      	movs	r3, #0
 8008a1e:	60fb      	str	r3, [r7, #12]
 8008a20:	687b      	ldr	r3, [r7, #4]
 8008a22:	2b00      	cmp	r3, #0
 8008a24:	d016      	beq.n	8008a54 <vTaskDelay+0x40>
 8008a26:	4b13      	ldr	r3, [pc, #76]	; (8008a74 <vTaskDelay+0x60>)
 8008a28:	681b      	ldr	r3, [r3, #0]
 8008a2a:	2b00      	cmp	r3, #0
 8008a2c:	d009      	beq.n	8008a42 <vTaskDelay+0x2e>
 8008a2e:	f04f 0350 	mov.w	r3, #80	; 0x50
 8008a32:	f383 8811 	msr	BASEPRI, r3
 8008a36:	f3bf 8f6f 	isb	sy
 8008a3a:	f3bf 8f4f 	dsb	sy
 8008a3e:	60bb      	str	r3, [r7, #8]
 8008a40:	e7fe      	b.n	8008a40 <vTaskDelay+0x2c>
 8008a42:	f000 f98b 	bl	8008d5c <vTaskSuspendAll>
 8008a46:	2100      	movs	r1, #0
 8008a48:	6878      	ldr	r0, [r7, #4]
 8008a4a:	f000 fec9 	bl	80097e0 <prvAddCurrentTaskToDelayedList>
 8008a4e:	f000 f993 	bl	8008d78 <xTaskResumeAll>
 8008a52:	60f8      	str	r0, [r7, #12]
 8008a54:	68fb      	ldr	r3, [r7, #12]
 8008a56:	2b00      	cmp	r3, #0
 8008a58:	d107      	bne.n	8008a6a <vTaskDelay+0x56>
 8008a5a:	4b07      	ldr	r3, [pc, #28]	; (8008a78 <vTaskDelay+0x64>)
 8008a5c:	f04f 5280 	mov.w	r2, #268435456	; 0x10000000
 8008a60:	601a      	str	r2, [r3, #0]
 8008a62:	f3bf 8f4f 	dsb	sy
 8008a66:	f3bf 8f6f 	isb	sy
 8008a6a:	bf00      	nop
 8008a6c:	3710      	adds	r7, #16
 8008a6e:	46bd      	mov	sp, r7
 8008a70:	bd80      	pop	{r7, pc}
 8008a72:	bf00      	nop
 8008a74:	20000be4 	.word	0x20000be4
 8008a78:	e000ed04 	.word	0xe000ed04

08008a7c <vTaskSuspend>:
 8008a7c:	b580      	push	{r7, lr}
 8008a7e:	b084      	sub	sp, #16
 8008a80:	af00      	add	r7, sp, #0
 8008a82:	6078      	str	r0, [r7, #4]
 8008a84:	f001 fb68 	bl	800a158 <vPortEnterCritical>
 8008a88:	687b      	ldr	r3, [r7, #4]
 8008a8a:	2b00      	cmp	r3, #0
 8008a8c:	d102      	bne.n	8008a94 <vTaskSuspend+0x18>
 8008a8e:	4b2f      	ldr	r3, [pc, #188]	; (8008b4c <vTaskSuspend+0xd0>)
 8008a90:	681b      	ldr	r3, [r3, #0]
 8008a92:	e000      	b.n	8008a96 <vTaskSuspend+0x1a>
 8008a94:	687b      	ldr	r3, [r7, #4]
 8008a96:	60fb      	str	r3, [r7, #12]
 8008a98:	68fb      	ldr	r3, [r7, #12]
 8008a9a:	3304      	adds	r3, #4
 8008a9c:	4618      	mov	r0, r3
 8008a9e:	f7ff f8eb 	bl	8007c78 <uxListRemove>
 8008aa2:	68fb      	ldr	r3, [r7, #12]
 8008aa4:	6a9b      	ldr	r3, [r3, #40]	; 0x28
 8008aa6:	2b00      	cmp	r3, #0
 8008aa8:	d004      	beq.n	8008ab4 <vTaskSuspend+0x38>
 8008aaa:	68fb      	ldr	r3, [r7, #12]
 8008aac:	3318      	adds	r3, #24
 8008aae:	4618      	mov	r0, r3
 8008ab0:	f7ff f8e2 	bl	8007c78 <uxListRemove>
 8008ab4:	68fb      	ldr	r3, [r7, #12]
 8008ab6:	3304      	adds	r3, #4
 8008ab8:	4619      	mov	r1, r3
 8008aba:	4825      	ldr	r0, [pc, #148]	; (8008b50 <vTaskSuspend+0xd4>)
 8008abc:	f7ff f881 	bl	8007bc2 <vListInsertEnd>
 8008ac0:	68fb      	ldr	r3, [r7, #12]
 8008ac2:	f893 3058 	ldrb.w	r3, [r3, #88]	; 0x58
 8008ac6:	b2db      	uxtb	r3, r3
 8008ac8:	2b01      	cmp	r3, #1
 8008aca:	d103      	bne.n	8008ad4 <vTaskSuspend+0x58>
 8008acc:	68fb      	ldr	r3, [r7, #12]
 8008ace:	2200      	movs	r2, #0
 8008ad0:	f883 2058 	strb.w	r2, [r3, #88]	; 0x58
 8008ad4:	f001 fb6e 	bl	800a1b4 <vPortExitCritical>
 8008ad8:	4b1e      	ldr	r3, [pc, #120]	; (8008b54 <vTaskSuspend+0xd8>)
 8008ada:	681b      	ldr	r3, [r3, #0]
 8008adc:	2b00      	cmp	r3, #0
 8008ade:	d005      	beq.n	8008aec <vTaskSuspend+0x70>
 8008ae0:	f001 fb3a 	bl	800a158 <vPortEnterCritical>
 8008ae4:	f000 fdb6 	bl	8009654 <prvResetNextTaskUnblockTime>
 8008ae8:	f001 fb64 	bl	800a1b4 <vPortExitCritical>
 8008aec:	4b17      	ldr	r3, [pc, #92]	; (8008b4c <vTaskSuspend+0xd0>)
 8008aee:	681b      	ldr	r3, [r3, #0]
 8008af0:	68fa      	ldr	r2, [r7, #12]
 8008af2:	429a      	cmp	r2, r3
 8008af4:	d126      	bne.n	8008b44 <vTaskSuspend+0xc8>
 8008af6:	4b17      	ldr	r3, [pc, #92]	; (8008b54 <vTaskSuspend+0xd8>)
 8008af8:	681b      	ldr	r3, [r3, #0]
 8008afa:	2b00      	cmp	r3, #0
 8008afc:	d016      	beq.n	8008b2c <vTaskSuspend+0xb0>
 8008afe:	4b16      	ldr	r3, [pc, #88]	; (8008b58 <vTaskSuspend+0xdc>)
 8008b00:	681b      	ldr	r3, [r3, #0]
 8008b02:	2b00      	cmp	r3, #0
 8008b04:	d009      	beq.n	8008b1a <vTaskSuspend+0x9e>
 8008b06:	f04f 0350 	mov.w	r3, #80	; 0x50
 8008b0a:	f383 8811 	msr	BASEPRI, r3
 8008b0e:	f3bf 8f6f 	isb	sy
 8008b12:	f3bf 8f4f 	dsb	sy
 8008b16:	60bb      	str	r3, [r7, #8]
 8008b18:	e7fe      	b.n	8008b18 <vTaskSuspend+0x9c>
 8008b1a:	4b10      	ldr	r3, [pc, #64]	; (8008b5c <vTaskSuspend+0xe0>)
 8008b1c:	f04f 5280 	mov.w	r2, #268435456	; 0x10000000
 8008b20:	601a      	str	r2, [r3, #0]
 8008b22:	f3bf 8f4f 	dsb	sy
 8008b26:	f3bf 8f6f 	isb	sy
 8008b2a:	e00b      	b.n	8008b44 <vTaskSuspend+0xc8>
 8008b2c:	4b08      	ldr	r3, [pc, #32]	; (8008b50 <vTaskSuspend+0xd4>)
 8008b2e:	681a      	ldr	r2, [r3, #0]
 8008b30:	4b0b      	ldr	r3, [pc, #44]	; (8008b60 <vTaskSuspend+0xe4>)
 8008b32:	681b      	ldr	r3, [r3, #0]
 8008b34:	429a      	cmp	r2, r3
 8008b36:	d103      	bne.n	8008b40 <vTaskSuspend+0xc4>
 8008b38:	4b04      	ldr	r3, [pc, #16]	; (8008b4c <vTaskSuspend+0xd0>)
 8008b3a:	2200      	movs	r2, #0
 8008b3c:	601a      	str	r2, [r3, #0]
 8008b3e:	e001      	b.n	8008b44 <vTaskSuspend+0xc8>
 8008b40:	f000 fa9c 	bl	800907c <vTaskSwitchContext>
 8008b44:	bf00      	nop
 8008b46:	3710      	adds	r7, #16
 8008b48:	46bd      	mov	sp, r7
 8008b4a:	bd80      	pop	{r7, pc}
 8008b4c:	200006e8 	.word	0x200006e8
 8008b50:	20000ba8 	.word	0x20000ba8
 8008b54:	20000bc8 	.word	0x20000bc8
 8008b58:	20000be4 	.word	0x20000be4
 8008b5c:	e000ed04 	.word	0xe000ed04
 8008b60:	20000bbc 	.word	0x20000bbc

08008b64 <prvTaskIsTaskSuspended>:
 8008b64:	b480      	push	{r7}
 8008b66:	b087      	sub	sp, #28
 8008b68:	af00      	add	r7, sp, #0
 8008b6a:	6078      	str	r0, [r7, #4]
 8008b6c:	2300      	movs	r3, #0
 8008b6e:	617b      	str	r3, [r7, #20]
 8008b70:	687b      	ldr	r3, [r7, #4]
 8008b72:	613b      	str	r3, [r7, #16]
 8008b74:	687b      	ldr	r3, [r7, #4]
 8008b76:	2b00      	cmp	r3, #0
 8008b78:	d109      	bne.n	8008b8e <prvTaskIsTaskSuspended+0x2a>
 8008b7a:	f04f 0350 	mov.w	r3, #80	; 0x50
 8008b7e:	f383 8811 	msr	BASEPRI, r3
 8008b82:	f3bf 8f6f 	isb	sy
 8008b86:	f3bf 8f4f 	dsb	sy
 8008b8a:	60fb      	str	r3, [r7, #12]
 8008b8c:	e7fe      	b.n	8008b8c <prvTaskIsTaskSuspended+0x28>
 8008b8e:	693b      	ldr	r3, [r7, #16]
 8008b90:	695b      	ldr	r3, [r3, #20]
 8008b92:	4a0f      	ldr	r2, [pc, #60]	; (8008bd0 <prvTaskIsTaskSuspended+0x6c>)
 8008b94:	4293      	cmp	r3, r2
 8008b96:	d101      	bne.n	8008b9c <prvTaskIsTaskSuspended+0x38>
 8008b98:	2301      	movs	r3, #1
 8008b9a:	e000      	b.n	8008b9e <prvTaskIsTaskSuspended+0x3a>
 8008b9c:	2300      	movs	r3, #0
 8008b9e:	2b00      	cmp	r3, #0
 8008ba0:	d00f      	beq.n	8008bc2 <prvTaskIsTaskSuspended+0x5e>
 8008ba2:	693b      	ldr	r3, [r7, #16]
 8008ba4:	6a9b      	ldr	r3, [r3, #40]	; 0x28
 8008ba6:	4a0b      	ldr	r2, [pc, #44]	; (8008bd4 <prvTaskIsTaskSuspended+0x70>)
 8008ba8:	4293      	cmp	r3, r2
 8008baa:	d00a      	beq.n	8008bc2 <prvTaskIsTaskSuspended+0x5e>
 8008bac:	693b      	ldr	r3, [r7, #16]
 8008bae:	6a9b      	ldr	r3, [r3, #40]	; 0x28
 8008bb0:	2b00      	cmp	r3, #0
 8008bb2:	d101      	bne.n	8008bb8 <prvTaskIsTaskSuspended+0x54>
 8008bb4:	2301      	movs	r3, #1
 8008bb6:	e000      	b.n	8008bba <prvTaskIsTaskSuspended+0x56>
 8008bb8:	2300      	movs	r3, #0
 8008bba:	2b00      	cmp	r3, #0
 8008bbc:	d001      	beq.n	8008bc2 <prvTaskIsTaskSuspended+0x5e>
 8008bbe:	2301      	movs	r3, #1
 8008bc0:	617b      	str	r3, [r7, #20]
 8008bc2:	697b      	ldr	r3, [r7, #20]
 8008bc4:	4618      	mov	r0, r3
 8008bc6:	371c      	adds	r7, #28
 8008bc8:	46bd      	mov	sp, r7
 8008bca:	bc80      	pop	{r7}
 8008bcc:	4770      	bx	lr
 8008bce:	bf00      	nop
 8008bd0:	20000ba8 	.word	0x20000ba8
 8008bd4:	20000b7c 	.word	0x20000b7c

08008bd8 <vTaskResume>:
 8008bd8:	b580      	push	{r7, lr}
 8008bda:	b084      	sub	sp, #16
 8008bdc:	af00      	add	r7, sp, #0
 8008bde:	6078      	str	r0, [r7, #4]
 8008be0:	687b      	ldr	r3, [r7, #4]
 8008be2:	60fb      	str	r3, [r7, #12]
 8008be4:	687b      	ldr	r3, [r7, #4]
 8008be6:	2b00      	cmp	r3, #0
 8008be8:	d109      	bne.n	8008bfe <vTaskResume+0x26>
 8008bea:	f04f 0350 	mov.w	r3, #80	; 0x50
 8008bee:	f383 8811 	msr	BASEPRI, r3
 8008bf2:	f3bf 8f6f 	isb	sy
 8008bf6:	f3bf 8f4f 	dsb	sy
 8008bfa:	60bb      	str	r3, [r7, #8]
 8008bfc:	e7fe      	b.n	8008bfc <vTaskResume+0x24>
 8008bfe:	68fb      	ldr	r3, [r7, #12]
 8008c00:	2b00      	cmp	r3, #0
 8008c02:	d03a      	beq.n	8008c7a <vTaskResume+0xa2>
 8008c04:	4b1f      	ldr	r3, [pc, #124]	; (8008c84 <vTaskResume+0xac>)
 8008c06:	681b      	ldr	r3, [r3, #0]
 8008c08:	68fa      	ldr	r2, [r7, #12]
 8008c0a:	429a      	cmp	r2, r3
 8008c0c:	d035      	beq.n	8008c7a <vTaskResume+0xa2>
 8008c0e:	f001 faa3 	bl	800a158 <vPortEnterCritical>
 8008c12:	68f8      	ldr	r0, [r7, #12]
 8008c14:	f7ff ffa6 	bl	8008b64 <prvTaskIsTaskSuspended>
 8008c18:	4603      	mov	r3, r0
 8008c1a:	2b00      	cmp	r3, #0
 8008c1c:	d02b      	beq.n	8008c76 <vTaskResume+0x9e>
 8008c1e:	68fb      	ldr	r3, [r7, #12]
 8008c20:	3304      	adds	r3, #4
 8008c22:	4618      	mov	r0, r3
 8008c24:	f7ff f828 	bl	8007c78 <uxListRemove>
 8008c28:	68fb      	ldr	r3, [r7, #12]
 8008c2a:	6ada      	ldr	r2, [r3, #44]	; 0x2c
 8008c2c:	4b16      	ldr	r3, [pc, #88]	; (8008c88 <vTaskResume+0xb0>)
 8008c2e:	681b      	ldr	r3, [r3, #0]
 8008c30:	429a      	cmp	r2, r3
 8008c32:	d903      	bls.n	8008c3c <vTaskResume+0x64>
 8008c34:	68fb      	ldr	r3, [r7, #12]
 8008c36:	6adb      	ldr	r3, [r3, #44]	; 0x2c
 8008c38:	4a13      	ldr	r2, [pc, #76]	; (8008c88 <vTaskResume+0xb0>)
 8008c3a:	6013      	str	r3, [r2, #0]
 8008c3c:	68fb      	ldr	r3, [r7, #12]
 8008c3e:	6ada      	ldr	r2, [r3, #44]	; 0x2c
 8008c40:	4613      	mov	r3, r2
 8008c42:	009b      	lsls	r3, r3, #2
 8008c44:	4413      	add	r3, r2
 8008c46:	009b      	lsls	r3, r3, #2
 8008c48:	4a10      	ldr	r2, [pc, #64]	; (8008c8c <vTaskResume+0xb4>)
 8008c4a:	441a      	add	r2, r3
 8008c4c:	68fb      	ldr	r3, [r7, #12]
 8008c4e:	3304      	adds	r3, #4
 8008c50:	4619      	mov	r1, r3
 8008c52:	4610      	mov	r0, r2
 8008c54:	f7fe ffb5 	bl	8007bc2 <vListInsertEnd>
 8008c58:	68fb      	ldr	r3, [r7, #12]
 8008c5a:	6ada      	ldr	r2, [r3, #44]	; 0x2c
 8008c5c:	4b09      	ldr	r3, [pc, #36]	; (8008c84 <vTaskResume+0xac>)
 8008c5e:	681b      	ldr	r3, [r3, #0]
 8008c60:	6adb      	ldr	r3, [r3, #44]	; 0x2c
 8008c62:	429a      	cmp	r2, r3
 8008c64:	d307      	bcc.n	8008c76 <vTaskResume+0x9e>
 8008c66:	4b0a      	ldr	r3, [pc, #40]	; (8008c90 <vTaskResume+0xb8>)
 8008c68:	f04f 5280 	mov.w	r2, #268435456	; 0x10000000
 8008c6c:	601a      	str	r2, [r3, #0]
 8008c6e:	f3bf 8f4f 	dsb	sy
 8008c72:	f3bf 8f6f 	isb	sy
 8008c76:	f001 fa9d 	bl	800a1b4 <vPortExitCritical>
 8008c7a:	bf00      	nop
 8008c7c:	3710      	adds	r7, #16
 8008c7e:	46bd      	mov	sp, r7
 8008c80:	bd80      	pop	{r7, pc}
 8008c82:	bf00      	nop
 8008c84:	200006e8 	.word	0x200006e8
 8008c88:	20000bc4 	.word	0x20000bc4
 8008c8c:	200006ec 	.word	0x200006ec
 8008c90:	e000ed04 	.word	0xe000ed04

08008c94 <vTaskStartScheduler>:
 8008c94:	b580      	push	{r7, lr}
 8008c96:	b08a      	sub	sp, #40	; 0x28
 8008c98:	af04      	add	r7, sp, #16
 8008c9a:	2300      	movs	r3, #0
 8008c9c:	60bb      	str	r3, [r7, #8]
 8008c9e:	2300      	movs	r3, #0
 8008ca0:	607b      	str	r3, [r7, #4]
 8008ca2:	463a      	mov	r2, r7
 8008ca4:	1d39      	adds	r1, r7, #4
 8008ca6:	f107 0308 	add.w	r3, r7, #8
 8008caa:	4618      	mov	r0, r3
 8008cac:	f7fe fd26 	bl	80076fc <vApplicationGetIdleTaskMemory>
 8008cb0:	6839      	ldr	r1, [r7, #0]
 8008cb2:	687b      	ldr	r3, [r7, #4]
 8008cb4:	68ba      	ldr	r2, [r7, #8]
 8008cb6:	9202      	str	r2, [sp, #8]
 8008cb8:	9301      	str	r3, [sp, #4]
 8008cba:	2300      	movs	r3, #0
 8008cbc:	9300      	str	r3, [sp, #0]
 8008cbe:	2300      	movs	r3, #0
 8008cc0:	460a      	mov	r2, r1
 8008cc2:	4920      	ldr	r1, [pc, #128]	; (8008d44 <vTaskStartScheduler+0xb0>)
 8008cc4:	4820      	ldr	r0, [pc, #128]	; (8008d48 <vTaskStartScheduler+0xb4>)
 8008cc6:	f7ff fd11 	bl	80086ec <xTaskCreateStatic>
 8008cca:	4602      	mov	r2, r0
 8008ccc:	4b1f      	ldr	r3, [pc, #124]	; (8008d4c <vTaskStartScheduler+0xb8>)
 8008cce:	601a      	str	r2, [r3, #0]
 8008cd0:	4b1e      	ldr	r3, [pc, #120]	; (8008d4c <vTaskStartScheduler+0xb8>)
 8008cd2:	681b      	ldr	r3, [r3, #0]
 8008cd4:	2b00      	cmp	r3, #0
 8008cd6:	d002      	beq.n	8008cde <vTaskStartScheduler+0x4a>
 8008cd8:	2301      	movs	r3, #1
 8008cda:	617b      	str	r3, [r7, #20]
 8008cdc:	e001      	b.n	8008ce2 <vTaskStartScheduler+0x4e>
 8008cde:	2300      	movs	r3, #0
 8008ce0:	617b      	str	r3, [r7, #20]
 8008ce2:	697b      	ldr	r3, [r7, #20]
 8008ce4:	2b01      	cmp	r3, #1
 8008ce6:	d102      	bne.n	8008cee <vTaskStartScheduler+0x5a>
 8008ce8:	f000 fdce 	bl	8009888 <xTimerCreateTimerTask>
 8008cec:	6178      	str	r0, [r7, #20]
 8008cee:	697b      	ldr	r3, [r7, #20]
 8008cf0:	2b01      	cmp	r3, #1
 8008cf2:	d115      	bne.n	8008d20 <vTaskStartScheduler+0x8c>
 8008cf4:	f04f 0350 	mov.w	r3, #80	; 0x50
 8008cf8:	f383 8811 	msr	BASEPRI, r3
 8008cfc:	f3bf 8f6f 	isb	sy
 8008d00:	f3bf 8f4f 	dsb	sy
 8008d04:	613b      	str	r3, [r7, #16]
 8008d06:	4b12      	ldr	r3, [pc, #72]	; (8008d50 <vTaskStartScheduler+0xbc>)
 8008d08:	f04f 32ff 	mov.w	r2, #4294967295
 8008d0c:	601a      	str	r2, [r3, #0]
 8008d0e:	4b11      	ldr	r3, [pc, #68]	; (8008d54 <vTaskStartScheduler+0xc0>)
 8008d10:	2201      	movs	r2, #1
 8008d12:	601a      	str	r2, [r3, #0]
 8008d14:	4b10      	ldr	r3, [pc, #64]	; (8008d58 <vTaskStartScheduler+0xc4>)
 8008d16:	2200      	movs	r2, #0
 8008d18:	601a      	str	r2, [r3, #0]
 8008d1a:	f001 f9ad 	bl	800a078 <xPortStartScheduler>
 8008d1e:	e00d      	b.n	8008d3c <vTaskStartScheduler+0xa8>
 8008d20:	697b      	ldr	r3, [r7, #20]
 8008d22:	f1b3 3fff 	cmp.w	r3, #4294967295
 8008d26:	d109      	bne.n	8008d3c <vTaskStartScheduler+0xa8>
 8008d28:	f04f 0350 	mov.w	r3, #80	; 0x50
 8008d2c:	f383 8811 	msr	BASEPRI, r3
 8008d30:	f3bf 8f6f 	isb	sy
 8008d34:	f3bf 8f4f 	dsb	sy
 8008d38:	60fb      	str	r3, [r7, #12]
 8008d3a:	e7fe      	b.n	8008d3a <vTaskStartScheduler+0xa6>
 8008d3c:	bf00      	nop
 8008d3e:	3718      	adds	r7, #24
 8008d40:	46bd      	mov	sp, r7
 8008d42:	bd80      	pop	{r7, pc}
 8008d44:	0800aa28 	.word	0x0800aa28
 8008d48:	080094ed 	.word	0x080094ed
 8008d4c:	20000be0 	.word	0x20000be0
 8008d50:	20000bdc 	.word	0x20000bdc
 8008d54:	20000bc8 	.word	0x20000bc8
 8008d58:	20000bc0 	.word	0x20000bc0

08008d5c <vTaskSuspendAll>:
 8008d5c:	b480      	push	{r7}
 8008d5e:	af00      	add	r7, sp, #0
 8008d60:	4b04      	ldr	r3, [pc, #16]	; (8008d74 <vTaskSuspendAll+0x18>)
 8008d62:	681b      	ldr	r3, [r3, #0]
 8008d64:	3301      	adds	r3, #1
 8008d66:	4a03      	ldr	r2, [pc, #12]	; (8008d74 <vTaskSuspendAll+0x18>)
 8008d68:	6013      	str	r3, [r2, #0]
 8008d6a:	bf00      	nop
 8008d6c:	46bd      	mov	sp, r7
 8008d6e:	bc80      	pop	{r7}
 8008d70:	4770      	bx	lr
 8008d72:	bf00      	nop
 8008d74:	20000be4 	.word	0x20000be4

08008d78 <xTaskResumeAll>:
 8008d78:	b580      	push	{r7, lr}
 8008d7a:	b084      	sub	sp, #16
 8008d7c:	af00      	add	r7, sp, #0
 8008d7e:	2300      	movs	r3, #0
 8008d80:	60fb      	str	r3, [r7, #12]
 8008d82:	2300      	movs	r3, #0
 8008d84:	60bb      	str	r3, [r7, #8]
 8008d86:	4b41      	ldr	r3, [pc, #260]	; (8008e8c <xTaskResumeAll+0x114>)
 8008d88:	681b      	ldr	r3, [r3, #0]
 8008d8a:	2b00      	cmp	r3, #0
 8008d8c:	d109      	bne.n	8008da2 <xTaskResumeAll+0x2a>
 8008d8e:	f04f 0350 	mov.w	r3, #80	; 0x50
 8008d92:	f383 8811 	msr	BASEPRI, r3
 8008d96:	f3bf 8f6f 	isb	sy
 8008d9a:	f3bf 8f4f 	dsb	sy
 8008d9e:	603b      	str	r3, [r7, #0]
 8008da0:	e7fe      	b.n	8008da0 <xTaskResumeAll+0x28>
 8008da2:	f001 f9d9 	bl	800a158 <vPortEnterCritical>
 8008da6:	4b39      	ldr	r3, [pc, #228]	; (8008e8c <xTaskResumeAll+0x114>)
 8008da8:	681b      	ldr	r3, [r3, #0]
 8008daa:	3b01      	subs	r3, #1
 8008dac:	4a37      	ldr	r2, [pc, #220]	; (8008e8c <xTaskResumeAll+0x114>)
 8008dae:	6013      	str	r3, [r2, #0]
 8008db0:	4b36      	ldr	r3, [pc, #216]	; (8008e8c <xTaskResumeAll+0x114>)
 8008db2:	681b      	ldr	r3, [r3, #0]
 8008db4:	2b00      	cmp	r3, #0
 8008db6:	d162      	bne.n	8008e7e <xTaskResumeAll+0x106>
 8008db8:	4b35      	ldr	r3, [pc, #212]	; (8008e90 <xTaskResumeAll+0x118>)
 8008dba:	681b      	ldr	r3, [r3, #0]
 8008dbc:	2b00      	cmp	r3, #0
 8008dbe:	d05e      	beq.n	8008e7e <xTaskResumeAll+0x106>
 8008dc0:	e02f      	b.n	8008e22 <xTaskResumeAll+0xaa>
 8008dc2:	4b34      	ldr	r3, [pc, #208]	; (8008e94 <xTaskResumeAll+0x11c>)
 8008dc4:	68db      	ldr	r3, [r3, #12]
 8008dc6:	68db      	ldr	r3, [r3, #12]
 8008dc8:	60fb      	str	r3, [r7, #12]
 8008dca:	68fb      	ldr	r3, [r7, #12]
 8008dcc:	3318      	adds	r3, #24
 8008dce:	4618      	mov	r0, r3
 8008dd0:	f7fe ff52 	bl	8007c78 <uxListRemove>
 8008dd4:	68fb      	ldr	r3, [r7, #12]
 8008dd6:	3304      	adds	r3, #4
 8008dd8:	4618      	mov	r0, r3
 8008dda:	f7fe ff4d 	bl	8007c78 <uxListRemove>
 8008dde:	68fb      	ldr	r3, [r7, #12]
 8008de0:	6ada      	ldr	r2, [r3, #44]	; 0x2c
 8008de2:	4b2d      	ldr	r3, [pc, #180]	; (8008e98 <xTaskResumeAll+0x120>)
 8008de4:	681b      	ldr	r3, [r3, #0]
 8008de6:	429a      	cmp	r2, r3
 8008de8:	d903      	bls.n	8008df2 <xTaskResumeAll+0x7a>
 8008dea:	68fb      	ldr	r3, [r7, #12]
 8008dec:	6adb      	ldr	r3, [r3, #44]	; 0x2c
 8008dee:	4a2a      	ldr	r2, [pc, #168]	; (8008e98 <xTaskResumeAll+0x120>)
 8008df0:	6013      	str	r3, [r2, #0]
 8008df2:	68fb      	ldr	r3, [r7, #12]
 8008df4:	6ada      	ldr	r2, [r3, #44]	; 0x2c
 8008df6:	4613      	mov	r3, r2
 8008df8:	009b      	lsls	r3, r3, #2
 8008dfa:	4413      	add	r3, r2
 8008dfc:	009b      	lsls	r3, r3, #2
 8008dfe:	4a27      	ldr	r2, [pc, #156]	; (8008e9c <xTaskResumeAll+0x124>)
 8008e00:	441a      	add	r2, r3
 8008e02:	68fb      	ldr	r3, [r7, #12]
 8008e04:	3304      	adds	r3, #4
 8008e06:	4619      	mov	r1, r3
 8008e08:	4610      	mov	r0, r2
 8008e0a:	f7fe feda 	bl	8007bc2 <vListInsertEnd>
 8008e0e:	68fb      	ldr	r3, [r7, #12]
 8008e10:	6ada      	ldr	r2, [r3, #44]	; 0x2c
 8008e12:	4b23      	ldr	r3, [pc, #140]	; (8008ea0 <xTaskResumeAll+0x128>)
 8008e14:	681b      	ldr	r3, [r3, #0]
 8008e16:	6adb      	ldr	r3, [r3, #44]	; 0x2c
 8008e18:	429a      	cmp	r2, r3
 8008e1a:	d302      	bcc.n	8008e22 <xTaskResumeAll+0xaa>
 8008e1c:	4b21      	ldr	r3, [pc, #132]	; (8008ea4 <xTaskResumeAll+0x12c>)
 8008e1e:	2201      	movs	r2, #1
 8008e20:	601a      	str	r2, [r3, #0]
 8008e22:	4b1c      	ldr	r3, [pc, #112]	; (8008e94 <xTaskResumeAll+0x11c>)
 8008e24:	681b      	ldr	r3, [r3, #0]
 8008e26:	2b00      	cmp	r3, #0
 8008e28:	d1cb      	bne.n	8008dc2 <xTaskResumeAll+0x4a>
 8008e2a:	68fb      	ldr	r3, [r7, #12]
 8008e2c:	2b00      	cmp	r3, #0
 8008e2e:	d001      	beq.n	8008e34 <xTaskResumeAll+0xbc>
 8008e30:	f000 fc10 	bl	8009654 <prvResetNextTaskUnblockTime>
 8008e34:	4b1c      	ldr	r3, [pc, #112]	; (8008ea8 <xTaskResumeAll+0x130>)
 8008e36:	681b      	ldr	r3, [r3, #0]
 8008e38:	607b      	str	r3, [r7, #4]
 8008e3a:	687b      	ldr	r3, [r7, #4]
 8008e3c:	2b00      	cmp	r3, #0
 8008e3e:	d010      	beq.n	8008e62 <xTaskResumeAll+0xea>
 8008e40:	f000 f856 	bl	8008ef0 <xTaskIncrementTick>
 8008e44:	4603      	mov	r3, r0
 8008e46:	2b00      	cmp	r3, #0
 8008e48:	d002      	beq.n	8008e50 <xTaskResumeAll+0xd8>
 8008e4a:	4b16      	ldr	r3, [pc, #88]	; (8008ea4 <xTaskResumeAll+0x12c>)
 8008e4c:	2201      	movs	r2, #1
 8008e4e:	601a      	str	r2, [r3, #0]
 8008e50:	687b      	ldr	r3, [r7, #4]
 8008e52:	3b01      	subs	r3, #1
 8008e54:	607b      	str	r3, [r7, #4]
 8008e56:	687b      	ldr	r3, [r7, #4]
 8008e58:	2b00      	cmp	r3, #0
 8008e5a:	d1f1      	bne.n	8008e40 <xTaskResumeAll+0xc8>
 8008e5c:	4b12      	ldr	r3, [pc, #72]	; (8008ea8 <xTaskResumeAll+0x130>)
 8008e5e:	2200      	movs	r2, #0
 8008e60:	601a      	str	r2, [r3, #0]
 8008e62:	4b10      	ldr	r3, [pc, #64]	; (8008ea4 <xTaskResumeAll+0x12c>)
 8008e64:	681b      	ldr	r3, [r3, #0]
 8008e66:	2b00      	cmp	r3, #0
 8008e68:	d009      	beq.n	8008e7e <xTaskResumeAll+0x106>
 8008e6a:	2301      	movs	r3, #1
 8008e6c:	60bb      	str	r3, [r7, #8]
 8008e6e:	4b0f      	ldr	r3, [pc, #60]	; (8008eac <xTaskResumeAll+0x134>)
 8008e70:	f04f 5280 	mov.w	r2, #268435456	; 0x10000000
 8008e74:	601a      	str	r2, [r3, #0]
 8008e76:	f3bf 8f4f 	dsb	sy
 8008e7a:	f3bf 8f6f 	isb	sy
 8008e7e:	f001 f999 	bl	800a1b4 <vPortExitCritical>
 8008e82:	68bb      	ldr	r3, [r7, #8]
 8008e84:	4618      	mov	r0, r3
 8008e86:	3710      	adds	r7, #16
 8008e88:	46bd      	mov	sp, r7
 8008e8a:	bd80      	pop	{r7, pc}
 8008e8c:	20000be4 	.word	0x20000be4
 8008e90:	20000bbc 	.word	0x20000bbc
 8008e94:	20000b7c 	.word	0x20000b7c
 8008e98:	20000bc4 	.word	0x20000bc4
 8008e9c:	200006ec 	.word	0x200006ec
 8008ea0:	200006e8 	.word	0x200006e8
 8008ea4:	20000bd0 	.word	0x20000bd0
 8008ea8:	20000bcc 	.word	0x20000bcc
 8008eac:	e000ed04 	.word	0xe000ed04

08008eb0 <xTaskGetTickCount>:
 8008eb0:	b480      	push	{r7}
 8008eb2:	b083      	sub	sp, #12
 8008eb4:	af00      	add	r7, sp, #0
 8008eb6:	4b04      	ldr	r3, [pc, #16]	; (8008ec8 <xTaskGetTickCount+0x18>)
 8008eb8:	681b      	ldr	r3, [r3, #0]
 8008eba:	607b      	str	r3, [r7, #4]
 8008ebc:	687b      	ldr	r3, [r7, #4]
 8008ebe:	4618      	mov	r0, r3
 8008ec0:	370c      	adds	r7, #12
 8008ec2:	46bd      	mov	sp, r7
 8008ec4:	bc80      	pop	{r7}
 8008ec6:	4770      	bx	lr
 8008ec8:	20000bc0 	.word	0x20000bc0

08008ecc <xTaskGetTickCountFromISR>:
 8008ecc:	b580      	push	{r7, lr}
 8008ece:	b082      	sub	sp, #8
 8008ed0:	af00      	add	r7, sp, #0
 8008ed2:	f001 f9fb 	bl	800a2cc <vPortValidateInterruptPriority>
 8008ed6:	2300      	movs	r3, #0
 8008ed8:	607b      	str	r3, [r7, #4]
 8008eda:	4b04      	ldr	r3, [pc, #16]	; (8008eec <xTaskGetTickCountFromISR+0x20>)
 8008edc:	681b      	ldr	r3, [r3, #0]
 8008ede:	603b      	str	r3, [r7, #0]
 8008ee0:	683b      	ldr	r3, [r7, #0]
 8008ee2:	4618      	mov	r0, r3
 8008ee4:	3708      	adds	r7, #8
 8008ee6:	46bd      	mov	sp, r7
 8008ee8:	bd80      	pop	{r7, pc}
 8008eea:	bf00      	nop
 8008eec:	20000bc0 	.word	0x20000bc0

08008ef0 <xTaskIncrementTick>:
 8008ef0:	b580      	push	{r7, lr}
 8008ef2:	b086      	sub	sp, #24
 8008ef4:	af00      	add	r7, sp, #0
 8008ef6:	2300      	movs	r3, #0
 8008ef8:	617b      	str	r3, [r7, #20]
 8008efa:	4b55      	ldr	r3, [pc, #340]	; (8009050 <xTaskIncrementTick+0x160>)
 8008efc:	681b      	ldr	r3, [r3, #0]
 8008efe:	2b00      	cmp	r3, #0
 8008f00:	f040 8093 	bne.w	800902a <xTaskIncrementTick+0x13a>
 8008f04:	4b53      	ldr	r3, [pc, #332]	; (8009054 <xTaskIncrementTick+0x164>)
 8008f06:	681b      	ldr	r3, [r3, #0]
 8008f08:	3301      	adds	r3, #1
 8008f0a:	613b      	str	r3, [r7, #16]
 8008f0c:	4a51      	ldr	r2, [pc, #324]	; (8009054 <xTaskIncrementTick+0x164>)
 8008f0e:	693b      	ldr	r3, [r7, #16]
 8008f10:	6013      	str	r3, [r2, #0]
 8008f12:	693b      	ldr	r3, [r7, #16]
 8008f14:	2b00      	cmp	r3, #0
 8008f16:	d11f      	bne.n	8008f58 <xTaskIncrementTick+0x68>
 8008f18:	4b4f      	ldr	r3, [pc, #316]	; (8009058 <xTaskIncrementTick+0x168>)
 8008f1a:	681b      	ldr	r3, [r3, #0]
 8008f1c:	681b      	ldr	r3, [r3, #0]
 8008f1e:	2b00      	cmp	r3, #0
 8008f20:	d009      	beq.n	8008f36 <xTaskIncrementTick+0x46>
 8008f22:	f04f 0350 	mov.w	r3, #80	; 0x50
 8008f26:	f383 8811 	msr	BASEPRI, r3
 8008f2a:	f3bf 8f6f 	isb	sy
 8008f2e:	f3bf 8f4f 	dsb	sy
 8008f32:	603b      	str	r3, [r7, #0]
 8008f34:	e7fe      	b.n	8008f34 <xTaskIncrementTick+0x44>
 8008f36:	4b48      	ldr	r3, [pc, #288]	; (8009058 <xTaskIncrementTick+0x168>)
 8008f38:	681b      	ldr	r3, [r3, #0]
 8008f3a:	60fb      	str	r3, [r7, #12]
 8008f3c:	4b47      	ldr	r3, [pc, #284]	; (800905c <xTaskIncrementTick+0x16c>)
 8008f3e:	681b      	ldr	r3, [r3, #0]
 8008f40:	4a45      	ldr	r2, [pc, #276]	; (8009058 <xTaskIncrementTick+0x168>)
 8008f42:	6013      	str	r3, [r2, #0]
 8008f44:	4a45      	ldr	r2, [pc, #276]	; (800905c <xTaskIncrementTick+0x16c>)
 8008f46:	68fb      	ldr	r3, [r7, #12]
 8008f48:	6013      	str	r3, [r2, #0]
 8008f4a:	4b45      	ldr	r3, [pc, #276]	; (8009060 <xTaskIncrementTick+0x170>)
 8008f4c:	681b      	ldr	r3, [r3, #0]
 8008f4e:	3301      	adds	r3, #1
 8008f50:	4a43      	ldr	r2, [pc, #268]	; (8009060 <xTaskIncrementTick+0x170>)
 8008f52:	6013      	str	r3, [r2, #0]
 8008f54:	f000 fb7e 	bl	8009654 <prvResetNextTaskUnblockTime>
 8008f58:	4b42      	ldr	r3, [pc, #264]	; (8009064 <xTaskIncrementTick+0x174>)
 8008f5a:	681b      	ldr	r3, [r3, #0]
 8008f5c:	693a      	ldr	r2, [r7, #16]
 8008f5e:	429a      	cmp	r2, r3
 8008f60:	d34e      	bcc.n	8009000 <xTaskIncrementTick+0x110>
 8008f62:	4b3d      	ldr	r3, [pc, #244]	; (8009058 <xTaskIncrementTick+0x168>)
 8008f64:	681b      	ldr	r3, [r3, #0]
 8008f66:	681b      	ldr	r3, [r3, #0]
 8008f68:	2b00      	cmp	r3, #0
 8008f6a:	d101      	bne.n	8008f70 <xTaskIncrementTick+0x80>
 8008f6c:	2301      	movs	r3, #1
 8008f6e:	e000      	b.n	8008f72 <xTaskIncrementTick+0x82>
 8008f70:	2300      	movs	r3, #0
 8008f72:	2b00      	cmp	r3, #0
 8008f74:	d004      	beq.n	8008f80 <xTaskIncrementTick+0x90>
 8008f76:	4b3b      	ldr	r3, [pc, #236]	; (8009064 <xTaskIncrementTick+0x174>)
 8008f78:	f04f 32ff 	mov.w	r2, #4294967295
 8008f7c:	601a      	str	r2, [r3, #0]
 8008f7e:	e03f      	b.n	8009000 <xTaskIncrementTick+0x110>
 8008f80:	4b35      	ldr	r3, [pc, #212]	; (8009058 <xTaskIncrementTick+0x168>)
 8008f82:	681b      	ldr	r3, [r3, #0]
 8008f84:	68db      	ldr	r3, [r3, #12]
 8008f86:	68db      	ldr	r3, [r3, #12]
 8008f88:	60bb      	str	r3, [r7, #8]
 8008f8a:	68bb      	ldr	r3, [r7, #8]
 8008f8c:	685b      	ldr	r3, [r3, #4]
 8008f8e:	607b      	str	r3, [r7, #4]
 8008f90:	693a      	ldr	r2, [r7, #16]
 8008f92:	687b      	ldr	r3, [r7, #4]
 8008f94:	429a      	cmp	r2, r3
 8008f96:	d203      	bcs.n	8008fa0 <xTaskIncrementTick+0xb0>
 8008f98:	4a32      	ldr	r2, [pc, #200]	; (8009064 <xTaskIncrementTick+0x174>)
 8008f9a:	687b      	ldr	r3, [r7, #4]
 8008f9c:	6013      	str	r3, [r2, #0]
 8008f9e:	e02f      	b.n	8009000 <xTaskIncrementTick+0x110>
 8008fa0:	68bb      	ldr	r3, [r7, #8]
 8008fa2:	3304      	adds	r3, #4
 8008fa4:	4618      	mov	r0, r3
 8008fa6:	f7fe fe67 	bl	8007c78 <uxListRemove>
 8008faa:	68bb      	ldr	r3, [r7, #8]
 8008fac:	6a9b      	ldr	r3, [r3, #40]	; 0x28
 8008fae:	2b00      	cmp	r3, #0
 8008fb0:	d004      	beq.n	8008fbc <xTaskIncrementTick+0xcc>
 8008fb2:	68bb      	ldr	r3, [r7, #8]
 8008fb4:	3318      	adds	r3, #24
 8008fb6:	4618      	mov	r0, r3
 8008fb8:	f7fe fe5e 	bl	8007c78 <uxListRemove>
 8008fbc:	68bb      	ldr	r3, [r7, #8]
 8008fbe:	6ada      	ldr	r2, [r3, #44]	; 0x2c
 8008fc0:	4b29      	ldr	r3, [pc, #164]	; (8009068 <xTaskIncrementTick+0x178>)
 8008fc2:	681b      	ldr	r3, [r3, #0]
 8008fc4:	429a      	cmp	r2, r3
 8008fc6:	d903      	bls.n	8008fd0 <xTaskIncrementTick+0xe0>
 8008fc8:	68bb      	ldr	r3, [r7, #8]
 8008fca:	6adb      	ldr	r3, [r3, #44]	; 0x2c
 8008fcc:	4a26      	ldr	r2, [pc, #152]	; (8009068 <xTaskIncrementTick+0x178>)
 8008fce:	6013      	str	r3, [r2, #0]
 8008fd0:	68bb      	ldr	r3, [r7, #8]
 8008fd2:	6ada      	ldr	r2, [r3, #44]	; 0x2c
 8008fd4:	4613      	mov	r3, r2
 8008fd6:	009b      	lsls	r3, r3, #2
 8008fd8:	4413      	add	r3, r2
 8008fda:	009b      	lsls	r3, r3, #2
 8008fdc:	4a23      	ldr	r2, [pc, #140]	; (800906c <xTaskIncrementTick+0x17c>)
 8008fde:	441a      	add	r2, r3
 8008fe0:	68bb      	ldr	r3, [r7, #8]
 8008fe2:	3304      	adds	r3, #4
 8008fe4:	4619      	mov	r1, r3
 8008fe6:	4610      	mov	r0, r2
 8008fe8:	f7fe fdeb 	bl	8007bc2 <vListInsertEnd>
 8008fec:	68bb      	ldr	r3, [r7, #8]
 8008fee:	6ada      	ldr	r2, [r3, #44]	; 0x2c
 8008ff0:	4b1f      	ldr	r3, [pc, #124]	; (8009070 <xTaskIncrementTick+0x180>)
 8008ff2:	681b      	ldr	r3, [r3, #0]
 8008ff4:	6adb      	ldr	r3, [r3, #44]	; 0x2c
 8008ff6:	429a      	cmp	r2, r3
 8008ff8:	d3b3      	bcc.n	8008f62 <xTaskIncrementTick+0x72>
 8008ffa:	2301      	movs	r3, #1
 8008ffc:	617b      	str	r3, [r7, #20]
 8008ffe:	e7b0      	b.n	8008f62 <xTaskIncrementTick+0x72>
 8009000:	4b1b      	ldr	r3, [pc, #108]	; (8009070 <xTaskIncrementTick+0x180>)
 8009002:	681b      	ldr	r3, [r3, #0]
 8009004:	6ada      	ldr	r2, [r3, #44]	; 0x2c
 8009006:	4919      	ldr	r1, [pc, #100]	; (800906c <xTaskIncrementTick+0x17c>)
 8009008:	4613      	mov	r3, r2
 800900a:	009b      	lsls	r3, r3, #2
 800900c:	4413      	add	r3, r2
 800900e:	009b      	lsls	r3, r3, #2
 8009010:	440b      	add	r3, r1
 8009012:	681b      	ldr	r3, [r3, #0]
 8009014:	2b01      	cmp	r3, #1
 8009016:	d901      	bls.n	800901c <xTaskIncrementTick+0x12c>
 8009018:	2301      	movs	r3, #1
 800901a:	617b      	str	r3, [r7, #20]
 800901c:	4b15      	ldr	r3, [pc, #84]	; (8009074 <xTaskIncrementTick+0x184>)
 800901e:	681b      	ldr	r3, [r3, #0]
 8009020:	2b00      	cmp	r3, #0
 8009022:	d109      	bne.n	8009038 <xTaskIncrementTick+0x148>
 8009024:	f7f7 ff5a 	bl	8000edc <vApplicationTickHook>
 8009028:	e006      	b.n	8009038 <xTaskIncrementTick+0x148>
 800902a:	4b12      	ldr	r3, [pc, #72]	; (8009074 <xTaskIncrementTick+0x184>)
 800902c:	681b      	ldr	r3, [r3, #0]
 800902e:	3301      	adds	r3, #1
 8009030:	4a10      	ldr	r2, [pc, #64]	; (8009074 <xTaskIncrementTick+0x184>)
 8009032:	6013      	str	r3, [r2, #0]
 8009034:	f7f7 ff52 	bl	8000edc <vApplicationTickHook>
 8009038:	4b0f      	ldr	r3, [pc, #60]	; (8009078 <xTaskIncrementTick+0x188>)
 800903a:	681b      	ldr	r3, [r3, #0]
 800903c:	2b00      	cmp	r3, #0
 800903e:	d001      	beq.n	8009044 <xTaskIncrementTick+0x154>
 8009040:	2301      	movs	r3, #1
 8009042:	617b      	str	r3, [r7, #20]
 8009044:	697b      	ldr	r3, [r7, #20]
 8009046:	4618      	mov	r0, r3
 8009048:	3718      	adds	r7, #24
 800904a:	46bd      	mov	sp, r7
 800904c:	bd80      	pop	{r7, pc}
 800904e:	bf00      	nop
 8009050:	20000be4 	.word	0x20000be4
 8009054:	20000bc0 	.word	0x20000bc0
 8009058:	20000b74 	.word	0x20000b74
 800905c:	20000b78 	.word	0x20000b78
 8009060:	20000bd4 	.word	0x20000bd4
 8009064:	20000bdc 	.word	0x20000bdc
 8009068:	20000bc4 	.word	0x20000bc4
 800906c:	200006ec 	.word	0x200006ec
 8009070:	200006e8 	.word	0x200006e8
 8009074:	20000bcc 	.word	0x20000bcc
 8009078:	20000bd0 	.word	0x20000bd0

0800907c <vTaskSwitchContext>:
 800907c:	b580      	push	{r7, lr}
 800907e:	b084      	sub	sp, #16
 8009080:	af00      	add	r7, sp, #0
 8009082:	4b2f      	ldr	r3, [pc, #188]	; (8009140 <vTaskSwitchContext+0xc4>)
 8009084:	681b      	ldr	r3, [r3, #0]
 8009086:	2b00      	cmp	r3, #0
 8009088:	d003      	beq.n	8009092 <vTaskSwitchContext+0x16>
 800908a:	4b2e      	ldr	r3, [pc, #184]	; (8009144 <vTaskSwitchContext+0xc8>)
 800908c:	2201      	movs	r2, #1
 800908e:	601a      	str	r2, [r3, #0]
 8009090:	e051      	b.n	8009136 <vTaskSwitchContext+0xba>
 8009092:	4b2c      	ldr	r3, [pc, #176]	; (8009144 <vTaskSwitchContext+0xc8>)
 8009094:	2200      	movs	r2, #0
 8009096:	601a      	str	r2, [r3, #0]
 8009098:	4b2b      	ldr	r3, [pc, #172]	; (8009148 <vTaskSwitchContext+0xcc>)
 800909a:	681b      	ldr	r3, [r3, #0]
 800909c:	681a      	ldr	r2, [r3, #0]
 800909e:	4b2a      	ldr	r3, [pc, #168]	; (8009148 <vTaskSwitchContext+0xcc>)
 80090a0:	681b      	ldr	r3, [r3, #0]
 80090a2:	6b1b      	ldr	r3, [r3, #48]	; 0x30
 80090a4:	429a      	cmp	r2, r3
 80090a6:	d808      	bhi.n	80090ba <vTaskSwitchContext+0x3e>
 80090a8:	4b27      	ldr	r3, [pc, #156]	; (8009148 <vTaskSwitchContext+0xcc>)
 80090aa:	681a      	ldr	r2, [r3, #0]
 80090ac:	4b26      	ldr	r3, [pc, #152]	; (8009148 <vTaskSwitchContext+0xcc>)
 80090ae:	681b      	ldr	r3, [r3, #0]
 80090b0:	3334      	adds	r3, #52	; 0x34
 80090b2:	4619      	mov	r1, r3
 80090b4:	4610      	mov	r0, r2
 80090b6:	f7f7 ff17 	bl	8000ee8 <vApplicationStackOverflowHook>
 80090ba:	4b24      	ldr	r3, [pc, #144]	; (800914c <vTaskSwitchContext+0xd0>)
 80090bc:	681b      	ldr	r3, [r3, #0]
 80090be:	60fb      	str	r3, [r7, #12]
 80090c0:	e00f      	b.n	80090e2 <vTaskSwitchContext+0x66>
 80090c2:	68fb      	ldr	r3, [r7, #12]
 80090c4:	2b00      	cmp	r3, #0
 80090c6:	d109      	bne.n	80090dc <vTaskSwitchContext+0x60>
 80090c8:	f04f 0350 	mov.w	r3, #80	; 0x50
 80090cc:	f383 8811 	msr	BASEPRI, r3
 80090d0:	f3bf 8f6f 	isb	sy
 80090d4:	f3bf 8f4f 	dsb	sy
 80090d8:	607b      	str	r3, [r7, #4]
 80090da:	e7fe      	b.n	80090da <vTaskSwitchContext+0x5e>
 80090dc:	68fb      	ldr	r3, [r7, #12]
 80090de:	3b01      	subs	r3, #1
 80090e0:	60fb      	str	r3, [r7, #12]
 80090e2:	491b      	ldr	r1, [pc, #108]	; (8009150 <vTaskSwitchContext+0xd4>)
 80090e4:	68fa      	ldr	r2, [r7, #12]
 80090e6:	4613      	mov	r3, r2
 80090e8:	009b      	lsls	r3, r3, #2
 80090ea:	4413      	add	r3, r2
 80090ec:	009b      	lsls	r3, r3, #2
 80090ee:	440b      	add	r3, r1
 80090f0:	681b      	ldr	r3, [r3, #0]
 80090f2:	2b00      	cmp	r3, #0
 80090f4:	d0e5      	beq.n	80090c2 <vTaskSwitchContext+0x46>
 80090f6:	68fa      	ldr	r2, [r7, #12]
 80090f8:	4613      	mov	r3, r2
 80090fa:	009b      	lsls	r3, r3, #2
 80090fc:	4413      	add	r3, r2
 80090fe:	009b      	lsls	r3, r3, #2
 8009100:	4a13      	ldr	r2, [pc, #76]	; (8009150 <vTaskSwitchContext+0xd4>)
 8009102:	4413      	add	r3, r2
 8009104:	60bb      	str	r3, [r7, #8]
 8009106:	68bb      	ldr	r3, [r7, #8]
 8009108:	685b      	ldr	r3, [r3, #4]
 800910a:	685a      	ldr	r2, [r3, #4]
 800910c:	68bb      	ldr	r3, [r7, #8]
 800910e:	605a      	str	r2, [r3, #4]
 8009110:	68bb      	ldr	r3, [r7, #8]
 8009112:	685a      	ldr	r2, [r3, #4]
 8009114:	68bb      	ldr	r3, [r7, #8]
 8009116:	3308      	adds	r3, #8
 8009118:	429a      	cmp	r2, r3
 800911a:	d104      	bne.n	8009126 <vTaskSwitchContext+0xaa>
 800911c:	68bb      	ldr	r3, [r7, #8]
 800911e:	685b      	ldr	r3, [r3, #4]
 8009120:	685a      	ldr	r2, [r3, #4]
 8009122:	68bb      	ldr	r3, [r7, #8]
 8009124:	605a      	str	r2, [r3, #4]
 8009126:	68bb      	ldr	r3, [r7, #8]
 8009128:	685b      	ldr	r3, [r3, #4]
 800912a:	68db      	ldr	r3, [r3, #12]
 800912c:	4a06      	ldr	r2, [pc, #24]	; (8009148 <vTaskSwitchContext+0xcc>)
 800912e:	6013      	str	r3, [r2, #0]
 8009130:	4a06      	ldr	r2, [pc, #24]	; (800914c <vTaskSwitchContext+0xd0>)
 8009132:	68fb      	ldr	r3, [r7, #12]
 8009134:	6013      	str	r3, [r2, #0]
 8009136:	bf00      	nop
 8009138:	3710      	adds	r7, #16
 800913a:	46bd      	mov	sp, r7
 800913c:	bd80      	pop	{r7, pc}
 800913e:	bf00      	nop
 8009140:	20000be4 	.word	0x20000be4
 8009144:	20000bd0 	.word	0x20000bd0
 8009148:	200006e8 	.word	0x200006e8
 800914c:	20000bc4 	.word	0x20000bc4
 8009150:	200006ec 	.word	0x200006ec

08009154 <vTaskPlaceOnEventList>:
 8009154:	b580      	push	{r7, lr}
 8009156:	b084      	sub	sp, #16
 8009158:	af00      	add	r7, sp, #0
 800915a:	6078      	str	r0, [r7, #4]
 800915c:	6039      	str	r1, [r7, #0]
 800915e:	687b      	ldr	r3, [r7, #4]
 8009160:	2b00      	cmp	r3, #0
 8009162:	d109      	bne.n	8009178 <vTaskPlaceOnEventList+0x24>
 8009164:	f04f 0350 	mov.w	r3, #80	; 0x50
 8009168:	f383 8811 	msr	BASEPRI, r3
 800916c:	f3bf 8f6f 	isb	sy
 8009170:	f3bf 8f4f 	dsb	sy
 8009174:	60fb      	str	r3, [r7, #12]
 8009176:	e7fe      	b.n	8009176 <vTaskPlaceOnEventList+0x22>
 8009178:	4b07      	ldr	r3, [pc, #28]	; (8009198 <vTaskPlaceOnEventList+0x44>)
 800917a:	681b      	ldr	r3, [r3, #0]
 800917c:	3318      	adds	r3, #24
 800917e:	4619      	mov	r1, r3
 8009180:	6878      	ldr	r0, [r7, #4]
 8009182:	f7fe fd41 	bl	8007c08 <vListInsert>
 8009186:	2101      	movs	r1, #1
 8009188:	6838      	ldr	r0, [r7, #0]
 800918a:	f000 fb29 	bl	80097e0 <prvAddCurrentTaskToDelayedList>
 800918e:	bf00      	nop
 8009190:	3710      	adds	r7, #16
 8009192:	46bd      	mov	sp, r7
 8009194:	bd80      	pop	{r7, pc}
 8009196:	bf00      	nop
 8009198:	200006e8 	.word	0x200006e8

0800919c <vTaskPlaceOnUnorderedEventList>:
 800919c:	b580      	push	{r7, lr}
 800919e:	b086      	sub	sp, #24
 80091a0:	af00      	add	r7, sp, #0
 80091a2:	60f8      	str	r0, [r7, #12]
 80091a4:	60b9      	str	r1, [r7, #8]
 80091a6:	607a      	str	r2, [r7, #4]
 80091a8:	68fb      	ldr	r3, [r7, #12]
 80091aa:	2b00      	cmp	r3, #0
 80091ac:	d109      	bne.n	80091c2 <vTaskPlaceOnUnorderedEventList+0x26>
 80091ae:	f04f 0350 	mov.w	r3, #80	; 0x50
 80091b2:	f383 8811 	msr	BASEPRI, r3
 80091b6:	f3bf 8f6f 	isb	sy
 80091ba:	f3bf 8f4f 	dsb	sy
 80091be:	617b      	str	r3, [r7, #20]
 80091c0:	e7fe      	b.n	80091c0 <vTaskPlaceOnUnorderedEventList+0x24>
 80091c2:	4b11      	ldr	r3, [pc, #68]	; (8009208 <vTaskPlaceOnUnorderedEventList+0x6c>)
 80091c4:	681b      	ldr	r3, [r3, #0]
 80091c6:	2b00      	cmp	r3, #0
 80091c8:	d109      	bne.n	80091de <vTaskPlaceOnUnorderedEventList+0x42>
 80091ca:	f04f 0350 	mov.w	r3, #80	; 0x50
 80091ce:	f383 8811 	msr	BASEPRI, r3
 80091d2:	f3bf 8f6f 	isb	sy
 80091d6:	f3bf 8f4f 	dsb	sy
 80091da:	613b      	str	r3, [r7, #16]
 80091dc:	e7fe      	b.n	80091dc <vTaskPlaceOnUnorderedEventList+0x40>
 80091de:	4b0b      	ldr	r3, [pc, #44]	; (800920c <vTaskPlaceOnUnorderedEventList+0x70>)
 80091e0:	681b      	ldr	r3, [r3, #0]
 80091e2:	68ba      	ldr	r2, [r7, #8]
 80091e4:	f042 4200 	orr.w	r2, r2, #2147483648	; 0x80000000
 80091e8:	619a      	str	r2, [r3, #24]
 80091ea:	4b08      	ldr	r3, [pc, #32]	; (800920c <vTaskPlaceOnUnorderedEventList+0x70>)
 80091ec:	681b      	ldr	r3, [r3, #0]
 80091ee:	3318      	adds	r3, #24
 80091f0:	4619      	mov	r1, r3
 80091f2:	68f8      	ldr	r0, [r7, #12]
 80091f4:	f7fe fce5 	bl	8007bc2 <vListInsertEnd>
 80091f8:	2101      	movs	r1, #1
 80091fa:	6878      	ldr	r0, [r7, #4]
 80091fc:	f000 faf0 	bl	80097e0 <prvAddCurrentTaskToDelayedList>
 8009200:	bf00      	nop
 8009202:	3718      	adds	r7, #24
 8009204:	46bd      	mov	sp, r7
 8009206:	bd80      	pop	{r7, pc}
 8009208:	20000be4 	.word	0x20000be4
 800920c:	200006e8 	.word	0x200006e8

08009210 <vTaskPlaceOnEventListRestricted>:
 8009210:	b580      	push	{r7, lr}
 8009212:	b086      	sub	sp, #24
 8009214:	af00      	add	r7, sp, #0
 8009216:	60f8      	str	r0, [r7, #12]
 8009218:	60b9      	str	r1, [r7, #8]
 800921a:	607a      	str	r2, [r7, #4]
 800921c:	68fb      	ldr	r3, [r7, #12]
 800921e:	2b00      	cmp	r3, #0
 8009220:	d109      	bne.n	8009236 <vTaskPlaceOnEventListRestricted+0x26>
 8009222:	f04f 0350 	mov.w	r3, #80	; 0x50
 8009226:	f383 8811 	msr	BASEPRI, r3
 800922a:	f3bf 8f6f 	isb	sy
 800922e:	f3bf 8f4f 	dsb	sy
 8009232:	617b      	str	r3, [r7, #20]
 8009234:	e7fe      	b.n	8009234 <vTaskPlaceOnEventListRestricted+0x24>
 8009236:	4b0a      	ldr	r3, [pc, #40]	; (8009260 <vTaskPlaceOnEventListRestricted+0x50>)
 8009238:	681b      	ldr	r3, [r3, #0]
 800923a:	3318      	adds	r3, #24
 800923c:	4619      	mov	r1, r3
 800923e:	68f8      	ldr	r0, [r7, #12]
 8009240:	f7fe fcbf 	bl	8007bc2 <vListInsertEnd>
 8009244:	687b      	ldr	r3, [r7, #4]
 8009246:	2b00      	cmp	r3, #0
 8009248:	d002      	beq.n	8009250 <vTaskPlaceOnEventListRestricted+0x40>
 800924a:	f04f 33ff 	mov.w	r3, #4294967295
 800924e:	60bb      	str	r3, [r7, #8]
 8009250:	6879      	ldr	r1, [r7, #4]
 8009252:	68b8      	ldr	r0, [r7, #8]
 8009254:	f000 fac4 	bl	80097e0 <prvAddCurrentTaskToDelayedList>
 8009258:	bf00      	nop
 800925a:	3718      	adds	r7, #24
 800925c:	46bd      	mov	sp, r7
 800925e:	bd80      	pop	{r7, pc}
 8009260:	200006e8 	.word	0x200006e8

08009264 <xTaskRemoveFromEventList>:
 8009264:	b580      	push	{r7, lr}
 8009266:	b086      	sub	sp, #24
 8009268:	af00      	add	r7, sp, #0
 800926a:	6078      	str	r0, [r7, #4]
 800926c:	687b      	ldr	r3, [r7, #4]
 800926e:	68db      	ldr	r3, [r3, #12]
 8009270:	68db      	ldr	r3, [r3, #12]
 8009272:	613b      	str	r3, [r7, #16]
 8009274:	693b      	ldr	r3, [r7, #16]
 8009276:	2b00      	cmp	r3, #0
 8009278:	d109      	bne.n	800928e <xTaskRemoveFromEventList+0x2a>
 800927a:	f04f 0350 	mov.w	r3, #80	; 0x50
 800927e:	f383 8811 	msr	BASEPRI, r3
 8009282:	f3bf 8f6f 	isb	sy
 8009286:	f3bf 8f4f 	dsb	sy
 800928a:	60fb      	str	r3, [r7, #12]
 800928c:	e7fe      	b.n	800928c <xTaskRemoveFromEventList+0x28>
 800928e:	693b      	ldr	r3, [r7, #16]
 8009290:	3318      	adds	r3, #24
 8009292:	4618      	mov	r0, r3
 8009294:	f7fe fcf0 	bl	8007c78 <uxListRemove>
 8009298:	4b1d      	ldr	r3, [pc, #116]	; (8009310 <xTaskRemoveFromEventList+0xac>)
 800929a:	681b      	ldr	r3, [r3, #0]
 800929c:	2b00      	cmp	r3, #0
 800929e:	d11d      	bne.n	80092dc <xTaskRemoveFromEventList+0x78>
 80092a0:	693b      	ldr	r3, [r7, #16]
 80092a2:	3304      	adds	r3, #4
 80092a4:	4618      	mov	r0, r3
 80092a6:	f7fe fce7 	bl	8007c78 <uxListRemove>
 80092aa:	693b      	ldr	r3, [r7, #16]
 80092ac:	6ada      	ldr	r2, [r3, #44]	; 0x2c
 80092ae:	4b19      	ldr	r3, [pc, #100]	; (8009314 <xTaskRemoveFromEventList+0xb0>)
 80092b0:	681b      	ldr	r3, [r3, #0]
 80092b2:	429a      	cmp	r2, r3
 80092b4:	d903      	bls.n	80092be <xTaskRemoveFromEventList+0x5a>
 80092b6:	693b      	ldr	r3, [r7, #16]
 80092b8:	6adb      	ldr	r3, [r3, #44]	; 0x2c
 80092ba:	4a16      	ldr	r2, [pc, #88]	; (8009314 <xTaskRemoveFromEventList+0xb0>)
 80092bc:	6013      	str	r3, [r2, #0]
 80092be:	693b      	ldr	r3, [r7, #16]
 80092c0:	6ada      	ldr	r2, [r3, #44]	; 0x2c
 80092c2:	4613      	mov	r3, r2
 80092c4:	009b      	lsls	r3, r3, #2
 80092c6:	4413      	add	r3, r2
 80092c8:	009b      	lsls	r3, r3, #2
 80092ca:	4a13      	ldr	r2, [pc, #76]	; (8009318 <xTaskRemoveFromEventList+0xb4>)
 80092cc:	441a      	add	r2, r3
 80092ce:	693b      	ldr	r3, [r7, #16]
 80092d0:	3304      	adds	r3, #4
 80092d2:	4619      	mov	r1, r3
 80092d4:	4610      	mov	r0, r2
 80092d6:	f7fe fc74 	bl	8007bc2 <vListInsertEnd>
 80092da:	e005      	b.n	80092e8 <xTaskRemoveFromEventList+0x84>
 80092dc:	693b      	ldr	r3, [r7, #16]
 80092de:	3318      	adds	r3, #24
 80092e0:	4619      	mov	r1, r3
 80092e2:	480e      	ldr	r0, [pc, #56]	; (800931c <xTaskRemoveFromEventList+0xb8>)
 80092e4:	f7fe fc6d 	bl	8007bc2 <vListInsertEnd>
 80092e8:	693b      	ldr	r3, [r7, #16]
 80092ea:	6ada      	ldr	r2, [r3, #44]	; 0x2c
 80092ec:	4b0c      	ldr	r3, [pc, #48]	; (8009320 <xTaskRemoveFromEventList+0xbc>)
 80092ee:	681b      	ldr	r3, [r3, #0]
 80092f0:	6adb      	ldr	r3, [r3, #44]	; 0x2c
 80092f2:	429a      	cmp	r2, r3
 80092f4:	d905      	bls.n	8009302 <xTaskRemoveFromEventList+0x9e>
 80092f6:	2301      	movs	r3, #1
 80092f8:	617b      	str	r3, [r7, #20]
 80092fa:	4b0a      	ldr	r3, [pc, #40]	; (8009324 <xTaskRemoveFromEventList+0xc0>)
 80092fc:	2201      	movs	r2, #1
 80092fe:	601a      	str	r2, [r3, #0]
 8009300:	e001      	b.n	8009306 <xTaskRemoveFromEventList+0xa2>
 8009302:	2300      	movs	r3, #0
 8009304:	617b      	str	r3, [r7, #20]
 8009306:	697b      	ldr	r3, [r7, #20]
 8009308:	4618      	mov	r0, r3
 800930a:	3718      	adds	r7, #24
 800930c:	46bd      	mov	sp, r7
 800930e:	bd80      	pop	{r7, pc}
 8009310:	20000be4 	.word	0x20000be4
 8009314:	20000bc4 	.word	0x20000bc4
 8009318:	200006ec 	.word	0x200006ec
 800931c:	20000b7c 	.word	0x20000b7c
 8009320:	200006e8 	.word	0x200006e8
 8009324:	20000bd0 	.word	0x20000bd0

08009328 <vTaskRemoveFromUnorderedEventList>:
 8009328:	b580      	push	{r7, lr}
 800932a:	b086      	sub	sp, #24
 800932c:	af00      	add	r7, sp, #0
 800932e:	6078      	str	r0, [r7, #4]
 8009330:	6039      	str	r1, [r7, #0]
 8009332:	4b28      	ldr	r3, [pc, #160]	; (80093d4 <vTaskRemoveFromUnorderedEventList+0xac>)
 8009334:	681b      	ldr	r3, [r3, #0]
 8009336:	2b00      	cmp	r3, #0
 8009338:	d109      	bne.n	800934e <vTaskRemoveFromUnorderedEventList+0x26>
 800933a:	f04f 0350 	mov.w	r3, #80	; 0x50
 800933e:	f383 8811 	msr	BASEPRI, r3
 8009342:	f3bf 8f6f 	isb	sy
 8009346:	f3bf 8f4f 	dsb	sy
 800934a:	613b      	str	r3, [r7, #16]
 800934c:	e7fe      	b.n	800934c <vTaskRemoveFromUnorderedEventList+0x24>
 800934e:	683b      	ldr	r3, [r7, #0]
 8009350:	f043 4200 	orr.w	r2, r3, #2147483648	; 0x80000000
 8009354:	687b      	ldr	r3, [r7, #4]
 8009356:	601a      	str	r2, [r3, #0]
 8009358:	687b      	ldr	r3, [r7, #4]
 800935a:	68db      	ldr	r3, [r3, #12]
 800935c:	617b      	str	r3, [r7, #20]
 800935e:	697b      	ldr	r3, [r7, #20]
 8009360:	2b00      	cmp	r3, #0
 8009362:	d109      	bne.n	8009378 <vTaskRemoveFromUnorderedEventList+0x50>
 8009364:	f04f 0350 	mov.w	r3, #80	; 0x50
 8009368:	f383 8811 	msr	BASEPRI, r3
 800936c:	f3bf 8f6f 	isb	sy
 8009370:	f3bf 8f4f 	dsb	sy
 8009374:	60fb      	str	r3, [r7, #12]
 8009376:	e7fe      	b.n	8009376 <vTaskRemoveFromUnorderedEventList+0x4e>
 8009378:	6878      	ldr	r0, [r7, #4]
 800937a:	f7fe fc7d 	bl	8007c78 <uxListRemove>
 800937e:	697b      	ldr	r3, [r7, #20]
 8009380:	3304      	adds	r3, #4
 8009382:	4618      	mov	r0, r3
 8009384:	f7fe fc78 	bl	8007c78 <uxListRemove>
 8009388:	697b      	ldr	r3, [r7, #20]
 800938a:	6ada      	ldr	r2, [r3, #44]	; 0x2c
 800938c:	4b12      	ldr	r3, [pc, #72]	; (80093d8 <vTaskRemoveFromUnorderedEventList+0xb0>)
 800938e:	681b      	ldr	r3, [r3, #0]
 8009390:	429a      	cmp	r2, r3
 8009392:	d903      	bls.n	800939c <vTaskRemoveFromUnorderedEventList+0x74>
 8009394:	697b      	ldr	r3, [r7, #20]
 8009396:	6adb      	ldr	r3, [r3, #44]	; 0x2c
 8009398:	4a0f      	ldr	r2, [pc, #60]	; (80093d8 <vTaskRemoveFromUnorderedEventList+0xb0>)
 800939a:	6013      	str	r3, [r2, #0]
 800939c:	697b      	ldr	r3, [r7, #20]
 800939e:	6ada      	ldr	r2, [r3, #44]	; 0x2c
 80093a0:	4613      	mov	r3, r2
 80093a2:	009b      	lsls	r3, r3, #2
 80093a4:	4413      	add	r3, r2
 80093a6:	009b      	lsls	r3, r3, #2
 80093a8:	4a0c      	ldr	r2, [pc, #48]	; (80093dc <vTaskRemoveFromUnorderedEventList+0xb4>)
 80093aa:	441a      	add	r2, r3
 80093ac:	697b      	ldr	r3, [r7, #20]
 80093ae:	3304      	adds	r3, #4
 80093b0:	4619      	mov	r1, r3
 80093b2:	4610      	mov	r0, r2
 80093b4:	f7fe fc05 	bl	8007bc2 <vListInsertEnd>
 80093b8:	697b      	ldr	r3, [r7, #20]
 80093ba:	6ada      	ldr	r2, [r3, #44]	; 0x2c
 80093bc:	4b08      	ldr	r3, [pc, #32]	; (80093e0 <vTaskRemoveFromUnorderedEventList+0xb8>)
 80093be:	681b      	ldr	r3, [r3, #0]
 80093c0:	6adb      	ldr	r3, [r3, #44]	; 0x2c
 80093c2:	429a      	cmp	r2, r3
 80093c4:	d902      	bls.n	80093cc <vTaskRemoveFromUnorderedEventList+0xa4>
 80093c6:	4b07      	ldr	r3, [pc, #28]	; (80093e4 <vTaskRemoveFromUnorderedEventList+0xbc>)
 80093c8:	2201      	movs	r2, #1
 80093ca:	601a      	str	r2, [r3, #0]
 80093cc:	bf00      	nop
 80093ce:	3718      	adds	r7, #24
 80093d0:	46bd      	mov	sp, r7
 80093d2:	bd80      	pop	{r7, pc}
 80093d4:	20000be4 	.word	0x20000be4
 80093d8:	20000bc4 	.word	0x20000bc4
 80093dc:	200006ec 	.word	0x200006ec
 80093e0:	200006e8 	.word	0x200006e8
 80093e4:	20000bd0 	.word	0x20000bd0

080093e8 <vTaskInternalSetTimeOutState>:
 80093e8:	b480      	push	{r7}
 80093ea:	b083      	sub	sp, #12
 80093ec:	af00      	add	r7, sp, #0
 80093ee:	6078      	str	r0, [r7, #4]
 80093f0:	4b06      	ldr	r3, [pc, #24]	; (800940c <vTaskInternalSetTimeOutState+0x24>)
 80093f2:	681a      	ldr	r2, [r3, #0]
 80093f4:	687b      	ldr	r3, [r7, #4]
 80093f6:	601a      	str	r2, [r3, #0]
 80093f8:	4b05      	ldr	r3, [pc, #20]	; (8009410 <vTaskInternalSetTimeOutState+0x28>)
 80093fa:	681a      	ldr	r2, [r3, #0]
 80093fc:	687b      	ldr	r3, [r7, #4]
 80093fe:	605a      	str	r2, [r3, #4]
 8009400:	bf00      	nop
 8009402:	370c      	adds	r7, #12
 8009404:	46bd      	mov	sp, r7
 8009406:	bc80      	pop	{r7}
 8009408:	4770      	bx	lr
 800940a:	bf00      	nop
 800940c:	20000bd4 	.word	0x20000bd4
 8009410:	20000bc0 	.word	0x20000bc0

08009414 <xTaskCheckForTimeOut>:
 8009414:	b580      	push	{r7, lr}
 8009416:	b088      	sub	sp, #32
 8009418:	af00      	add	r7, sp, #0
 800941a:	6078      	str	r0, [r7, #4]
 800941c:	6039      	str	r1, [r7, #0]
 800941e:	687b      	ldr	r3, [r7, #4]
 8009420:	2b00      	cmp	r3, #0
 8009422:	d109      	bne.n	8009438 <xTaskCheckForTimeOut+0x24>
 8009424:	f04f 0350 	mov.w	r3, #80	; 0x50
 8009428:	f383 8811 	msr	BASEPRI, r3
 800942c:	f3bf 8f6f 	isb	sy
 8009430:	f3bf 8f4f 	dsb	sy
 8009434:	613b      	str	r3, [r7, #16]
 8009436:	e7fe      	b.n	8009436 <xTaskCheckForTimeOut+0x22>
 8009438:	683b      	ldr	r3, [r7, #0]
 800943a:	2b00      	cmp	r3, #0
 800943c:	d109      	bne.n	8009452 <xTaskCheckForTimeOut+0x3e>
 800943e:	f04f 0350 	mov.w	r3, #80	; 0x50
 8009442:	f383 8811 	msr	BASEPRI, r3
 8009446:	f3bf 8f6f 	isb	sy
 800944a:	f3bf 8f4f 	dsb	sy
 800944e:	60fb      	str	r3, [r7, #12]
 8009450:	e7fe      	b.n	8009450 <xTaskCheckForTimeOut+0x3c>
 8009452:	f000 fe81 	bl	800a158 <vPortEnterCritical>
 8009456:	4b1d      	ldr	r3, [pc, #116]	; (80094cc <xTaskCheckForTimeOut+0xb8>)
 8009458:	681b      	ldr	r3, [r3, #0]
 800945a:	61bb      	str	r3, [r7, #24]
 800945c:	687b      	ldr	r3, [r7, #4]
 800945e:	685b      	ldr	r3, [r3, #4]
 8009460:	69ba      	ldr	r2, [r7, #24]
 8009462:	1ad3      	subs	r3, r2, r3
 8009464:	617b      	str	r3, [r7, #20]
 8009466:	683b      	ldr	r3, [r7, #0]
 8009468:	681b      	ldr	r3, [r3, #0]
 800946a:	f1b3 3fff 	cmp.w	r3, #4294967295
 800946e:	d102      	bne.n	8009476 <xTaskCheckForTimeOut+0x62>
 8009470:	2300      	movs	r3, #0
 8009472:	61fb      	str	r3, [r7, #28]
 8009474:	e023      	b.n	80094be <xTaskCheckForTimeOut+0xaa>
 8009476:	687b      	ldr	r3, [r7, #4]
 8009478:	681a      	ldr	r2, [r3, #0]
 800947a:	4b15      	ldr	r3, [pc, #84]	; (80094d0 <xTaskCheckForTimeOut+0xbc>)
 800947c:	681b      	ldr	r3, [r3, #0]
 800947e:	429a      	cmp	r2, r3
 8009480:	d007      	beq.n	8009492 <xTaskCheckForTimeOut+0x7e>
 8009482:	687b      	ldr	r3, [r7, #4]
 8009484:	685b      	ldr	r3, [r3, #4]
 8009486:	69ba      	ldr	r2, [r7, #24]
 8009488:	429a      	cmp	r2, r3
 800948a:	d302      	bcc.n	8009492 <xTaskCheckForTimeOut+0x7e>
 800948c:	2301      	movs	r3, #1
 800948e:	61fb      	str	r3, [r7, #28]
 8009490:	e015      	b.n	80094be <xTaskCheckForTimeOut+0xaa>
 8009492:	683b      	ldr	r3, [r7, #0]
 8009494:	681b      	ldr	r3, [r3, #0]
 8009496:	697a      	ldr	r2, [r7, #20]
 8009498:	429a      	cmp	r2, r3
 800949a:	d20b      	bcs.n	80094b4 <xTaskCheckForTimeOut+0xa0>
 800949c:	683b      	ldr	r3, [r7, #0]
 800949e:	681a      	ldr	r2, [r3, #0]
 80094a0:	697b      	ldr	r3, [r7, #20]
 80094a2:	1ad2      	subs	r2, r2, r3
 80094a4:	683b      	ldr	r3, [r7, #0]
 80094a6:	601a      	str	r2, [r3, #0]
 80094a8:	6878      	ldr	r0, [r7, #4]
 80094aa:	f7ff ff9d 	bl	80093e8 <vTaskInternalSetTimeOutState>
 80094ae:	2300      	movs	r3, #0
 80094b0:	61fb      	str	r3, [r7, #28]
 80094b2:	e004      	b.n	80094be <xTaskCheckForTimeOut+0xaa>
 80094b4:	683b      	ldr	r3, [r7, #0]
 80094b6:	2200      	movs	r2, #0
 80094b8:	601a      	str	r2, [r3, #0]
 80094ba:	2301      	movs	r3, #1
 80094bc:	61fb      	str	r3, [r7, #28]
 80094be:	f000 fe79 	bl	800a1b4 <vPortExitCritical>
 80094c2:	69fb      	ldr	r3, [r7, #28]
 80094c4:	4618      	mov	r0, r3
 80094c6:	3720      	adds	r7, #32
 80094c8:	46bd      	mov	sp, r7
 80094ca:	bd80      	pop	{r7, pc}
 80094cc:	20000bc0 	.word	0x20000bc0
 80094d0:	20000bd4 	.word	0x20000bd4

080094d4 <vTaskMissedYield>:
 80094d4:	b480      	push	{r7}
 80094d6:	af00      	add	r7, sp, #0
 80094d8:	4b03      	ldr	r3, [pc, #12]	; (80094e8 <vTaskMissedYield+0x14>)
 80094da:	2201      	movs	r2, #1
 80094dc:	601a      	str	r2, [r3, #0]
 80094de:	bf00      	nop
 80094e0:	46bd      	mov	sp, r7
 80094e2:	bc80      	pop	{r7}
 80094e4:	4770      	bx	lr
 80094e6:	bf00      	nop
 80094e8:	20000bd0 	.word	0x20000bd0

080094ec <prvIdleTask>:
 80094ec:	b580      	push	{r7, lr}
 80094ee:	b082      	sub	sp, #8
 80094f0:	af00      	add	r7, sp, #0
 80094f2:	6078      	str	r0, [r7, #4]
 80094f4:	f000 f854 	bl	80095a0 <prvCheckTasksWaitingTermination>
 80094f8:	4b07      	ldr	r3, [pc, #28]	; (8009518 <prvIdleTask+0x2c>)
 80094fa:	681b      	ldr	r3, [r3, #0]
 80094fc:	2b01      	cmp	r3, #1
 80094fe:	d907      	bls.n	8009510 <prvIdleTask+0x24>
 8009500:	4b06      	ldr	r3, [pc, #24]	; (800951c <prvIdleTask+0x30>)
 8009502:	f04f 5280 	mov.w	r2, #268435456	; 0x10000000
 8009506:	601a      	str	r2, [r3, #0]
 8009508:	f3bf 8f4f 	dsb	sy
 800950c:	f3bf 8f6f 	isb	sy
 8009510:	f7f7 fcde 	bl	8000ed0 <vApplicationIdleHook>
 8009514:	e7ee      	b.n	80094f4 <prvIdleTask+0x8>
 8009516:	bf00      	nop
 8009518:	200006ec 	.word	0x200006ec
 800951c:	e000ed04 	.word	0xe000ed04

08009520 <prvInitialiseTaskLists>:
 8009520:	b580      	push	{r7, lr}
 8009522:	b082      	sub	sp, #8
 8009524:	af00      	add	r7, sp, #0
 8009526:	2300      	movs	r3, #0
 8009528:	607b      	str	r3, [r7, #4]
 800952a:	e00c      	b.n	8009546 <prvInitialiseTaskLists+0x26>
 800952c:	687a      	ldr	r2, [r7, #4]
 800952e:	4613      	mov	r3, r2
 8009530:	009b      	lsls	r3, r3, #2
 8009532:	4413      	add	r3, r2
 8009534:	009b      	lsls	r3, r3, #2
 8009536:	4a12      	ldr	r2, [pc, #72]	; (8009580 <prvInitialiseTaskLists+0x60>)
 8009538:	4413      	add	r3, r2
 800953a:	4618      	mov	r0, r3
 800953c:	f7fe fb16 	bl	8007b6c <vListInitialise>
 8009540:	687b      	ldr	r3, [r7, #4]
 8009542:	3301      	adds	r3, #1
 8009544:	607b      	str	r3, [r7, #4]
 8009546:	687b      	ldr	r3, [r7, #4]
 8009548:	2b37      	cmp	r3, #55	; 0x37
 800954a:	d9ef      	bls.n	800952c <prvInitialiseTaskLists+0xc>
 800954c:	480d      	ldr	r0, [pc, #52]	; (8009584 <prvInitialiseTaskLists+0x64>)
 800954e:	f7fe fb0d 	bl	8007b6c <vListInitialise>
 8009552:	480d      	ldr	r0, [pc, #52]	; (8009588 <prvInitialiseTaskLists+0x68>)
 8009554:	f7fe fb0a 	bl	8007b6c <vListInitialise>
 8009558:	480c      	ldr	r0, [pc, #48]	; (800958c <prvInitialiseTaskLists+0x6c>)
 800955a:	f7fe fb07 	bl	8007b6c <vListInitialise>
 800955e:	480c      	ldr	r0, [pc, #48]	; (8009590 <prvInitialiseTaskLists+0x70>)
 8009560:	f7fe fb04 	bl	8007b6c <vListInitialise>
 8009564:	480b      	ldr	r0, [pc, #44]	; (8009594 <prvInitialiseTaskLists+0x74>)
 8009566:	f7fe fb01 	bl	8007b6c <vListInitialise>
 800956a:	4b0b      	ldr	r3, [pc, #44]	; (8009598 <prvInitialiseTaskLists+0x78>)
 800956c:	4a05      	ldr	r2, [pc, #20]	; (8009584 <prvInitialiseTaskLists+0x64>)
 800956e:	601a      	str	r2, [r3, #0]
 8009570:	4b0a      	ldr	r3, [pc, #40]	; (800959c <prvInitialiseTaskLists+0x7c>)
 8009572:	4a05      	ldr	r2, [pc, #20]	; (8009588 <prvInitialiseTaskLists+0x68>)
 8009574:	601a      	str	r2, [r3, #0]
 8009576:	bf00      	nop
 8009578:	3708      	adds	r7, #8
 800957a:	46bd      	mov	sp, r7
 800957c:	bd80      	pop	{r7, pc}
 800957e:	bf00      	nop
 8009580:	200006ec 	.word	0x200006ec
 8009584:	20000b4c 	.word	0x20000b4c
 8009588:	20000b60 	.word	0x20000b60
 800958c:	20000b7c 	.word	0x20000b7c
 8009590:	20000b90 	.word	0x20000b90
 8009594:	20000ba8 	.word	0x20000ba8
 8009598:	20000b74 	.word	0x20000b74
 800959c:	20000b78 	.word	0x20000b78

080095a0 <prvCheckTasksWaitingTermination>:
 80095a0:	b580      	push	{r7, lr}
 80095a2:	b082      	sub	sp, #8
 80095a4:	af00      	add	r7, sp, #0
 80095a6:	e019      	b.n	80095dc <prvCheckTasksWaitingTermination+0x3c>
 80095a8:	f000 fdd6 	bl	800a158 <vPortEnterCritical>
 80095ac:	4b0f      	ldr	r3, [pc, #60]	; (80095ec <prvCheckTasksWaitingTermination+0x4c>)
 80095ae:	68db      	ldr	r3, [r3, #12]
 80095b0:	68db      	ldr	r3, [r3, #12]
 80095b2:	607b      	str	r3, [r7, #4]
 80095b4:	687b      	ldr	r3, [r7, #4]
 80095b6:	3304      	adds	r3, #4
 80095b8:	4618      	mov	r0, r3
 80095ba:	f7fe fb5d 	bl	8007c78 <uxListRemove>
 80095be:	4b0c      	ldr	r3, [pc, #48]	; (80095f0 <prvCheckTasksWaitingTermination+0x50>)
 80095c0:	681b      	ldr	r3, [r3, #0]
 80095c2:	3b01      	subs	r3, #1
 80095c4:	4a0a      	ldr	r2, [pc, #40]	; (80095f0 <prvCheckTasksWaitingTermination+0x50>)
 80095c6:	6013      	str	r3, [r2, #0]
 80095c8:	4b0a      	ldr	r3, [pc, #40]	; (80095f4 <prvCheckTasksWaitingTermination+0x54>)
 80095ca:	681b      	ldr	r3, [r3, #0]
 80095cc:	3b01      	subs	r3, #1
 80095ce:	4a09      	ldr	r2, [pc, #36]	; (80095f4 <prvCheckTasksWaitingTermination+0x54>)
 80095d0:	6013      	str	r3, [r2, #0]
 80095d2:	f000 fdef 	bl	800a1b4 <vPortExitCritical>
 80095d6:	6878      	ldr	r0, [r7, #4]
 80095d8:	f000 f80e 	bl	80095f8 <prvDeleteTCB>
 80095dc:	4b05      	ldr	r3, [pc, #20]	; (80095f4 <prvCheckTasksWaitingTermination+0x54>)
 80095de:	681b      	ldr	r3, [r3, #0]
 80095e0:	2b00      	cmp	r3, #0
 80095e2:	d1e1      	bne.n	80095a8 <prvCheckTasksWaitingTermination+0x8>
 80095e4:	bf00      	nop
 80095e6:	3708      	adds	r7, #8
 80095e8:	46bd      	mov	sp, r7
 80095ea:	bd80      	pop	{r7, pc}
 80095ec:	20000b90 	.word	0x20000b90
 80095f0:	20000bbc 	.word	0x20000bbc
 80095f4:	20000ba4 	.word	0x20000ba4

080095f8 <prvDeleteTCB>:
 80095f8:	b580      	push	{r7, lr}
 80095fa:	b084      	sub	sp, #16
 80095fc:	af00      	add	r7, sp, #0
 80095fe:	6078      	str	r0, [r7, #4]
 8009600:	687b      	ldr	r3, [r7, #4]
 8009602:	f893 3059 	ldrb.w	r3, [r3, #89]	; 0x59
 8009606:	2b00      	cmp	r3, #0
 8009608:	d108      	bne.n	800961c <prvDeleteTCB+0x24>
 800960a:	687b      	ldr	r3, [r7, #4]
 800960c:	6b1b      	ldr	r3, [r3, #48]	; 0x30
 800960e:	4618      	mov	r0, r3
 8009610:	f000 ff5e 	bl	800a4d0 <vPortFree>
 8009614:	6878      	ldr	r0, [r7, #4]
 8009616:	f000 ff5b 	bl	800a4d0 <vPortFree>
 800961a:	e017      	b.n	800964c <prvDeleteTCB+0x54>
 800961c:	687b      	ldr	r3, [r7, #4]
 800961e:	f893 3059 	ldrb.w	r3, [r3, #89]	; 0x59
 8009622:	2b01      	cmp	r3, #1
 8009624:	d103      	bne.n	800962e <prvDeleteTCB+0x36>
 8009626:	6878      	ldr	r0, [r7, #4]
 8009628:	f000 ff52 	bl	800a4d0 <vPortFree>
 800962c:	e00e      	b.n	800964c <prvDeleteTCB+0x54>
 800962e:	687b      	ldr	r3, [r7, #4]
 8009630:	f893 3059 	ldrb.w	r3, [r3, #89]	; 0x59
 8009634:	2b02      	cmp	r3, #2
 8009636:	d009      	beq.n	800964c <prvDeleteTCB+0x54>
 8009638:	f04f 0350 	mov.w	r3, #80	; 0x50
 800963c:	f383 8811 	msr	BASEPRI, r3
 8009640:	f3bf 8f6f 	isb	sy
 8009644:	f3bf 8f4f 	dsb	sy
 8009648:	60fb      	str	r3, [r7, #12]
 800964a:	e7fe      	b.n	800964a <prvDeleteTCB+0x52>
 800964c:	bf00      	nop
 800964e:	3710      	adds	r7, #16
 8009650:	46bd      	mov	sp, r7
 8009652:	bd80      	pop	{r7, pc}

08009654 <prvResetNextTaskUnblockTime>:
 8009654:	b480      	push	{r7}
 8009656:	b083      	sub	sp, #12
 8009658:	af00      	add	r7, sp, #0
 800965a:	4b0e      	ldr	r3, [pc, #56]	; (8009694 <prvResetNextTaskUnblockTime+0x40>)
 800965c:	681b      	ldr	r3, [r3, #0]
 800965e:	681b      	ldr	r3, [r3, #0]
 8009660:	2b00      	cmp	r3, #0
 8009662:	d101      	bne.n	8009668 <prvResetNextTaskUnblockTime+0x14>
 8009664:	2301      	movs	r3, #1
 8009666:	e000      	b.n	800966a <prvResetNextTaskUnblockTime+0x16>
 8009668:	2300      	movs	r3, #0
 800966a:	2b00      	cmp	r3, #0
 800966c:	d004      	beq.n	8009678 <prvResetNextTaskUnblockTime+0x24>
 800966e:	4b0a      	ldr	r3, [pc, #40]	; (8009698 <prvResetNextTaskUnblockTime+0x44>)
 8009670:	f04f 32ff 	mov.w	r2, #4294967295
 8009674:	601a      	str	r2, [r3, #0]
 8009676:	e008      	b.n	800968a <prvResetNextTaskUnblockTime+0x36>
 8009678:	4b06      	ldr	r3, [pc, #24]	; (8009694 <prvResetNextTaskUnblockTime+0x40>)
 800967a:	681b      	ldr	r3, [r3, #0]
 800967c:	68db      	ldr	r3, [r3, #12]
 800967e:	68db      	ldr	r3, [r3, #12]
 8009680:	607b      	str	r3, [r7, #4]
 8009682:	687b      	ldr	r3, [r7, #4]
 8009684:	685b      	ldr	r3, [r3, #4]
 8009686:	4a04      	ldr	r2, [pc, #16]	; (8009698 <prvResetNextTaskUnblockTime+0x44>)
 8009688:	6013      	str	r3, [r2, #0]
 800968a:	bf00      	nop
 800968c:	370c      	adds	r7, #12
 800968e:	46bd      	mov	sp, r7
 8009690:	bc80      	pop	{r7}
 8009692:	4770      	bx	lr
 8009694:	20000b74 	.word	0x20000b74
 8009698:	20000bdc 	.word	0x20000bdc

0800969c <xTaskGetSchedulerState>:
 800969c:	b480      	push	{r7}
 800969e:	b083      	sub	sp, #12
 80096a0:	af00      	add	r7, sp, #0
 80096a2:	4b0b      	ldr	r3, [pc, #44]	; (80096d0 <xTaskGetSchedulerState+0x34>)
 80096a4:	681b      	ldr	r3, [r3, #0]
 80096a6:	2b00      	cmp	r3, #0
 80096a8:	d102      	bne.n	80096b0 <xTaskGetSchedulerState+0x14>
 80096aa:	2301      	movs	r3, #1
 80096ac:	607b      	str	r3, [r7, #4]
 80096ae:	e008      	b.n	80096c2 <xTaskGetSchedulerState+0x26>
 80096b0:	4b08      	ldr	r3, [pc, #32]	; (80096d4 <xTaskGetSchedulerState+0x38>)
 80096b2:	681b      	ldr	r3, [r3, #0]
 80096b4:	2b00      	cmp	r3, #0
 80096b6:	d102      	bne.n	80096be <xTaskGetSchedulerState+0x22>
 80096b8:	2302      	movs	r3, #2
 80096ba:	607b      	str	r3, [r7, #4]
 80096bc:	e001      	b.n	80096c2 <xTaskGetSchedulerState+0x26>
 80096be:	2300      	movs	r3, #0
 80096c0:	607b      	str	r3, [r7, #4]
 80096c2:	687b      	ldr	r3, [r7, #4]
 80096c4:	4618      	mov	r0, r3
 80096c6:	370c      	adds	r7, #12
 80096c8:	46bd      	mov	sp, r7
 80096ca:	bc80      	pop	{r7}
 80096cc:	4770      	bx	lr
 80096ce:	bf00      	nop
 80096d0:	20000bc8 	.word	0x20000bc8
 80096d4:	20000be4 	.word	0x20000be4

080096d8 <xTaskPriorityDisinherit>:
 80096d8:	b580      	push	{r7, lr}
 80096da:	b086      	sub	sp, #24
 80096dc:	af00      	add	r7, sp, #0
 80096de:	6078      	str	r0, [r7, #4]
 80096e0:	687b      	ldr	r3, [r7, #4]
 80096e2:	613b      	str	r3, [r7, #16]
 80096e4:	2300      	movs	r3, #0
 80096e6:	617b      	str	r3, [r7, #20]
 80096e8:	687b      	ldr	r3, [r7, #4]
 80096ea:	2b00      	cmp	r3, #0
 80096ec:	d054      	beq.n	8009798 <xTaskPriorityDisinherit+0xc0>
 80096ee:	4b2d      	ldr	r3, [pc, #180]	; (80097a4 <xTaskPriorityDisinherit+0xcc>)
 80096f0:	681b      	ldr	r3, [r3, #0]
 80096f2:	693a      	ldr	r2, [r7, #16]
 80096f4:	429a      	cmp	r2, r3
 80096f6:	d009      	beq.n	800970c <xTaskPriorityDisinherit+0x34>
 80096f8:	f04f 0350 	mov.w	r3, #80	; 0x50
 80096fc:	f383 8811 	msr	BASEPRI, r3
 8009700:	f3bf 8f6f 	isb	sy
 8009704:	f3bf 8f4f 	dsb	sy
 8009708:	60fb      	str	r3, [r7, #12]
 800970a:	e7fe      	b.n	800970a <xTaskPriorityDisinherit+0x32>
 800970c:	693b      	ldr	r3, [r7, #16]
 800970e:	6d1b      	ldr	r3, [r3, #80]	; 0x50
 8009710:	2b00      	cmp	r3, #0
 8009712:	d109      	bne.n	8009728 <xTaskPriorityDisinherit+0x50>
 8009714:	f04f 0350 	mov.w	r3, #80	; 0x50
 8009718:	f383 8811 	msr	BASEPRI, r3
 800971c:	f3bf 8f6f 	isb	sy
 8009720:	f3bf 8f4f 	dsb	sy
 8009724:	60bb      	str	r3, [r7, #8]
 8009726:	e7fe      	b.n	8009726 <xTaskPriorityDisinherit+0x4e>
 8009728:	693b      	ldr	r3, [r7, #16]
 800972a:	6d1b      	ldr	r3, [r3, #80]	; 0x50
 800972c:	1e5a      	subs	r2, r3, #1
 800972e:	693b      	ldr	r3, [r7, #16]
 8009730:	651a      	str	r2, [r3, #80]	; 0x50
 8009732:	693b      	ldr	r3, [r7, #16]
 8009734:	6ada      	ldr	r2, [r3, #44]	; 0x2c
 8009736:	693b      	ldr	r3, [r7, #16]
 8009738:	6cdb      	ldr	r3, [r3, #76]	; 0x4c
 800973a:	429a      	cmp	r2, r3
 800973c:	d02c      	beq.n	8009798 <xTaskPriorityDisinherit+0xc0>
 800973e:	693b      	ldr	r3, [r7, #16]
 8009740:	6d1b      	ldr	r3, [r3, #80]	; 0x50
 8009742:	2b00      	cmp	r3, #0
 8009744:	d128      	bne.n	8009798 <xTaskPriorityDisinherit+0xc0>
 8009746:	693b      	ldr	r3, [r7, #16]
 8009748:	3304      	adds	r3, #4
 800974a:	4618      	mov	r0, r3
 800974c:	f7fe fa94 	bl	8007c78 <uxListRemove>
 8009750:	693b      	ldr	r3, [r7, #16]
 8009752:	6cda      	ldr	r2, [r3, #76]	; 0x4c
 8009754:	693b      	ldr	r3, [r7, #16]
 8009756:	62da      	str	r2, [r3, #44]	; 0x2c
 8009758:	693b      	ldr	r3, [r7, #16]
 800975a:	6adb      	ldr	r3, [r3, #44]	; 0x2c
 800975c:	f1c3 0238 	rsb	r2, r3, #56	; 0x38
 8009760:	693b      	ldr	r3, [r7, #16]
 8009762:	619a      	str	r2, [r3, #24]
 8009764:	693b      	ldr	r3, [r7, #16]
 8009766:	6ada      	ldr	r2, [r3, #44]	; 0x2c
 8009768:	4b0f      	ldr	r3, [pc, #60]	; (80097a8 <xTaskPriorityDisinherit+0xd0>)
 800976a:	681b      	ldr	r3, [r3, #0]
 800976c:	429a      	cmp	r2, r3
 800976e:	d903      	bls.n	8009778 <xTaskPriorityDisinherit+0xa0>
 8009770:	693b      	ldr	r3, [r7, #16]
 8009772:	6adb      	ldr	r3, [r3, #44]	; 0x2c
 8009774:	4a0c      	ldr	r2, [pc, #48]	; (80097a8 <xTaskPriorityDisinherit+0xd0>)
 8009776:	6013      	str	r3, [r2, #0]
 8009778:	693b      	ldr	r3, [r7, #16]
 800977a:	6ada      	ldr	r2, [r3, #44]	; 0x2c
 800977c:	4613      	mov	r3, r2
 800977e:	009b      	lsls	r3, r3, #2
 8009780:	4413      	add	r3, r2
 8009782:	009b      	lsls	r3, r3, #2
 8009784:	4a09      	ldr	r2, [pc, #36]	; (80097ac <xTaskPriorityDisinherit+0xd4>)
 8009786:	441a      	add	r2, r3
 8009788:	693b      	ldr	r3, [r7, #16]
 800978a:	3304      	adds	r3, #4
 800978c:	4619      	mov	r1, r3
 800978e:	4610      	mov	r0, r2
 8009790:	f7fe fa17 	bl	8007bc2 <vListInsertEnd>
 8009794:	2301      	movs	r3, #1
 8009796:	617b      	str	r3, [r7, #20]
 8009798:	697b      	ldr	r3, [r7, #20]
 800979a:	4618      	mov	r0, r3
 800979c:	3718      	adds	r7, #24
 800979e:	46bd      	mov	sp, r7
 80097a0:	bd80      	pop	{r7, pc}
 80097a2:	bf00      	nop
 80097a4:	200006e8 	.word	0x200006e8
 80097a8:	20000bc4 	.word	0x20000bc4
 80097ac:	200006ec 	.word	0x200006ec

080097b0 <uxTaskResetEventItemValue>:
 80097b0:	b480      	push	{r7}
 80097b2:	b083      	sub	sp, #12
 80097b4:	af00      	add	r7, sp, #0
 80097b6:	4b09      	ldr	r3, [pc, #36]	; (80097dc <uxTaskResetEventItemValue+0x2c>)
 80097b8:	681b      	ldr	r3, [r3, #0]
 80097ba:	699b      	ldr	r3, [r3, #24]
 80097bc:	607b      	str	r3, [r7, #4]
 80097be:	4b07      	ldr	r3, [pc, #28]	; (80097dc <uxTaskResetEventItemValue+0x2c>)
 80097c0:	681b      	ldr	r3, [r3, #0]
 80097c2:	6ada      	ldr	r2, [r3, #44]	; 0x2c
 80097c4:	4b05      	ldr	r3, [pc, #20]	; (80097dc <uxTaskResetEventItemValue+0x2c>)
 80097c6:	681b      	ldr	r3, [r3, #0]
 80097c8:	f1c2 0238 	rsb	r2, r2, #56	; 0x38
 80097cc:	619a      	str	r2, [r3, #24]
 80097ce:	687b      	ldr	r3, [r7, #4]
 80097d0:	4618      	mov	r0, r3
 80097d2:	370c      	adds	r7, #12
 80097d4:	46bd      	mov	sp, r7
 80097d6:	bc80      	pop	{r7}
 80097d8:	4770      	bx	lr
 80097da:	bf00      	nop
 80097dc:	200006e8 	.word	0x200006e8

080097e0 <prvAddCurrentTaskToDelayedList>:
 80097e0:	b580      	push	{r7, lr}
 80097e2:	b084      	sub	sp, #16
 80097e4:	af00      	add	r7, sp, #0
 80097e6:	6078      	str	r0, [r7, #4]
 80097e8:	6039      	str	r1, [r7, #0]
 80097ea:	4b21      	ldr	r3, [pc, #132]	; (8009870 <prvAddCurrentTaskToDelayedList+0x90>)
 80097ec:	681b      	ldr	r3, [r3, #0]
 80097ee:	60fb      	str	r3, [r7, #12]
 80097f0:	4b20      	ldr	r3, [pc, #128]	; (8009874 <prvAddCurrentTaskToDelayedList+0x94>)
 80097f2:	681b      	ldr	r3, [r3, #0]
 80097f4:	3304      	adds	r3, #4
 80097f6:	4618      	mov	r0, r3
 80097f8:	f7fe fa3e 	bl	8007c78 <uxListRemove>
 80097fc:	687b      	ldr	r3, [r7, #4]
 80097fe:	f1b3 3fff 	cmp.w	r3, #4294967295
 8009802:	d10a      	bne.n	800981a <prvAddCurrentTaskToDelayedList+0x3a>
 8009804:	683b      	ldr	r3, [r7, #0]
 8009806:	2b00      	cmp	r3, #0
 8009808:	d007      	beq.n	800981a <prvAddCurrentTaskToDelayedList+0x3a>
 800980a:	4b1a      	ldr	r3, [pc, #104]	; (8009874 <prvAddCurrentTaskToDelayedList+0x94>)
 800980c:	681b      	ldr	r3, [r3, #0]
 800980e:	3304      	adds	r3, #4
 8009810:	4619      	mov	r1, r3
 8009812:	4819      	ldr	r0, [pc, #100]	; (8009878 <prvAddCurrentTaskToDelayedList+0x98>)
 8009814:	f7fe f9d5 	bl	8007bc2 <vListInsertEnd>
 8009818:	e026      	b.n	8009868 <prvAddCurrentTaskToDelayedList+0x88>
 800981a:	68fa      	ldr	r2, [r7, #12]
 800981c:	687b      	ldr	r3, [r7, #4]
 800981e:	4413      	add	r3, r2
 8009820:	60bb      	str	r3, [r7, #8]
 8009822:	4b14      	ldr	r3, [pc, #80]	; (8009874 <prvAddCurrentTaskToDelayedList+0x94>)
 8009824:	681b      	ldr	r3, [r3, #0]
 8009826:	68ba      	ldr	r2, [r7, #8]
 8009828:	605a      	str	r2, [r3, #4]
 800982a:	68ba      	ldr	r2, [r7, #8]
 800982c:	68fb      	ldr	r3, [r7, #12]
 800982e:	429a      	cmp	r2, r3
 8009830:	d209      	bcs.n	8009846 <prvAddCurrentTaskToDelayedList+0x66>
 8009832:	4b12      	ldr	r3, [pc, #72]	; (800987c <prvAddCurrentTaskToDelayedList+0x9c>)
 8009834:	681a      	ldr	r2, [r3, #0]
 8009836:	4b0f      	ldr	r3, [pc, #60]	; (8009874 <prvAddCurrentTaskToDelayedList+0x94>)
 8009838:	681b      	ldr	r3, [r3, #0]
 800983a:	3304      	adds	r3, #4
 800983c:	4619      	mov	r1, r3
 800983e:	4610      	mov	r0, r2
 8009840:	f7fe f9e2 	bl	8007c08 <vListInsert>
 8009844:	e010      	b.n	8009868 <prvAddCurrentTaskToDelayedList+0x88>
 8009846:	4b0e      	ldr	r3, [pc, #56]	; (8009880 <prvAddCurrentTaskToDelayedList+0xa0>)
 8009848:	681a      	ldr	r2, [r3, #0]
 800984a:	4b0a      	ldr	r3, [pc, #40]	; (8009874 <prvAddCurrentTaskToDelayedList+0x94>)
 800984c:	681b      	ldr	r3, [r3, #0]
 800984e:	3304      	adds	r3, #4
 8009850:	4619      	mov	r1, r3
 8009852:	4610      	mov	r0, r2
 8009854:	f7fe f9d8 	bl	8007c08 <vListInsert>
 8009858:	4b0a      	ldr	r3, [pc, #40]	; (8009884 <prvAddCurrentTaskToDelayedList+0xa4>)
 800985a:	681b      	ldr	r3, [r3, #0]
 800985c:	68ba      	ldr	r2, [r7, #8]
 800985e:	429a      	cmp	r2, r3
 8009860:	d202      	bcs.n	8009868 <prvAddCurrentTaskToDelayedList+0x88>
 8009862:	4a08      	ldr	r2, [pc, #32]	; (8009884 <prvAddCurrentTaskToDelayedList+0xa4>)
 8009864:	68bb      	ldr	r3, [r7, #8]
 8009866:	6013      	str	r3, [r2, #0]
 8009868:	bf00      	nop
 800986a:	3710      	adds	r7, #16
 800986c:	46bd      	mov	sp, r7
 800986e:	bd80      	pop	{r7, pc}
 8009870:	20000bc0 	.word	0x20000bc0
 8009874:	200006e8 	.word	0x200006e8
 8009878:	20000ba8 	.word	0x20000ba8
 800987c:	20000b78 	.word	0x20000b78
 8009880:	20000b74 	.word	0x20000b74
 8009884:	20000bdc 	.word	0x20000bdc

08009888 <xTimerCreateTimerTask>:
 8009888:	b580      	push	{r7, lr}
 800988a:	b08a      	sub	sp, #40	; 0x28
 800988c:	af04      	add	r7, sp, #16
 800988e:	2300      	movs	r3, #0
 8009890:	617b      	str	r3, [r7, #20]
 8009892:	f000 fb17 	bl	8009ec4 <prvCheckForValidListAndQueue>
 8009896:	4b1c      	ldr	r3, [pc, #112]	; (8009908 <xTimerCreateTimerTask+0x80>)
 8009898:	681b      	ldr	r3, [r3, #0]
 800989a:	2b00      	cmp	r3, #0
 800989c:	d021      	beq.n	80098e2 <xTimerCreateTimerTask+0x5a>
 800989e:	2300      	movs	r3, #0
 80098a0:	60fb      	str	r3, [r7, #12]
 80098a2:	2300      	movs	r3, #0
 80098a4:	60bb      	str	r3, [r7, #8]
 80098a6:	1d3a      	adds	r2, r7, #4
 80098a8:	f107 0108 	add.w	r1, r7, #8
 80098ac:	f107 030c 	add.w	r3, r7, #12
 80098b0:	4618      	mov	r0, r3
 80098b2:	f7fd ff3b 	bl	800772c <vApplicationGetTimerTaskMemory>
 80098b6:	6879      	ldr	r1, [r7, #4]
 80098b8:	68bb      	ldr	r3, [r7, #8]
 80098ba:	68fa      	ldr	r2, [r7, #12]
 80098bc:	9202      	str	r2, [sp, #8]
 80098be:	9301      	str	r3, [sp, #4]
 80098c0:	2302      	movs	r3, #2
 80098c2:	9300      	str	r3, [sp, #0]
 80098c4:	2300      	movs	r3, #0
 80098c6:	460a      	mov	r2, r1
 80098c8:	4910      	ldr	r1, [pc, #64]	; (800990c <xTimerCreateTimerTask+0x84>)
 80098ca:	4811      	ldr	r0, [pc, #68]	; (8009910 <xTimerCreateTimerTask+0x88>)
 80098cc:	f7fe ff0e 	bl	80086ec <xTaskCreateStatic>
 80098d0:	4602      	mov	r2, r0
 80098d2:	4b10      	ldr	r3, [pc, #64]	; (8009914 <xTimerCreateTimerTask+0x8c>)
 80098d4:	601a      	str	r2, [r3, #0]
 80098d6:	4b0f      	ldr	r3, [pc, #60]	; (8009914 <xTimerCreateTimerTask+0x8c>)
 80098d8:	681b      	ldr	r3, [r3, #0]
 80098da:	2b00      	cmp	r3, #0
 80098dc:	d001      	beq.n	80098e2 <xTimerCreateTimerTask+0x5a>
 80098de:	2301      	movs	r3, #1
 80098e0:	617b      	str	r3, [r7, #20]
 80098e2:	697b      	ldr	r3, [r7, #20]
 80098e4:	2b00      	cmp	r3, #0
 80098e6:	d109      	bne.n	80098fc <xTimerCreateTimerTask+0x74>
 80098e8:	f04f 0350 	mov.w	r3, #80	; 0x50
 80098ec:	f383 8811 	msr	BASEPRI, r3
 80098f0:	f3bf 8f6f 	isb	sy
 80098f4:	f3bf 8f4f 	dsb	sy
 80098f8:	613b      	str	r3, [r7, #16]
 80098fa:	e7fe      	b.n	80098fa <xTimerCreateTimerTask+0x72>
 80098fc:	697b      	ldr	r3, [r7, #20]
 80098fe:	4618      	mov	r0, r3
 8009900:	3718      	adds	r7, #24
 8009902:	46bd      	mov	sp, r7
 8009904:	bd80      	pop	{r7, pc}
 8009906:	bf00      	nop
 8009908:	20000c18 	.word	0x20000c18
 800990c:	0800aa30 	.word	0x0800aa30
 8009910:	08009ad5 	.word	0x08009ad5
 8009914:	20000c1c 	.word	0x20000c1c

08009918 <xTimerCreate>:
 8009918:	b580      	push	{r7, lr}
 800991a:	b088      	sub	sp, #32
 800991c:	af02      	add	r7, sp, #8
 800991e:	60f8      	str	r0, [r7, #12]
 8009920:	60b9      	str	r1, [r7, #8]
 8009922:	607a      	str	r2, [r7, #4]
 8009924:	603b      	str	r3, [r7, #0]
 8009926:	2030      	movs	r0, #48	; 0x30
 8009928:	f000 fd0c 	bl	800a344 <pvPortMalloc>
 800992c:	6178      	str	r0, [r7, #20]
 800992e:	697b      	ldr	r3, [r7, #20]
 8009930:	2b00      	cmp	r3, #0
 8009932:	d00d      	beq.n	8009950 <xTimerCreate+0x38>
 8009934:	697b      	ldr	r3, [r7, #20]
 8009936:	9301      	str	r3, [sp, #4]
 8009938:	6a3b      	ldr	r3, [r7, #32]
 800993a:	9300      	str	r3, [sp, #0]
 800993c:	683b      	ldr	r3, [r7, #0]
 800993e:	687a      	ldr	r2, [r7, #4]
 8009940:	68b9      	ldr	r1, [r7, #8]
 8009942:	68f8      	ldr	r0, [r7, #12]
 8009944:	f000 f809 	bl	800995a <prvInitialiseNewTimer>
 8009948:	697b      	ldr	r3, [r7, #20]
 800994a:	2200      	movs	r2, #0
 800994c:	f883 202c 	strb.w	r2, [r3, #44]	; 0x2c
 8009950:	697b      	ldr	r3, [r7, #20]
 8009952:	4618      	mov	r0, r3
 8009954:	3718      	adds	r7, #24
 8009956:	46bd      	mov	sp, r7
 8009958:	bd80      	pop	{r7, pc}

0800995a <prvInitialiseNewTimer>:
 800995a:	b580      	push	{r7, lr}
 800995c:	b086      	sub	sp, #24
 800995e:	af00      	add	r7, sp, #0
 8009960:	60f8      	str	r0, [r7, #12]
 8009962:	60b9      	str	r1, [r7, #8]
 8009964:	607a      	str	r2, [r7, #4]
 8009966:	603b      	str	r3, [r7, #0]
 8009968:	68bb      	ldr	r3, [r7, #8]
 800996a:	2b00      	cmp	r3, #0
 800996c:	d109      	bne.n	8009982 <prvInitialiseNewTimer+0x28>
 800996e:	f04f 0350 	mov.w	r3, #80	; 0x50
 8009972:	f383 8811 	msr	BASEPRI, r3
 8009976:	f3bf 8f6f 	isb	sy
 800997a:	f3bf 8f4f 	dsb	sy
 800997e:	617b      	str	r3, [r7, #20]
 8009980:	e7fe      	b.n	8009980 <prvInitialiseNewTimer+0x26>
 8009982:	6a7b      	ldr	r3, [r7, #36]	; 0x24
 8009984:	2b00      	cmp	r3, #0
 8009986:	d015      	beq.n	80099b4 <prvInitialiseNewTimer+0x5a>
 8009988:	f000 fa9c 	bl	8009ec4 <prvCheckForValidListAndQueue>
 800998c:	6a7b      	ldr	r3, [r7, #36]	; 0x24
 800998e:	68fa      	ldr	r2, [r7, #12]
 8009990:	601a      	str	r2, [r3, #0]
 8009992:	6a7b      	ldr	r3, [r7, #36]	; 0x24
 8009994:	68ba      	ldr	r2, [r7, #8]
 8009996:	619a      	str	r2, [r3, #24]
 8009998:	6a7b      	ldr	r3, [r7, #36]	; 0x24
 800999a:	687a      	ldr	r2, [r7, #4]
 800999c:	61da      	str	r2, [r3, #28]
 800999e:	6a7b      	ldr	r3, [r7, #36]	; 0x24
 80099a0:	683a      	ldr	r2, [r7, #0]
 80099a2:	621a      	str	r2, [r3, #32]
 80099a4:	6a7b      	ldr	r3, [r7, #36]	; 0x24
 80099a6:	6a3a      	ldr	r2, [r7, #32]
 80099a8:	625a      	str	r2, [r3, #36]	; 0x24
 80099aa:	6a7b      	ldr	r3, [r7, #36]	; 0x24
 80099ac:	3304      	adds	r3, #4
 80099ae:	4618      	mov	r0, r3
 80099b0:	f7fe f8fb 	bl	8007baa <vListInitialiseItem>
 80099b4:	bf00      	nop
 80099b6:	3718      	adds	r7, #24
 80099b8:	46bd      	mov	sp, r7
 80099ba:	bd80      	pop	{r7, pc}

080099bc <xTimerGenericCommand>:
 80099bc:	b580      	push	{r7, lr}
 80099be:	b08a      	sub	sp, #40	; 0x28
 80099c0:	af00      	add	r7, sp, #0
 80099c2:	60f8      	str	r0, [r7, #12]
 80099c4:	60b9      	str	r1, [r7, #8]
 80099c6:	607a      	str	r2, [r7, #4]
 80099c8:	603b      	str	r3, [r7, #0]
 80099ca:	2300      	movs	r3, #0
 80099cc:	627b      	str	r3, [r7, #36]	; 0x24
 80099ce:	68fb      	ldr	r3, [r7, #12]
 80099d0:	2b00      	cmp	r3, #0
 80099d2:	d109      	bne.n	80099e8 <xTimerGenericCommand+0x2c>
 80099d4:	f04f 0350 	mov.w	r3, #80	; 0x50
 80099d8:	f383 8811 	msr	BASEPRI, r3
 80099dc:	f3bf 8f6f 	isb	sy
 80099e0:	f3bf 8f4f 	dsb	sy
 80099e4:	623b      	str	r3, [r7, #32]
 80099e6:	e7fe      	b.n	80099e6 <xTimerGenericCommand+0x2a>
 80099e8:	4b19      	ldr	r3, [pc, #100]	; (8009a50 <xTimerGenericCommand+0x94>)
 80099ea:	681b      	ldr	r3, [r3, #0]
 80099ec:	2b00      	cmp	r3, #0
 80099ee:	d02a      	beq.n	8009a46 <xTimerGenericCommand+0x8a>
 80099f0:	68bb      	ldr	r3, [r7, #8]
 80099f2:	613b      	str	r3, [r7, #16]
 80099f4:	687b      	ldr	r3, [r7, #4]
 80099f6:	617b      	str	r3, [r7, #20]
 80099f8:	68fb      	ldr	r3, [r7, #12]
 80099fa:	61bb      	str	r3, [r7, #24]
 80099fc:	68bb      	ldr	r3, [r7, #8]
 80099fe:	2b05      	cmp	r3, #5
 8009a00:	dc18      	bgt.n	8009a34 <xTimerGenericCommand+0x78>
 8009a02:	f7ff fe4b 	bl	800969c <xTaskGetSchedulerState>
 8009a06:	4603      	mov	r3, r0
 8009a08:	2b02      	cmp	r3, #2
 8009a0a:	d109      	bne.n	8009a20 <xTimerGenericCommand+0x64>
 8009a0c:	4b10      	ldr	r3, [pc, #64]	; (8009a50 <xTimerGenericCommand+0x94>)
 8009a0e:	6818      	ldr	r0, [r3, #0]
 8009a10:	f107 0110 	add.w	r1, r7, #16
 8009a14:	2300      	movs	r3, #0
 8009a16:	6b3a      	ldr	r2, [r7, #48]	; 0x30
 8009a18:	f7fe fa92 	bl	8007f40 <xQueueGenericSend>
 8009a1c:	6278      	str	r0, [r7, #36]	; 0x24
 8009a1e:	e012      	b.n	8009a46 <xTimerGenericCommand+0x8a>
 8009a20:	4b0b      	ldr	r3, [pc, #44]	; (8009a50 <xTimerGenericCommand+0x94>)
 8009a22:	6818      	ldr	r0, [r3, #0]
 8009a24:	f107 0110 	add.w	r1, r7, #16
 8009a28:	2300      	movs	r3, #0
 8009a2a:	2200      	movs	r2, #0
 8009a2c:	f7fe fa88 	bl	8007f40 <xQueueGenericSend>
 8009a30:	6278      	str	r0, [r7, #36]	; 0x24
 8009a32:	e008      	b.n	8009a46 <xTimerGenericCommand+0x8a>
 8009a34:	4b06      	ldr	r3, [pc, #24]	; (8009a50 <xTimerGenericCommand+0x94>)
 8009a36:	6818      	ldr	r0, [r3, #0]
 8009a38:	f107 0110 	add.w	r1, r7, #16
 8009a3c:	2300      	movs	r3, #0
 8009a3e:	683a      	ldr	r2, [r7, #0]
 8009a40:	f7fe fb78 	bl	8008134 <xQueueGenericSendFromISR>
 8009a44:	6278      	str	r0, [r7, #36]	; 0x24
 8009a46:	6a7b      	ldr	r3, [r7, #36]	; 0x24
 8009a48:	4618      	mov	r0, r3
 8009a4a:	3728      	adds	r7, #40	; 0x28
 8009a4c:	46bd      	mov	sp, r7
 8009a4e:	bd80      	pop	{r7, pc}
 8009a50:	20000c18 	.word	0x20000c18

08009a54 <prvProcessExpiredTimer>:
 8009a54:	b580      	push	{r7, lr}
 8009a56:	b088      	sub	sp, #32
 8009a58:	af02      	add	r7, sp, #8
 8009a5a:	6078      	str	r0, [r7, #4]
 8009a5c:	6039      	str	r1, [r7, #0]
 8009a5e:	4b1c      	ldr	r3, [pc, #112]	; (8009ad0 <prvProcessExpiredTimer+0x7c>)
 8009a60:	681b      	ldr	r3, [r3, #0]
 8009a62:	68db      	ldr	r3, [r3, #12]
 8009a64:	68db      	ldr	r3, [r3, #12]
 8009a66:	617b      	str	r3, [r7, #20]
 8009a68:	697b      	ldr	r3, [r7, #20]
 8009a6a:	3304      	adds	r3, #4
 8009a6c:	4618      	mov	r0, r3
 8009a6e:	f7fe f903 	bl	8007c78 <uxListRemove>
 8009a72:	697b      	ldr	r3, [r7, #20]
 8009a74:	69db      	ldr	r3, [r3, #28]
 8009a76:	2b01      	cmp	r3, #1
 8009a78:	d121      	bne.n	8009abe <prvProcessExpiredTimer+0x6a>
 8009a7a:	697b      	ldr	r3, [r7, #20]
 8009a7c:	699a      	ldr	r2, [r3, #24]
 8009a7e:	687b      	ldr	r3, [r7, #4]
 8009a80:	18d1      	adds	r1, r2, r3
 8009a82:	687b      	ldr	r3, [r7, #4]
 8009a84:	683a      	ldr	r2, [r7, #0]
 8009a86:	6978      	ldr	r0, [r7, #20]
 8009a88:	f000 f8ca 	bl	8009c20 <prvInsertTimerInActiveList>
 8009a8c:	4603      	mov	r3, r0
 8009a8e:	2b00      	cmp	r3, #0
 8009a90:	d015      	beq.n	8009abe <prvProcessExpiredTimer+0x6a>
 8009a92:	2300      	movs	r3, #0
 8009a94:	9300      	str	r3, [sp, #0]
 8009a96:	2300      	movs	r3, #0
 8009a98:	687a      	ldr	r2, [r7, #4]
 8009a9a:	2100      	movs	r1, #0
 8009a9c:	6978      	ldr	r0, [r7, #20]
 8009a9e:	f7ff ff8d 	bl	80099bc <xTimerGenericCommand>
 8009aa2:	6138      	str	r0, [r7, #16]
 8009aa4:	693b      	ldr	r3, [r7, #16]
 8009aa6:	2b00      	cmp	r3, #0
 8009aa8:	d109      	bne.n	8009abe <prvProcessExpiredTimer+0x6a>
 8009aaa:	f04f 0350 	mov.w	r3, #80	; 0x50
 8009aae:	f383 8811 	msr	BASEPRI, r3
 8009ab2:	f3bf 8f6f 	isb	sy
 8009ab6:	f3bf 8f4f 	dsb	sy
 8009aba:	60fb      	str	r3, [r7, #12]
 8009abc:	e7fe      	b.n	8009abc <prvProcessExpiredTimer+0x68>
 8009abe:	697b      	ldr	r3, [r7, #20]
 8009ac0:	6a5b      	ldr	r3, [r3, #36]	; 0x24
 8009ac2:	6978      	ldr	r0, [r7, #20]
 8009ac4:	4798      	blx	r3
 8009ac6:	bf00      	nop
 8009ac8:	3718      	adds	r7, #24
 8009aca:	46bd      	mov	sp, r7
 8009acc:	bd80      	pop	{r7, pc}
 8009ace:	bf00      	nop
 8009ad0:	20000c10 	.word	0x20000c10

08009ad4 <prvTimerTask>:
 8009ad4:	b580      	push	{r7, lr}
 8009ad6:	b084      	sub	sp, #16
 8009ad8:	af00      	add	r7, sp, #0
 8009ada:	6078      	str	r0, [r7, #4]
 8009adc:	f7f7 fa14 	bl	8000f08 <vApplicationDaemonTaskStartupHook>
 8009ae0:	f107 0308 	add.w	r3, r7, #8
 8009ae4:	4618      	mov	r0, r3
 8009ae6:	f000 f857 	bl	8009b98 <prvGetNextExpireTime>
 8009aea:	60f8      	str	r0, [r7, #12]
 8009aec:	68bb      	ldr	r3, [r7, #8]
 8009aee:	4619      	mov	r1, r3
 8009af0:	68f8      	ldr	r0, [r7, #12]
 8009af2:	f000 f803 	bl	8009afc <prvProcessTimerOrBlockTask>
 8009af6:	f000 f8d5 	bl	8009ca4 <prvProcessReceivedCommands>
 8009afa:	e7f1      	b.n	8009ae0 <prvTimerTask+0xc>

08009afc <prvProcessTimerOrBlockTask>:
 8009afc:	b580      	push	{r7, lr}
 8009afe:	b084      	sub	sp, #16
 8009b00:	af00      	add	r7, sp, #0
 8009b02:	6078      	str	r0, [r7, #4]
 8009b04:	6039      	str	r1, [r7, #0]
 8009b06:	f7ff f929 	bl	8008d5c <vTaskSuspendAll>
 8009b0a:	f107 0308 	add.w	r3, r7, #8
 8009b0e:	4618      	mov	r0, r3
 8009b10:	f000 f866 	bl	8009be0 <prvSampleTimeNow>
 8009b14:	60f8      	str	r0, [r7, #12]
 8009b16:	68bb      	ldr	r3, [r7, #8]
 8009b18:	2b00      	cmp	r3, #0
 8009b1a:	d130      	bne.n	8009b7e <prvProcessTimerOrBlockTask+0x82>
 8009b1c:	683b      	ldr	r3, [r7, #0]
 8009b1e:	2b00      	cmp	r3, #0
 8009b20:	d10a      	bne.n	8009b38 <prvProcessTimerOrBlockTask+0x3c>
 8009b22:	687a      	ldr	r2, [r7, #4]
 8009b24:	68fb      	ldr	r3, [r7, #12]
 8009b26:	429a      	cmp	r2, r3
 8009b28:	d806      	bhi.n	8009b38 <prvProcessTimerOrBlockTask+0x3c>
 8009b2a:	f7ff f925 	bl	8008d78 <xTaskResumeAll>
 8009b2e:	68f9      	ldr	r1, [r7, #12]
 8009b30:	6878      	ldr	r0, [r7, #4]
 8009b32:	f7ff ff8f 	bl	8009a54 <prvProcessExpiredTimer>
 8009b36:	e024      	b.n	8009b82 <prvProcessTimerOrBlockTask+0x86>
 8009b38:	683b      	ldr	r3, [r7, #0]
 8009b3a:	2b00      	cmp	r3, #0
 8009b3c:	d008      	beq.n	8009b50 <prvProcessTimerOrBlockTask+0x54>
 8009b3e:	4b13      	ldr	r3, [pc, #76]	; (8009b8c <prvProcessTimerOrBlockTask+0x90>)
 8009b40:	681b      	ldr	r3, [r3, #0]
 8009b42:	681b      	ldr	r3, [r3, #0]
 8009b44:	2b00      	cmp	r3, #0
 8009b46:	bf0c      	ite	eq
 8009b48:	2301      	moveq	r3, #1
 8009b4a:	2300      	movne	r3, #0
 8009b4c:	b2db      	uxtb	r3, r3
 8009b4e:	603b      	str	r3, [r7, #0]
 8009b50:	4b0f      	ldr	r3, [pc, #60]	; (8009b90 <prvProcessTimerOrBlockTask+0x94>)
 8009b52:	6818      	ldr	r0, [r3, #0]
 8009b54:	687a      	ldr	r2, [r7, #4]
 8009b56:	68fb      	ldr	r3, [r7, #12]
 8009b58:	1ad3      	subs	r3, r2, r3
 8009b5a:	683a      	ldr	r2, [r7, #0]
 8009b5c:	4619      	mov	r1, r3
 8009b5e:	f7fe fd91 	bl	8008684 <vQueueWaitForMessageRestricted>
 8009b62:	f7ff f909 	bl	8008d78 <xTaskResumeAll>
 8009b66:	4603      	mov	r3, r0
 8009b68:	2b00      	cmp	r3, #0
 8009b6a:	d10a      	bne.n	8009b82 <prvProcessTimerOrBlockTask+0x86>
 8009b6c:	4b09      	ldr	r3, [pc, #36]	; (8009b94 <prvProcessTimerOrBlockTask+0x98>)
 8009b6e:	f04f 5280 	mov.w	r2, #268435456	; 0x10000000
 8009b72:	601a      	str	r2, [r3, #0]
 8009b74:	f3bf 8f4f 	dsb	sy
 8009b78:	f3bf 8f6f 	isb	sy
 8009b7c:	e001      	b.n	8009b82 <prvProcessTimerOrBlockTask+0x86>
 8009b7e:	f7ff f8fb 	bl	8008d78 <xTaskResumeAll>
 8009b82:	bf00      	nop
 8009b84:	3710      	adds	r7, #16
 8009b86:	46bd      	mov	sp, r7
 8009b88:	bd80      	pop	{r7, pc}
 8009b8a:	bf00      	nop
 8009b8c:	20000c14 	.word	0x20000c14
 8009b90:	20000c18 	.word	0x20000c18
 8009b94:	e000ed04 	.word	0xe000ed04

08009b98 <prvGetNextExpireTime>:
 8009b98:	b480      	push	{r7}
 8009b9a:	b085      	sub	sp, #20
 8009b9c:	af00      	add	r7, sp, #0
 8009b9e:	6078      	str	r0, [r7, #4]
 8009ba0:	4b0e      	ldr	r3, [pc, #56]	; (8009bdc <prvGetNextExpireTime+0x44>)
 8009ba2:	681b      	ldr	r3, [r3, #0]
 8009ba4:	681b      	ldr	r3, [r3, #0]
 8009ba6:	2b00      	cmp	r3, #0
 8009ba8:	bf0c      	ite	eq
 8009baa:	2301      	moveq	r3, #1
 8009bac:	2300      	movne	r3, #0
 8009bae:	b2db      	uxtb	r3, r3
 8009bb0:	461a      	mov	r2, r3
 8009bb2:	687b      	ldr	r3, [r7, #4]
 8009bb4:	601a      	str	r2, [r3, #0]
 8009bb6:	687b      	ldr	r3, [r7, #4]
 8009bb8:	681b      	ldr	r3, [r3, #0]
 8009bba:	2b00      	cmp	r3, #0
 8009bbc:	d105      	bne.n	8009bca <prvGetNextExpireTime+0x32>
 8009bbe:	4b07      	ldr	r3, [pc, #28]	; (8009bdc <prvGetNextExpireTime+0x44>)
 8009bc0:	681b      	ldr	r3, [r3, #0]
 8009bc2:	68db      	ldr	r3, [r3, #12]
 8009bc4:	681b      	ldr	r3, [r3, #0]
 8009bc6:	60fb      	str	r3, [r7, #12]
 8009bc8:	e001      	b.n	8009bce <prvGetNextExpireTime+0x36>
 8009bca:	2300      	movs	r3, #0
 8009bcc:	60fb      	str	r3, [r7, #12]
 8009bce:	68fb      	ldr	r3, [r7, #12]
 8009bd0:	4618      	mov	r0, r3
 8009bd2:	3714      	adds	r7, #20
 8009bd4:	46bd      	mov	sp, r7
 8009bd6:	bc80      	pop	{r7}
 8009bd8:	4770      	bx	lr
 8009bda:	bf00      	nop
 8009bdc:	20000c10 	.word	0x20000c10

08009be0 <prvSampleTimeNow>:
 8009be0:	b580      	push	{r7, lr}
 8009be2:	b084      	sub	sp, #16
 8009be4:	af00      	add	r7, sp, #0
 8009be6:	6078      	str	r0, [r7, #4]
 8009be8:	f7ff f962 	bl	8008eb0 <xTaskGetTickCount>
 8009bec:	60f8      	str	r0, [r7, #12]
 8009bee:	4b0b      	ldr	r3, [pc, #44]	; (8009c1c <prvSampleTimeNow+0x3c>)
 8009bf0:	681b      	ldr	r3, [r3, #0]
 8009bf2:	68fa      	ldr	r2, [r7, #12]
 8009bf4:	429a      	cmp	r2, r3
 8009bf6:	d205      	bcs.n	8009c04 <prvSampleTimeNow+0x24>
 8009bf8:	f000 f904 	bl	8009e04 <prvSwitchTimerLists>
 8009bfc:	687b      	ldr	r3, [r7, #4]
 8009bfe:	2201      	movs	r2, #1
 8009c00:	601a      	str	r2, [r3, #0]
 8009c02:	e002      	b.n	8009c0a <prvSampleTimeNow+0x2a>
 8009c04:	687b      	ldr	r3, [r7, #4]
 8009c06:	2200      	movs	r2, #0
 8009c08:	601a      	str	r2, [r3, #0]
 8009c0a:	4a04      	ldr	r2, [pc, #16]	; (8009c1c <prvSampleTimeNow+0x3c>)
 8009c0c:	68fb      	ldr	r3, [r7, #12]
 8009c0e:	6013      	str	r3, [r2, #0]
 8009c10:	68fb      	ldr	r3, [r7, #12]
 8009c12:	4618      	mov	r0, r3
 8009c14:	3710      	adds	r7, #16
 8009c16:	46bd      	mov	sp, r7
 8009c18:	bd80      	pop	{r7, pc}
 8009c1a:	bf00      	nop
 8009c1c:	20000c20 	.word	0x20000c20

08009c20 <prvInsertTimerInActiveList>:
 8009c20:	b580      	push	{r7, lr}
 8009c22:	b086      	sub	sp, #24
 8009c24:	af00      	add	r7, sp, #0
 8009c26:	60f8      	str	r0, [r7, #12]
 8009c28:	60b9      	str	r1, [r7, #8]
 8009c2a:	607a      	str	r2, [r7, #4]
 8009c2c:	603b      	str	r3, [r7, #0]
 8009c2e:	2300      	movs	r3, #0
 8009c30:	617b      	str	r3, [r7, #20]
 8009c32:	68fb      	ldr	r3, [r7, #12]
 8009c34:	68ba      	ldr	r2, [r7, #8]
 8009c36:	605a      	str	r2, [r3, #4]
 8009c38:	68fb      	ldr	r3, [r7, #12]
 8009c3a:	68fa      	ldr	r2, [r7, #12]
 8009c3c:	611a      	str	r2, [r3, #16]
 8009c3e:	68ba      	ldr	r2, [r7, #8]
 8009c40:	687b      	ldr	r3, [r7, #4]
 8009c42:	429a      	cmp	r2, r3
 8009c44:	d812      	bhi.n	8009c6c <prvInsertTimerInActiveList+0x4c>
 8009c46:	687a      	ldr	r2, [r7, #4]
 8009c48:	683b      	ldr	r3, [r7, #0]
 8009c4a:	1ad2      	subs	r2, r2, r3
 8009c4c:	68fb      	ldr	r3, [r7, #12]
 8009c4e:	699b      	ldr	r3, [r3, #24]
 8009c50:	429a      	cmp	r2, r3
 8009c52:	d302      	bcc.n	8009c5a <prvInsertTimerInActiveList+0x3a>
 8009c54:	2301      	movs	r3, #1
 8009c56:	617b      	str	r3, [r7, #20]
 8009c58:	e01b      	b.n	8009c92 <prvInsertTimerInActiveList+0x72>
 8009c5a:	4b10      	ldr	r3, [pc, #64]	; (8009c9c <prvInsertTimerInActiveList+0x7c>)
 8009c5c:	681a      	ldr	r2, [r3, #0]
 8009c5e:	68fb      	ldr	r3, [r7, #12]
 8009c60:	3304      	adds	r3, #4
 8009c62:	4619      	mov	r1, r3
 8009c64:	4610      	mov	r0, r2
 8009c66:	f7fd ffcf 	bl	8007c08 <vListInsert>
 8009c6a:	e012      	b.n	8009c92 <prvInsertTimerInActiveList+0x72>
 8009c6c:	687a      	ldr	r2, [r7, #4]
 8009c6e:	683b      	ldr	r3, [r7, #0]
 8009c70:	429a      	cmp	r2, r3
 8009c72:	d206      	bcs.n	8009c82 <prvInsertTimerInActiveList+0x62>
 8009c74:	68ba      	ldr	r2, [r7, #8]
 8009c76:	683b      	ldr	r3, [r7, #0]
 8009c78:	429a      	cmp	r2, r3
 8009c7a:	d302      	bcc.n	8009c82 <prvInsertTimerInActiveList+0x62>
 8009c7c:	2301      	movs	r3, #1
 8009c7e:	617b      	str	r3, [r7, #20]
 8009c80:	e007      	b.n	8009c92 <prvInsertTimerInActiveList+0x72>
 8009c82:	4b07      	ldr	r3, [pc, #28]	; (8009ca0 <prvInsertTimerInActiveList+0x80>)
 8009c84:	681a      	ldr	r2, [r3, #0]
 8009c86:	68fb      	ldr	r3, [r7, #12]
 8009c88:	3304      	adds	r3, #4
 8009c8a:	4619      	mov	r1, r3
 8009c8c:	4610      	mov	r0, r2
 8009c8e:	f7fd ffbb 	bl	8007c08 <vListInsert>
 8009c92:	697b      	ldr	r3, [r7, #20]
 8009c94:	4618      	mov	r0, r3
 8009c96:	3718      	adds	r7, #24
 8009c98:	46bd      	mov	sp, r7
 8009c9a:	bd80      	pop	{r7, pc}
 8009c9c:	20000c14 	.word	0x20000c14
 8009ca0:	20000c10 	.word	0x20000c10

08009ca4 <prvProcessReceivedCommands>:
 8009ca4:	b580      	push	{r7, lr}
 8009ca6:	b08e      	sub	sp, #56	; 0x38
 8009ca8:	af02      	add	r7, sp, #8
 8009caa:	e099      	b.n	8009de0 <prvProcessReceivedCommands+0x13c>
 8009cac:	687b      	ldr	r3, [r7, #4]
 8009cae:	2b00      	cmp	r3, #0
 8009cb0:	da17      	bge.n	8009ce2 <prvProcessReceivedCommands+0x3e>
 8009cb2:	1d3b      	adds	r3, r7, #4
 8009cb4:	3304      	adds	r3, #4
 8009cb6:	62fb      	str	r3, [r7, #44]	; 0x2c
 8009cb8:	6afb      	ldr	r3, [r7, #44]	; 0x2c
 8009cba:	2b00      	cmp	r3, #0
 8009cbc:	d109      	bne.n	8009cd2 <prvProcessReceivedCommands+0x2e>
 8009cbe:	f04f 0350 	mov.w	r3, #80	; 0x50
 8009cc2:	f383 8811 	msr	BASEPRI, r3
 8009cc6:	f3bf 8f6f 	isb	sy
 8009cca:	f3bf 8f4f 	dsb	sy
 8009cce:	61fb      	str	r3, [r7, #28]
 8009cd0:	e7fe      	b.n	8009cd0 <prvProcessReceivedCommands+0x2c>
 8009cd2:	6afb      	ldr	r3, [r7, #44]	; 0x2c
 8009cd4:	681b      	ldr	r3, [r3, #0]
 8009cd6:	6afa      	ldr	r2, [r7, #44]	; 0x2c
 8009cd8:	6850      	ldr	r0, [r2, #4]
 8009cda:	6afa      	ldr	r2, [r7, #44]	; 0x2c
 8009cdc:	6892      	ldr	r2, [r2, #8]
 8009cde:	4611      	mov	r1, r2
 8009ce0:	4798      	blx	r3
 8009ce2:	687b      	ldr	r3, [r7, #4]
 8009ce4:	2b00      	cmp	r3, #0
 8009ce6:	db7a      	blt.n	8009dde <prvProcessReceivedCommands+0x13a>
 8009ce8:	68fb      	ldr	r3, [r7, #12]
 8009cea:	62bb      	str	r3, [r7, #40]	; 0x28
 8009cec:	6abb      	ldr	r3, [r7, #40]	; 0x28
 8009cee:	695b      	ldr	r3, [r3, #20]
 8009cf0:	2b00      	cmp	r3, #0
 8009cf2:	d004      	beq.n	8009cfe <prvProcessReceivedCommands+0x5a>
 8009cf4:	6abb      	ldr	r3, [r7, #40]	; 0x28
 8009cf6:	3304      	adds	r3, #4
 8009cf8:	4618      	mov	r0, r3
 8009cfa:	f7fd ffbd 	bl	8007c78 <uxListRemove>
 8009cfe:	463b      	mov	r3, r7
 8009d00:	4618      	mov	r0, r3
 8009d02:	f7ff ff6d 	bl	8009be0 <prvSampleTimeNow>
 8009d06:	6278      	str	r0, [r7, #36]	; 0x24
 8009d08:	687b      	ldr	r3, [r7, #4]
 8009d0a:	2b09      	cmp	r3, #9
 8009d0c:	d868      	bhi.n	8009de0 <prvProcessReceivedCommands+0x13c>
 8009d0e:	a201      	add	r2, pc, #4	; (adr r2, 8009d14 <prvProcessReceivedCommands+0x70>)
 8009d10:	f852 f023 	ldr.w	pc, [r2, r3, lsl #2]
 8009d14:	08009d3d 	.word	0x08009d3d
 8009d18:	08009d3d 	.word	0x08009d3d
 8009d1c:	08009d3d 	.word	0x08009d3d
 8009d20:	08009de1 	.word	0x08009de1
 8009d24:	08009d97 	.word	0x08009d97
 8009d28:	08009dcd 	.word	0x08009dcd
 8009d2c:	08009d3d 	.word	0x08009d3d
 8009d30:	08009d3d 	.word	0x08009d3d
 8009d34:	08009de1 	.word	0x08009de1
 8009d38:	08009d97 	.word	0x08009d97
 8009d3c:	68ba      	ldr	r2, [r7, #8]
 8009d3e:	6abb      	ldr	r3, [r7, #40]	; 0x28
 8009d40:	699b      	ldr	r3, [r3, #24]
 8009d42:	18d1      	adds	r1, r2, r3
 8009d44:	68bb      	ldr	r3, [r7, #8]
 8009d46:	6a7a      	ldr	r2, [r7, #36]	; 0x24
 8009d48:	6ab8      	ldr	r0, [r7, #40]	; 0x28
 8009d4a:	f7ff ff69 	bl	8009c20 <prvInsertTimerInActiveList>
 8009d4e:	4603      	mov	r3, r0
 8009d50:	2b00      	cmp	r3, #0
 8009d52:	d045      	beq.n	8009de0 <prvProcessReceivedCommands+0x13c>
 8009d54:	6abb      	ldr	r3, [r7, #40]	; 0x28
 8009d56:	6a5b      	ldr	r3, [r3, #36]	; 0x24
 8009d58:	6ab8      	ldr	r0, [r7, #40]	; 0x28
 8009d5a:	4798      	blx	r3
 8009d5c:	6abb      	ldr	r3, [r7, #40]	; 0x28
 8009d5e:	69db      	ldr	r3, [r3, #28]
 8009d60:	2b01      	cmp	r3, #1
 8009d62:	d13d      	bne.n	8009de0 <prvProcessReceivedCommands+0x13c>
 8009d64:	68ba      	ldr	r2, [r7, #8]
 8009d66:	6abb      	ldr	r3, [r7, #40]	; 0x28
 8009d68:	699b      	ldr	r3, [r3, #24]
 8009d6a:	441a      	add	r2, r3
 8009d6c:	2300      	movs	r3, #0
 8009d6e:	9300      	str	r3, [sp, #0]
 8009d70:	2300      	movs	r3, #0
 8009d72:	2100      	movs	r1, #0
 8009d74:	6ab8      	ldr	r0, [r7, #40]	; 0x28
 8009d76:	f7ff fe21 	bl	80099bc <xTimerGenericCommand>
 8009d7a:	6238      	str	r0, [r7, #32]
 8009d7c:	6a3b      	ldr	r3, [r7, #32]
 8009d7e:	2b00      	cmp	r3, #0
 8009d80:	d12e      	bne.n	8009de0 <prvProcessReceivedCommands+0x13c>
 8009d82:	f04f 0350 	mov.w	r3, #80	; 0x50
 8009d86:	f383 8811 	msr	BASEPRI, r3
 8009d8a:	f3bf 8f6f 	isb	sy
 8009d8e:	f3bf 8f4f 	dsb	sy
 8009d92:	61bb      	str	r3, [r7, #24]
 8009d94:	e7fe      	b.n	8009d94 <prvProcessReceivedCommands+0xf0>
 8009d96:	68ba      	ldr	r2, [r7, #8]
 8009d98:	6abb      	ldr	r3, [r7, #40]	; 0x28
 8009d9a:	619a      	str	r2, [r3, #24]
 8009d9c:	6abb      	ldr	r3, [r7, #40]	; 0x28
 8009d9e:	699b      	ldr	r3, [r3, #24]
 8009da0:	2b00      	cmp	r3, #0
 8009da2:	d109      	bne.n	8009db8 <prvProcessReceivedCommands+0x114>
 8009da4:	f04f 0350 	mov.w	r3, #80	; 0x50
 8009da8:	f383 8811 	msr	BASEPRI, r3
 8009dac:	f3bf 8f6f 	isb	sy
 8009db0:	f3bf 8f4f 	dsb	sy
 8009db4:	617b      	str	r3, [r7, #20]
 8009db6:	e7fe      	b.n	8009db6 <prvProcessReceivedCommands+0x112>
 8009db8:	6abb      	ldr	r3, [r7, #40]	; 0x28
 8009dba:	699a      	ldr	r2, [r3, #24]
 8009dbc:	6a7b      	ldr	r3, [r7, #36]	; 0x24
 8009dbe:	18d1      	adds	r1, r2, r3
 8009dc0:	6a7b      	ldr	r3, [r7, #36]	; 0x24
 8009dc2:	6a7a      	ldr	r2, [r7, #36]	; 0x24
 8009dc4:	6ab8      	ldr	r0, [r7, #40]	; 0x28
 8009dc6:	f7ff ff2b 	bl	8009c20 <prvInsertTimerInActiveList>
 8009dca:	e009      	b.n	8009de0 <prvProcessReceivedCommands+0x13c>
 8009dcc:	6abb      	ldr	r3, [r7, #40]	; 0x28
 8009dce:	f893 302c 	ldrb.w	r3, [r3, #44]	; 0x2c
 8009dd2:	2b00      	cmp	r3, #0
 8009dd4:	d104      	bne.n	8009de0 <prvProcessReceivedCommands+0x13c>
 8009dd6:	6ab8      	ldr	r0, [r7, #40]	; 0x28
 8009dd8:	f000 fb7a 	bl	800a4d0 <vPortFree>
 8009ddc:	e000      	b.n	8009de0 <prvProcessReceivedCommands+0x13c>
 8009dde:	bf00      	nop
 8009de0:	4b07      	ldr	r3, [pc, #28]	; (8009e00 <prvProcessReceivedCommands+0x15c>)
 8009de2:	681b      	ldr	r3, [r3, #0]
 8009de4:	1d39      	adds	r1, r7, #4
 8009de6:	2200      	movs	r2, #0
 8009de8:	4618      	mov	r0, r3
 8009dea:	f7fe fa37 	bl	800825c <xQueueReceive>
 8009dee:	4603      	mov	r3, r0
 8009df0:	2b00      	cmp	r3, #0
 8009df2:	f47f af5b 	bne.w	8009cac <prvProcessReceivedCommands+0x8>
 8009df6:	bf00      	nop
 8009df8:	3730      	adds	r7, #48	; 0x30
 8009dfa:	46bd      	mov	sp, r7
 8009dfc:	bd80      	pop	{r7, pc}
 8009dfe:	bf00      	nop
 8009e00:	20000c18 	.word	0x20000c18

08009e04 <prvSwitchTimerLists>:
 8009e04:	b580      	push	{r7, lr}
 8009e06:	b088      	sub	sp, #32
 8009e08:	af02      	add	r7, sp, #8
 8009e0a:	e044      	b.n	8009e96 <prvSwitchTimerLists+0x92>
 8009e0c:	4b2b      	ldr	r3, [pc, #172]	; (8009ebc <prvSwitchTimerLists+0xb8>)
 8009e0e:	681b      	ldr	r3, [r3, #0]
 8009e10:	68db      	ldr	r3, [r3, #12]
 8009e12:	681b      	ldr	r3, [r3, #0]
 8009e14:	613b      	str	r3, [r7, #16]
 8009e16:	4b29      	ldr	r3, [pc, #164]	; (8009ebc <prvSwitchTimerLists+0xb8>)
 8009e18:	681b      	ldr	r3, [r3, #0]
 8009e1a:	68db      	ldr	r3, [r3, #12]
 8009e1c:	68db      	ldr	r3, [r3, #12]
 8009e1e:	60fb      	str	r3, [r7, #12]
 8009e20:	68fb      	ldr	r3, [r7, #12]
 8009e22:	3304      	adds	r3, #4
 8009e24:	4618      	mov	r0, r3
 8009e26:	f7fd ff27 	bl	8007c78 <uxListRemove>
 8009e2a:	68fb      	ldr	r3, [r7, #12]
 8009e2c:	6a5b      	ldr	r3, [r3, #36]	; 0x24
 8009e2e:	68f8      	ldr	r0, [r7, #12]
 8009e30:	4798      	blx	r3
 8009e32:	68fb      	ldr	r3, [r7, #12]
 8009e34:	69db      	ldr	r3, [r3, #28]
 8009e36:	2b01      	cmp	r3, #1
 8009e38:	d12d      	bne.n	8009e96 <prvSwitchTimerLists+0x92>
 8009e3a:	68fb      	ldr	r3, [r7, #12]
 8009e3c:	699b      	ldr	r3, [r3, #24]
 8009e3e:	693a      	ldr	r2, [r7, #16]
 8009e40:	4413      	add	r3, r2
 8009e42:	60bb      	str	r3, [r7, #8]
 8009e44:	68ba      	ldr	r2, [r7, #8]
 8009e46:	693b      	ldr	r3, [r7, #16]
 8009e48:	429a      	cmp	r2, r3
 8009e4a:	d90e      	bls.n	8009e6a <prvSwitchTimerLists+0x66>
 8009e4c:	68fb      	ldr	r3, [r7, #12]
 8009e4e:	68ba      	ldr	r2, [r7, #8]
 8009e50:	605a      	str	r2, [r3, #4]
 8009e52:	68fb      	ldr	r3, [r7, #12]
 8009e54:	68fa      	ldr	r2, [r7, #12]
 8009e56:	611a      	str	r2, [r3, #16]
 8009e58:	4b18      	ldr	r3, [pc, #96]	; (8009ebc <prvSwitchTimerLists+0xb8>)
 8009e5a:	681a      	ldr	r2, [r3, #0]
 8009e5c:	68fb      	ldr	r3, [r7, #12]
 8009e5e:	3304      	adds	r3, #4
 8009e60:	4619      	mov	r1, r3
 8009e62:	4610      	mov	r0, r2
 8009e64:	f7fd fed0 	bl	8007c08 <vListInsert>
 8009e68:	e015      	b.n	8009e96 <prvSwitchTimerLists+0x92>
 8009e6a:	2300      	movs	r3, #0
 8009e6c:	9300      	str	r3, [sp, #0]
 8009e6e:	2300      	movs	r3, #0
 8009e70:	693a      	ldr	r2, [r7, #16]
 8009e72:	2100      	movs	r1, #0
 8009e74:	68f8      	ldr	r0, [r7, #12]
 8009e76:	f7ff fda1 	bl	80099bc <xTimerGenericCommand>
 8009e7a:	6078      	str	r0, [r7, #4]
 8009e7c:	687b      	ldr	r3, [r7, #4]
 8009e7e:	2b00      	cmp	r3, #0
 8009e80:	d109      	bne.n	8009e96 <prvSwitchTimerLists+0x92>
 8009e82:	f04f 0350 	mov.w	r3, #80	; 0x50
 8009e86:	f383 8811 	msr	BASEPRI, r3
 8009e8a:	f3bf 8f6f 	isb	sy
 8009e8e:	f3bf 8f4f 	dsb	sy
 8009e92:	603b      	str	r3, [r7, #0]
 8009e94:	e7fe      	b.n	8009e94 <prvSwitchTimerLists+0x90>
 8009e96:	4b09      	ldr	r3, [pc, #36]	; (8009ebc <prvSwitchTimerLists+0xb8>)
 8009e98:	681b      	ldr	r3, [r3, #0]
 8009e9a:	681b      	ldr	r3, [r3, #0]
 8009e9c:	2b00      	cmp	r3, #0
 8009e9e:	d1b5      	bne.n	8009e0c <prvSwitchTimerLists+0x8>
 8009ea0:	4b06      	ldr	r3, [pc, #24]	; (8009ebc <prvSwitchTimerLists+0xb8>)
 8009ea2:	681b      	ldr	r3, [r3, #0]
 8009ea4:	617b      	str	r3, [r7, #20]
 8009ea6:	4b06      	ldr	r3, [pc, #24]	; (8009ec0 <prvSwitchTimerLists+0xbc>)
 8009ea8:	681b      	ldr	r3, [r3, #0]
 8009eaa:	4a04      	ldr	r2, [pc, #16]	; (8009ebc <prvSwitchTimerLists+0xb8>)
 8009eac:	6013      	str	r3, [r2, #0]
 8009eae:	4a04      	ldr	r2, [pc, #16]	; (8009ec0 <prvSwitchTimerLists+0xbc>)
 8009eb0:	697b      	ldr	r3, [r7, #20]
 8009eb2:	6013      	str	r3, [r2, #0]
 8009eb4:	bf00      	nop
 8009eb6:	3718      	adds	r7, #24
 8009eb8:	46bd      	mov	sp, r7
 8009eba:	bd80      	pop	{r7, pc}
 8009ebc:	20000c10 	.word	0x20000c10
 8009ec0:	20000c14 	.word	0x20000c14

08009ec4 <prvCheckForValidListAndQueue>:
 8009ec4:	b580      	push	{r7, lr}
 8009ec6:	b082      	sub	sp, #8
 8009ec8:	af02      	add	r7, sp, #8
 8009eca:	f000 f945 	bl	800a158 <vPortEnterCritical>
 8009ece:	4b15      	ldr	r3, [pc, #84]	; (8009f24 <prvCheckForValidListAndQueue+0x60>)
 8009ed0:	681b      	ldr	r3, [r3, #0]
 8009ed2:	2b00      	cmp	r3, #0
 8009ed4:	d120      	bne.n	8009f18 <prvCheckForValidListAndQueue+0x54>
 8009ed6:	4814      	ldr	r0, [pc, #80]	; (8009f28 <prvCheckForValidListAndQueue+0x64>)
 8009ed8:	f7fd fe48 	bl	8007b6c <vListInitialise>
 8009edc:	4813      	ldr	r0, [pc, #76]	; (8009f2c <prvCheckForValidListAndQueue+0x68>)
 8009ede:	f7fd fe45 	bl	8007b6c <vListInitialise>
 8009ee2:	4b13      	ldr	r3, [pc, #76]	; (8009f30 <prvCheckForValidListAndQueue+0x6c>)
 8009ee4:	4a10      	ldr	r2, [pc, #64]	; (8009f28 <prvCheckForValidListAndQueue+0x64>)
 8009ee6:	601a      	str	r2, [r3, #0]
 8009ee8:	4b12      	ldr	r3, [pc, #72]	; (8009f34 <prvCheckForValidListAndQueue+0x70>)
 8009eea:	4a10      	ldr	r2, [pc, #64]	; (8009f2c <prvCheckForValidListAndQueue+0x68>)
 8009eec:	601a      	str	r2, [r3, #0]
 8009eee:	2300      	movs	r3, #0
 8009ef0:	9300      	str	r3, [sp, #0]
 8009ef2:	4b11      	ldr	r3, [pc, #68]	; (8009f38 <prvCheckForValidListAndQueue+0x74>)
 8009ef4:	4a11      	ldr	r2, [pc, #68]	; (8009f3c <prvCheckForValidListAndQueue+0x78>)
 8009ef6:	2110      	movs	r1, #16
 8009ef8:	200a      	movs	r0, #10
 8009efa:	f7fd ff4f 	bl	8007d9c <xQueueGenericCreateStatic>
 8009efe:	4602      	mov	r2, r0
 8009f00:	4b08      	ldr	r3, [pc, #32]	; (8009f24 <prvCheckForValidListAndQueue+0x60>)
 8009f02:	601a      	str	r2, [r3, #0]
 8009f04:	4b07      	ldr	r3, [pc, #28]	; (8009f24 <prvCheckForValidListAndQueue+0x60>)
 8009f06:	681b      	ldr	r3, [r3, #0]
 8009f08:	2b00      	cmp	r3, #0
 8009f0a:	d005      	beq.n	8009f18 <prvCheckForValidListAndQueue+0x54>
 8009f0c:	4b05      	ldr	r3, [pc, #20]	; (8009f24 <prvCheckForValidListAndQueue+0x60>)
 8009f0e:	681b      	ldr	r3, [r3, #0]
 8009f10:	490b      	ldr	r1, [pc, #44]	; (8009f40 <prvCheckForValidListAndQueue+0x7c>)
 8009f12:	4618      	mov	r0, r3
 8009f14:	f7fe fb8e 	bl	8008634 <vQueueAddToRegistry>
 8009f18:	f000 f94c 	bl	800a1b4 <vPortExitCritical>
 8009f1c:	bf00      	nop
 8009f1e:	46bd      	mov	sp, r7
 8009f20:	bd80      	pop	{r7, pc}
 8009f22:	bf00      	nop
 8009f24:	20000c18 	.word	0x20000c18
 8009f28:	20000be8 	.word	0x20000be8
 8009f2c:	20000bfc 	.word	0x20000bfc
 8009f30:	20000c10 	.word	0x20000c10
 8009f34:	20000c14 	.word	0x20000c14
 8009f38:	20000cc4 	.word	0x20000cc4
 8009f3c:	20000c24 	.word	0x20000c24
 8009f40:	0800aa38 	.word	0x0800aa38

08009f44 <xTimerPendFunctionCallFromISR>:
 8009f44:	b580      	push	{r7, lr}
 8009f46:	b08a      	sub	sp, #40	; 0x28
 8009f48:	af00      	add	r7, sp, #0
 8009f4a:	60f8      	str	r0, [r7, #12]
 8009f4c:	60b9      	str	r1, [r7, #8]
 8009f4e:	607a      	str	r2, [r7, #4]
 8009f50:	603b      	str	r3, [r7, #0]
 8009f52:	f06f 0301 	mvn.w	r3, #1
 8009f56:	617b      	str	r3, [r7, #20]
 8009f58:	68fb      	ldr	r3, [r7, #12]
 8009f5a:	61bb      	str	r3, [r7, #24]
 8009f5c:	68bb      	ldr	r3, [r7, #8]
 8009f5e:	61fb      	str	r3, [r7, #28]
 8009f60:	687b      	ldr	r3, [r7, #4]
 8009f62:	623b      	str	r3, [r7, #32]
 8009f64:	4b06      	ldr	r3, [pc, #24]	; (8009f80 <xTimerPendFunctionCallFromISR+0x3c>)
 8009f66:	6818      	ldr	r0, [r3, #0]
 8009f68:	f107 0114 	add.w	r1, r7, #20
 8009f6c:	2300      	movs	r3, #0
 8009f6e:	683a      	ldr	r2, [r7, #0]
 8009f70:	f7fe f8e0 	bl	8008134 <xQueueGenericSendFromISR>
 8009f74:	6278      	str	r0, [r7, #36]	; 0x24
 8009f76:	6a7b      	ldr	r3, [r7, #36]	; 0x24
 8009f78:	4618      	mov	r0, r3
 8009f7a:	3728      	adds	r7, #40	; 0x28
 8009f7c:	46bd      	mov	sp, r7
 8009f7e:	bd80      	pop	{r7, pc}
 8009f80:	20000c18 	.word	0x20000c18

08009f84 <pxPortInitialiseStack>:
 8009f84:	b480      	push	{r7}
 8009f86:	b085      	sub	sp, #20
 8009f88:	af00      	add	r7, sp, #0
 8009f8a:	60f8      	str	r0, [r7, #12]
 8009f8c:	60b9      	str	r1, [r7, #8]
 8009f8e:	607a      	str	r2, [r7, #4]
 8009f90:	68fb      	ldr	r3, [r7, #12]
 8009f92:	3b04      	subs	r3, #4
 8009f94:	60fb      	str	r3, [r7, #12]
 8009f96:	68fb      	ldr	r3, [r7, #12]
 8009f98:	f04f 7280 	mov.w	r2, #16777216	; 0x1000000
 8009f9c:	601a      	str	r2, [r3, #0]
 8009f9e:	68fb      	ldr	r3, [r7, #12]
 8009fa0:	3b04      	subs	r3, #4
 8009fa2:	60fb      	str	r3, [r7, #12]
 8009fa4:	68bb      	ldr	r3, [r7, #8]
 8009fa6:	f023 0201 	bic.w	r2, r3, #1
 8009faa:	68fb      	ldr	r3, [r7, #12]
 8009fac:	601a      	str	r2, [r3, #0]
 8009fae:	68fb      	ldr	r3, [r7, #12]
 8009fb0:	3b04      	subs	r3, #4
 8009fb2:	60fb      	str	r3, [r7, #12]
 8009fb4:	4a08      	ldr	r2, [pc, #32]	; (8009fd8 <pxPortInitialiseStack+0x54>)
 8009fb6:	68fb      	ldr	r3, [r7, #12]
 8009fb8:	601a      	str	r2, [r3, #0]
 8009fba:	68fb      	ldr	r3, [r7, #12]
 8009fbc:	3b14      	subs	r3, #20
 8009fbe:	60fb      	str	r3, [r7, #12]
 8009fc0:	687a      	ldr	r2, [r7, #4]
 8009fc2:	68fb      	ldr	r3, [r7, #12]
 8009fc4:	601a      	str	r2, [r3, #0]
 8009fc6:	68fb      	ldr	r3, [r7, #12]
 8009fc8:	3b20      	subs	r3, #32
 8009fca:	60fb      	str	r3, [r7, #12]
 8009fcc:	68fb      	ldr	r3, [r7, #12]
 8009fce:	4618      	mov	r0, r3
 8009fd0:	3714      	adds	r7, #20
 8009fd2:	46bd      	mov	sp, r7
 8009fd4:	bc80      	pop	{r7}
 8009fd6:	4770      	bx	lr
 8009fd8:	08009fdd 	.word	0x08009fdd

08009fdc <prvTaskExitError>:
 8009fdc:	b480      	push	{r7}
 8009fde:	b085      	sub	sp, #20
 8009fe0:	af00      	add	r7, sp, #0
 8009fe2:	2300      	movs	r3, #0
 8009fe4:	607b      	str	r3, [r7, #4]
 8009fe6:	4b10      	ldr	r3, [pc, #64]	; (800a028 <prvTaskExitError+0x4c>)
 8009fe8:	681b      	ldr	r3, [r3, #0]
 8009fea:	f1b3 3fff 	cmp.w	r3, #4294967295
 8009fee:	d009      	beq.n	800a004 <prvTaskExitError+0x28>
 8009ff0:	f04f 0350 	mov.w	r3, #80	; 0x50
 8009ff4:	f383 8811 	msr	BASEPRI, r3
 8009ff8:	f3bf 8f6f 	isb	sy
 8009ffc:	f3bf 8f4f 	dsb	sy
 800a000:	60fb      	str	r3, [r7, #12]
 800a002:	e7fe      	b.n	800a002 <prvTaskExitError+0x26>
 800a004:	f04f 0350 	mov.w	r3, #80	; 0x50
 800a008:	f383 8811 	msr	BASEPRI, r3
 800a00c:	f3bf 8f6f 	isb	sy
 800a010:	f3bf 8f4f 	dsb	sy
 800a014:	60bb      	str	r3, [r7, #8]
 800a016:	bf00      	nop
 800a018:	687b      	ldr	r3, [r7, #4]
 800a01a:	2b00      	cmp	r3, #0
 800a01c:	d0fc      	beq.n	800a018 <prvTaskExitError+0x3c>
 800a01e:	bf00      	nop
 800a020:	3714      	adds	r7, #20
 800a022:	46bd      	mov	sp, r7
 800a024:	bc80      	pop	{r7}
 800a026:	4770      	bx	lr
 800a028:	2000000c 	.word	0x2000000c
 800a02c:	00000000 	.word	0x00000000

0800a030 <SVC_Handler>:
 800a030:	4b07      	ldr	r3, [pc, #28]	; (800a050 <pxCurrentTCBConst2>)
 800a032:	6819      	ldr	r1, [r3, #0]
 800a034:	6808      	ldr	r0, [r1, #0]
 800a036:	e8b0 0ff0 	ldmia.w	r0!, {r4, r5, r6, r7, r8, r9, sl, fp}
 800a03a:	f380 8809 	msr	PSP, r0
 800a03e:	f3bf 8f6f 	isb	sy
 800a042:	f04f 0000 	mov.w	r0, #0
 800a046:	f380 8811 	msr	BASEPRI, r0
 800a04a:	f04e 0e0d 	orr.w	lr, lr, #13
 800a04e:	4770      	bx	lr

0800a050 <pxCurrentTCBConst2>:
 800a050:	200006e8 	.word	0x200006e8
 800a054:	bf00      	nop
 800a056:	bf00      	nop

0800a058 <prvPortStartFirstTask>:
 800a058:	4806      	ldr	r0, [pc, #24]	; (800a074 <prvPortStartFirstTask+0x1c>)
 800a05a:	6800      	ldr	r0, [r0, #0]
 800a05c:	6800      	ldr	r0, [r0, #0]
 800a05e:	f380 8808 	msr	MSP, r0
 800a062:	b662      	cpsie	i
 800a064:	b661      	cpsie	f
 800a066:	f3bf 8f4f 	dsb	sy
 800a06a:	f3bf 8f6f 	isb	sy
 800a06e:	df00      	svc	0
 800a070:	bf00      	nop
 800a072:	bf00      	nop
 800a074:	e000ed08 	.word	0xe000ed08

0800a078 <xPortStartScheduler>:
 800a078:	b580      	push	{r7, lr}
 800a07a:	b084      	sub	sp, #16
 800a07c:	af00      	add	r7, sp, #0
 800a07e:	4b31      	ldr	r3, [pc, #196]	; (800a144 <xPortStartScheduler+0xcc>)
 800a080:	60fb      	str	r3, [r7, #12]
 800a082:	68fb      	ldr	r3, [r7, #12]
 800a084:	781b      	ldrb	r3, [r3, #0]
 800a086:	b2db      	uxtb	r3, r3
 800a088:	607b      	str	r3, [r7, #4]
 800a08a:	68fb      	ldr	r3, [r7, #12]
 800a08c:	22ff      	movs	r2, #255	; 0xff
 800a08e:	701a      	strb	r2, [r3, #0]
 800a090:	68fb      	ldr	r3, [r7, #12]
 800a092:	781b      	ldrb	r3, [r3, #0]
 800a094:	b2db      	uxtb	r3, r3
 800a096:	70fb      	strb	r3, [r7, #3]
 800a098:	78fb      	ldrb	r3, [r7, #3]
 800a09a:	b2db      	uxtb	r3, r3
 800a09c:	f003 0350 	and.w	r3, r3, #80	; 0x50
 800a0a0:	b2da      	uxtb	r2, r3
 800a0a2:	4b29      	ldr	r3, [pc, #164]	; (800a148 <xPortStartScheduler+0xd0>)
 800a0a4:	701a      	strb	r2, [r3, #0]
 800a0a6:	4b29      	ldr	r3, [pc, #164]	; (800a14c <xPortStartScheduler+0xd4>)
 800a0a8:	2207      	movs	r2, #7
 800a0aa:	601a      	str	r2, [r3, #0]
 800a0ac:	e009      	b.n	800a0c2 <xPortStartScheduler+0x4a>
 800a0ae:	4b27      	ldr	r3, [pc, #156]	; (800a14c <xPortStartScheduler+0xd4>)
 800a0b0:	681b      	ldr	r3, [r3, #0]
 800a0b2:	3b01      	subs	r3, #1
 800a0b4:	4a25      	ldr	r2, [pc, #148]	; (800a14c <xPortStartScheduler+0xd4>)
 800a0b6:	6013      	str	r3, [r2, #0]
 800a0b8:	78fb      	ldrb	r3, [r7, #3]
 800a0ba:	b2db      	uxtb	r3, r3
 800a0bc:	005b      	lsls	r3, r3, #1
 800a0be:	b2db      	uxtb	r3, r3
 800a0c0:	70fb      	strb	r3, [r7, #3]
 800a0c2:	78fb      	ldrb	r3, [r7, #3]
 800a0c4:	b2db      	uxtb	r3, r3
 800a0c6:	f003 0380 	and.w	r3, r3, #128	; 0x80
 800a0ca:	2b80      	cmp	r3, #128	; 0x80
 800a0cc:	d0ef      	beq.n	800a0ae <xPortStartScheduler+0x36>
 800a0ce:	4b1f      	ldr	r3, [pc, #124]	; (800a14c <xPortStartScheduler+0xd4>)
 800a0d0:	681b      	ldr	r3, [r3, #0]
 800a0d2:	f1c3 0307 	rsb	r3, r3, #7
 800a0d6:	2b04      	cmp	r3, #4
 800a0d8:	d009      	beq.n	800a0ee <xPortStartScheduler+0x76>
 800a0da:	f04f 0350 	mov.w	r3, #80	; 0x50
 800a0de:	f383 8811 	msr	BASEPRI, r3
 800a0e2:	f3bf 8f6f 	isb	sy
 800a0e6:	f3bf 8f4f 	dsb	sy
 800a0ea:	60bb      	str	r3, [r7, #8]
 800a0ec:	e7fe      	b.n	800a0ec <xPortStartScheduler+0x74>
 800a0ee:	4b17      	ldr	r3, [pc, #92]	; (800a14c <xPortStartScheduler+0xd4>)
 800a0f0:	681b      	ldr	r3, [r3, #0]
 800a0f2:	021b      	lsls	r3, r3, #8
 800a0f4:	4a15      	ldr	r2, [pc, #84]	; (800a14c <xPortStartScheduler+0xd4>)
 800a0f6:	6013      	str	r3, [r2, #0]
 800a0f8:	4b14      	ldr	r3, [pc, #80]	; (800a14c <xPortStartScheduler+0xd4>)
 800a0fa:	681b      	ldr	r3, [r3, #0]
 800a0fc:	f403 63e0 	and.w	r3, r3, #1792	; 0x700
 800a100:	4a12      	ldr	r2, [pc, #72]	; (800a14c <xPortStartScheduler+0xd4>)
 800a102:	6013      	str	r3, [r2, #0]
 800a104:	687b      	ldr	r3, [r7, #4]
 800a106:	b2da      	uxtb	r2, r3
 800a108:	68fb      	ldr	r3, [r7, #12]
 800a10a:	701a      	strb	r2, [r3, #0]
 800a10c:	4b10      	ldr	r3, [pc, #64]	; (800a150 <xPortStartScheduler+0xd8>)
 800a10e:	681b      	ldr	r3, [r3, #0]
 800a110:	4a0f      	ldr	r2, [pc, #60]	; (800a150 <xPortStartScheduler+0xd8>)
 800a112:	f443 0370 	orr.w	r3, r3, #15728640	; 0xf00000
 800a116:	6013      	str	r3, [r2, #0]
 800a118:	4b0d      	ldr	r3, [pc, #52]	; (800a150 <xPortStartScheduler+0xd8>)
 800a11a:	681b      	ldr	r3, [r3, #0]
 800a11c:	4a0c      	ldr	r2, [pc, #48]	; (800a150 <xPortStartScheduler+0xd8>)
 800a11e:	f043 4370 	orr.w	r3, r3, #4026531840	; 0xf0000000
 800a122:	6013      	str	r3, [r2, #0]
 800a124:	f000 f8b0 	bl	800a288 <vPortSetupTimerInterrupt>
 800a128:	4b0a      	ldr	r3, [pc, #40]	; (800a154 <xPortStartScheduler+0xdc>)
 800a12a:	2200      	movs	r2, #0
 800a12c:	601a      	str	r2, [r3, #0]
 800a12e:	f7ff ff93 	bl	800a058 <prvPortStartFirstTask>
 800a132:	f7fe ffa3 	bl	800907c <vTaskSwitchContext>
 800a136:	f7ff ff51 	bl	8009fdc <prvTaskExitError>
 800a13a:	2300      	movs	r3, #0
 800a13c:	4618      	mov	r0, r3
 800a13e:	3710      	adds	r7, #16
 800a140:	46bd      	mov	sp, r7
 800a142:	bd80      	pop	{r7, pc}
 800a144:	e000e400 	.word	0xe000e400
 800a148:	20000d14 	.word	0x20000d14
 800a14c:	20000d18 	.word	0x20000d18
 800a150:	e000ed20 	.word	0xe000ed20
 800a154:	2000000c 	.word	0x2000000c

0800a158 <vPortEnterCritical>:
 800a158:	b480      	push	{r7}
 800a15a:	b083      	sub	sp, #12
 800a15c:	af00      	add	r7, sp, #0
 800a15e:	f04f 0350 	mov.w	r3, #80	; 0x50
 800a162:	f383 8811 	msr	BASEPRI, r3
 800a166:	f3bf 8f6f 	isb	sy
 800a16a:	f3bf 8f4f 	dsb	sy
 800a16e:	607b      	str	r3, [r7, #4]
 800a170:	4b0e      	ldr	r3, [pc, #56]	; (800a1ac <vPortEnterCritical+0x54>)
 800a172:	681b      	ldr	r3, [r3, #0]
 800a174:	3301      	adds	r3, #1
 800a176:	4a0d      	ldr	r2, [pc, #52]	; (800a1ac <vPortEnterCritical+0x54>)
 800a178:	6013      	str	r3, [r2, #0]
 800a17a:	4b0c      	ldr	r3, [pc, #48]	; (800a1ac <vPortEnterCritical+0x54>)
 800a17c:	681b      	ldr	r3, [r3, #0]
 800a17e:	2b01      	cmp	r3, #1
 800a180:	d10e      	bne.n	800a1a0 <vPortEnterCritical+0x48>
 800a182:	4b0b      	ldr	r3, [pc, #44]	; (800a1b0 <vPortEnterCritical+0x58>)
 800a184:	681b      	ldr	r3, [r3, #0]
 800a186:	b2db      	uxtb	r3, r3
 800a188:	2b00      	cmp	r3, #0
 800a18a:	d009      	beq.n	800a1a0 <vPortEnterCritical+0x48>
 800a18c:	f04f 0350 	mov.w	r3, #80	; 0x50
 800a190:	f383 8811 	msr	BASEPRI, r3
 800a194:	f3bf 8f6f 	isb	sy
 800a198:	f3bf 8f4f 	dsb	sy
 800a19c:	603b      	str	r3, [r7, #0]
 800a19e:	e7fe      	b.n	800a19e <vPortEnterCritical+0x46>
 800a1a0:	bf00      	nop
 800a1a2:	370c      	adds	r7, #12
 800a1a4:	46bd      	mov	sp, r7
 800a1a6:	bc80      	pop	{r7}
 800a1a8:	4770      	bx	lr
 800a1aa:	bf00      	nop
 800a1ac:	2000000c 	.word	0x2000000c
 800a1b0:	e000ed04 	.word	0xe000ed04

0800a1b4 <vPortExitCritical>:
 800a1b4:	b480      	push	{r7}
 800a1b6:	b083      	sub	sp, #12
 800a1b8:	af00      	add	r7, sp, #0
 800a1ba:	4b10      	ldr	r3, [pc, #64]	; (800a1fc <vPortExitCritical+0x48>)
 800a1bc:	681b      	ldr	r3, [r3, #0]
 800a1be:	2b00      	cmp	r3, #0
 800a1c0:	d109      	bne.n	800a1d6 <vPortExitCritical+0x22>
 800a1c2:	f04f 0350 	mov.w	r3, #80	; 0x50
 800a1c6:	f383 8811 	msr	BASEPRI, r3
 800a1ca:	f3bf 8f6f 	isb	sy
 800a1ce:	f3bf 8f4f 	dsb	sy
 800a1d2:	607b      	str	r3, [r7, #4]
 800a1d4:	e7fe      	b.n	800a1d4 <vPortExitCritical+0x20>
 800a1d6:	4b09      	ldr	r3, [pc, #36]	; (800a1fc <vPortExitCritical+0x48>)
 800a1d8:	681b      	ldr	r3, [r3, #0]
 800a1da:	3b01      	subs	r3, #1
 800a1dc:	4a07      	ldr	r2, [pc, #28]	; (800a1fc <vPortExitCritical+0x48>)
 800a1de:	6013      	str	r3, [r2, #0]
 800a1e0:	4b06      	ldr	r3, [pc, #24]	; (800a1fc <vPortExitCritical+0x48>)
 800a1e2:	681b      	ldr	r3, [r3, #0]
 800a1e4:	2b00      	cmp	r3, #0
 800a1e6:	d104      	bne.n	800a1f2 <vPortExitCritical+0x3e>
 800a1e8:	2300      	movs	r3, #0
 800a1ea:	603b      	str	r3, [r7, #0]
 800a1ec:	683b      	ldr	r3, [r7, #0]
 800a1ee:	f383 8811 	msr	BASEPRI, r3
 800a1f2:	bf00      	nop
 800a1f4:	370c      	adds	r7, #12
 800a1f6:	46bd      	mov	sp, r7
 800a1f8:	bc80      	pop	{r7}
 800a1fa:	4770      	bx	lr
 800a1fc:	2000000c 	.word	0x2000000c

0800a200 <PendSV_Handler>:
 800a200:	f3ef 8009 	mrs	r0, PSP
 800a204:	f3bf 8f6f 	isb	sy
 800a208:	4b0d      	ldr	r3, [pc, #52]	; (800a240 <pxCurrentTCBConst>)
 800a20a:	681a      	ldr	r2, [r3, #0]
 800a20c:	e920 0ff0 	stmdb	r0!, {r4, r5, r6, r7, r8, r9, sl, fp}
 800a210:	6010      	str	r0, [r2, #0]
 800a212:	e92d 4008 	stmdb	sp!, {r3, lr}
 800a216:	f04f 0050 	mov.w	r0, #80	; 0x50
 800a21a:	f380 8811 	msr	BASEPRI, r0
 800a21e:	f7fe ff2d 	bl	800907c <vTaskSwitchContext>
 800a222:	f04f 0000 	mov.w	r0, #0
 800a226:	f380 8811 	msr	BASEPRI, r0
 800a22a:	e8bd 4008 	ldmia.w	sp!, {r3, lr}
 800a22e:	6819      	ldr	r1, [r3, #0]
 800a230:	6808      	ldr	r0, [r1, #0]
 800a232:	e8b0 0ff0 	ldmia.w	r0!, {r4, r5, r6, r7, r8, r9, sl, fp}
 800a236:	f380 8809 	msr	PSP, r0
 800a23a:	f3bf 8f6f 	isb	sy
 800a23e:	4770      	bx	lr

0800a240 <pxCurrentTCBConst>:
 800a240:	200006e8 	.word	0x200006e8
 800a244:	bf00      	nop
 800a246:	bf00      	nop

0800a248 <SysTick_Handler>:
 800a248:	b580      	push	{r7, lr}
 800a24a:	b082      	sub	sp, #8
 800a24c:	af00      	add	r7, sp, #0
 800a24e:	f04f 0350 	mov.w	r3, #80	; 0x50
 800a252:	f383 8811 	msr	BASEPRI, r3
 800a256:	f3bf 8f6f 	isb	sy
 800a25a:	f3bf 8f4f 	dsb	sy
 800a25e:	607b      	str	r3, [r7, #4]
 800a260:	f7fe fe46 	bl	8008ef0 <xTaskIncrementTick>
 800a264:	4603      	mov	r3, r0
 800a266:	2b00      	cmp	r3, #0
 800a268:	d003      	beq.n	800a272 <SysTick_Handler+0x2a>
 800a26a:	4b06      	ldr	r3, [pc, #24]	; (800a284 <SysTick_Handler+0x3c>)
 800a26c:	f04f 5280 	mov.w	r2, #268435456	; 0x10000000
 800a270:	601a      	str	r2, [r3, #0]
 800a272:	2300      	movs	r3, #0
 800a274:	603b      	str	r3, [r7, #0]
 800a276:	683b      	ldr	r3, [r7, #0]
 800a278:	f383 8811 	msr	BASEPRI, r3
 800a27c:	bf00      	nop
 800a27e:	3708      	adds	r7, #8
 800a280:	46bd      	mov	sp, r7
 800a282:	bd80      	pop	{r7, pc}
 800a284:	e000ed04 	.word	0xe000ed04

0800a288 <vPortSetupTimerInterrupt>:
 800a288:	b480      	push	{r7}
 800a28a:	af00      	add	r7, sp, #0
 800a28c:	4b0a      	ldr	r3, [pc, #40]	; (800a2b8 <vPortSetupTimerInterrupt+0x30>)
 800a28e:	2200      	movs	r2, #0
 800a290:	601a      	str	r2, [r3, #0]
 800a292:	4b0a      	ldr	r3, [pc, #40]	; (800a2bc <vPortSetupTimerInterrupt+0x34>)
 800a294:	2200      	movs	r2, #0
 800a296:	601a      	str	r2, [r3, #0]
 800a298:	4b09      	ldr	r3, [pc, #36]	; (800a2c0 <vPortSetupTimerInterrupt+0x38>)
 800a29a:	681b      	ldr	r3, [r3, #0]
 800a29c:	4a09      	ldr	r2, [pc, #36]	; (800a2c4 <vPortSetupTimerInterrupt+0x3c>)
 800a29e:	fba2 2303 	umull	r2, r3, r2, r3
 800a2a2:	099b      	lsrs	r3, r3, #6
 800a2a4:	4a08      	ldr	r2, [pc, #32]	; (800a2c8 <vPortSetupTimerInterrupt+0x40>)
 800a2a6:	3b01      	subs	r3, #1
 800a2a8:	6013      	str	r3, [r2, #0]
 800a2aa:	4b03      	ldr	r3, [pc, #12]	; (800a2b8 <vPortSetupTimerInterrupt+0x30>)
 800a2ac:	2207      	movs	r2, #7
 800a2ae:	601a      	str	r2, [r3, #0]
 800a2b0:	bf00      	nop
 800a2b2:	46bd      	mov	sp, r7
 800a2b4:	bc80      	pop	{r7}
 800a2b6:	4770      	bx	lr
 800a2b8:	e000e010 	.word	0xe000e010
 800a2bc:	e000e018 	.word	0xe000e018
 800a2c0:	20000000 	.word	0x20000000
 800a2c4:	10624dd3 	.word	0x10624dd3
 800a2c8:	e000e014 	.word	0xe000e014

0800a2cc <vPortValidateInterruptPriority>:
 800a2cc:	b480      	push	{r7}
 800a2ce:	b085      	sub	sp, #20
 800a2d0:	af00      	add	r7, sp, #0
 800a2d2:	f3ef 8305 	mrs	r3, IPSR
 800a2d6:	60fb      	str	r3, [r7, #12]
 800a2d8:	68fb      	ldr	r3, [r7, #12]
 800a2da:	2b0f      	cmp	r3, #15
 800a2dc:	d913      	bls.n	800a306 <vPortValidateInterruptPriority+0x3a>
 800a2de:	4a15      	ldr	r2, [pc, #84]	; (800a334 <vPortValidateInterruptPriority+0x68>)
 800a2e0:	68fb      	ldr	r3, [r7, #12]
 800a2e2:	4413      	add	r3, r2
 800a2e4:	781b      	ldrb	r3, [r3, #0]
 800a2e6:	72fb      	strb	r3, [r7, #11]
 800a2e8:	4b13      	ldr	r3, [pc, #76]	; (800a338 <vPortValidateInterruptPriority+0x6c>)
 800a2ea:	781b      	ldrb	r3, [r3, #0]
 800a2ec:	7afa      	ldrb	r2, [r7, #11]
 800a2ee:	429a      	cmp	r2, r3
 800a2f0:	d209      	bcs.n	800a306 <vPortValidateInterruptPriority+0x3a>
 800a2f2:	f04f 0350 	mov.w	r3, #80	; 0x50
 800a2f6:	f383 8811 	msr	BASEPRI, r3
 800a2fa:	f3bf 8f6f 	isb	sy
 800a2fe:	f3bf 8f4f 	dsb	sy
 800a302:	607b      	str	r3, [r7, #4]
 800a304:	e7fe      	b.n	800a304 <vPortValidateInterruptPriority+0x38>
 800a306:	4b0d      	ldr	r3, [pc, #52]	; (800a33c <vPortValidateInterruptPriority+0x70>)
 800a308:	681b      	ldr	r3, [r3, #0]
 800a30a:	f403 62e0 	and.w	r2, r3, #1792	; 0x700
 800a30e:	4b0c      	ldr	r3, [pc, #48]	; (800a340 <vPortValidateInterruptPriority+0x74>)
 800a310:	681b      	ldr	r3, [r3, #0]
 800a312:	429a      	cmp	r2, r3
 800a314:	d909      	bls.n	800a32a <vPortValidateInterruptPriority+0x5e>
 800a316:	f04f 0350 	mov.w	r3, #80	; 0x50
 800a31a:	f383 8811 	msr	BASEPRI, r3
 800a31e:	f3bf 8f6f 	isb	sy
 800a322:	f3bf 8f4f 	dsb	sy
 800a326:	603b      	str	r3, [r7, #0]
 800a328:	e7fe      	b.n	800a328 <vPortValidateInterruptPriority+0x5c>
 800a32a:	bf00      	nop
 800a32c:	3714      	adds	r7, #20
 800a32e:	46bd      	mov	sp, r7
 800a330:	bc80      	pop	{r7}
 800a332:	4770      	bx	lr
 800a334:	e000e3f0 	.word	0xe000e3f0
 800a338:	20000d14 	.word	0x20000d14
 800a33c:	e000ed0c 	.word	0xe000ed0c
 800a340:	20000d18 	.word	0x20000d18

0800a344 <pvPortMalloc>:
 800a344:	b580      	push	{r7, lr}
 800a346:	b08a      	sub	sp, #40	; 0x28
 800a348:	af00      	add	r7, sp, #0
 800a34a:	6078      	str	r0, [r7, #4]
 800a34c:	2300      	movs	r3, #0
 800a34e:	61fb      	str	r3, [r7, #28]
 800a350:	f7fe fd04 	bl	8008d5c <vTaskSuspendAll>
 800a354:	4b59      	ldr	r3, [pc, #356]	; (800a4bc <pvPortMalloc+0x178>)
 800a356:	681b      	ldr	r3, [r3, #0]
 800a358:	2b00      	cmp	r3, #0
 800a35a:	d101      	bne.n	800a360 <pvPortMalloc+0x1c>
 800a35c:	f000 f910 	bl	800a580 <prvHeapInit>
 800a360:	4b57      	ldr	r3, [pc, #348]	; (800a4c0 <pvPortMalloc+0x17c>)
 800a362:	681a      	ldr	r2, [r3, #0]
 800a364:	687b      	ldr	r3, [r7, #4]
 800a366:	4013      	ands	r3, r2
 800a368:	2b00      	cmp	r3, #0
 800a36a:	f040 808c 	bne.w	800a486 <pvPortMalloc+0x142>
 800a36e:	687b      	ldr	r3, [r7, #4]
 800a370:	2b00      	cmp	r3, #0
 800a372:	d01c      	beq.n	800a3ae <pvPortMalloc+0x6a>
 800a374:	2208      	movs	r2, #8
 800a376:	687b      	ldr	r3, [r7, #4]
 800a378:	4413      	add	r3, r2
 800a37a:	607b      	str	r3, [r7, #4]
 800a37c:	687b      	ldr	r3, [r7, #4]
 800a37e:	f003 0307 	and.w	r3, r3, #7
 800a382:	2b00      	cmp	r3, #0
 800a384:	d013      	beq.n	800a3ae <pvPortMalloc+0x6a>
 800a386:	687b      	ldr	r3, [r7, #4]
 800a388:	f023 0307 	bic.w	r3, r3, #7
 800a38c:	3308      	adds	r3, #8
 800a38e:	607b      	str	r3, [r7, #4]
 800a390:	687b      	ldr	r3, [r7, #4]
 800a392:	f003 0307 	and.w	r3, r3, #7
 800a396:	2b00      	cmp	r3, #0
 800a398:	d009      	beq.n	800a3ae <pvPortMalloc+0x6a>
 800a39a:	f04f 0350 	mov.w	r3, #80	; 0x50
 800a39e:	f383 8811 	msr	BASEPRI, r3
 800a3a2:	f3bf 8f6f 	isb	sy
 800a3a6:	f3bf 8f4f 	dsb	sy
 800a3aa:	617b      	str	r3, [r7, #20]
 800a3ac:	e7fe      	b.n	800a3ac <pvPortMalloc+0x68>
 800a3ae:	687b      	ldr	r3, [r7, #4]
 800a3b0:	2b00      	cmp	r3, #0
 800a3b2:	d068      	beq.n	800a486 <pvPortMalloc+0x142>
 800a3b4:	4b43      	ldr	r3, [pc, #268]	; (800a4c4 <pvPortMalloc+0x180>)
 800a3b6:	681b      	ldr	r3, [r3, #0]
 800a3b8:	687a      	ldr	r2, [r7, #4]
 800a3ba:	429a      	cmp	r2, r3
 800a3bc:	d863      	bhi.n	800a486 <pvPortMalloc+0x142>
 800a3be:	4b42      	ldr	r3, [pc, #264]	; (800a4c8 <pvPortMalloc+0x184>)
 800a3c0:	623b      	str	r3, [r7, #32]
 800a3c2:	4b41      	ldr	r3, [pc, #260]	; (800a4c8 <pvPortMalloc+0x184>)
 800a3c4:	681b      	ldr	r3, [r3, #0]
 800a3c6:	627b      	str	r3, [r7, #36]	; 0x24
 800a3c8:	e004      	b.n	800a3d4 <pvPortMalloc+0x90>
 800a3ca:	6a7b      	ldr	r3, [r7, #36]	; 0x24
 800a3cc:	623b      	str	r3, [r7, #32]
 800a3ce:	6a7b      	ldr	r3, [r7, #36]	; 0x24
 800a3d0:	681b      	ldr	r3, [r3, #0]
 800a3d2:	627b      	str	r3, [r7, #36]	; 0x24
 800a3d4:	6a7b      	ldr	r3, [r7, #36]	; 0x24
 800a3d6:	685b      	ldr	r3, [r3, #4]
 800a3d8:	687a      	ldr	r2, [r7, #4]
 800a3da:	429a      	cmp	r2, r3
 800a3dc:	d903      	bls.n	800a3e6 <pvPortMalloc+0xa2>
 800a3de:	6a7b      	ldr	r3, [r7, #36]	; 0x24
 800a3e0:	681b      	ldr	r3, [r3, #0]
 800a3e2:	2b00      	cmp	r3, #0
 800a3e4:	d1f1      	bne.n	800a3ca <pvPortMalloc+0x86>
 800a3e6:	4b35      	ldr	r3, [pc, #212]	; (800a4bc <pvPortMalloc+0x178>)
 800a3e8:	681b      	ldr	r3, [r3, #0]
 800a3ea:	6a7a      	ldr	r2, [r7, #36]	; 0x24
 800a3ec:	429a      	cmp	r2, r3
 800a3ee:	d04a      	beq.n	800a486 <pvPortMalloc+0x142>
 800a3f0:	6a3b      	ldr	r3, [r7, #32]
 800a3f2:	681b      	ldr	r3, [r3, #0]
 800a3f4:	2208      	movs	r2, #8
 800a3f6:	4413      	add	r3, r2
 800a3f8:	61fb      	str	r3, [r7, #28]
 800a3fa:	6a7b      	ldr	r3, [r7, #36]	; 0x24
 800a3fc:	681a      	ldr	r2, [r3, #0]
 800a3fe:	6a3b      	ldr	r3, [r7, #32]
 800a400:	601a      	str	r2, [r3, #0]
 800a402:	6a7b      	ldr	r3, [r7, #36]	; 0x24
 800a404:	685a      	ldr	r2, [r3, #4]
 800a406:	687b      	ldr	r3, [r7, #4]
 800a408:	1ad2      	subs	r2, r2, r3
 800a40a:	2308      	movs	r3, #8
 800a40c:	005b      	lsls	r3, r3, #1
 800a40e:	429a      	cmp	r2, r3
 800a410:	d91e      	bls.n	800a450 <pvPortMalloc+0x10c>
 800a412:	6a7a      	ldr	r2, [r7, #36]	; 0x24
 800a414:	687b      	ldr	r3, [r7, #4]
 800a416:	4413      	add	r3, r2
 800a418:	61bb      	str	r3, [r7, #24]
 800a41a:	69bb      	ldr	r3, [r7, #24]
 800a41c:	f003 0307 	and.w	r3, r3, #7
 800a420:	2b00      	cmp	r3, #0
 800a422:	d009      	beq.n	800a438 <pvPortMalloc+0xf4>
 800a424:	f04f 0350 	mov.w	r3, #80	; 0x50
 800a428:	f383 8811 	msr	BASEPRI, r3
 800a42c:	f3bf 8f6f 	isb	sy
 800a430:	f3bf 8f4f 	dsb	sy
 800a434:	613b      	str	r3, [r7, #16]
 800a436:	e7fe      	b.n	800a436 <pvPortMalloc+0xf2>
 800a438:	6a7b      	ldr	r3, [r7, #36]	; 0x24
 800a43a:	685a      	ldr	r2, [r3, #4]
 800a43c:	687b      	ldr	r3, [r7, #4]
 800a43e:	1ad2      	subs	r2, r2, r3
 800a440:	69bb      	ldr	r3, [r7, #24]
 800a442:	605a      	str	r2, [r3, #4]
 800a444:	6a7b      	ldr	r3, [r7, #36]	; 0x24
 800a446:	687a      	ldr	r2, [r7, #4]
 800a448:	605a      	str	r2, [r3, #4]
 800a44a:	69b8      	ldr	r0, [r7, #24]
 800a44c:	f000 f8fa 	bl	800a644 <prvInsertBlockIntoFreeList>
 800a450:	4b1c      	ldr	r3, [pc, #112]	; (800a4c4 <pvPortMalloc+0x180>)
 800a452:	681a      	ldr	r2, [r3, #0]
 800a454:	6a7b      	ldr	r3, [r7, #36]	; 0x24
 800a456:	685b      	ldr	r3, [r3, #4]
 800a458:	1ad3      	subs	r3, r2, r3
 800a45a:	4a1a      	ldr	r2, [pc, #104]	; (800a4c4 <pvPortMalloc+0x180>)
 800a45c:	6013      	str	r3, [r2, #0]
 800a45e:	4b19      	ldr	r3, [pc, #100]	; (800a4c4 <pvPortMalloc+0x180>)
 800a460:	681a      	ldr	r2, [r3, #0]
 800a462:	4b1a      	ldr	r3, [pc, #104]	; (800a4cc <pvPortMalloc+0x188>)
 800a464:	681b      	ldr	r3, [r3, #0]
 800a466:	429a      	cmp	r2, r3
 800a468:	d203      	bcs.n	800a472 <pvPortMalloc+0x12e>
 800a46a:	4b16      	ldr	r3, [pc, #88]	; (800a4c4 <pvPortMalloc+0x180>)
 800a46c:	681b      	ldr	r3, [r3, #0]
 800a46e:	4a17      	ldr	r2, [pc, #92]	; (800a4cc <pvPortMalloc+0x188>)
 800a470:	6013      	str	r3, [r2, #0]
 800a472:	6a7b      	ldr	r3, [r7, #36]	; 0x24
 800a474:	685a      	ldr	r2, [r3, #4]
 800a476:	4b12      	ldr	r3, [pc, #72]	; (800a4c0 <pvPortMalloc+0x17c>)
 800a478:	681b      	ldr	r3, [r3, #0]
 800a47a:	431a      	orrs	r2, r3
 800a47c:	6a7b      	ldr	r3, [r7, #36]	; 0x24
 800a47e:	605a      	str	r2, [r3, #4]
 800a480:	6a7b      	ldr	r3, [r7, #36]	; 0x24
 800a482:	2200      	movs	r2, #0
 800a484:	601a      	str	r2, [r3, #0]
 800a486:	f7fe fc77 	bl	8008d78 <xTaskResumeAll>
 800a48a:	69fb      	ldr	r3, [r7, #28]
 800a48c:	2b00      	cmp	r3, #0
 800a48e:	d101      	bne.n	800a494 <pvPortMalloc+0x150>
 800a490:	f7f6 fd34 	bl	8000efc <vApplicationMallocFailedHook>
 800a494:	69fb      	ldr	r3, [r7, #28]
 800a496:	f003 0307 	and.w	r3, r3, #7
 800a49a:	2b00      	cmp	r3, #0
 800a49c:	d009      	beq.n	800a4b2 <pvPortMalloc+0x16e>
 800a49e:	f04f 0350 	mov.w	r3, #80	; 0x50
 800a4a2:	f383 8811 	msr	BASEPRI, r3
 800a4a6:	f3bf 8f6f 	isb	sy
 800a4aa:	f3bf 8f4f 	dsb	sy
 800a4ae:	60fb      	str	r3, [r7, #12]
 800a4b0:	e7fe      	b.n	800a4b0 <pvPortMalloc+0x16c>
 800a4b2:	69fb      	ldr	r3, [r7, #28]
 800a4b4:	4618      	mov	r0, r3
 800a4b6:	3728      	adds	r7, #40	; 0x28
 800a4b8:	46bd      	mov	sp, r7
 800a4ba:	bd80      	pop	{r7, pc}
 800a4bc:	20003524 	.word	0x20003524
 800a4c0:	20003530 	.word	0x20003530
 800a4c4:	20003528 	.word	0x20003528
 800a4c8:	2000351c 	.word	0x2000351c
 800a4cc:	2000352c 	.word	0x2000352c

0800a4d0 <vPortFree>:
 800a4d0:	b580      	push	{r7, lr}
 800a4d2:	b086      	sub	sp, #24
 800a4d4:	af00      	add	r7, sp, #0
 800a4d6:	6078      	str	r0, [r7, #4]
 800a4d8:	687b      	ldr	r3, [r7, #4]
 800a4da:	617b      	str	r3, [r7, #20]
 800a4dc:	687b      	ldr	r3, [r7, #4]
 800a4de:	2b00      	cmp	r3, #0
 800a4e0:	d046      	beq.n	800a570 <vPortFree+0xa0>
 800a4e2:	2308      	movs	r3, #8
 800a4e4:	425b      	negs	r3, r3
 800a4e6:	697a      	ldr	r2, [r7, #20]
 800a4e8:	4413      	add	r3, r2
 800a4ea:	617b      	str	r3, [r7, #20]
 800a4ec:	697b      	ldr	r3, [r7, #20]
 800a4ee:	613b      	str	r3, [r7, #16]
 800a4f0:	693b      	ldr	r3, [r7, #16]
 800a4f2:	685a      	ldr	r2, [r3, #4]
 800a4f4:	4b20      	ldr	r3, [pc, #128]	; (800a578 <vPortFree+0xa8>)
 800a4f6:	681b      	ldr	r3, [r3, #0]
 800a4f8:	4013      	ands	r3, r2
 800a4fa:	2b00      	cmp	r3, #0
 800a4fc:	d109      	bne.n	800a512 <vPortFree+0x42>
 800a4fe:	f04f 0350 	mov.w	r3, #80	; 0x50
 800a502:	f383 8811 	msr	BASEPRI, r3
 800a506:	f3bf 8f6f 	isb	sy
 800a50a:	f3bf 8f4f 	dsb	sy
 800a50e:	60fb      	str	r3, [r7, #12]
 800a510:	e7fe      	b.n	800a510 <vPortFree+0x40>
 800a512:	693b      	ldr	r3, [r7, #16]
 800a514:	681b      	ldr	r3, [r3, #0]
 800a516:	2b00      	cmp	r3, #0
 800a518:	d009      	beq.n	800a52e <vPortFree+0x5e>
 800a51a:	f04f 0350 	mov.w	r3, #80	; 0x50
 800a51e:	f383 8811 	msr	BASEPRI, r3
 800a522:	f3bf 8f6f 	isb	sy
 800a526:	f3bf 8f4f 	dsb	sy
 800a52a:	60bb      	str	r3, [r7, #8]
 800a52c:	e7fe      	b.n	800a52c <vPortFree+0x5c>
 800a52e:	693b      	ldr	r3, [r7, #16]
 800a530:	685a      	ldr	r2, [r3, #4]
 800a532:	4b11      	ldr	r3, [pc, #68]	; (800a578 <vPortFree+0xa8>)
 800a534:	681b      	ldr	r3, [r3, #0]
 800a536:	4013      	ands	r3, r2
 800a538:	2b00      	cmp	r3, #0
 800a53a:	d019      	beq.n	800a570 <vPortFree+0xa0>
 800a53c:	693b      	ldr	r3, [r7, #16]
 800a53e:	681b      	ldr	r3, [r3, #0]
 800a540:	2b00      	cmp	r3, #0
 800a542:	d115      	bne.n	800a570 <vPortFree+0xa0>
 800a544:	693b      	ldr	r3, [r7, #16]
 800a546:	685a      	ldr	r2, [r3, #4]
 800a548:	4b0b      	ldr	r3, [pc, #44]	; (800a578 <vPortFree+0xa8>)
 800a54a:	681b      	ldr	r3, [r3, #0]
 800a54c:	43db      	mvns	r3, r3
 800a54e:	401a      	ands	r2, r3
 800a550:	693b      	ldr	r3, [r7, #16]
 800a552:	605a      	str	r2, [r3, #4]
 800a554:	f7fe fc02 	bl	8008d5c <vTaskSuspendAll>
 800a558:	693b      	ldr	r3, [r7, #16]
 800a55a:	685a      	ldr	r2, [r3, #4]
 800a55c:	4b07      	ldr	r3, [pc, #28]	; (800a57c <vPortFree+0xac>)
 800a55e:	681b      	ldr	r3, [r3, #0]
 800a560:	4413      	add	r3, r2
 800a562:	4a06      	ldr	r2, [pc, #24]	; (800a57c <vPortFree+0xac>)
 800a564:	6013      	str	r3, [r2, #0]
 800a566:	6938      	ldr	r0, [r7, #16]
 800a568:	f000 f86c 	bl	800a644 <prvInsertBlockIntoFreeList>
 800a56c:	f7fe fc04 	bl	8008d78 <xTaskResumeAll>
 800a570:	bf00      	nop
 800a572:	3718      	adds	r7, #24
 800a574:	46bd      	mov	sp, r7
 800a576:	bd80      	pop	{r7, pc}
 800a578:	20003530 	.word	0x20003530
 800a57c:	20003528 	.word	0x20003528

0800a580 <prvHeapInit>:
 800a580:	b480      	push	{r7}
 800a582:	b085      	sub	sp, #20
 800a584:	af00      	add	r7, sp, #0
 800a586:	f44f 5320 	mov.w	r3, #10240	; 0x2800
 800a58a:	60bb      	str	r3, [r7, #8]
 800a58c:	4b27      	ldr	r3, [pc, #156]	; (800a62c <prvHeapInit+0xac>)
 800a58e:	60fb      	str	r3, [r7, #12]
 800a590:	68fb      	ldr	r3, [r7, #12]
 800a592:	f003 0307 	and.w	r3, r3, #7
 800a596:	2b00      	cmp	r3, #0
 800a598:	d00c      	beq.n	800a5b4 <prvHeapInit+0x34>
 800a59a:	68fb      	ldr	r3, [r7, #12]
 800a59c:	3307      	adds	r3, #7
 800a59e:	60fb      	str	r3, [r7, #12]
 800a5a0:	68fb      	ldr	r3, [r7, #12]
 800a5a2:	f023 0307 	bic.w	r3, r3, #7
 800a5a6:	60fb      	str	r3, [r7, #12]
 800a5a8:	68ba      	ldr	r2, [r7, #8]
 800a5aa:	68fb      	ldr	r3, [r7, #12]
 800a5ac:	1ad3      	subs	r3, r2, r3
 800a5ae:	4a1f      	ldr	r2, [pc, #124]	; (800a62c <prvHeapInit+0xac>)
 800a5b0:	4413      	add	r3, r2
 800a5b2:	60bb      	str	r3, [r7, #8]
 800a5b4:	68fb      	ldr	r3, [r7, #12]
 800a5b6:	607b      	str	r3, [r7, #4]
 800a5b8:	4a1d      	ldr	r2, [pc, #116]	; (800a630 <prvHeapInit+0xb0>)
 800a5ba:	687b      	ldr	r3, [r7, #4]
 800a5bc:	6013      	str	r3, [r2, #0]
 800a5be:	4b1c      	ldr	r3, [pc, #112]	; (800a630 <prvHeapInit+0xb0>)
 800a5c0:	2200      	movs	r2, #0
 800a5c2:	605a      	str	r2, [r3, #4]
 800a5c4:	687b      	ldr	r3, [r7, #4]
 800a5c6:	68ba      	ldr	r2, [r7, #8]
 800a5c8:	4413      	add	r3, r2
 800a5ca:	60fb      	str	r3, [r7, #12]
 800a5cc:	2208      	movs	r2, #8
 800a5ce:	68fb      	ldr	r3, [r7, #12]
 800a5d0:	1a9b      	subs	r3, r3, r2
 800a5d2:	60fb      	str	r3, [r7, #12]
 800a5d4:	68fb      	ldr	r3, [r7, #12]
 800a5d6:	f023 0307 	bic.w	r3, r3, #7
 800a5da:	60fb      	str	r3, [r7, #12]
 800a5dc:	68fb      	ldr	r3, [r7, #12]
 800a5de:	4a15      	ldr	r2, [pc, #84]	; (800a634 <prvHeapInit+0xb4>)
 800a5e0:	6013      	str	r3, [r2, #0]
 800a5e2:	4b14      	ldr	r3, [pc, #80]	; (800a634 <prvHeapInit+0xb4>)
 800a5e4:	681b      	ldr	r3, [r3, #0]
 800a5e6:	2200      	movs	r2, #0
 800a5e8:	605a      	str	r2, [r3, #4]
 800a5ea:	4b12      	ldr	r3, [pc, #72]	; (800a634 <prvHeapInit+0xb4>)
 800a5ec:	681b      	ldr	r3, [r3, #0]
 800a5ee:	2200      	movs	r2, #0
 800a5f0:	601a      	str	r2, [r3, #0]
 800a5f2:	687b      	ldr	r3, [r7, #4]
 800a5f4:	603b      	str	r3, [r7, #0]
 800a5f6:	683b      	ldr	r3, [r7, #0]
 800a5f8:	68fa      	ldr	r2, [r7, #12]
 800a5fa:	1ad2      	subs	r2, r2, r3
 800a5fc:	683b      	ldr	r3, [r7, #0]
 800a5fe:	605a      	str	r2, [r3, #4]
 800a600:	4b0c      	ldr	r3, [pc, #48]	; (800a634 <prvHeapInit+0xb4>)
 800a602:	681a      	ldr	r2, [r3, #0]
 800a604:	683b      	ldr	r3, [r7, #0]
 800a606:	601a      	str	r2, [r3, #0]
 800a608:	683b      	ldr	r3, [r7, #0]
 800a60a:	685b      	ldr	r3, [r3, #4]
 800a60c:	4a0a      	ldr	r2, [pc, #40]	; (800a638 <prvHeapInit+0xb8>)
 800a60e:	6013      	str	r3, [r2, #0]
 800a610:	683b      	ldr	r3, [r7, #0]
 800a612:	685b      	ldr	r3, [r3, #4]
 800a614:	4a09      	ldr	r2, [pc, #36]	; (800a63c <prvHeapInit+0xbc>)
 800a616:	6013      	str	r3, [r2, #0]
 800a618:	4b09      	ldr	r3, [pc, #36]	; (800a640 <prvHeapInit+0xc0>)
 800a61a:	f04f 4200 	mov.w	r2, #2147483648	; 0x80000000
 800a61e:	601a      	str	r2, [r3, #0]
 800a620:	bf00      	nop
 800a622:	3714      	adds	r7, #20
 800a624:	46bd      	mov	sp, r7
 800a626:	bc80      	pop	{r7}
 800a628:	4770      	bx	lr
 800a62a:	bf00      	nop
 800a62c:	20000d1c 	.word	0x20000d1c
 800a630:	2000351c 	.word	0x2000351c
 800a634:	20003524 	.word	0x20003524
 800a638:	2000352c 	.word	0x2000352c
 800a63c:	20003528 	.word	0x20003528
 800a640:	20003530 	.word	0x20003530

0800a644 <prvInsertBlockIntoFreeList>:
 800a644:	b480      	push	{r7}
 800a646:	b085      	sub	sp, #20
 800a648:	af00      	add	r7, sp, #0
 800a64a:	6078      	str	r0, [r7, #4]
 800a64c:	4b27      	ldr	r3, [pc, #156]	; (800a6ec <prvInsertBlockIntoFreeList+0xa8>)
 800a64e:	60fb      	str	r3, [r7, #12]
 800a650:	e002      	b.n	800a658 <prvInsertBlockIntoFreeList+0x14>
 800a652:	68fb      	ldr	r3, [r7, #12]
 800a654:	681b      	ldr	r3, [r3, #0]
 800a656:	60fb      	str	r3, [r7, #12]
 800a658:	68fb      	ldr	r3, [r7, #12]
 800a65a:	681b      	ldr	r3, [r3, #0]
 800a65c:	687a      	ldr	r2, [r7, #4]
 800a65e:	429a      	cmp	r2, r3
 800a660:	d8f7      	bhi.n	800a652 <prvInsertBlockIntoFreeList+0xe>
 800a662:	68fb      	ldr	r3, [r7, #12]
 800a664:	60bb      	str	r3, [r7, #8]
 800a666:	68fb      	ldr	r3, [r7, #12]
 800a668:	685b      	ldr	r3, [r3, #4]
 800a66a:	68ba      	ldr	r2, [r7, #8]
 800a66c:	4413      	add	r3, r2
 800a66e:	687a      	ldr	r2, [r7, #4]
 800a670:	429a      	cmp	r2, r3
 800a672:	d108      	bne.n	800a686 <prvInsertBlockIntoFreeList+0x42>
 800a674:	68fb      	ldr	r3, [r7, #12]
 800a676:	685a      	ldr	r2, [r3, #4]
 800a678:	687b      	ldr	r3, [r7, #4]
 800a67a:	685b      	ldr	r3, [r3, #4]
 800a67c:	441a      	add	r2, r3
 800a67e:	68fb      	ldr	r3, [r7, #12]
 800a680:	605a      	str	r2, [r3, #4]
 800a682:	68fb      	ldr	r3, [r7, #12]
 800a684:	607b      	str	r3, [r7, #4]
 800a686:	687b      	ldr	r3, [r7, #4]
 800a688:	60bb      	str	r3, [r7, #8]
 800a68a:	687b      	ldr	r3, [r7, #4]
 800a68c:	685b      	ldr	r3, [r3, #4]
 800a68e:	68ba      	ldr	r2, [r7, #8]
 800a690:	441a      	add	r2, r3
 800a692:	68fb      	ldr	r3, [r7, #12]
 800a694:	681b      	ldr	r3, [r3, #0]
 800a696:	429a      	cmp	r2, r3
 800a698:	d118      	bne.n	800a6cc <prvInsertBlockIntoFreeList+0x88>
 800a69a:	68fb      	ldr	r3, [r7, #12]
 800a69c:	681a      	ldr	r2, [r3, #0]
 800a69e:	4b14      	ldr	r3, [pc, #80]	; (800a6f0 <prvInsertBlockIntoFreeList+0xac>)
 800a6a0:	681b      	ldr	r3, [r3, #0]
 800a6a2:	429a      	cmp	r2, r3
 800a6a4:	d00d      	beq.n	800a6c2 <prvInsertBlockIntoFreeList+0x7e>
 800a6a6:	687b      	ldr	r3, [r7, #4]
 800a6a8:	685a      	ldr	r2, [r3, #4]
 800a6aa:	68fb      	ldr	r3, [r7, #12]
 800a6ac:	681b      	ldr	r3, [r3, #0]
 800a6ae:	685b      	ldr	r3, [r3, #4]
 800a6b0:	441a      	add	r2, r3
 800a6b2:	687b      	ldr	r3, [r7, #4]
 800a6b4:	605a      	str	r2, [r3, #4]
 800a6b6:	68fb      	ldr	r3, [r7, #12]
 800a6b8:	681b      	ldr	r3, [r3, #0]
 800a6ba:	681a      	ldr	r2, [r3, #0]
 800a6bc:	687b      	ldr	r3, [r7, #4]
 800a6be:	601a      	str	r2, [r3, #0]
 800a6c0:	e008      	b.n	800a6d4 <prvInsertBlockIntoFreeList+0x90>
 800a6c2:	4b0b      	ldr	r3, [pc, #44]	; (800a6f0 <prvInsertBlockIntoFreeList+0xac>)
 800a6c4:	681a      	ldr	r2, [r3, #0]
 800a6c6:	687b      	ldr	r3, [r7, #4]
 800a6c8:	601a      	str	r2, [r3, #0]
 800a6ca:	e003      	b.n	800a6d4 <prvInsertBlockIntoFreeList+0x90>
 800a6cc:	68fb      	ldr	r3, [r7, #12]
 800a6ce:	681a      	ldr	r2, [r3, #0]
 800a6d0:	687b      	ldr	r3, [r7, #4]
 800a6d2:	601a      	str	r2, [r3, #0]
 800a6d4:	68fa      	ldr	r2, [r7, #12]
 800a6d6:	687b      	ldr	r3, [r7, #4]
 800a6d8:	429a      	cmp	r2, r3
 800a6da:	d002      	beq.n	800a6e2 <prvInsertBlockIntoFreeList+0x9e>
 800a6dc:	68fb      	ldr	r3, [r7, #12]
 800a6de:	687a      	ldr	r2, [r7, #4]
 800a6e0:	601a      	str	r2, [r3, #0]
 800a6e2:	bf00      	nop
 800a6e4:	3714      	adds	r7, #20
 800a6e6:	46bd      	mov	sp, r7
 800a6e8:	bc80      	pop	{r7}
 800a6ea:	4770      	bx	lr
 800a6ec:	2000351c 	.word	0x2000351c
 800a6f0:	20003524 	.word	0x20003524

0800a6f4 <__libc_init_array>:
 800a6f4:	b570      	push	{r4, r5, r6, lr}
 800a6f6:	2500      	movs	r5, #0
 800a6f8:	4e0c      	ldr	r6, [pc, #48]	; (800a72c <__libc_init_array+0x38>)
 800a6fa:	4c0d      	ldr	r4, [pc, #52]	; (800a730 <__libc_init_array+0x3c>)
 800a6fc:	1ba4      	subs	r4, r4, r6
 800a6fe:	10a4      	asrs	r4, r4, #2
 800a700:	42a5      	cmp	r5, r4
 800a702:	d109      	bne.n	800a718 <__libc_init_array+0x24>
 800a704:	f000 f82e 	bl	800a764 <_init>
 800a708:	2500      	movs	r5, #0
 800a70a:	4e0a      	ldr	r6, [pc, #40]	; (800a734 <__libc_init_array+0x40>)
 800a70c:	4c0a      	ldr	r4, [pc, #40]	; (800a738 <__libc_init_array+0x44>)
 800a70e:	1ba4      	subs	r4, r4, r6
 800a710:	10a4      	asrs	r4, r4, #2
 800a712:	42a5      	cmp	r5, r4
 800a714:	d105      	bne.n	800a722 <__libc_init_array+0x2e>
 800a716:	bd70      	pop	{r4, r5, r6, pc}
 800a718:	f856 3025 	ldr.w	r3, [r6, r5, lsl #2]
 800a71c:	4798      	blx	r3
 800a71e:	3501      	adds	r5, #1
 800a720:	e7ee      	b.n	800a700 <__libc_init_array+0xc>
 800a722:	f856 3025 	ldr.w	r3, [r6, r5, lsl #2]
 800a726:	4798      	blx	r3
 800a728:	3501      	adds	r5, #1
 800a72a:	e7f2      	b.n	800a712 <__libc_init_array+0x1e>
 800a72c:	0800ab3c 	.word	0x0800ab3c
 800a730:	0800ab3c 	.word	0x0800ab3c
 800a734:	0800ab3c 	.word	0x0800ab3c
 800a738:	0800ab40 	.word	0x0800ab40

0800a73c <memcpy>:
 800a73c:	b510      	push	{r4, lr}
 800a73e:	1e43      	subs	r3, r0, #1
 800a740:	440a      	add	r2, r1
 800a742:	4291      	cmp	r1, r2
 800a744:	d100      	bne.n	800a748 <memcpy+0xc>
 800a746:	bd10      	pop	{r4, pc}
 800a748:	f811 4b01 	ldrb.w	r4, [r1], #1
 800a74c:	f803 4f01 	strb.w	r4, [r3, #1]!
 800a750:	e7f7      	b.n	800a742 <memcpy+0x6>

0800a752 <memset>:
 800a752:	4603      	mov	r3, r0
 800a754:	4402      	add	r2, r0
 800a756:	4293      	cmp	r3, r2
 800a758:	d100      	bne.n	800a75c <memset+0xa>
 800a75a:	4770      	bx	lr
 800a75c:	f803 1b01 	strb.w	r1, [r3], #1
 800a760:	e7f9      	b.n	800a756 <memset+0x4>
	...

0800a764 <_init>:
 800a764:	b5f8      	push	{r3, r4, r5, r6, r7, lr}
 800a766:	bf00      	nop
 800a768:	bcf8      	pop	{r3, r4, r5, r6, r7}
 800a76a:	bc08      	pop	{r3}
 800a76c:	469e      	mov	lr, r3
 800a76e:	4770      	bx	lr

0800a770 <_fini>:
 800a770:	b5f8      	push	{r3, r4, r5, r6, r7, lr}
 800a772:	bf00      	nop
 800a774:	bcf8      	pop	{r3, r4, r5, r6, r7}
 800a776:	bc08      	pop	{r3}
 800a778:	469e      	mov	lr, r3
 800a77a:	4770      	bx	lr
